
Drivers2_EXTI.axf:     file format elf32-littlearm


Disassembly of section .isr_vector:

08000000 <g_pfnVectors>:
 8000000:	20002800 	andcs	r2, r0, r0, lsl #16
 8000004:	08000239 	stmdaeq	r0, {r0, r3, r4, r5, r9}
 8000008:	08000289 	stmdaeq	r0, {r0, r3, r7, r9}
 800000c:	08000289 	stmdaeq	r0, {r0, r3, r7, r9}
 8000010:	08000289 	stmdaeq	r0, {r0, r3, r7, r9}
 8000014:	08000289 	stmdaeq	r0, {r0, r3, r7, r9}
 8000018:	08000289 	stmdaeq	r0, {r0, r3, r7, r9}
	...
 800002c:	08000289 	stmdaeq	r0, {r0, r3, r7, r9}
 8000030:	08000289 	stmdaeq	r0, {r0, r3, r7, r9}
 8000034:	00000000 	andeq	r0, r0, r0
 8000038:	08000289 	stmdaeq	r0, {r0, r3, r7, r9}
 800003c:	08000289 	stmdaeq	r0, {r0, r3, r7, r9}
 8000040:	08000289 	stmdaeq	r0, {r0, r3, r7, r9}
 8000044:	08000289 	stmdaeq	r0, {r0, r3, r7, r9}
 8000048:	08000289 	stmdaeq	r0, {r0, r3, r7, r9}
 800004c:	08000289 	stmdaeq	r0, {r0, r3, r7, r9}
 8000050:	08000289 	stmdaeq	r0, {r0, r3, r7, r9}
 8000054:	08000289 	stmdaeq	r0, {r0, r3, r7, r9}
 8000058:	08000615 	stmdaeq	r0, {r0, r2, r4, r9, sl}
 800005c:	08000639 	stmdaeq	r0, {r0, r3, r4, r5, r9, sl}
 8000060:	0800065d 	stmdaeq	r0, {r0, r2, r3, r4, r6, r9, sl}
 8000064:	08000681 	stmdaeq	r0, {r0, r7, r9, sl}
 8000068:	080006a5 	stmdaeq	r0, {r0, r2, r5, r7, r9, sl}
 800006c:	08000289 	stmdaeq	r0, {r0, r3, r7, r9}
 8000070:	08000289 	stmdaeq	r0, {r0, r3, r7, r9}
 8000074:	08000289 	stmdaeq	r0, {r0, r3, r7, r9}
 8000078:	08000289 	stmdaeq	r0, {r0, r3, r7, r9}
 800007c:	08000289 	stmdaeq	r0, {r0, r3, r7, r9}
 8000080:	08000289 	stmdaeq	r0, {r0, r3, r7, r9}
 8000084:	08000289 	stmdaeq	r0, {r0, r3, r7, r9}
 8000088:	08000289 	stmdaeq	r0, {r0, r3, r7, r9}
 800008c:	08000289 	stmdaeq	r0, {r0, r3, r7, r9}
 8000090:	08000289 	stmdaeq	r0, {r0, r3, r7, r9}
 8000094:	08000289 	stmdaeq	r0, {r0, r3, r7, r9}
 8000098:	08000289 	stmdaeq	r0, {r0, r3, r7, r9}
 800009c:	080006c9 	stmdaeq	r0, {r0, r3, r6, r7, r9, sl}
 80000a0:	08000289 	stmdaeq	r0, {r0, r3, r7, r9}
 80000a4:	08000289 	stmdaeq	r0, {r0, r3, r7, r9}
 80000a8:	08000289 	stmdaeq	r0, {r0, r3, r7, r9}
 80000ac:	08000289 	stmdaeq	r0, {r0, r3, r7, r9}
 80000b0:	08000289 	stmdaeq	r0, {r0, r3, r7, r9}
 80000b4:	08000289 	stmdaeq	r0, {r0, r3, r7, r9}
 80000b8:	08000289 	stmdaeq	r0, {r0, r3, r7, r9}
 80000bc:	08000289 	stmdaeq	r0, {r0, r3, r7, r9}
 80000c0:	08000289 	stmdaeq	r0, {r0, r3, r7, r9}
 80000c4:	08000289 	stmdaeq	r0, {r0, r3, r7, r9}
 80000c8:	08000289 	stmdaeq	r0, {r0, r3, r7, r9}
 80000cc:	08000289 	stmdaeq	r0, {r0, r3, r7, r9}
 80000d0:	08000289 	stmdaeq	r0, {r0, r3, r7, r9}
 80000d4:	08000289 	stmdaeq	r0, {r0, r3, r7, r9}
 80000d8:	08000289 	stmdaeq	r0, {r0, r3, r7, r9}
 80000dc:	08000289 	stmdaeq	r0, {r0, r3, r7, r9}
 80000e0:	08000771 	stmdaeq	r0, {r0, r4, r5, r6, r8, r9, sl}
 80000e4:	08000289 	stmdaeq	r0, {r0, r3, r7, r9}
 80000e8:	00000000 	andeq	r0, r0, r0
 80000ec:	08000289 	stmdaeq	r0, {r0, r3, r7, r9}
 80000f0:	08000289 	stmdaeq	r0, {r0, r3, r7, r9}
 80000f4:	08000289 	stmdaeq	r0, {r0, r3, r7, r9}
 80000f8:	08000289 	stmdaeq	r0, {r0, r3, r7, r9}
 80000fc:	08000289 	stmdaeq	r0, {r0, r3, r7, r9}
 8000100:	08000289 	stmdaeq	r0, {r0, r3, r7, r9}
 8000104:	08000289 	stmdaeq	r0, {r0, r3, r7, r9}
 8000108:	08000289 	stmdaeq	r0, {r0, r3, r7, r9}
 800010c:	08000289 	stmdaeq	r0, {r0, r3, r7, r9}
 8000110:	08000289 	stmdaeq	r0, {r0, r3, r7, r9}
 8000114:	08000289 	stmdaeq	r0, {r0, r3, r7, r9}
 8000118:	08000289 	stmdaeq	r0, {r0, r3, r7, r9}
 800011c:	08000289 	stmdaeq	r0, {r0, r3, r7, r9}
 8000120:	08000289 	stmdaeq	r0, {r0, r3, r7, r9}
 8000124:	08000289 	stmdaeq	r0, {r0, r3, r7, r9}
 8000128:	08000289 	stmdaeq	r0, {r0, r3, r7, r9}
 800012c:	08000289 	stmdaeq	r0, {r0, r3, r7, r9}

Disassembly of section .text:

08000130 <__do_global_dtors_aux>:
 8000130:	b510      	push	{r4, lr}
 8000132:	4c05      	ldr	r4, [pc, #20]	; (8000148 <__do_global_dtors_aux+0x18>)
 8000134:	7823      	ldrb	r3, [r4, #0]
 8000136:	b933      	cbnz	r3, 8000146 <__do_global_dtors_aux+0x16>
 8000138:	4b04      	ldr	r3, [pc, #16]	; (800014c <__do_global_dtors_aux+0x1c>)
 800013a:	b113      	cbz	r3, 8000142 <__do_global_dtors_aux+0x12>
 800013c:	4804      	ldr	r0, [pc, #16]	; (8000150 <__do_global_dtors_aux+0x20>)
 800013e:	f3af 8000 	nop.w
 8000142:	2301      	movs	r3, #1
 8000144:	7023      	strb	r3, [r4, #0]
 8000146:	bd10      	pop	{r4, pc}
 8000148:	20000000 	andcs	r0, r0, r0
 800014c:	00000000 	andeq	r0, r0, r0
 8000150:	08000a40 	stmdaeq	r0, {r6, r9, fp}

08000154 <frame_dummy>:
 8000154:	b508      	push	{r3, lr}
 8000156:	4b03      	ldr	r3, [pc, #12]	; (8000164 <frame_dummy+0x10>)
 8000158:	b11b      	cbz	r3, 8000162 <frame_dummy+0xe>
 800015a:	4903      	ldr	r1, [pc, #12]	; (8000168 <frame_dummy+0x14>)
 800015c:	4803      	ldr	r0, [pc, #12]	; (800016c <frame_dummy+0x18>)
 800015e:	f3af 8000 	nop.w
 8000162:	bd08      	pop	{r3, pc}
 8000164:	00000000 	andeq	r0, r0, r0
 8000168:	20000004 	andcs	r0, r0, r4
 800016c:	08000a40 	stmdaeq	r0, {r6, r9, fp}

08000170 <Switch_CPU_AccessLevel>:
 8000170:	b480      	push	{r7}
 8000172:	b083      	sub	sp, #12
 8000174:	af00      	add	r7, sp, #0
 8000176:	4603      	mov	r3, r0
 8000178:	71fb      	strb	r3, [r7, #7]
 800017a:	79fb      	ldrb	r3, [r7, #7]
 800017c:	2b00      	cmp	r3, #0
 800017e:	d002      	beq.n	8000186 <Switch_CPU_AccessLevel+0x16>
 8000180:	2b01      	cmp	r3, #1
 8000182:	d009      	beq.n	8000198 <Switch_CPU_AccessLevel+0x28>
 8000184:	e00f      	b.n	80001a6 <Switch_CPU_AccessLevel+0x36>
 8000186:	f3ef 8314 	mrs	r3, CONTROL
 800018a:	ea4f 0353 	mov.w	r3, r3, lsr #1
 800018e:	ea4f 0343 	mov.w	r3, r3, lsl #1
 8000192:	f383 8814 	msr	CONTROL, r3
 8000196:	e006      	b.n	80001a6 <Switch_CPU_AccessLevel+0x36>
 8000198:	f3ef 8314 	mrs	r3, CONTROL
 800019c:	f043 0301 	orr.w	r3, r3, #1
 80001a0:	f383 8814 	msr	CONTROL, r3
 80001a4:	bf00      	nop
 80001a6:	bf00      	nop
 80001a8:	370c      	adds	r7, #12
 80001aa:	46bd      	mov	sp, r7
 80001ac:	bc80      	pop	{r7}
 80001ae:	4770      	bx	lr

080001b0 <EXTI9_CallBack>:
 80001b0:	b580      	push	{r7, lr}
 80001b2:	af00      	add	r7, sp, #0
 80001b4:	4b03      	ldr	r3, [pc, #12]	; (80001c4 <EXTI9_CallBack+0x14>)
 80001b6:	2201      	movs	r2, #1
 80001b8:	801a      	strh	r2, [r3, #0]
 80001ba:	2000      	movs	r0, #0
 80001bc:	f7ff ffd8 	bl	8000170 <Switch_CPU_AccessLevel>
 80001c0:	bf00      	nop
 80001c2:	bd80      	pop	{r7, pc}
 80001c4:	2000001c 	andcs	r0, r0, ip, lsl r0

080001c8 <main>:
 80001c8:	b580      	push	{r7, lr}
 80001ca:	b086      	sub	sp, #24
 80001cc:	af00      	add	r7, sp, #0
 80001ce:	4b16      	ldr	r3, [pc, #88]	; (8000228 <main+0x60>)
 80001d0:	699b      	ldr	r3, [r3, #24]
 80001d2:	4a15      	ldr	r2, [pc, #84]	; (8000228 <main+0x60>)
 80001d4:	f043 0308 	orr.w	r3, r3, #8
 80001d8:	6193      	str	r3, [r2, #24]
 80001da:	4b13      	ldr	r3, [pc, #76]	; (8000228 <main+0x60>)
 80001dc:	699b      	ldr	r3, [r3, #24]
 80001de:	4a12      	ldr	r2, [pc, #72]	; (8000228 <main+0x60>)
 80001e0:	f043 0301 	orr.w	r3, r3, #1
 80001e4:	6193      	str	r3, [r2, #24]
 80001e6:	4a11      	ldr	r2, [pc, #68]	; (800022c <main+0x64>)
 80001e8:	1d3b      	adds	r3, r7, #4
 80001ea:	ca07      	ldmia	r2, {r0, r1, r2}
 80001ec:	e883 0007 	stmia.w	r3, {r0, r1, r2}
 80001f0:	2300      	movs	r3, #0
 80001f2:	743b      	strb	r3, [r7, #16]
 80001f4:	4b0e      	ldr	r3, [pc, #56]	; (8000230 <main+0x68>)
 80001f6:	617b      	str	r3, [r7, #20]
 80001f8:	2301      	movs	r3, #1
 80001fa:	747b      	strb	r3, [r7, #17]
 80001fc:	1d3b      	adds	r3, r7, #4
 80001fe:	4618      	mov	r0, r3
 8000200:	f000 f9fc 	bl	80005fc <MCAL_EXTI_GPIO_Init>
 8000204:	4b0b      	ldr	r3, [pc, #44]	; (8000234 <main+0x6c>)
 8000206:	2201      	movs	r2, #1
 8000208:	801a      	strh	r2, [r3, #0]
 800020a:	2001      	movs	r0, #1
 800020c:	f7ff ffb0 	bl	8000170 <Switch_CPU_AccessLevel>
 8000210:	2000      	movs	r0, #0
 8000212:	f7ff ffad 	bl	8000170 <Switch_CPU_AccessLevel>
 8000216:	4b07      	ldr	r3, [pc, #28]	; (8000234 <main+0x6c>)
 8000218:	881b      	ldrh	r3, [r3, #0]
 800021a:	2b00      	cmp	r3, #0
 800021c:	d0fb      	beq.n	8000216 <main+0x4e>
 800021e:	4b05      	ldr	r3, [pc, #20]	; (8000234 <main+0x6c>)
 8000220:	2200      	movs	r2, #0
 8000222:	801a      	strh	r2, [r3, #0]
 8000224:	e7f7      	b.n	8000216 <main+0x4e>
 8000226:	bf00      	nop
 8000228:	40021000 	andmi	r1, r2, r0
 800022c:	08000a58 	stmdaeq	r0, {r3, r4, r6, r9, fp}
 8000230:	080001b1 	stmdaeq	r0, {r0, r4, r5, r7, r8}
 8000234:	2000001c 	andcs	r0, r0, ip, lsl r0

08000238 <Reset_Handler>:
 8000238:	480d      	ldr	r0, [pc, #52]	; (8000270 <LoopForever+0x2>)
 800023a:	4685      	mov	sp, r0
 800023c:	f3af 8000 	nop.w
 8000240:	480c      	ldr	r0, [pc, #48]	; (8000274 <LoopForever+0x6>)
 8000242:	490d      	ldr	r1, [pc, #52]	; (8000278 <LoopForever+0xa>)
 8000244:	4a0d      	ldr	r2, [pc, #52]	; (800027c <LoopForever+0xe>)
 8000246:	2300      	movs	r3, #0
 8000248:	e002      	b.n	8000250 <LoopCopyDataInit>

0800024a <CopyDataInit>:
 800024a:	58d4      	ldr	r4, [r2, r3]
 800024c:	50c4      	str	r4, [r0, r3]
 800024e:	3304      	adds	r3, #4

08000250 <LoopCopyDataInit>:
 8000250:	18c4      	adds	r4, r0, r3
 8000252:	428c      	cmp	r4, r1
 8000254:	d3f9      	bcc.n	800024a <CopyDataInit>
 8000256:	4a0a      	ldr	r2, [pc, #40]	; (8000280 <LoopForever+0x12>)
 8000258:	4c0a      	ldr	r4, [pc, #40]	; (8000284 <LoopForever+0x16>)
 800025a:	2300      	movs	r3, #0
 800025c:	e001      	b.n	8000262 <LoopFillZerobss>

0800025e <FillZerobss>:
 800025e:	6013      	str	r3, [r2, #0]
 8000260:	3204      	adds	r2, #4

08000262 <LoopFillZerobss>:
 8000262:	42a2      	cmp	r2, r4
 8000264:	d3fb      	bcc.n	800025e <FillZerobss>
 8000266:	f000 fbc7 	bl	80009f8 <__libc_init_array>
 800026a:	f7ff ffad 	bl	80001c8 <main>

0800026e <LoopForever>:
 800026e:	e7fe      	b.n	800026e <LoopForever>
 8000270:	20002800 	andcs	r2, r0, r0, lsl #16
 8000274:	20000000 	andcs	r0, r0, r0
 8000278:	20000000 	andcs	r0, r0, r0
 800027c:	08000a6c 	stmdaeq	r0, {r2, r3, r5, r6, r9, fp}
 8000280:	20000000 	andcs	r0, r0, r0
 8000284:	2000005c 	andcs	r0, r0, ip, asr r0

08000288 <ADC1_2_IRQHandler>:
 8000288:	e7fe      	b.n	8000288 <ADC1_2_IRQHandler>
	...

0800028c <Enable_NVIC>:
 800028c:	b480      	push	{r7}
 800028e:	b083      	sub	sp, #12
 8000290:	af00      	add	r7, sp, #0
 8000292:	4603      	mov	r3, r0
 8000294:	80fb      	strh	r3, [r7, #6]
 8000296:	88fb      	ldrh	r3, [r7, #6]
 8000298:	2b0f      	cmp	r3, #15
 800029a:	d854      	bhi.n	8000346 <Enable_NVIC+0xba>
 800029c:	a201      	add	r2, pc, #4	; (adr r2, 80002a4 <Enable_NVIC+0x18>)
 800029e:	f852 f023 	ldr.w	pc, [r2, r3, lsl #2]
 80002a2:	bf00      	nop
 80002a4:	080002e5 	stmdaeq	r0, {r0, r2, r5, r6, r7, r9}
 80002a8:	080002f3 	stmdaeq	r0, {r0, r1, r4, r5, r6, r7, r9}
 80002ac:	08000301 	stmdaeq	r0, {r0, r8, r9}
 80002b0:	0800030f 	stmdaeq	r0, {r0, r1, r2, r3, r8, r9}
 80002b4:	0800031d 	stmdaeq	r0, {r0, r2, r3, r4, r8, r9}
 80002b8:	0800032b 	stmdaeq	r0, {r0, r1, r3, r5, r8, r9}
 80002bc:	0800032b 	stmdaeq	r0, {r0, r1, r3, r5, r8, r9}
 80002c0:	0800032b 	stmdaeq	r0, {r0, r1, r3, r5, r8, r9}
 80002c4:	0800032b 	stmdaeq	r0, {r0, r1, r3, r5, r8, r9}
 80002c8:	0800032b 	stmdaeq	r0, {r0, r1, r3, r5, r8, r9}
 80002cc:	08000339 	stmdaeq	r0, {r0, r3, r4, r5, r8, r9}
 80002d0:	08000339 	stmdaeq	r0, {r0, r3, r4, r5, r8, r9}
 80002d4:	08000339 	stmdaeq	r0, {r0, r3, r4, r5, r8, r9}
 80002d8:	08000339 	stmdaeq	r0, {r0, r3, r4, r5, r8, r9}
 80002dc:	08000339 	stmdaeq	r0, {r0, r3, r4, r5, r8, r9}
 80002e0:	08000339 	stmdaeq	r0, {r0, r3, r4, r5, r8, r9}
 80002e4:	4b1a      	ldr	r3, [pc, #104]	; (8000350 <Enable_NVIC+0xc4>)
 80002e6:	681b      	ldr	r3, [r3, #0]
 80002e8:	4a19      	ldr	r2, [pc, #100]	; (8000350 <Enable_NVIC+0xc4>)
 80002ea:	f043 0340 	orr.w	r3, r3, #64	; 0x40
 80002ee:	6013      	str	r3, [r2, #0]
 80002f0:	e029      	b.n	8000346 <Enable_NVIC+0xba>
 80002f2:	4b17      	ldr	r3, [pc, #92]	; (8000350 <Enable_NVIC+0xc4>)
 80002f4:	681b      	ldr	r3, [r3, #0]
 80002f6:	4a16      	ldr	r2, [pc, #88]	; (8000350 <Enable_NVIC+0xc4>)
 80002f8:	f043 0380 	orr.w	r3, r3, #128	; 0x80
 80002fc:	6013      	str	r3, [r2, #0]
 80002fe:	e022      	b.n	8000346 <Enable_NVIC+0xba>
 8000300:	4b13      	ldr	r3, [pc, #76]	; (8000350 <Enable_NVIC+0xc4>)
 8000302:	681b      	ldr	r3, [r3, #0]
 8000304:	4a12      	ldr	r2, [pc, #72]	; (8000350 <Enable_NVIC+0xc4>)
 8000306:	f443 7380 	orr.w	r3, r3, #256	; 0x100
 800030a:	6013      	str	r3, [r2, #0]
 800030c:	e01b      	b.n	8000346 <Enable_NVIC+0xba>
 800030e:	4b10      	ldr	r3, [pc, #64]	; (8000350 <Enable_NVIC+0xc4>)
 8000310:	681b      	ldr	r3, [r3, #0]
 8000312:	4a0f      	ldr	r2, [pc, #60]	; (8000350 <Enable_NVIC+0xc4>)
 8000314:	f443 7300 	orr.w	r3, r3, #512	; 0x200
 8000318:	6013      	str	r3, [r2, #0]
 800031a:	e014      	b.n	8000346 <Enable_NVIC+0xba>
 800031c:	4b0c      	ldr	r3, [pc, #48]	; (8000350 <Enable_NVIC+0xc4>)
 800031e:	681b      	ldr	r3, [r3, #0]
 8000320:	4a0b      	ldr	r2, [pc, #44]	; (8000350 <Enable_NVIC+0xc4>)
 8000322:	f443 6380 	orr.w	r3, r3, #1024	; 0x400
 8000326:	6013      	str	r3, [r2, #0]
 8000328:	e00d      	b.n	8000346 <Enable_NVIC+0xba>
 800032a:	4b09      	ldr	r3, [pc, #36]	; (8000350 <Enable_NVIC+0xc4>)
 800032c:	681b      	ldr	r3, [r3, #0]
 800032e:	4a08      	ldr	r2, [pc, #32]	; (8000350 <Enable_NVIC+0xc4>)
 8000330:	f443 0300 	orr.w	r3, r3, #8388608	; 0x800000
 8000334:	6013      	str	r3, [r2, #0]
 8000336:	e006      	b.n	8000346 <Enable_NVIC+0xba>
 8000338:	4b06      	ldr	r3, [pc, #24]	; (8000354 <Enable_NVIC+0xc8>)
 800033a:	681b      	ldr	r3, [r3, #0]
 800033c:	4a05      	ldr	r2, [pc, #20]	; (8000354 <Enable_NVIC+0xc8>)
 800033e:	f443 7380 	orr.w	r3, r3, #256	; 0x100
 8000342:	6013      	str	r3, [r2, #0]
 8000344:	bf00      	nop
 8000346:	bf00      	nop
 8000348:	370c      	adds	r7, #12
 800034a:	46bd      	mov	sp, r7
 800034c:	bc80      	pop	{r7}
 800034e:	4770      	bx	lr
 8000350:	e000e100 	and	lr, r0, r0, lsl #2
 8000354:	e000e104 	and	lr, r0, r4, lsl #2

08000358 <Disable_NVIC>:
 8000358:	b480      	push	{r7}
 800035a:	b083      	sub	sp, #12
 800035c:	af00      	add	r7, sp, #0
 800035e:	4603      	mov	r3, r0
 8000360:	80fb      	strh	r3, [r7, #6]
 8000362:	88fb      	ldrh	r3, [r7, #6]
 8000364:	2b0f      	cmp	r3, #15
 8000366:	d854      	bhi.n	8000412 <Disable_NVIC+0xba>
 8000368:	a201      	add	r2, pc, #4	; (adr r2, 8000370 <Disable_NVIC+0x18>)
 800036a:	f852 f023 	ldr.w	pc, [r2, r3, lsl #2]
 800036e:	bf00      	nop
 8000370:	080003b1 	stmdaeq	r0, {r0, r4, r5, r7, r8, r9}
 8000374:	080003bf 	stmdaeq	r0, {r0, r1, r2, r3, r4, r5, r7, r8, r9}
 8000378:	080003cd 	stmdaeq	r0, {r0, r2, r3, r6, r7, r8, r9}
 800037c:	080003db 	stmdaeq	r0, {r0, r1, r3, r4, r6, r7, r8, r9}
 8000380:	080003e9 	stmdaeq	r0, {r0, r3, r5, r6, r7, r8, r9}
 8000384:	080003f7 	stmdaeq	r0, {r0, r1, r2, r4, r5, r6, r7, r8, r9}
 8000388:	080003f7 	stmdaeq	r0, {r0, r1, r2, r4, r5, r6, r7, r8, r9}
 800038c:	080003f7 	stmdaeq	r0, {r0, r1, r2, r4, r5, r6, r7, r8, r9}
 8000390:	080003f7 	stmdaeq	r0, {r0, r1, r2, r4, r5, r6, r7, r8, r9}
 8000394:	080003f7 	stmdaeq	r0, {r0, r1, r2, r4, r5, r6, r7, r8, r9}
 8000398:	08000405 	stmdaeq	r0, {r0, r2, sl}
 800039c:	08000405 	stmdaeq	r0, {r0, r2, sl}
 80003a0:	08000405 	stmdaeq	r0, {r0, r2, sl}
 80003a4:	08000405 	stmdaeq	r0, {r0, r2, sl}
 80003a8:	08000405 	stmdaeq	r0, {r0, r2, sl}
 80003ac:	08000405 	stmdaeq	r0, {r0, r2, sl}
 80003b0:	4b1a      	ldr	r3, [pc, #104]	; (800041c <Disable_NVIC+0xc4>)
 80003b2:	681b      	ldr	r3, [r3, #0]
 80003b4:	4a19      	ldr	r2, [pc, #100]	; (800041c <Disable_NVIC+0xc4>)
 80003b6:	f043 0340 	orr.w	r3, r3, #64	; 0x40
 80003ba:	6013      	str	r3, [r2, #0]
 80003bc:	e029      	b.n	8000412 <Disable_NVIC+0xba>
 80003be:	4b17      	ldr	r3, [pc, #92]	; (800041c <Disable_NVIC+0xc4>)
 80003c0:	681b      	ldr	r3, [r3, #0]
 80003c2:	4a16      	ldr	r2, [pc, #88]	; (800041c <Disable_NVIC+0xc4>)
 80003c4:	f043 0380 	orr.w	r3, r3, #128	; 0x80
 80003c8:	6013      	str	r3, [r2, #0]
 80003ca:	e022      	b.n	8000412 <Disable_NVIC+0xba>
 80003cc:	4b13      	ldr	r3, [pc, #76]	; (800041c <Disable_NVIC+0xc4>)
 80003ce:	681b      	ldr	r3, [r3, #0]
 80003d0:	4a12      	ldr	r2, [pc, #72]	; (800041c <Disable_NVIC+0xc4>)
 80003d2:	f443 7380 	orr.w	r3, r3, #256	; 0x100
 80003d6:	6013      	str	r3, [r2, #0]
 80003d8:	e01b      	b.n	8000412 <Disable_NVIC+0xba>
 80003da:	4b10      	ldr	r3, [pc, #64]	; (800041c <Disable_NVIC+0xc4>)
 80003dc:	681b      	ldr	r3, [r3, #0]
 80003de:	4a0f      	ldr	r2, [pc, #60]	; (800041c <Disable_NVIC+0xc4>)
 80003e0:	f443 7300 	orr.w	r3, r3, #512	; 0x200
 80003e4:	6013      	str	r3, [r2, #0]
 80003e6:	e014      	b.n	8000412 <Disable_NVIC+0xba>
 80003e8:	4b0c      	ldr	r3, [pc, #48]	; (800041c <Disable_NVIC+0xc4>)
 80003ea:	681b      	ldr	r3, [r3, #0]
 80003ec:	4a0b      	ldr	r2, [pc, #44]	; (800041c <Disable_NVIC+0xc4>)
 80003ee:	f443 6380 	orr.w	r3, r3, #1024	; 0x400
 80003f2:	6013      	str	r3, [r2, #0]
 80003f4:	e00d      	b.n	8000412 <Disable_NVIC+0xba>
 80003f6:	4b09      	ldr	r3, [pc, #36]	; (800041c <Disable_NVIC+0xc4>)
 80003f8:	681b      	ldr	r3, [r3, #0]
 80003fa:	4a08      	ldr	r2, [pc, #32]	; (800041c <Disable_NVIC+0xc4>)
 80003fc:	f443 0300 	orr.w	r3, r3, #8388608	; 0x800000
 8000400:	6013      	str	r3, [r2, #0]
 8000402:	e006      	b.n	8000412 <Disable_NVIC+0xba>
 8000404:	4b06      	ldr	r3, [pc, #24]	; (8000420 <Disable_NVIC+0xc8>)
 8000406:	681b      	ldr	r3, [r3, #0]
 8000408:	4a05      	ldr	r2, [pc, #20]	; (8000420 <Disable_NVIC+0xc8>)
 800040a:	f443 7380 	orr.w	r3, r3, #256	; 0x100
 800040e:	6013      	str	r3, [r2, #0]
 8000410:	bf00      	nop
 8000412:	bf00      	nop
 8000414:	370c      	adds	r7, #12
 8000416:	46bd      	mov	sp, r7
 8000418:	bc80      	pop	{r7}
 800041a:	4770      	bx	lr
 800041c:	e000e180 	and	lr, r0, r0, lsl #3
 8000420:	e000e184 	and	lr, r0, r4, lsl #3

08000424 <Update_EXTI>:
 8000424:	b580      	push	{r7, lr}
 8000426:	b084      	sub	sp, #16
 8000428:	af00      	add	r7, sp, #0
 800042a:	6078      	str	r0, [r7, #4]
 800042c:	687b      	ldr	r3, [r7, #4]
 800042e:	891b      	ldrh	r3, [r3, #8]
 8000430:	813b      	strh	r3, [r7, #8]
 8000432:	2308      	movs	r3, #8
 8000434:	72bb      	strb	r3, [r7, #10]
 8000436:	687b      	ldr	r3, [r7, #4]
 8000438:	685b      	ldr	r3, [r3, #4]
 800043a:	f107 0208 	add.w	r2, r7, #8
 800043e:	4611      	mov	r1, r2
 8000440:	4618      	mov	r0, r3
 8000442:	f000 fa5a 	bl	80008fa <MCAL_GPIO_Init>
 8000446:	687b      	ldr	r3, [r7, #4]
 8000448:	881b      	ldrh	r3, [r3, #0]
 800044a:	089b      	lsrs	r3, r3, #2
 800044c:	b29b      	uxth	r3, r3
 800044e:	73fb      	strb	r3, [r7, #15]
 8000450:	687b      	ldr	r3, [r7, #4]
 8000452:	881b      	ldrh	r3, [r3, #0]
 8000454:	b2db      	uxtb	r3, r3
 8000456:	f003 0303 	and.w	r3, r3, #3
 800045a:	b2db      	uxtb	r3, r3
 800045c:	009b      	lsls	r3, r3, #2
 800045e:	73bb      	strb	r3, [r7, #14]
 8000460:	4a5f      	ldr	r2, [pc, #380]	; (80005e0 <Update_EXTI+0x1bc>)
 8000462:	7bfb      	ldrb	r3, [r7, #15]
 8000464:	3302      	adds	r3, #2
 8000466:	f852 2023 	ldr.w	r2, [r2, r3, lsl #2]
 800046a:	7bbb      	ldrb	r3, [r7, #14]
 800046c:	210f      	movs	r1, #15
 800046e:	fa01 f303 	lsl.w	r3, r1, r3
 8000472:	43db      	mvns	r3, r3
 8000474:	4618      	mov	r0, r3
 8000476:	495a      	ldr	r1, [pc, #360]	; (80005e0 <Update_EXTI+0x1bc>)
 8000478:	7bfb      	ldrb	r3, [r7, #15]
 800047a:	4002      	ands	r2, r0
 800047c:	3302      	adds	r3, #2
 800047e:	f841 2023 	str.w	r2, [r1, r3, lsl #2]
 8000482:	4a57      	ldr	r2, [pc, #348]	; (80005e0 <Update_EXTI+0x1bc>)
 8000484:	7bfb      	ldrb	r3, [r7, #15]
 8000486:	3302      	adds	r3, #2
 8000488:	f852 2023 	ldr.w	r2, [r2, r3, lsl #2]
 800048c:	687b      	ldr	r3, [r7, #4]
 800048e:	685b      	ldr	r3, [r3, #4]
 8000490:	4954      	ldr	r1, [pc, #336]	; (80005e4 <Update_EXTI+0x1c0>)
 8000492:	428b      	cmp	r3, r1
 8000494:	d016      	beq.n	80004c4 <Update_EXTI+0xa0>
 8000496:	687b      	ldr	r3, [r7, #4]
 8000498:	685b      	ldr	r3, [r3, #4]
 800049a:	4953      	ldr	r1, [pc, #332]	; (80005e8 <Update_EXTI+0x1c4>)
 800049c:	428b      	cmp	r3, r1
 800049e:	d00f      	beq.n	80004c0 <Update_EXTI+0x9c>
 80004a0:	687b      	ldr	r3, [r7, #4]
 80004a2:	685b      	ldr	r3, [r3, #4]
 80004a4:	4951      	ldr	r1, [pc, #324]	; (80005ec <Update_EXTI+0x1c8>)
 80004a6:	428b      	cmp	r3, r1
 80004a8:	d008      	beq.n	80004bc <Update_EXTI+0x98>
 80004aa:	687b      	ldr	r3, [r7, #4]
 80004ac:	685b      	ldr	r3, [r3, #4]
 80004ae:	4950      	ldr	r1, [pc, #320]	; (80005f0 <Update_EXTI+0x1cc>)
 80004b0:	428b      	cmp	r3, r1
 80004b2:	d101      	bne.n	80004b8 <Update_EXTI+0x94>
 80004b4:	2303      	movs	r3, #3
 80004b6:	e006      	b.n	80004c6 <Update_EXTI+0xa2>
 80004b8:	2300      	movs	r3, #0
 80004ba:	e004      	b.n	80004c6 <Update_EXTI+0xa2>
 80004bc:	2302      	movs	r3, #2
 80004be:	e002      	b.n	80004c6 <Update_EXTI+0xa2>
 80004c0:	2301      	movs	r3, #1
 80004c2:	e000      	b.n	80004c6 <Update_EXTI+0xa2>
 80004c4:	2300      	movs	r3, #0
 80004c6:	7bb9      	ldrb	r1, [r7, #14]
 80004c8:	408b      	lsls	r3, r1
 80004ca:	4618      	mov	r0, r3
 80004cc:	4944      	ldr	r1, [pc, #272]	; (80005e0 <Update_EXTI+0x1bc>)
 80004ce:	7bfb      	ldrb	r3, [r7, #15]
 80004d0:	4302      	orrs	r2, r0
 80004d2:	3302      	adds	r3, #2
 80004d4:	f841 2023 	str.w	r2, [r1, r3, lsl #2]
 80004d8:	4b46      	ldr	r3, [pc, #280]	; (80005f4 <Update_EXTI+0x1d0>)
 80004da:	689b      	ldr	r3, [r3, #8]
 80004dc:	687a      	ldr	r2, [r7, #4]
 80004de:	8812      	ldrh	r2, [r2, #0]
 80004e0:	4611      	mov	r1, r2
 80004e2:	2201      	movs	r2, #1
 80004e4:	408a      	lsls	r2, r1
 80004e6:	43d2      	mvns	r2, r2
 80004e8:	4611      	mov	r1, r2
 80004ea:	4a42      	ldr	r2, [pc, #264]	; (80005f4 <Update_EXTI+0x1d0>)
 80004ec:	400b      	ands	r3, r1
 80004ee:	6093      	str	r3, [r2, #8]
 80004f0:	4b40      	ldr	r3, [pc, #256]	; (80005f4 <Update_EXTI+0x1d0>)
 80004f2:	68db      	ldr	r3, [r3, #12]
 80004f4:	687a      	ldr	r2, [r7, #4]
 80004f6:	8812      	ldrh	r2, [r2, #0]
 80004f8:	4611      	mov	r1, r2
 80004fa:	2201      	movs	r2, #1
 80004fc:	408a      	lsls	r2, r1
 80004fe:	43d2      	mvns	r2, r2
 8000500:	4611      	mov	r1, r2
 8000502:	4a3c      	ldr	r2, [pc, #240]	; (80005f4 <Update_EXTI+0x1d0>)
 8000504:	400b      	ands	r3, r1
 8000506:	60d3      	str	r3, [r2, #12]
 8000508:	687b      	ldr	r3, [r7, #4]
 800050a:	7b1b      	ldrb	r3, [r3, #12]
 800050c:	2b00      	cmp	r3, #0
 800050e:	d10b      	bne.n	8000528 <Update_EXTI+0x104>
 8000510:	4b38      	ldr	r3, [pc, #224]	; (80005f4 <Update_EXTI+0x1d0>)
 8000512:	689b      	ldr	r3, [r3, #8]
 8000514:	687a      	ldr	r2, [r7, #4]
 8000516:	8812      	ldrh	r2, [r2, #0]
 8000518:	4611      	mov	r1, r2
 800051a:	2201      	movs	r2, #1
 800051c:	408a      	lsls	r2, r1
 800051e:	4611      	mov	r1, r2
 8000520:	4a34      	ldr	r2, [pc, #208]	; (80005f4 <Update_EXTI+0x1d0>)
 8000522:	430b      	orrs	r3, r1
 8000524:	6093      	str	r3, [r2, #8]
 8000526:	e029      	b.n	800057c <Update_EXTI+0x158>
 8000528:	687b      	ldr	r3, [r7, #4]
 800052a:	7b1b      	ldrb	r3, [r3, #12]
 800052c:	2b01      	cmp	r3, #1
 800052e:	d10b      	bne.n	8000548 <Update_EXTI+0x124>
 8000530:	4b30      	ldr	r3, [pc, #192]	; (80005f4 <Update_EXTI+0x1d0>)
 8000532:	68db      	ldr	r3, [r3, #12]
 8000534:	687a      	ldr	r2, [r7, #4]
 8000536:	8812      	ldrh	r2, [r2, #0]
 8000538:	4611      	mov	r1, r2
 800053a:	2201      	movs	r2, #1
 800053c:	408a      	lsls	r2, r1
 800053e:	4611      	mov	r1, r2
 8000540:	4a2c      	ldr	r2, [pc, #176]	; (80005f4 <Update_EXTI+0x1d0>)
 8000542:	430b      	orrs	r3, r1
 8000544:	60d3      	str	r3, [r2, #12]
 8000546:	e019      	b.n	800057c <Update_EXTI+0x158>
 8000548:	687b      	ldr	r3, [r7, #4]
 800054a:	7b1b      	ldrb	r3, [r3, #12]
 800054c:	2b02      	cmp	r3, #2
 800054e:	d115      	bne.n	800057c <Update_EXTI+0x158>
 8000550:	4b28      	ldr	r3, [pc, #160]	; (80005f4 <Update_EXTI+0x1d0>)
 8000552:	689b      	ldr	r3, [r3, #8]
 8000554:	687a      	ldr	r2, [r7, #4]
 8000556:	8812      	ldrh	r2, [r2, #0]
 8000558:	4611      	mov	r1, r2
 800055a:	2201      	movs	r2, #1
 800055c:	408a      	lsls	r2, r1
 800055e:	4611      	mov	r1, r2
 8000560:	4a24      	ldr	r2, [pc, #144]	; (80005f4 <Update_EXTI+0x1d0>)
 8000562:	430b      	orrs	r3, r1
 8000564:	6093      	str	r3, [r2, #8]
 8000566:	4b23      	ldr	r3, [pc, #140]	; (80005f4 <Update_EXTI+0x1d0>)
 8000568:	68db      	ldr	r3, [r3, #12]
 800056a:	687a      	ldr	r2, [r7, #4]
 800056c:	8812      	ldrh	r2, [r2, #0]
 800056e:	4611      	mov	r1, r2
 8000570:	2201      	movs	r2, #1
 8000572:	408a      	lsls	r2, r1
 8000574:	4611      	mov	r1, r2
 8000576:	4a1f      	ldr	r2, [pc, #124]	; (80005f4 <Update_EXTI+0x1d0>)
 8000578:	430b      	orrs	r3, r1
 800057a:	60d3      	str	r3, [r2, #12]
 800057c:	687b      	ldr	r3, [r7, #4]
 800057e:	881b      	ldrh	r3, [r3, #0]
 8000580:	4619      	mov	r1, r3
 8000582:	687b      	ldr	r3, [r7, #4]
 8000584:	691b      	ldr	r3, [r3, #16]
 8000586:	4a1c      	ldr	r2, [pc, #112]	; (80005f8 <Update_EXTI+0x1d4>)
 8000588:	f842 3021 	str.w	r3, [r2, r1, lsl #2]
 800058c:	687b      	ldr	r3, [r7, #4]
 800058e:	7b5b      	ldrb	r3, [r3, #13]
 8000590:	2b01      	cmp	r3, #1
 8000592:	d110      	bne.n	80005b6 <Update_EXTI+0x192>
 8000594:	4b17      	ldr	r3, [pc, #92]	; (80005f4 <Update_EXTI+0x1d0>)
 8000596:	681b      	ldr	r3, [r3, #0]
 8000598:	687a      	ldr	r2, [r7, #4]
 800059a:	8812      	ldrh	r2, [r2, #0]
 800059c:	4611      	mov	r1, r2
 800059e:	2201      	movs	r2, #1
 80005a0:	408a      	lsls	r2, r1
 80005a2:	4611      	mov	r1, r2
 80005a4:	4a13      	ldr	r2, [pc, #76]	; (80005f4 <Update_EXTI+0x1d0>)
 80005a6:	430b      	orrs	r3, r1
 80005a8:	6013      	str	r3, [r2, #0]
 80005aa:	687b      	ldr	r3, [r7, #4]
 80005ac:	881b      	ldrh	r3, [r3, #0]
 80005ae:	4618      	mov	r0, r3
 80005b0:	f7ff fe6c 	bl	800028c <Enable_NVIC>
 80005b4:	e010      	b.n	80005d8 <Update_EXTI+0x1b4>
 80005b6:	4b0f      	ldr	r3, [pc, #60]	; (80005f4 <Update_EXTI+0x1d0>)
 80005b8:	681b      	ldr	r3, [r3, #0]
 80005ba:	687a      	ldr	r2, [r7, #4]
 80005bc:	8812      	ldrh	r2, [r2, #0]
 80005be:	4611      	mov	r1, r2
 80005c0:	2201      	movs	r2, #1
 80005c2:	408a      	lsls	r2, r1
 80005c4:	43d2      	mvns	r2, r2
 80005c6:	4611      	mov	r1, r2
 80005c8:	4a0a      	ldr	r2, [pc, #40]	; (80005f4 <Update_EXTI+0x1d0>)
 80005ca:	400b      	ands	r3, r1
 80005cc:	6013      	str	r3, [r2, #0]
 80005ce:	687b      	ldr	r3, [r7, #4]
 80005d0:	881b      	ldrh	r3, [r3, #0]
 80005d2:	4618      	mov	r0, r3
 80005d4:	f7ff fec0 	bl	8000358 <Disable_NVIC>
 80005d8:	bf00      	nop
 80005da:	3710      	adds	r7, #16
 80005dc:	46bd      	mov	sp, r7
 80005de:	bd80      	pop	{r7, pc}
 80005e0:	40010000 	andmi	r0, r1, r0
 80005e4:	40010800 	andmi	r0, r1, r0, lsl #16
 80005e8:	40010c00 	andmi	r0, r1, r0, lsl #24
 80005ec:	40011000 	andmi	r1, r1, r0
 80005f0:	40011400 	andmi	r1, r1, r0, lsl #8
 80005f4:	40010400 	andmi	r0, r1, r0, lsl #8
 80005f8:	20000020 	andcs	r0, r0, r0, lsr #32

080005fc <MCAL_EXTI_GPIO_Init>:
 80005fc:	b580      	push	{r7, lr}
 80005fe:	b082      	sub	sp, #8
 8000600:	af00      	add	r7, sp, #0
 8000602:	6078      	str	r0, [r7, #4]
 8000604:	6878      	ldr	r0, [r7, #4]
 8000606:	f7ff ff0d 	bl	8000424 <Update_EXTI>
 800060a:	bf00      	nop
 800060c:	3708      	adds	r7, #8
 800060e:	46bd      	mov	sp, r7
 8000610:	bd80      	pop	{r7, pc}
	...

08000614 <EXTI0_IRQHandler>:
 8000614:	b580      	push	{r7, lr}
 8000616:	af00      	add	r7, sp, #0
 8000618:	4b05      	ldr	r3, [pc, #20]	; (8000630 <EXTI0_IRQHandler+0x1c>)
 800061a:	695b      	ldr	r3, [r3, #20]
 800061c:	4a04      	ldr	r2, [pc, #16]	; (8000630 <EXTI0_IRQHandler+0x1c>)
 800061e:	f043 0301 	orr.w	r3, r3, #1
 8000622:	6153      	str	r3, [r2, #20]
 8000624:	4b03      	ldr	r3, [pc, #12]	; (8000634 <EXTI0_IRQHandler+0x20>)
 8000626:	681b      	ldr	r3, [r3, #0]
 8000628:	4798      	blx	r3
 800062a:	bf00      	nop
 800062c:	bd80      	pop	{r7, pc}
 800062e:	bf00      	nop
 8000630:	40010400 	andmi	r0, r1, r0, lsl #8
 8000634:	20000020 	andcs	r0, r0, r0, lsr #32

08000638 <EXTI1_IRQHandler>:
 8000638:	b580      	push	{r7, lr}
 800063a:	af00      	add	r7, sp, #0
 800063c:	4b05      	ldr	r3, [pc, #20]	; (8000654 <EXTI1_IRQHandler+0x1c>)
 800063e:	695b      	ldr	r3, [r3, #20]
 8000640:	4a04      	ldr	r2, [pc, #16]	; (8000654 <EXTI1_IRQHandler+0x1c>)
 8000642:	f043 0302 	orr.w	r3, r3, #2
 8000646:	6153      	str	r3, [r2, #20]
 8000648:	4b03      	ldr	r3, [pc, #12]	; (8000658 <EXTI1_IRQHandler+0x20>)
 800064a:	685b      	ldr	r3, [r3, #4]
 800064c:	4798      	blx	r3
 800064e:	bf00      	nop
 8000650:	bd80      	pop	{r7, pc}
 8000652:	bf00      	nop
 8000654:	40010400 	andmi	r0, r1, r0, lsl #8
 8000658:	20000020 	andcs	r0, r0, r0, lsr #32

0800065c <EXTI2_IRQHandler>:
 800065c:	b580      	push	{r7, lr}
 800065e:	af00      	add	r7, sp, #0
 8000660:	4b05      	ldr	r3, [pc, #20]	; (8000678 <EXTI2_IRQHandler+0x1c>)
 8000662:	695b      	ldr	r3, [r3, #20]
 8000664:	4a04      	ldr	r2, [pc, #16]	; (8000678 <EXTI2_IRQHandler+0x1c>)
 8000666:	f043 0304 	orr.w	r3, r3, #4
 800066a:	6153      	str	r3, [r2, #20]
 800066c:	4b03      	ldr	r3, [pc, #12]	; (800067c <EXTI2_IRQHandler+0x20>)
 800066e:	689b      	ldr	r3, [r3, #8]
 8000670:	4798      	blx	r3
 8000672:	bf00      	nop
 8000674:	bd80      	pop	{r7, pc}
 8000676:	bf00      	nop
 8000678:	40010400 	andmi	r0, r1, r0, lsl #8
 800067c:	20000020 	andcs	r0, r0, r0, lsr #32

08000680 <EXTI3_IRQHandler>:
 8000680:	b580      	push	{r7, lr}
 8000682:	af00      	add	r7, sp, #0
 8000684:	4b05      	ldr	r3, [pc, #20]	; (800069c <EXTI3_IRQHandler+0x1c>)
 8000686:	695b      	ldr	r3, [r3, #20]
 8000688:	4a04      	ldr	r2, [pc, #16]	; (800069c <EXTI3_IRQHandler+0x1c>)
 800068a:	f043 0308 	orr.w	r3, r3, #8
 800068e:	6153      	str	r3, [r2, #20]
 8000690:	4b03      	ldr	r3, [pc, #12]	; (80006a0 <EXTI3_IRQHandler+0x20>)
 8000692:	68db      	ldr	r3, [r3, #12]
 8000694:	4798      	blx	r3
 8000696:	bf00      	nop
 8000698:	bd80      	pop	{r7, pc}
 800069a:	bf00      	nop
 800069c:	40010400 	andmi	r0, r1, r0, lsl #8
 80006a0:	20000020 	andcs	r0, r0, r0, lsr #32

080006a4 <EXTI4_IRQHandler>:
 80006a4:	b580      	push	{r7, lr}
 80006a6:	af00      	add	r7, sp, #0
 80006a8:	4b05      	ldr	r3, [pc, #20]	; (80006c0 <EXTI4_IRQHandler+0x1c>)
 80006aa:	695b      	ldr	r3, [r3, #20]
 80006ac:	4a04      	ldr	r2, [pc, #16]	; (80006c0 <EXTI4_IRQHandler+0x1c>)
 80006ae:	f043 0310 	orr.w	r3, r3, #16
 80006b2:	6153      	str	r3, [r2, #20]
 80006b4:	4b03      	ldr	r3, [pc, #12]	; (80006c4 <EXTI4_IRQHandler+0x20>)
 80006b6:	691b      	ldr	r3, [r3, #16]
 80006b8:	4798      	blx	r3
 80006ba:	bf00      	nop
 80006bc:	bd80      	pop	{r7, pc}
 80006be:	bf00      	nop
 80006c0:	40010400 	andmi	r0, r1, r0, lsl #8
 80006c4:	20000020 	andcs	r0, r0, r0, lsr #32

080006c8 <EXTI9_5_IRQHandler>:
 80006c8:	b580      	push	{r7, lr}
 80006ca:	af00      	add	r7, sp, #0
 80006cc:	4b26      	ldr	r3, [pc, #152]	; (8000768 <EXTI9_5_IRQHandler+0xa0>)
 80006ce:	695b      	ldr	r3, [r3, #20]
 80006d0:	f003 0320 	and.w	r3, r3, #32
 80006d4:	2b00      	cmp	r3, #0
 80006d6:	d008      	beq.n	80006ea <EXTI9_5_IRQHandler+0x22>
 80006d8:	4b23      	ldr	r3, [pc, #140]	; (8000768 <EXTI9_5_IRQHandler+0xa0>)
 80006da:	695b      	ldr	r3, [r3, #20]
 80006dc:	4a22      	ldr	r2, [pc, #136]	; (8000768 <EXTI9_5_IRQHandler+0xa0>)
 80006de:	f043 0320 	orr.w	r3, r3, #32
 80006e2:	6153      	str	r3, [r2, #20]
 80006e4:	4b21      	ldr	r3, [pc, #132]	; (800076c <EXTI9_5_IRQHandler+0xa4>)
 80006e6:	695b      	ldr	r3, [r3, #20]
 80006e8:	4798      	blx	r3
 80006ea:	4b1f      	ldr	r3, [pc, #124]	; (8000768 <EXTI9_5_IRQHandler+0xa0>)
 80006ec:	695b      	ldr	r3, [r3, #20]
 80006ee:	f003 0340 	and.w	r3, r3, #64	; 0x40
 80006f2:	2b00      	cmp	r3, #0
 80006f4:	d008      	beq.n	8000708 <EXTI9_5_IRQHandler+0x40>
 80006f6:	4b1c      	ldr	r3, [pc, #112]	; (8000768 <EXTI9_5_IRQHandler+0xa0>)
 80006f8:	695b      	ldr	r3, [r3, #20]
 80006fa:	4a1b      	ldr	r2, [pc, #108]	; (8000768 <EXTI9_5_IRQHandler+0xa0>)
 80006fc:	f043 0340 	orr.w	r3, r3, #64	; 0x40
 8000700:	6153      	str	r3, [r2, #20]
 8000702:	4b1a      	ldr	r3, [pc, #104]	; (800076c <EXTI9_5_IRQHandler+0xa4>)
 8000704:	699b      	ldr	r3, [r3, #24]
 8000706:	4798      	blx	r3
 8000708:	4b17      	ldr	r3, [pc, #92]	; (8000768 <EXTI9_5_IRQHandler+0xa0>)
 800070a:	695b      	ldr	r3, [r3, #20]
 800070c:	f003 0380 	and.w	r3, r3, #128	; 0x80
 8000710:	2b00      	cmp	r3, #0
 8000712:	d008      	beq.n	8000726 <EXTI9_5_IRQHandler+0x5e>
 8000714:	4b14      	ldr	r3, [pc, #80]	; (8000768 <EXTI9_5_IRQHandler+0xa0>)
 8000716:	695b      	ldr	r3, [r3, #20]
 8000718:	4a13      	ldr	r2, [pc, #76]	; (8000768 <EXTI9_5_IRQHandler+0xa0>)
 800071a:	f043 0380 	orr.w	r3, r3, #128	; 0x80
 800071e:	6153      	str	r3, [r2, #20]
 8000720:	4b12      	ldr	r3, [pc, #72]	; (800076c <EXTI9_5_IRQHandler+0xa4>)
 8000722:	69db      	ldr	r3, [r3, #28]
 8000724:	4798      	blx	r3
 8000726:	4b10      	ldr	r3, [pc, #64]	; (8000768 <EXTI9_5_IRQHandler+0xa0>)
 8000728:	695b      	ldr	r3, [r3, #20]
 800072a:	f403 7380 	and.w	r3, r3, #256	; 0x100
 800072e:	2b00      	cmp	r3, #0
 8000730:	d008      	beq.n	8000744 <EXTI9_5_IRQHandler+0x7c>
 8000732:	4b0d      	ldr	r3, [pc, #52]	; (8000768 <EXTI9_5_IRQHandler+0xa0>)
 8000734:	695b      	ldr	r3, [r3, #20]
 8000736:	4a0c      	ldr	r2, [pc, #48]	; (8000768 <EXTI9_5_IRQHandler+0xa0>)
 8000738:	f443 7380 	orr.w	r3, r3, #256	; 0x100
 800073c:	6153      	str	r3, [r2, #20]
 800073e:	4b0b      	ldr	r3, [pc, #44]	; (800076c <EXTI9_5_IRQHandler+0xa4>)
 8000740:	6a1b      	ldr	r3, [r3, #32]
 8000742:	4798      	blx	r3
 8000744:	4b08      	ldr	r3, [pc, #32]	; (8000768 <EXTI9_5_IRQHandler+0xa0>)
 8000746:	695b      	ldr	r3, [r3, #20]
 8000748:	f403 7300 	and.w	r3, r3, #512	; 0x200
 800074c:	2b00      	cmp	r3, #0
 800074e:	d008      	beq.n	8000762 <EXTI9_5_IRQHandler+0x9a>
 8000750:	4b05      	ldr	r3, [pc, #20]	; (8000768 <EXTI9_5_IRQHandler+0xa0>)
 8000752:	695b      	ldr	r3, [r3, #20]
 8000754:	4a04      	ldr	r2, [pc, #16]	; (8000768 <EXTI9_5_IRQHandler+0xa0>)
 8000756:	f443 7300 	orr.w	r3, r3, #512	; 0x200
 800075a:	6153      	str	r3, [r2, #20]
 800075c:	4b03      	ldr	r3, [pc, #12]	; (800076c <EXTI9_5_IRQHandler+0xa4>)
 800075e:	6a5b      	ldr	r3, [r3, #36]	; 0x24
 8000760:	4798      	blx	r3
 8000762:	bf00      	nop
 8000764:	bd80      	pop	{r7, pc}
 8000766:	bf00      	nop
 8000768:	40010400 	andmi	r0, r1, r0, lsl #8
 800076c:	20000020 	andcs	r0, r0, r0, lsr #32

08000770 <EXTI15_10_IRQHandler>:
 8000770:	b580      	push	{r7, lr}
 8000772:	af00      	add	r7, sp, #0
 8000774:	4b2d      	ldr	r3, [pc, #180]	; (800082c <EXTI15_10_IRQHandler+0xbc>)
 8000776:	695b      	ldr	r3, [r3, #20]
 8000778:	f403 6380 	and.w	r3, r3, #1024	; 0x400
 800077c:	2b00      	cmp	r3, #0
 800077e:	d008      	beq.n	8000792 <EXTI15_10_IRQHandler+0x22>
 8000780:	4b2a      	ldr	r3, [pc, #168]	; (800082c <EXTI15_10_IRQHandler+0xbc>)
 8000782:	695b      	ldr	r3, [r3, #20]
 8000784:	4a29      	ldr	r2, [pc, #164]	; (800082c <EXTI15_10_IRQHandler+0xbc>)
 8000786:	f443 6380 	orr.w	r3, r3, #1024	; 0x400
 800078a:	6153      	str	r3, [r2, #20]
 800078c:	4b28      	ldr	r3, [pc, #160]	; (8000830 <EXTI15_10_IRQHandler+0xc0>)
 800078e:	6a9b      	ldr	r3, [r3, #40]	; 0x28
 8000790:	4798      	blx	r3
 8000792:	4b26      	ldr	r3, [pc, #152]	; (800082c <EXTI15_10_IRQHandler+0xbc>)
 8000794:	695b      	ldr	r3, [r3, #20]
 8000796:	f403 6300 	and.w	r3, r3, #2048	; 0x800
 800079a:	2b00      	cmp	r3, #0
 800079c:	d008      	beq.n	80007b0 <EXTI15_10_IRQHandler+0x40>
 800079e:	4b23      	ldr	r3, [pc, #140]	; (800082c <EXTI15_10_IRQHandler+0xbc>)
 80007a0:	695b      	ldr	r3, [r3, #20]
 80007a2:	4a22      	ldr	r2, [pc, #136]	; (800082c <EXTI15_10_IRQHandler+0xbc>)
 80007a4:	f443 6300 	orr.w	r3, r3, #2048	; 0x800
 80007a8:	6153      	str	r3, [r2, #20]
 80007aa:	4b21      	ldr	r3, [pc, #132]	; (8000830 <EXTI15_10_IRQHandler+0xc0>)
 80007ac:	6adb      	ldr	r3, [r3, #44]	; 0x2c
 80007ae:	4798      	blx	r3
 80007b0:	4b1e      	ldr	r3, [pc, #120]	; (800082c <EXTI15_10_IRQHandler+0xbc>)
 80007b2:	695b      	ldr	r3, [r3, #20]
 80007b4:	f403 5380 	and.w	r3, r3, #4096	; 0x1000
 80007b8:	2b00      	cmp	r3, #0
 80007ba:	d008      	beq.n	80007ce <EXTI15_10_IRQHandler+0x5e>
 80007bc:	4b1b      	ldr	r3, [pc, #108]	; (800082c <EXTI15_10_IRQHandler+0xbc>)
 80007be:	695b      	ldr	r3, [r3, #20]
 80007c0:	4a1a      	ldr	r2, [pc, #104]	; (800082c <EXTI15_10_IRQHandler+0xbc>)
 80007c2:	f443 5380 	orr.w	r3, r3, #4096	; 0x1000
 80007c6:	6153      	str	r3, [r2, #20]
 80007c8:	4b19      	ldr	r3, [pc, #100]	; (8000830 <EXTI15_10_IRQHandler+0xc0>)
 80007ca:	6b1b      	ldr	r3, [r3, #48]	; 0x30
 80007cc:	4798      	blx	r3
 80007ce:	4b17      	ldr	r3, [pc, #92]	; (800082c <EXTI15_10_IRQHandler+0xbc>)
 80007d0:	695b      	ldr	r3, [r3, #20]
 80007d2:	f403 5300 	and.w	r3, r3, #8192	; 0x2000
 80007d6:	2b00      	cmp	r3, #0
 80007d8:	d008      	beq.n	80007ec <EXTI15_10_IRQHandler+0x7c>
 80007da:	4b14      	ldr	r3, [pc, #80]	; (800082c <EXTI15_10_IRQHandler+0xbc>)
 80007dc:	695b      	ldr	r3, [r3, #20]
 80007de:	4a13      	ldr	r2, [pc, #76]	; (800082c <EXTI15_10_IRQHandler+0xbc>)
 80007e0:	f443 5300 	orr.w	r3, r3, #8192	; 0x2000
 80007e4:	6153      	str	r3, [r2, #20]
 80007e6:	4b12      	ldr	r3, [pc, #72]	; (8000830 <EXTI15_10_IRQHandler+0xc0>)
 80007e8:	6b5b      	ldr	r3, [r3, #52]	; 0x34
 80007ea:	4798      	blx	r3
 80007ec:	4b0f      	ldr	r3, [pc, #60]	; (800082c <EXTI15_10_IRQHandler+0xbc>)
 80007ee:	695b      	ldr	r3, [r3, #20]
 80007f0:	f403 4380 	and.w	r3, r3, #16384	; 0x4000
 80007f4:	2b00      	cmp	r3, #0
 80007f6:	d008      	beq.n	800080a <EXTI15_10_IRQHandler+0x9a>
 80007f8:	4b0c      	ldr	r3, [pc, #48]	; (800082c <EXTI15_10_IRQHandler+0xbc>)
 80007fa:	695b      	ldr	r3, [r3, #20]
 80007fc:	4a0b      	ldr	r2, [pc, #44]	; (800082c <EXTI15_10_IRQHandler+0xbc>)
 80007fe:	f443 4380 	orr.w	r3, r3, #16384	; 0x4000
 8000802:	6153      	str	r3, [r2, #20]
 8000804:	4b0a      	ldr	r3, [pc, #40]	; (8000830 <EXTI15_10_IRQHandler+0xc0>)
 8000806:	6b9b      	ldr	r3, [r3, #56]	; 0x38
 8000808:	4798      	blx	r3
 800080a:	4b08      	ldr	r3, [pc, #32]	; (800082c <EXTI15_10_IRQHandler+0xbc>)
 800080c:	695b      	ldr	r3, [r3, #20]
 800080e:	f403 4300 	and.w	r3, r3, #32768	; 0x8000
 8000812:	2b00      	cmp	r3, #0
 8000814:	d008      	beq.n	8000828 <EXTI15_10_IRQHandler+0xb8>
 8000816:	4b05      	ldr	r3, [pc, #20]	; (800082c <EXTI15_10_IRQHandler+0xbc>)
 8000818:	695b      	ldr	r3, [r3, #20]
 800081a:	4a04      	ldr	r2, [pc, #16]	; (800082c <EXTI15_10_IRQHandler+0xbc>)
 800081c:	f443 4300 	orr.w	r3, r3, #32768	; 0x8000
 8000820:	6153      	str	r3, [r2, #20]
 8000822:	4b03      	ldr	r3, [pc, #12]	; (8000830 <EXTI15_10_IRQHandler+0xc0>)
 8000824:	6bdb      	ldr	r3, [r3, #60]	; 0x3c
 8000826:	4798      	blx	r3
 8000828:	bf00      	nop
 800082a:	bd80      	pop	{r7, pc}
 800082c:	40010400 	andmi	r0, r1, r0, lsl #8
 8000830:	20000020 	andcs	r0, r0, r0, lsr #32

08000834 <Get_CRLH_Position>:
 8000834:	b480      	push	{r7}
 8000836:	b083      	sub	sp, #12
 8000838:	af00      	add	r7, sp, #0
 800083a:	4603      	mov	r3, r0
 800083c:	80fb      	strh	r3, [r7, #6]
 800083e:	88fb      	ldrh	r3, [r7, #6]
 8000840:	2b80      	cmp	r3, #128	; 0x80
 8000842:	d042      	beq.n	80008ca <Get_CRLH_Position+0x96>
 8000844:	2b80      	cmp	r3, #128	; 0x80
 8000846:	dc11      	bgt.n	800086c <Get_CRLH_Position+0x38>
 8000848:	2b08      	cmp	r3, #8
 800084a:	d036      	beq.n	80008ba <Get_CRLH_Position+0x86>
 800084c:	2b08      	cmp	r3, #8
 800084e:	dc06      	bgt.n	800085e <Get_CRLH_Position+0x2a>
 8000850:	2b02      	cmp	r3, #2
 8000852:	d02e      	beq.n	80008b2 <Get_CRLH_Position+0x7e>
 8000854:	2b04      	cmp	r3, #4
 8000856:	d02e      	beq.n	80008b6 <Get_CRLH_Position+0x82>
 8000858:	2b01      	cmp	r3, #1
 800085a:	d028      	beq.n	80008ae <Get_CRLH_Position+0x7a>
 800085c:	e047      	b.n	80008ee <Get_CRLH_Position+0xba>
 800085e:	2b20      	cmp	r3, #32
 8000860:	d02f      	beq.n	80008c2 <Get_CRLH_Position+0x8e>
 8000862:	2b40      	cmp	r3, #64	; 0x40
 8000864:	d02f      	beq.n	80008c6 <Get_CRLH_Position+0x92>
 8000866:	2b10      	cmp	r3, #16
 8000868:	d029      	beq.n	80008be <Get_CRLH_Position+0x8a>
 800086a:	e040      	b.n	80008ee <Get_CRLH_Position+0xba>
 800086c:	f5b3 6f00 	cmp.w	r3, #2048	; 0x800
 8000870:	d033      	beq.n	80008da <Get_CRLH_Position+0xa6>
 8000872:	f5b3 6f00 	cmp.w	r3, #2048	; 0x800
 8000876:	dc09      	bgt.n	800088c <Get_CRLH_Position+0x58>
 8000878:	f5b3 7f00 	cmp.w	r3, #512	; 0x200
 800087c:	d029      	beq.n	80008d2 <Get_CRLH_Position+0x9e>
 800087e:	f5b3 6f80 	cmp.w	r3, #1024	; 0x400
 8000882:	d028      	beq.n	80008d6 <Get_CRLH_Position+0xa2>
 8000884:	f5b3 7f80 	cmp.w	r3, #256	; 0x100
 8000888:	d021      	beq.n	80008ce <Get_CRLH_Position+0x9a>
 800088a:	e030      	b.n	80008ee <Get_CRLH_Position+0xba>
 800088c:	f5b3 5f00 	cmp.w	r3, #8192	; 0x2000
 8000890:	d027      	beq.n	80008e2 <Get_CRLH_Position+0xae>
 8000892:	f5b3 5f00 	cmp.w	r3, #8192	; 0x2000
 8000896:	dc03      	bgt.n	80008a0 <Get_CRLH_Position+0x6c>
 8000898:	f5b3 5f80 	cmp.w	r3, #4096	; 0x1000
 800089c:	d01f      	beq.n	80008de <Get_CRLH_Position+0xaa>
 800089e:	e026      	b.n	80008ee <Get_CRLH_Position+0xba>
 80008a0:	f5b3 4f80 	cmp.w	r3, #16384	; 0x4000
 80008a4:	d01f      	beq.n	80008e6 <Get_CRLH_Position+0xb2>
 80008a6:	f5b3 4f00 	cmp.w	r3, #32768	; 0x8000
 80008aa:	d01e      	beq.n	80008ea <Get_CRLH_Position+0xb6>
 80008ac:	e01f      	b.n	80008ee <Get_CRLH_Position+0xba>
 80008ae:	2300      	movs	r3, #0
 80008b0:	e01e      	b.n	80008f0 <Get_CRLH_Position+0xbc>
 80008b2:	2304      	movs	r3, #4
 80008b4:	e01c      	b.n	80008f0 <Get_CRLH_Position+0xbc>
 80008b6:	2308      	movs	r3, #8
 80008b8:	e01a      	b.n	80008f0 <Get_CRLH_Position+0xbc>
 80008ba:	230c      	movs	r3, #12
 80008bc:	e018      	b.n	80008f0 <Get_CRLH_Position+0xbc>
 80008be:	2310      	movs	r3, #16
 80008c0:	e016      	b.n	80008f0 <Get_CRLH_Position+0xbc>
 80008c2:	2314      	movs	r3, #20
 80008c4:	e014      	b.n	80008f0 <Get_CRLH_Position+0xbc>
 80008c6:	2318      	movs	r3, #24
 80008c8:	e012      	b.n	80008f0 <Get_CRLH_Position+0xbc>
 80008ca:	231c      	movs	r3, #28
 80008cc:	e010      	b.n	80008f0 <Get_CRLH_Position+0xbc>
 80008ce:	2300      	movs	r3, #0
 80008d0:	e00e      	b.n	80008f0 <Get_CRLH_Position+0xbc>
 80008d2:	2304      	movs	r3, #4
 80008d4:	e00c      	b.n	80008f0 <Get_CRLH_Position+0xbc>
 80008d6:	2308      	movs	r3, #8
 80008d8:	e00a      	b.n	80008f0 <Get_CRLH_Position+0xbc>
 80008da:	230c      	movs	r3, #12
 80008dc:	e008      	b.n	80008f0 <Get_CRLH_Position+0xbc>
 80008de:	2310      	movs	r3, #16
 80008e0:	e006      	b.n	80008f0 <Get_CRLH_Position+0xbc>
 80008e2:	2314      	movs	r3, #20
 80008e4:	e004      	b.n	80008f0 <Get_CRLH_Position+0xbc>
 80008e6:	2318      	movs	r3, #24
 80008e8:	e002      	b.n	80008f0 <Get_CRLH_Position+0xbc>
 80008ea:	231c      	movs	r3, #28
 80008ec:	e000      	b.n	80008f0 <Get_CRLH_Position+0xbc>
 80008ee:	2300      	movs	r3, #0
 80008f0:	4618      	mov	r0, r3
 80008f2:	370c      	adds	r7, #12
 80008f4:	46bd      	mov	sp, r7
 80008f6:	bc80      	pop	{r7}
 80008f8:	4770      	bx	lr

080008fa <MCAL_GPIO_Init>:
 80008fa:	b590      	push	{r4, r7, lr}
 80008fc:	b085      	sub	sp, #20
 80008fe:	af00      	add	r7, sp, #0
 8000900:	6078      	str	r0, [r7, #4]
 8000902:	6039      	str	r1, [r7, #0]
 8000904:	2300      	movs	r3, #0
 8000906:	60bb      	str	r3, [r7, #8]
 8000908:	2300      	movs	r3, #0
 800090a:	73fb      	strb	r3, [r7, #15]
 800090c:	683b      	ldr	r3, [r7, #0]
 800090e:	881b      	ldrh	r3, [r3, #0]
 8000910:	2bff      	cmp	r3, #255	; 0xff
 8000912:	d801      	bhi.n	8000918 <MCAL_GPIO_Init+0x1e>
 8000914:	687b      	ldr	r3, [r7, #4]
 8000916:	e001      	b.n	800091c <MCAL_GPIO_Init+0x22>
 8000918:	687b      	ldr	r3, [r7, #4]
 800091a:	3304      	adds	r3, #4
 800091c:	60bb      	str	r3, [r7, #8]
 800091e:	683b      	ldr	r3, [r7, #0]
 8000920:	881b      	ldrh	r3, [r3, #0]
 8000922:	4618      	mov	r0, r3
 8000924:	f7ff ff86 	bl	8000834 <Get_CRLH_Position>
 8000928:	4603      	mov	r3, r0
 800092a:	461a      	mov	r2, r3
 800092c:	230f      	movs	r3, #15
 800092e:	4093      	lsls	r3, r2
 8000930:	43da      	mvns	r2, r3
 8000932:	68bb      	ldr	r3, [r7, #8]
 8000934:	681b      	ldr	r3, [r3, #0]
 8000936:	401a      	ands	r2, r3
 8000938:	68bb      	ldr	r3, [r7, #8]
 800093a:	601a      	str	r2, [r3, #0]
 800093c:	683b      	ldr	r3, [r7, #0]
 800093e:	789b      	ldrb	r3, [r3, #2]
 8000940:	2b07      	cmp	r3, #7
 8000942:	d00b      	beq.n	800095c <MCAL_GPIO_Init+0x62>
 8000944:	683b      	ldr	r3, [r7, #0]
 8000946:	789b      	ldrb	r3, [r3, #2]
 8000948:	2b06      	cmp	r3, #6
 800094a:	d007      	beq.n	800095c <MCAL_GPIO_Init+0x62>
 800094c:	683b      	ldr	r3, [r7, #0]
 800094e:	789b      	ldrb	r3, [r3, #2]
 8000950:	2b05      	cmp	r3, #5
 8000952:	d003      	beq.n	800095c <MCAL_GPIO_Init+0x62>
 8000954:	683b      	ldr	r3, [r7, #0]
 8000956:	789b      	ldrb	r3, [r3, #2]
 8000958:	2b04      	cmp	r3, #4
 800095a:	d10e      	bne.n	800097a <MCAL_GPIO_Init+0x80>
 800095c:	683b      	ldr	r3, [r7, #0]
 800095e:	789b      	ldrb	r3, [r3, #2]
 8000960:	3b04      	subs	r3, #4
 8000962:	009b      	lsls	r3, r3, #2
 8000964:	b25a      	sxtb	r2, r3
 8000966:	683b      	ldr	r3, [r7, #0]
 8000968:	78db      	ldrb	r3, [r3, #3]
 800096a:	b25b      	sxtb	r3, r3
 800096c:	4313      	orrs	r3, r2
 800096e:	b25b      	sxtb	r3, r3
 8000970:	b2db      	uxtb	r3, r3
 8000972:	f003 030f 	and.w	r3, r3, #15
 8000976:	73fb      	strb	r3, [r7, #15]
 8000978:	e02c      	b.n	80009d4 <MCAL_GPIO_Init+0xda>
 800097a:	683b      	ldr	r3, [r7, #0]
 800097c:	789b      	ldrb	r3, [r3, #2]
 800097e:	2b01      	cmp	r3, #1
 8000980:	d003      	beq.n	800098a <MCAL_GPIO_Init+0x90>
 8000982:	683b      	ldr	r3, [r7, #0]
 8000984:	789b      	ldrb	r3, [r3, #2]
 8000986:	2b00      	cmp	r3, #0
 8000988:	d107      	bne.n	800099a <MCAL_GPIO_Init+0xa0>
 800098a:	683b      	ldr	r3, [r7, #0]
 800098c:	789b      	ldrb	r3, [r3, #2]
 800098e:	009b      	lsls	r3, r3, #2
 8000990:	b2db      	uxtb	r3, r3
 8000992:	f003 030f 	and.w	r3, r3, #15
 8000996:	73fb      	strb	r3, [r7, #15]
 8000998:	e01c      	b.n	80009d4 <MCAL_GPIO_Init+0xda>
 800099a:	683b      	ldr	r3, [r7, #0]
 800099c:	789b      	ldrb	r3, [r3, #2]
 800099e:	2b08      	cmp	r3, #8
 80009a0:	d102      	bne.n	80009a8 <MCAL_GPIO_Init+0xae>
 80009a2:	2304      	movs	r3, #4
 80009a4:	73fb      	strb	r3, [r7, #15]
 80009a6:	e015      	b.n	80009d4 <MCAL_GPIO_Init+0xda>
 80009a8:	2308      	movs	r3, #8
 80009aa:	73fb      	strb	r3, [r7, #15]
 80009ac:	683b      	ldr	r3, [r7, #0]
 80009ae:	789b      	ldrb	r3, [r3, #2]
 80009b0:	2b02      	cmp	r3, #2
 80009b2:	d107      	bne.n	80009c4 <MCAL_GPIO_Init+0xca>
 80009b4:	687b      	ldr	r3, [r7, #4]
 80009b6:	68db      	ldr	r3, [r3, #12]
 80009b8:	683a      	ldr	r2, [r7, #0]
 80009ba:	8812      	ldrh	r2, [r2, #0]
 80009bc:	431a      	orrs	r2, r3
 80009be:	687b      	ldr	r3, [r7, #4]
 80009c0:	60da      	str	r2, [r3, #12]
 80009c2:	e007      	b.n	80009d4 <MCAL_GPIO_Init+0xda>
 80009c4:	687b      	ldr	r3, [r7, #4]
 80009c6:	68db      	ldr	r3, [r3, #12]
 80009c8:	683a      	ldr	r2, [r7, #0]
 80009ca:	8812      	ldrh	r2, [r2, #0]
 80009cc:	43d2      	mvns	r2, r2
 80009ce:	401a      	ands	r2, r3
 80009d0:	687b      	ldr	r3, [r7, #4]
 80009d2:	60da      	str	r2, [r3, #12]
 80009d4:	7bfc      	ldrb	r4, [r7, #15]
 80009d6:	683b      	ldr	r3, [r7, #0]
 80009d8:	881b      	ldrh	r3, [r3, #0]
 80009da:	4618      	mov	r0, r3
 80009dc:	f7ff ff2a 	bl	8000834 <Get_CRLH_Position>
 80009e0:	4603      	mov	r3, r0
 80009e2:	fa04 f203 	lsl.w	r2, r4, r3
 80009e6:	68bb      	ldr	r3, [r7, #8]
 80009e8:	681b      	ldr	r3, [r3, #0]
 80009ea:	431a      	orrs	r2, r3
 80009ec:	68bb      	ldr	r3, [r7, #8]
 80009ee:	601a      	str	r2, [r3, #0]
 80009f0:	bf00      	nop
 80009f2:	3714      	adds	r7, #20
 80009f4:	46bd      	mov	sp, r7
 80009f6:	bd90      	pop	{r4, r7, pc}

080009f8 <__libc_init_array>:
 80009f8:	b570      	push	{r4, r5, r6, lr}
 80009fa:	2500      	movs	r5, #0
 80009fc:	4e0c      	ldr	r6, [pc, #48]	; (8000a30 <__libc_init_array+0x38>)
 80009fe:	4c0d      	ldr	r4, [pc, #52]	; (8000a34 <__libc_init_array+0x3c>)
 8000a00:	1ba4      	subs	r4, r4, r6
 8000a02:	10a4      	asrs	r4, r4, #2
 8000a04:	42a5      	cmp	r5, r4
 8000a06:	d109      	bne.n	8000a1c <__libc_init_array+0x24>
 8000a08:	f000 f81a 	bl	8000a40 <_init>
 8000a0c:	2500      	movs	r5, #0
 8000a0e:	4e0a      	ldr	r6, [pc, #40]	; (8000a38 <__libc_init_array+0x40>)
 8000a10:	4c0a      	ldr	r4, [pc, #40]	; (8000a3c <__libc_init_array+0x44>)
 8000a12:	1ba4      	subs	r4, r4, r6
 8000a14:	10a4      	asrs	r4, r4, #2
 8000a16:	42a5      	cmp	r5, r4
 8000a18:	d105      	bne.n	8000a26 <__libc_init_array+0x2e>
 8000a1a:	bd70      	pop	{r4, r5, r6, pc}
 8000a1c:	f856 3025 	ldr.w	r3, [r6, r5, lsl #2]
 8000a20:	4798      	blx	r3
 8000a22:	3501      	adds	r5, #1
 8000a24:	e7ee      	b.n	8000a04 <__libc_init_array+0xc>
 8000a26:	f856 3025 	ldr.w	r3, [r6, r5, lsl #2]
 8000a2a:	4798      	blx	r3
 8000a2c:	3501      	adds	r5, #1
 8000a2e:	e7f2      	b.n	8000a16 <__libc_init_array+0x1e>
 8000a30:	08000a64 	stmdaeq	r0, {r2, r5, r6, r9, fp}
 8000a34:	08000a64 	stmdaeq	r0, {r2, r5, r6, r9, fp}
 8000a38:	08000a64 	stmdaeq	r0, {r2, r5, r6, r9, fp}
 8000a3c:	08000a68 	stmdaeq	r0, {r3, r5, r6, r9, fp}

08000a40 <_init>:
 8000a40:	b5f8      	push	{r3, r4, r5, r6, r7, lr}
 8000a42:	bf00      	nop
 8000a44:	bcf8      	pop	{r3, r4, r5, r6, r7}
 8000a46:	bc08      	pop	{r3}
 8000a48:	469e      	mov	lr, r3
 8000a4a:	4770      	bx	lr

08000a4c <_fini>:
 8000a4c:	b5f8      	push	{r3, r4, r5, r6, r7, lr}
 8000a4e:	bf00      	nop
 8000a50:	bcf8      	pop	{r3, r4, r5, r6, r7}
 8000a52:	bc08      	pop	{r3}
 8000a54:	469e      	mov	lr, r3
 8000a56:	4770      	bx	lr

Disassembly of section .rodata:

08000a58 <.rodata>:
 8000a58:	00000009 	andeq	r0, r0, r9
 8000a5c:	40010c00 	andmi	r0, r1, r0, lsl #24
 8000a60:	00170200 	andseq	r0, r7, r0, lsl #4

Disassembly of section .init_array:

08000a64 <__frame_dummy_init_array_entry>:
 8000a64:	08000155 	stmdaeq	r0, {r0, r2, r4, r6, r8}

Disassembly of section .fini_array:

08000a68 <__do_global_dtors_aux_fini_array_entry>:
 8000a68:	08000131 	stmdaeq	r0, {r0, r4, r5, r8}

Disassembly of section .bss:

20000000 <__bss_start__>:
20000000:	00000000 	andeq	r0, r0, r0

20000004 <object.8661>:
	...

2000001c <IRQ_Flag>:
2000001c:	00000000 	andeq	r0, r0, r0

20000020 <GP_IRQ_CallBack>:
	...

Disassembly of section ._user_heap_stack:

2000005c <_end-0x4>:
2000005c:	00000000 	andeq	r0, r0, r0

20000060 <_end>:
	...

Disassembly of section .ARM.attributes:

00000000 <.ARM.attributes>:
   0:	00002841 	andeq	r2, r0, r1, asr #16
   4:	61656100 	cmnvs	r5, r0, lsl #2
   8:	01006962 	tsteq	r0, r2, ror #18
   c:	0000001e 	andeq	r0, r0, lr, lsl r0
  10:	4d2d3705 	stcmi	7, cr3, [sp, #-20]!	; 0xffffffec
  14:	070a0600 	streq	r0, [sl, -r0, lsl #12]
  18:	1202094d 	andne	r0, r2, #1261568	; 0x134000
  1c:	15011404 	strne	r1, [r1, #-1028]	; 0xfffffbfc
  20:	18031701 	stmdane	r3, {r0, r8, r9, sl, ip}
  24:	22011a01 	andcs	r1, r1, #4096	; 0x1000
  28:	Address 0x0000000000000028 is out of bounds.


Disassembly of section .debug_info:

00000000 <.debug_info>:
       0:	00000c7f 	andeq	r0, r0, pc, ror ip
       4:	00000002 	andeq	r0, r0, r2
       8:	01040000 	mrseq	r0, (UNDEF: 4)
       c:	0000878a 	andeq	r8, r0, sl, lsl #15
      10:	0030ad0c 	eorseq	sl, r0, ip, lsl #26
      14:	00359600 	eorseq	r9, r5, r0, lsl #12
	...
      2c:	07040200 	streq	r0, [r4, -r0, lsl #4]
      30:	000020e4 	andeq	r2, r0, r4, ror #1
      34:	69050403 	stmdbvs	r5, {r0, r1, sl}
      38:	0200746e 	andeq	r7, r0, #1845493760	; 0x6e000000
      3c:	50d90508 	sbcspl	r0, r9, r8, lsl #10
      40:	08020000 	stmdaeq	r2, {}	; <UNPREDICTABLE>
      44:	0002a304 	andeq	sl, r2, r4, lsl #6
      48:	06010200 	streq	r0, [r1], -r0, lsl #4
      4c:	00000795 	muleq	r0, r5, r7
      50:	00129e04 	andseq	r9, r2, r4, lsl #28
      54:	5b2b0200 	blpl	ac085c <_Min_Stack_Size+0xac045c>
      58:	02000000 	andeq	r0, r0, #0
      5c:	30210801 	eorcc	r0, r1, r1, lsl #16
      60:	02020000 	andeq	r0, r2, #0
      64:	0009f105 	andeq	pc, r9, r5, lsl #2
      68:	296f0400 	stmdbcs	pc!, {sl}^	; <UNPREDICTABLE>
      6c:	39020000 	stmdbcc	r2, {}	; <UNPREDICTABLE>
      70:	00000074 	andeq	r0, r0, r4, ror r0
      74:	44070202 	strmi	r0, [r7], #-514	; 0xfffffdfe
      78:	02000068 	andeq	r0, r0, #104	; 0x68
      7c:	6aa30504 	bvs	fe8c1494 <_estack+0xde8bec94>
      80:	d6040000 	strle	r0, [r4], -r0
      84:	02000040 	andeq	r0, r0, #64	; 0x40
      88:	00008d4f 	andeq	r8, r0, pc, asr #26
      8c:	07040200 	streq	r0, [r4, -r0, lsl #4]
      90:	00001943 	andeq	r1, r0, r3, asr #18
      94:	aa070802 	bge	1c20a4 <_Min_Stack_Size+0x1c1ca4>
      98:	04000074 	streq	r0, [r0], #-116	; 0xffffff8c
      9c:	00004367 	andeq	r4, r0, r7, ror #6
      a0:	00340c03 	eorseq	r0, r4, r3, lsl #24
      a4:	8f040000 	svchi	0x00040000
      a8:	04000083 	streq	r0, [r0], #-131	; 0xffffff7d
      ac:	00007b2c 	andeq	r7, r0, ip, lsr #22
      b0:	82c00400 	sbchi	r0, r0, #0, 8
      b4:	72040000 	andvc	r0, r4, #0
      b8:	0000007b 	andeq	r0, r0, fp, ror r0
      bc:	0022f405 	eoreq	pc, r2, r5, lsl #8
      c0:	01650500 	cmneq	r5, r0, lsl #10
      c4:	0000002d 	andeq	r0, r0, sp, lsr #32
      c8:	a6040406 	strge	r0, [r4], -r6, lsl #8
      cc:	000000e7 	andeq	r0, r0, r7, ror #1
      d0:	00149d07 	andseq	r9, r4, r7, lsl #26
      d4:	bca80400 	cfstrslt	mvf0, [r8]
      d8:	07000000 	streq	r0, [r0, -r0]
      dc:	000063ea 	andeq	r6, r0, sl, ror #7
      e0:	00e7a904 	rsceq	sl, r7, r4, lsl #18
      e4:	08000000 	stmdaeq	r0, {}	; <UNPREDICTABLE>
      e8:	0000005b 	andeq	r0, r0, fp, asr r0
      ec:	000000f7 	strdeq	r0, [r0], -r7
      f0:	00002d09 	andeq	r2, r0, r9, lsl #26
      f4:	0a000300 	beq	cfc <_Min_Stack_Size+0x8fc>
      f8:	1ca30408 	cfstrsne	mvf0, [r3], #32
      fc:	0b000001 	bleq	108 <_Min_Heap_Size-0xf8>
     100:	00005e9d 	muleq	r0, sp, lr
     104:	0034a504 	eorseq	sl, r4, r4, lsl #10
     108:	23020000 	movwcs	r0, #8192	; 0x2000
     10c:	01f20b00 	mvnseq	r0, r0, lsl #22
     110:	aa040000 	bge	100118 <_Min_Stack_Size+0xffd18>
     114:	000000c8 	andeq	r0, r0, r8, asr #1
     118:	00042302 	andeq	r2, r4, r2, lsl #6
     11c:	0052e104 	subseq	lr, r2, r4, lsl #2
     120:	f7ab0400 			; <UNDEFINED> instruction: 0xf7ab0400
     124:	04000000 	streq	r0, [r0], #-0
     128:	00006c6e 	andeq	r6, r0, lr, ror #24
     12c:	009baf04 	addseq	sl, fp, r4, lsl #30
     130:	040c0000 	streq	r0, [ip], #-0
     134:	013a040d 	teqeq	sl, sp, lsl #8
     138:	01020000 	mrseq	r0, (UNDEF: 2)
     13c:	00079c08 	andeq	r9, r7, r8, lsl #24
     140:	013a0e00 	teqeq	sl, r0, lsl #28
     144:	4b040000 	blmi	10014c <_Min_Stack_Size+0xffd4c>
     148:	06000081 	streq	r0, [r0], -r1, lsl #1
     14c:	00008d16 	andeq	r8, r0, r6, lsl sp
     150:	48040f00 	stmdami	r4, {r8, r9, sl, fp}
     154:	06180000 	ldreq	r0, [r8], -r0
     158:	0001b02f 	andeq	fp, r1, pc, lsr #32
     15c:	5ad40b00 	bpl	ff502d64 <_estack+0xdf500564>
     160:	31060000 	mrscc	r0, (UNDEF: 6)
     164:	000001b0 			; <UNDEFINED> instruction: 0x000001b0
     168:	10002302 	andne	r2, r0, r2, lsl #6
     16c:	06006b5f 			; <UNDEFINED> instruction: 0x06006b5f
     170:	00003432 	andeq	r3, r0, r2, lsr r4
     174:	04230200 	strteq	r0, [r3], #-512	; 0xfffffe00
     178:	007a240b 	rsbseq	r2, sl, fp, lsl #8
     17c:	34320600 	ldrtcc	r0, [r2], #-1536	; 0xfffffa00
     180:	02000000 	andeq	r0, r0, #0
     184:	ec0b0823 	stc	8, cr0, [fp], {35}	; 0x23
     188:	06000052 			; <UNDEFINED> instruction: 0x06000052
     18c:	00003432 	andeq	r3, r0, r2, lsr r4
     190:	0c230200 	sfmeq	f0, 4, [r3], #-0
     194:	0035080b 	eorseq	r0, r5, fp, lsl #16
     198:	34320600 	ldrtcc	r0, [r2], #-1536	; 0xfffffa00
     19c:	02000000 	andeq	r0, r0, #0
     1a0:	5f101023 	svcpl	0x00101023
     1a4:	33060078 	movwcc	r0, #24696	; 0x6078
     1a8:	000001b6 			; <UNDEFINED> instruction: 0x000001b6
     1ac:	00142302 	andseq	r2, r4, r2, lsl #6
     1b0:	0151040d 	cmpeq	r1, sp, lsl #8
     1b4:	46080000 	strmi	r0, [r8], -r0
     1b8:	c6000001 	strgt	r0, [r0], -r1
     1bc:	09000001 	stmdbeq	r0, {r0}
     1c0:	0000002d 	andeq	r0, r0, sp, lsr #32
     1c4:	ae0f0000 	cdpge	0, 0, cr0, cr15, cr0, {0}
     1c8:	24000009 	strcs	r0, [r0], #-9
     1cc:	02513706 	subseq	r3, r1, #1572864	; 0x180000
     1d0:	ca0b0000 	bgt	2c01d8 <_Min_Stack_Size+0x2bfdd8>
     1d4:	06000009 	streq	r0, [r0], -r9
     1d8:	00003439 	andeq	r3, r0, r9, lsr r4
     1dc:	00230200 	eoreq	r0, r3, r0, lsl #4
     1e0:	008ca70b 	addeq	sl, ip, fp, lsl #14
     1e4:	343a0600 	ldrtcc	r0, [sl], #-1536	; 0xfffffa00
     1e8:	02000000 	andeq	r0, r0, #0
     1ec:	f20b0423 	vshl.s8	d0, d19, d11
     1f0:	06000084 	streq	r0, [r0], -r4, lsl #1
     1f4:	0000343b 	andeq	r3, r0, fp, lsr r4
     1f8:	08230200 	stmdaeq	r3!, {r9}
     1fc:	0058fd0b 	subseq	pc, r8, fp, lsl #26
     200:	343c0600 	ldrtcc	r0, [ip], #-1536	; 0xfffffa00
     204:	02000000 	andeq	r0, r0, #0
     208:	f60b0c23 			; <UNDEFINED> instruction: 0xf60b0c23
     20c:	06000019 			; <UNDEFINED> instruction: 0x06000019
     210:	0000343d 	andeq	r3, r0, sp, lsr r4
     214:	10230200 	eorne	r0, r3, r0, lsl #4
     218:	007a9c0b 	rsbseq	r9, sl, fp, lsl #24
     21c:	343e0600 	ldrtcc	r0, [lr], #-1536	; 0xfffffa00
     220:	02000000 	andeq	r0, r0, #0
     224:	530b1423 	movwpl	r1, #46115	; 0xb423
     228:	06000060 	streq	r0, [r0], -r0, rrx
     22c:	0000343f 	andeq	r3, r0, pc, lsr r4
     230:	18230200 	stmdane	r3!, {r9}
     234:	0061170b 	rsbeq	r1, r1, fp, lsl #14
     238:	34400600 	strbcc	r0, [r0], #-1536	; 0xfffffa00
     23c:	02000000 	andeq	r0, r0, #0
     240:	ca0b1c23 	bgt	2c72d4 <_Min_Stack_Size+0x2c6ed4>
     244:	0600008a 	streq	r0, [r0], -sl, lsl #1
     248:	00003441 	andeq	r3, r0, r1, asr #8
     24c:	20230200 	eorcs	r0, r3, r0, lsl #4
     250:	13ba1100 			; <UNDEFINED> instruction: 0x13ba1100
     254:	01080000 	mrseq	r0, (UNDEF: 8)
     258:	029a4a06 	addseq	r4, sl, #24576	; 0x6000
     25c:	a30b0000 	movwge	r0, #45056	; 0xb000
     260:	0600000c 	streq	r0, [r0], -ip
     264:	00029a4b 	andeq	r9, r2, fp, asr #20
     268:	00230200 	eoreq	r0, r3, r0, lsl #4
     26c:	0067290b 	rsbeq	r2, r7, fp, lsl #18
     270:	9a4c0600 	bls	1301a78 <_Min_Stack_Size+0x1301678>
     274:	03000002 	movweq	r0, #2
     278:	0b018023 	bleq	6030c <_Min_Stack_Size+0x5ff0c>
     27c:	000018e3 	andeq	r1, r0, r3, ror #17
     280:	01464e06 	cmpeq	r6, r6, lsl #28
     284:	23030000 	movwcs	r0, #12288	; 0x3000
     288:	f00b0280 			; <UNDEFINED> instruction: 0xf00b0280
     28c:	0600007f 			; <UNDEFINED> instruction: 0x0600007f
     290:	00014651 	andeq	r4, r1, r1, asr r6
     294:	84230300 	strthi	r0, [r3], #-768	; 0xfffffd00
     298:	32080002 	andcc	r0, r8, #2
     29c:	aa000001 	bge	2a8 <_Min_Heap_Size+0xa8>
     2a0:	09000002 	stmdbeq	r0, {r1}
     2a4:	0000002d 	andeq	r0, r0, sp, lsr #32
     2a8:	590f001f 	stmdbpl	pc, {r0, r1, r2, r3, r4}	; <UNPREDICTABLE>
     2ac:	8c000047 	stchi	0, cr0, [r0], {71}	; 0x47
     2b0:	02f05506 	rscseq	r5, r0, #25165824	; 0x1800000
     2b4:	d40b0000 	strle	r0, [fp], #-0
     2b8:	0600005a 			; <UNDEFINED> instruction: 0x0600005a
     2bc:	0002f056 	andeq	pc, r2, r6, asr r0	; <UNPREDICTABLE>
     2c0:	00230200 	eoreq	r0, r3, r0, lsl #4
     2c4:	00254d0b 	eoreq	r4, r5, fp, lsl #26
     2c8:	34570600 	ldrbcc	r0, [r7], #-1536	; 0xfffffa00
     2cc:	02000000 	andeq	r0, r0, #0
     2d0:	360b0423 	strcc	r0, [fp], -r3, lsr #8
     2d4:	06000027 	streq	r0, [r0], -r7, lsr #32
     2d8:	0002f658 	andeq	pc, r2, r8, asr r6	; <UNPREDICTABLE>
     2dc:	08230200 	stmdaeq	r3!, {r9}
     2e0:	002cf20b 	eoreq	pc, ip, fp, lsl #4
     2e4:	0e590600 	cdpeq	6, 5, cr0, cr9, cr0, {0}
     2e8:	03000003 	movweq	r0, #3
     2ec:	00018823 	andeq	r8, r1, r3, lsr #16
     2f0:	02aa040d 	adceq	r0, sl, #218103808	; 0xd000000
     2f4:	06080000 	streq	r0, [r8], -r0
     2f8:	06000003 	streq	r0, [r0], -r3
     2fc:	09000003 	stmdbeq	r0, {r0, r1}
     300:	0000002d 	andeq	r0, r0, sp, lsr #32
     304:	040d001f 	streq	r0, [sp], #-31	; 0xffffffe1
     308:	0000030c 	andeq	r0, r0, ip, lsl #6
     30c:	040d0112 	streq	r0, [sp], #-274	; 0xfffffeee
     310:	00000251 	andeq	r0, r0, r1, asr r2
     314:	0002e20f 	andeq	lr, r2, pc, lsl #4
     318:	75060800 	strvc	r0, [r6, #-2048]	; 0xfffff800
     31c:	0000033d 	andeq	r0, r0, sp, lsr r3
     320:	00698c0b 	rsbeq	r8, r9, fp, lsl #24
     324:	3d760600 	ldclcc	6, cr0, [r6, #-0]
     328:	02000003 	andeq	r0, r0, #3
     32c:	020b0023 	andeq	r0, fp, #35	; 0x23
     330:	06000082 	streq	r0, [r0], -r2, lsl #1
     334:	00003477 	andeq	r3, r0, r7, ror r4
     338:	04230200 	strteq	r0, [r3], #-512	; 0xfffffe00
     33c:	5b040d00 	blpl	103744 <_Min_Stack_Size+0x103344>
     340:	0f000000 	svceq	0x00000000
     344:	000034d3 	ldrdeq	r3, [r0], -r3	; <UNPREDICTABLE>
     348:	bd990620 	ldclt	6, cr0, [r9, #128]	; 0x80
     34c:	10000003 	andne	r0, r0, r3
     350:	0600705f 			; <UNDEFINED> instruction: 0x0600705f
     354:	00033d9a 	muleq	r3, sl, sp
     358:	00230200 	eoreq	r0, r3, r0, lsl #4
     35c:	00725f10 	rsbseq	r5, r2, r0, lsl pc
     360:	00349b06 	eorseq	r9, r4, r6, lsl #22
     364:	23020000 	movwcs	r0, #8192	; 0x2000
     368:	775f1004 	ldrbvc	r1, [pc, -r4]
     36c:	349c0600 	ldrcc	r0, [ip], #1536	; 0x600
     370:	02000000 	andeq	r0, r0, #0
     374:	f20b0823 	vadd.i8	d0, d11, d19
     378:	0600005a 			; <UNDEFINED> instruction: 0x0600005a
     37c:	0000629d 	muleq	r0, sp, r2
     380:	0c230200 	sfmeq	f0, 4, [r3], #-0
     384:	0013370b 	andseq	r3, r3, fp, lsl #14
     388:	629e0600 	addsvs	r0, lr, #0, 12
     38c:	02000000 	andeq	r0, r0, #0
     390:	5f100e23 	svcpl	0x00100e23
     394:	06006662 	streq	r6, [r0], -r2, ror #12
     398:	0003149f 	muleq	r3, pc, r4	; <UNPREDICTABLE>
     39c:	10230200 	eorne	r0, r3, r0, lsl #4
     3a0:	007e510b 	rsbseq	r5, lr, fp, lsl #2
     3a4:	34a00600 	strtcc	r0, [r0], #1536	; 0x600
     3a8:	02000000 	andeq	r0, r0, #0
     3ac:	b00b1823 	andlt	r1, fp, r3, lsr #16
     3b0:	0600006e 	streq	r0, [r0], -lr, rrx
     3b4:	00051aa2 	andeq	r1, r5, r2, lsr #21
     3b8:	1c230200 	sfmne	f0, 4, [r3], #-0
     3bc:	03430e00 	movteq	r0, #15872	; 0x3e00
     3c0:	9f130000 	svcls	0x00130000
     3c4:	6000001b 	andvs	r0, r0, fp, lsl r0
     3c8:	1a017406 	bne	5d3e8 <_Min_Stack_Size+0x5cfe8>
     3cc:	14000005 	strne	r0, [r0], #-5
     3d0:	0000448f 	andeq	r4, r0, pc, lsl #9
     3d4:	34017806 	strcc	r7, [r1], #-2054	; 0xfffff7fa
     3d8:	02000000 	andeq	r0, r0, #0
     3dc:	27140023 	ldrcs	r0, [r4, -r3, lsr #32]
     3e0:	0600001e 			; <UNDEFINED> instruction: 0x0600001e
     3e4:	077c017d 			; <UNDEFINED> instruction: 0x077c017d
     3e8:	23020000 	movwcs	r0, #8192	; 0x2000
     3ec:	553b1404 	ldrpl	r1, [fp, #-1028]!	; 0xfffffbfc
     3f0:	7d060000 	stcvc	0, cr0, [r6, #-0]
     3f4:	00077c01 	andeq	r7, r7, r1, lsl #24
     3f8:	08230200 	stmdaeq	r3!, {r9}
     3fc:	0043f114 	subeq	pc, r3, r4, lsl r1	; <UNPREDICTABLE>
     400:	017d0600 	cmneq	sp, r0, lsl #12
     404:	0000077c 	andeq	r0, r0, ip, ror r7
     408:	140c2302 	strne	r2, [ip], #-770	; 0xfffffcfe
     40c:	00002548 	andeq	r2, r0, r8, asr #10
     410:	34017f06 	strcc	r7, [r1], #-3846	; 0xfffff0fa
     414:	02000000 	andeq	r0, r0, #0
     418:	bd141023 	ldclt	0, cr1, [r4, #-140]	; 0xffffff74
     41c:	06000055 			; <UNDEFINED> instruction: 0x06000055
     420:	01340181 	teqeq	r4, r1, lsl #3
     424:	23020000 	movwcs	r0, #8192	; 0x2000
     428:	41711414 	cmnmi	r1, r4, lsl r4
     42c:	83060000 	movwhi	r0, #24576	; 0x6000
     430:	00003401 	andeq	r3, r0, r1, lsl #8
     434:	18230200 	stmdane	r3!, {r9}
     438:	0022d414 	eoreq	sp, r2, r4, lsl r4
     43c:	01850600 	orreq	r0, r5, r0, lsl #12
     440:	00000034 	andeq	r0, r0, r4, lsr r0
     444:	141c2302 	ldrne	r2, [ip], #-770	; 0xfffffcfe
     448:	00008143 	andeq	r8, r0, r3, asr #2
     44c:	f5018606 			; <UNDEFINED> instruction: 0xf5018606
     450:	02000008 	andeq	r0, r0, #8
     454:	5f152023 	svcpl	0x00152023
     458:	0600706d 	streq	r7, [r0], -sp, rrx
     45c:	08fb0188 	ldmeq	fp!, {r3, r7, r8}^
     460:	23020000 	movwcs	r0, #8192	; 0x2000
     464:	49db1424 	ldmibmi	fp, {r2, r5, sl, ip}^
     468:	8a060000 	bhi	180470 <_Min_Stack_Size+0x180070>
     46c:	00090d01 	andeq	r0, r9, r1, lsl #26
     470:	28230200 	stmdacs	r3!, {r9}
     474:	00508914 	subseq	r8, r0, r4, lsl r9
     478:	018c0600 	orreq	r0, ip, r0, lsl #12
     47c:	00000034 	andeq	r0, r0, r4, lsr r0
     480:	142c2302 	strtne	r2, [ip], #-770	; 0xfffffcfe
     484:	000005da 	ldrdeq	r0, [r0], -sl
     488:	34018f06 	strcc	r8, [r1], #-3846	; 0xfffff0fa
     48c:	02000000 	andeq	r0, r0, #0
     490:	8f143023 	svchi	0x00143023
     494:	06000037 			; <UNDEFINED> instruction: 0x06000037
     498:	01340190 	teqeq	r4, r0	; <illegal shifter operand>
     49c:	23020000 	movwcs	r0, #8192	; 0x2000
     4a0:	6d9f1434 	cfldrsvs	mvf1, [pc, #208]	; 578 <_Min_Stack_Size+0x178>
     4a4:	92060000 	andls	r0, r6, #0
     4a8:	00091301 	andeq	r1, r9, r1, lsl #6
     4ac:	38230200 	stmdacc	r3!, {r9}
     4b0:	0017e114 	andseq	lr, r7, r4, lsl r1
     4b4:	01930600 	orrseq	r0, r3, r0, lsl #12
     4b8:	00000919 	andeq	r0, r0, r9, lsl r9
     4bc:	143c2302 	ldrtne	r2, [ip], #-770	; 0xfffffcfe
     4c0:	000005b6 			; <UNDEFINED> instruction: 0x000005b6
     4c4:	34019406 	strcc	r9, [r1], #-1030	; 0xfffffbfa
     4c8:	02000001 	andeq	r0, r0, #1
     4cc:	0d144023 	ldceq	0, cr4, [r4, #-140]	; 0xffffff74
     4d0:	06000036 			; <UNDEFINED> instruction: 0x06000036
     4d4:	092b0197 	stmdbeq	fp!, {r0, r1, r2, r4, r7, r8}
     4d8:	23020000 	movwcs	r0, #8192	; 0x2000
     4dc:	89da1444 	ldmibhi	sl, {r2, r6, sl, ip}^
     4e0:	9f060000 	svcls	0x00060000
     4e4:	00073b01 	andeq	r3, r7, r1, lsl #22
     4e8:	48230200 	stmdami	r3!, {r9}
     4ec:	00027614 	andeq	r7, r2, r4, lsl r6
     4f0:	01a00600 	lsleq	r0, r0, #12
     4f4:	0000077c 	andeq	r0, r0, ip, ror r7
     4f8:	14542302 	ldrbne	r2, [r4], #-770	; 0xfffffcfe
     4fc:	00008119 	andeq	r8, r0, r9, lsl r1
     500:	3701a106 	strcc	sl, [r1, -r6, lsl #2]
     504:	02000009 	andeq	r0, r0, #9
     508:	9d145823 	ldcls	8, cr5, [r4, #-140]	; 0xffffff74
     50c:	06000046 	streq	r0, [r0], -r6, asr #32
     510:	013401a2 	teqeq	r4, r2, lsr #3
     514:	23020000 	movwcs	r0, #8192	; 0x2000
     518:	040d005c 	streq	r0, [sp], #-92	; 0xffffffa4
     51c:	000003c2 	andeq	r0, r0, r2, asr #7
     520:	00051a0e 	andeq	r1, r5, lr, lsl #20
     524:	85080f00 	strhi	r0, [r8, #-3840]	; 0xfffff100
     528:	06680000 	strbteq	r0, [r8], -r0
     52c:	00067fb5 			; <UNDEFINED> instruction: 0x00067fb5
     530:	705f1000 	subsvc	r1, pc, r0
     534:	3db60600 	ldccc	6, cr0, [r6]
     538:	02000003 	andeq	r0, r0, #3
     53c:	5f100023 	svcpl	0x00100023
     540:	b7060072 	smlsdxlt	r6, r2, r0, r0
     544:	00000034 	andeq	r0, r0, r4, lsr r0
     548:	10042302 	andne	r2, r4, r2, lsl #6
     54c:	0600775f 			; <UNDEFINED> instruction: 0x0600775f
     550:	000034b8 			; <UNDEFINED> instruction: 0x000034b8
     554:	08230200 	stmdaeq	r3!, {r9}
     558:	005af20b 	subseq	pc, sl, fp, lsl #4
     55c:	62b90600 	adcsvs	r0, r9, #0, 12
     560:	02000000 	andeq	r0, r0, #0
     564:	370b0c23 	strcc	r0, [fp, -r3, lsr #24]
     568:	06000013 			; <UNDEFINED> instruction: 0x06000013
     56c:	000062ba 			; <UNDEFINED> instruction: 0x000062ba
     570:	0e230200 	cdpeq	2, 2, cr0, cr3, cr0, {0}
     574:	66625f10 	uqadd16vs	r5, r2, r0
     578:	14bb0600 	ldrtne	r0, [fp], #1536	; 0x600
     57c:	02000003 	andeq	r0, r0, #3
     580:	510b1023 	tstpl	fp, r3, lsr #32
     584:	0600007e 			; <UNDEFINED> instruction: 0x0600007e
     588:	000034bc 			; <UNDEFINED> instruction: 0x000034bc
     58c:	18230200 	stmdane	r3!, {r9}
     590:	006eb00b 	rsbeq	fp, lr, fp
     594:	1abf0600 	bne	fefc1d9c <_estack+0xdefbf59c>
     598:	02000005 	andeq	r0, r0, #5
     59c:	6a0b1c23 	bvs	2c7630 <_Min_Stack_Size+0x2c7230>
     5a0:	06000034 			; <UNDEFINED> instruction: 0x06000034
     5a4:	000132c3 	andeq	r3, r1, r3, asr #5
     5a8:	20230200 	eorcs	r0, r3, r0, lsl #4
     5ac:	0002e90b 	andeq	lr, r2, fp, lsl #18
     5b0:	9ec50600 	cdpls	6, 12, cr0, cr5, cr0, {0}
     5b4:	02000006 	andeq	r0, r0, #6
     5b8:	c50b2423 	strgt	r2, [fp, #-1059]	; 0xfffffbdd
     5bc:	06000004 	streq	r0, [r0], -r4
     5c0:	0006c9c7 	andeq	ip, r6, r7, asr #19
     5c4:	28230200 	stmdacs	r3!, {r9}
     5c8:	0062e10b 	rsbeq	lr, r2, fp, lsl #2
     5cc:	eeca0600 	cdp	6, 12, cr0, cr10, cr0, {0}
     5d0:	02000006 	andeq	r0, r0, #6
     5d4:	d20b2c23 	andle	r2, fp, #8960	; 0x2300
     5d8:	06000060 	streq	r0, [r0], -r0, rrx
     5dc:	000709cb 	andeq	r0, r7, fp, asr #19
     5e0:	30230200 	eorcc	r0, r3, r0, lsl #4
     5e4:	62755f10 	rsbsvs	r5, r5, #16, 30	; 0x40
     5e8:	14ce0600 	strbne	r0, [lr], #1536	; 0x600
     5ec:	02000003 	andeq	r0, r0, #3
     5f0:	5f103423 	svcpl	0x00103423
     5f4:	06007075 			; <UNDEFINED> instruction: 0x06007075
     5f8:	00033dcf 	andeq	r3, r3, pc, asr #27
     5fc:	3c230200 	sfmcc	f0, 4, [r3], #-0
     600:	72755f10 	rsbsvc	r5, r5, #16, 30	; 0x40
     604:	34d00600 	ldrbcc	r0, [r0], #1536	; 0x600
     608:	02000000 	andeq	r0, r0, #0
     60c:	930b4023 	movwls	r4, #45091	; 0xb023
     610:	06000059 			; <UNDEFINED> instruction: 0x06000059
     614:	00070fd3 	ldrdeq	r0, [r7], -r3
     618:	44230200 	strtmi	r0, [r3], #-512	; 0xfffffe00
     61c:	0009c40b 	andeq	ip, r9, fp, lsl #8
     620:	1fd40600 	svcne	0x00d40600
     624:	02000007 	andeq	r0, r0, #7
     628:	5f104723 	svcpl	0x00104723
     62c:	0600626c 	streq	r6, [r0], -ip, ror #4
     630:	000314d7 	ldrdeq	r1, [r3], -r7
     634:	48230200 	stmdami	r3!, {r9}
     638:	00693b0b 	rsbeq	r3, r9, fp, lsl #22
     63c:	34da0600 	ldrbcc	r0, [sl], #1536	; 0x600
     640:	02000000 	andeq	r0, r0, #0
     644:	760b5023 	strvc	r5, [fp], -r3, lsr #32
     648:	06000037 			; <UNDEFINED> instruction: 0x06000037
     64c:	0000a6db 	ldrdeq	sl, [r0], -fp
     650:	54230200 	strtpl	r0, [r3], #-512	; 0xfffffe00
     654:	000cab0b 	andeq	sl, ip, fp, lsl #22
     658:	27e20600 	strbcs	r0, [r2, r0, lsl #12]!
     65c:	02000001 	andeq	r0, r0, #1
     660:	600b5823 	andvs	r5, fp, r3, lsr #16
     664:	0600005a 			; <UNDEFINED> instruction: 0x0600005a
     668:	00011ce4 	andeq	r1, r1, r4, ror #25
     66c:	5c230200 	sfmpl	f0, 4, [r3], #-0
     670:	0055790b 	subseq	r7, r5, fp, lsl #18
     674:	34e50600 	strbtcc	r0, [r5], #1536	; 0x600
     678:	02000000 	andeq	r0, r0, #0
     67c:	16006423 	strne	r6, [r0], -r3, lsr #8
     680:	00003401 	andeq	r3, r0, r1, lsl #8
     684:	00069e00 	andeq	r9, r6, r0, lsl #28
     688:	051a1700 	ldreq	r1, [sl, #-1792]	; 0xfffff900
     68c:	32170000 	andscc	r0, r7, #0
     690:	17000001 	strne	r0, [r0, -r1]
     694:	00000134 	andeq	r0, r0, r4, lsr r1
     698:	00003417 	andeq	r3, r0, r7, lsl r4
     69c:	040d0000 	streq	r0, [sp], #-0
     6a0:	0000067f 	andeq	r0, r0, pc, ror r6
     6a4:	00340116 	eorseq	r0, r4, r6, lsl r1
     6a8:	06c30000 	strbeq	r0, [r3], r0
     6ac:	1a170000 	bne	5c06b4 <_Min_Stack_Size+0x5c02b4>
     6b0:	17000005 	strne	r0, [r0, -r5]
     6b4:	00000132 	andeq	r0, r0, r2, lsr r1
     6b8:	0006c317 	andeq	ip, r6, r7, lsl r3
     6bc:	00341700 	eorseq	r1, r4, r0, lsl #14
     6c0:	0d000000 	stceq	0, cr0, [r0, #-0]
     6c4:	00014104 	andeq	r4, r1, r4, lsl #2
     6c8:	a4040d00 	strge	r0, [r4], #-3328	; 0xfffff300
     6cc:	16000006 	strne	r0, [r0], -r6
     6d0:	0000b101 	andeq	fp, r0, r1, lsl #2
     6d4:	0006ee00 	andeq	lr, r6, r0, lsl #28
     6d8:	051a1700 	ldreq	r1, [sl, #-1792]	; 0xfffff900
     6dc:	32170000 	andscc	r0, r7, #0
     6e0:	17000001 	strne	r0, [r0, -r1]
     6e4:	000000b1 	strheq	r0, [r0], -r1
     6e8:	00003417 	andeq	r3, r0, r7, lsl r4
     6ec:	040d0000 	streq	r0, [sp], #-0
     6f0:	000006cf 	andeq	r0, r0, pc, asr #13
     6f4:	00340116 	eorseq	r0, r4, r6, lsl r1
     6f8:	07090000 	streq	r0, [r9, -r0]
     6fc:	1a170000 	bne	5c0704 <_Min_Stack_Size+0x5c0304>
     700:	17000005 	strne	r0, [r0, -r5]
     704:	00000132 	andeq	r0, r0, r2, lsr r1
     708:	f4040d00 			; <UNDEFINED> instruction: 0xf4040d00
     70c:	08000006 	stmdaeq	r0, {r1, r2}
     710:	0000005b 	andeq	r0, r0, fp, asr r0
     714:	0000071f 	andeq	r0, r0, pc, lsl r7
     718:	00002d09 	andeq	r2, r0, r9, lsl #26
     71c:	08000200 	stmdaeq	r0, {r9}
     720:	0000005b 	andeq	r0, r0, fp, asr r0
     724:	0000072f 	andeq	r0, r0, pc, lsr #14
     728:	00002d09 	andeq	r2, r0, r9, lsl #26
     72c:	05000000 	streq	r0, [r0, #-0]
     730:	00006c77 	andeq	r6, r0, r7, ror ip
     734:	25011f06 	strcs	r1, [r1, #-3846]	; 0xfffff0fa
     738:	13000005 	movwne	r0, #5
     73c:	00005296 	muleq	r0, r6, r2
     740:	0123060c 			; <UNDEFINED> instruction: 0x0123060c
     744:	00000776 	andeq	r0, r0, r6, ror r7
     748:	005ad414 	subseq	sp, sl, r4, lsl r4
     74c:	01250600 			; <UNDEFINED> instruction: 0x01250600
     750:	00000776 	andeq	r0, r0, r6, ror r7
     754:	14002302 	strne	r2, [r0], #-770	; 0xfffffcfe
     758:	00002ba6 	andeq	r2, r0, r6, lsr #23
     75c:	34012606 	strcc	r2, [r1], #-1542	; 0xfffff9fa
     760:	02000000 	andeq	r0, r0, #0
     764:	08140423 	ldmdaeq	r4, {r0, r1, r5, sl}
     768:	06000038 			; <UNDEFINED> instruction: 0x06000038
     76c:	077c0127 	ldrbeq	r0, [ip, -r7, lsr #2]!
     770:	23020000 	movwcs	r0, #8192	; 0x2000
     774:	040d0008 	streq	r0, [sp], #-8
     778:	0000073b 	andeq	r0, r0, fp, lsr r7
     77c:	072f040d 	streq	r0, [pc, -sp, lsl #8]!
     780:	c9130000 	ldmdbgt	r3, {}	; <UNPREDICTABLE>
     784:	18000067 	stmdane	r0, {r0, r1, r2, r5, r6}
     788:	cc013f06 	stcgt	15, cr3, [r1], {6}
     78c:	14000007 	strne	r0, [r0], #-7
     790:	00006267 	andeq	r6, r0, r7, ror #4
     794:	cc014006 	stcgt	0, cr4, [r1], {6}
     798:	02000007 	andeq	r0, r0, #7
     79c:	3d140023 	ldccc	0, cr0, [r4, #-140]	; 0xffffff74
     7a0:	0600000e 	streq	r0, [r0], -lr
     7a4:	07cc0141 	strbeq	r0, [ip, r1, asr #2]
     7a8:	23020000 	movwcs	r0, #8192	; 0x2000
     7ac:	845c1406 	ldrbhi	r1, [ip], #-1030	; 0xfffffbfa
     7b0:	42060000 	andmi	r0, r6, #0
     7b4:	00007401 	andeq	r7, r0, r1, lsl #8
     7b8:	0c230200 	sfmeq	f0, 4, [r3], #-0
     7bc:	005acf14 	subseq	ip, sl, r4, lsl pc
     7c0:	01450600 	cmpeq	r5, r0, lsl #12
     7c4:	00000094 	muleq	r0, r4, r0
     7c8:	00102302 	andseq	r2, r0, r2, lsl #6
     7cc:	00007408 	andeq	r7, r0, r8, lsl #8
     7d0:	0007dc00 	andeq	sp, r7, r0, lsl #24
     7d4:	002d0900 	eoreq	r0, sp, r0, lsl #18
     7d8:	00020000 	andeq	r0, r2, r0
     7dc:	004d3313 	subeq	r3, sp, r3, lsl r3
     7e0:	58061000 	stmdapl	r6, {ip}
     7e4:	00082601 	andeq	r2, r8, r1, lsl #12
     7e8:	82341400 	eorshi	r1, r4, #0, 8
     7ec:	5b060000 	blpl	1807f4 <_Min_Stack_Size+0x1803f4>
     7f0:	0001b001 	andeq	fp, r1, r1
     7f4:	00230200 	eoreq	r0, r3, r0, lsl #4
     7f8:	00165d14 	andseq	r5, r6, r4, lsl sp
     7fc:	015c0600 	cmpeq	ip, r0, lsl #12
     800:	00000034 	andeq	r0, r0, r4, lsr r0
     804:	14042302 	strne	r2, [r4], #-770	; 0xfffffcfe
     808:	00003485 	andeq	r3, r0, r5, lsl #9
     80c:	b0015d06 	andlt	r5, r1, r6, lsl #26
     810:	02000001 	andeq	r0, r0, #1
     814:	df140823 	svcle	0x00140823
     818:	06000051 			; <UNDEFINED> instruction: 0x06000051
     81c:	0826015e 	stmdaeq	r6!, {r1, r2, r3, r4, r6, r8}
     820:	23020000 	movwcs	r0, #8192	; 0x2000
     824:	040d000c 	streq	r0, [sp], #-12
     828:	000001b0 			; <UNDEFINED> instruction: 0x000001b0
     82c:	001b9a13 	andseq	r9, fp, r3, lsl sl
     830:	62065000 	andvs	r5, r6, #0
     834:	0008df01 	andeq	sp, r8, r1, lsl #30
     838:	6a621400 	bvs	1885840 <_Min_Stack_Size+0x1885440>
     83c:	65060000 	strvs	r0, [r6, #-0]
     840:	00013401 	andeq	r3, r1, r1, lsl #8
     844:	00230200 	eoreq	r0, r3, r0, lsl #4
     848:	0075ea14 	rsbseq	lr, r5, r4, lsl sl
     84c:	01660600 	cmneq	r6, r0, lsl #12
     850:	0000011c 	andeq	r0, r0, ip, lsl r1
     854:	14042302 	strne	r2, [r4], #-770	; 0xfffffcfe
     858:	00005a38 	andeq	r5, r0, r8, lsr sl
     85c:	1c016706 	stcne	7, cr6, [r1], {6}
     860:	02000001 	andeq	r0, r0, #1
     864:	91140c23 	tstls	r4, r3, lsr #24
     868:	06000064 	streq	r0, [r0], -r4, rrx
     86c:	011c0168 	tsteq	ip, r8, ror #2
     870:	23020000 	movwcs	r0, #8192	; 0x2000
     874:	0a751414 	beq	1d458cc <_Min_Stack_Size+0x1d454cc>
     878:	69060000 	stmdbvs	r6, {}	; <UNPREDICTABLE>
     87c:	0008df01 	andeq	sp, r8, r1, lsl #30
     880:	1c230200 	sfmne	f0, 4, [r3], #-0
     884:	000e3014 	andeq	r3, lr, r4, lsl r0
     888:	016a0600 	cmneq	sl, r0, lsl #12
     88c:	00000034 	andeq	r0, r0, r4, lsr r0
     890:	14242302 	strtne	r2, [r4], #-770	; 0xfffffcfe
     894:	000015ef 	andeq	r1, r0, pc, ror #11
     898:	1c016b06 			; <UNDEFINED> instruction: 0x1c016b06
     89c:	02000001 	andeq	r0, r0, #1
     8a0:	c5142823 	ldrgt	r2, [r4, #-2083]	; 0xfffff7dd
     8a4:	0600006a 	streq	r0, [r0], -sl, rrx
     8a8:	011c016c 	tsteq	ip, ip, ror #2
     8ac:	23020000 	movwcs	r0, #8192	; 0x2000
     8b0:	86ac1430 			; <UNDEFINED> instruction: 0x86ac1430
     8b4:	6d060000 	stcvs	0, cr0, [r6, #-0]
     8b8:	00011c01 	andeq	r1, r1, r1, lsl #24
     8bc:	38230200 	stmdacc	r3!, {r9}
     8c0:	00587714 	subseq	r7, r8, r4, lsl r7
     8c4:	016e0600 	cmneq	lr, r0, lsl #12
     8c8:	0000011c 	andeq	r0, r0, ip, lsl r1
     8cc:	14402302 	strbne	r2, [r0], #-770	; 0xfffffcfe
     8d0:	000009b3 			; <UNDEFINED> instruction: 0x000009b3
     8d4:	1c016f06 	stcne	15, cr6, [r1], {6}
     8d8:	02000001 	andeq	r0, r0, #1
     8dc:	08004823 	stmdaeq	r0, {r0, r1, r5, fp, lr}
     8e0:	0000013a 	andeq	r0, r0, sl, lsr r1
     8e4:	000008ef 	andeq	r0, r0, pc, ror #17
     8e8:	00002d09 	andeq	r2, r0, r9, lsl #26
     8ec:	18000700 	stmdane	r0, {r8, r9, sl}
     8f0:	000001ce 	andeq	r0, r0, lr, asr #3
     8f4:	ef040d01 	svc	0x00040d01
     8f8:	0d000008 	stceq	0, cr0, [r0, #-32]	; 0xffffffe0
     8fc:	0007dc04 	andeq	sp, r7, r4, lsl #24
     900:	0d011900 	vstreq.16	s2, [r1, #-0]	; <UNPREDICTABLE>
     904:	17000009 	strne	r0, [r0, -r9]
     908:	0000051a 	andeq	r0, r0, sl, lsl r5
     90c:	01040d00 	tsteq	r4, r0, lsl #26
     910:	0d000009 	stceq	0, cr0, [r0, #-36]	; 0xffffffdc
     914:	00078204 	andeq	r8, r7, r4, lsl #4
     918:	c6040d00 	strgt	r0, [r4], -r0, lsl #26
     91c:	19000001 	stmdbne	r0, {r0}
     920:	00092b01 	andeq	r2, r9, r1, lsl #22
     924:	00341700 	eorseq	r1, r4, r0, lsl #14
     928:	0d000000 	stceq	0, cr0, [r0, #-0]
     92c:	00093104 	andeq	r3, r9, r4, lsl #2
     930:	1f040d00 	svcne	0x00040d00
     934:	0d000009 	stceq	0, cr0, [r0, #-36]	; 0xffffffdc
     938:	00082c04 	andeq	r2, r8, r4, lsl #24
     93c:	1e1e1a00 	vnmlsne.f32	s2, s28, s0
     940:	ca060000 	bgt	180948 <_Min_Stack_Size+0x180548>
     944:	0003bd01 	andeq	fp, r3, r1, lsl #26
     948:	1a010100 	bne	40d50 <_Min_Stack_Size+0x40950>
     94c:	00005532 	andeq	r5, r0, r2, lsr r5
     950:	bd01cb06 	vstrlt	d12, [r1, #-24]	; 0xffffffe8
     954:	01000003 	tsteq	r0, r3
     958:	43e81a01 	mvnmi	r1, #4096	; 0x1000
     95c:	cc060000 	stcgt	0, cr0, [r6], {-0}
     960:	0003bd01 	andeq	fp, r3, r1, lsl #26
     964:	1a010100 	bne	40d6c <_Min_Stack_Size+0x4096c>
     968:	00002ae2 	andeq	r2, r0, r2, ror #21
     96c:	1a032e06 	bne	cc18c <_Min_Stack_Size+0xcbd8c>
     970:	01000005 	tsteq	r0, r5
     974:	7a731a01 	bvc	1cc7180 <_Min_Stack_Size+0x1cc6d80>
     978:	2f060000 	svccs	0x00060000
     97c:	00052003 	andeq	r2, r5, r3
     980:	1a010100 	bne	40d88 <_Min_Stack_Size+0x40988>
     984:	00004752 	andeq	r4, r0, r2, asr r7
     988:	f0034106 			; <UNDEFINED> instruction: 0xf0034106
     98c:	01000002 	tsteq	r0, r2
     990:	79881b01 	stmibvc	r8, {r0, r8, r9, fp, ip}
     994:	63070000 	movwvs	r0, #28672	; 0x7000
     998:	00000134 	andeq	r0, r0, r4, lsr r1
     99c:	a0040101 	andge	r0, r4, r1, lsl #2
     9a0:	08000012 	stmdaeq	r0, {r1, r4}
     9a4:	00005018 	andeq	r5, r0, r8, lsl r0
     9a8:	29710400 	ldmdbcs	r1!, {sl}^
     9ac:	24080000 	strcs	r0, [r8], #-0
     9b0:	00000069 	andeq	r0, r0, r9, rrx
     9b4:	0040d804 	subeq	sp, r0, r4, lsl #16
     9b8:	82300800 	eorshi	r0, r0, #0, 16
     9bc:	1c000000 	stcne	0, cr0, [r0], {-0}
     9c0:	000009b4 			; <UNDEFINED> instruction: 0x000009b4
     9c4:	6e091c0a 	cdpvs	12, 0, cr1, cr9, cr10, {0}
     9c8:	00000a2f 	andeq	r0, r0, pc, lsr #20
     9cc:	4c524310 	mrrcmi	3, 1, r4, r2, cr0
     9d0:	bf700900 	svclt	0x00700900
     9d4:	02000009 	andeq	r0, r0, #9
     9d8:	43100023 	tstmi	r0, #35	; 0x23
     9dc:	09004852 	stmdbeq	r0, {r1, r4, r6, fp, lr}
     9e0:	0009bf71 	andeq	fp, r9, r1, ror pc
     9e4:	04230200 	strteq	r0, [r3], #-512	; 0xfffffe00
     9e8:	52444910 	subpl	r4, r4, #16, 18	; 0x40000
     9ec:	bf720900 	svclt	0x00720900
     9f0:	02000009 	andeq	r0, r0, #9
     9f4:	4f100823 	svcmi	0x00100823
     9f8:	09005244 	stmdbeq	r0, {r2, r6, r9, ip, lr}
     9fc:	0009bf73 	andeq	fp, r9, r3, ror pc
     a00:	0c230200 	sfmeq	f0, 4, [r3], #-0
     a04:	007cbd0b 	rsbseq	fp, ip, fp, lsl #26
     a08:	bf740900 	svclt	0x00740900
     a0c:	02000009 	andeq	r0, r0, #9
     a10:	42101023 	andsmi	r1, r0, #35	; 0x23
     a14:	09005252 	stmdbeq	r0, {r1, r4, r6, r9, ip, lr}
     a18:	0009bf75 	andeq	fp, r9, r5, ror pc
     a1c:	14230200 	strtne	r0, [r3], #-512	; 0xfffffe00
     a20:	0046a90b 	subeq	sl, r6, fp, lsl #18
     a24:	bf760900 	svclt	0x00760900
     a28:	02000009 	andeq	r0, r0, #9
     a2c:	04001823 	streq	r1, [r0], #-2083	; 0xfffff7dd
     a30:	00007e0b 	andeq	r7, r0, fp, lsl #28
     a34:	09c47709 	stmibeq	r4, {r0, r3, r8, r9, sl, ip, sp, lr}^
     a38:	280a0000 	stmdacs	sl, {}	; <UNPREDICTABLE>
     a3c:	0ace7d09 	beq	ff39fe68 <_estack+0xdf39d668>
     a40:	43100000 	tstmi	r0, #0
     a44:	7f090052 	svcvc	0x00090052
     a48:	000009bf 			; <UNDEFINED> instruction: 0x000009bf
     a4c:	0b002302 	bleq	965c <_Min_Stack_Size+0x925c>
     a50:	0000372c 	andeq	r3, r0, ip, lsr #14
     a54:	09bf8009 	ldmibeq	pc!, {r0, r3, pc}	; <UNPREDICTABLE>
     a58:	23020000 	movwcs	r0, #8192	; 0x2000
     a5c:	49431004 	stmdbmi	r3, {r2, ip}^
     a60:	81090052 	qaddhi	r0, r2, r9
     a64:	000009bf 			; <UNDEFINED> instruction: 0x000009bf
     a68:	0b082302 	bleq	209678 <_Min_Stack_Size+0x209278>
     a6c:	00005098 	muleq	r0, r8, r0
     a70:	09bf8209 	ldmibeq	pc!, {r0, r3, r9, pc}	; <UNPREDICTABLE>
     a74:	23020000 	movwcs	r0, #8192	; 0x2000
     a78:	64160b0c 	ldrvs	r0, [r6], #-2828	; 0xfffff4f4
     a7c:	83090000 	movwhi	r0, #36864	; 0x9000
     a80:	000009bf 			; <UNDEFINED> instruction: 0x000009bf
     a84:	0b102302 	bleq	409694 <_Min_Stack_Size+0x409294>
     a88:	00007aa6 	andeq	r7, r0, r6, lsr #21
     a8c:	09bf8409 	ldmibeq	pc!, {r0, r3, sl, pc}	; <UNPREDICTABLE>
     a90:	23020000 	movwcs	r0, #8192	; 0x2000
     a94:	1a2c0b14 	bne	b036ec <_Min_Stack_Size+0xb032ec>
     a98:	85090000 	strhi	r0, [r9, #-0]
     a9c:	000009bf 			; <UNDEFINED> instruction: 0x000009bf
     aa0:	0b182302 	bleq	6096b0 <_Min_Stack_Size+0x6092b0>
     aa4:	00006489 	andeq	r6, r0, r9, lsl #9
     aa8:	09bf8609 	ldmibeq	pc!, {r0, r3, r9, sl, pc}	; <UNPREDICTABLE>
     aac:	23020000 	movwcs	r0, #8192	; 0x2000
     ab0:	314c0b1c 	cmpcc	ip, ip, lsl fp
     ab4:	87090000 	strhi	r0, [r9, -r0]
     ab8:	000009bf 			; <UNDEFINED> instruction: 0x000009bf
     abc:	10202302 	eorne	r2, r0, r2, lsl #6
     ac0:	00525343 	subseq	r5, r2, r3, asr #6
     ac4:	09bf8809 	ldmibeq	pc!, {r0, r3, fp, pc}	; <UNPREDICTABLE>
     ac8:	23020000 	movwcs	r0, #8192	; 0x2000
     acc:	be040024 	cdplt	0, 0, cr0, cr4, cr4, {1}
     ad0:	09000075 	stmdbeq	r0, {r0, r2, r4, r5, r6}
     ad4:	000a3a89 	andeq	r3, sl, r9, lsl #21
     ad8:	0a0c0a00 	beq	3032e0 <_Min_Stack_Size+0x302ee0>
     adc:	000b1a13 	andeq	r1, fp, r3, lsl sl
     ae0:	49e50b00 	stmibmi	r5!, {r8, r9, fp}^
     ae4:	150a0000 	strne	r0, [sl, #-0]
     ae8:	000009a9 	andeq	r0, r0, r9, lsr #19
     aec:	0b002302 	bleq	96fc <_Min_Stack_Size+0x92fc>
     af0:	00006857 	andeq	r6, r0, r7, asr r8
     af4:	0b1a160a 	bleq	686324 <_Min_Stack_Size+0x685f24>
     af8:	23020000 	movwcs	r0, #8192	; 0x2000
     afc:	72700b04 	rsbsvc	r0, r0, #4, 22	; 0x1000
     b00:	170a0000 	strne	r0, [sl, -r0]
     b04:	000009a9 	andeq	r0, r0, r9, lsr #19
     b08:	0b082302 	bleq	209718 <_Min_Stack_Size+0x209318>
     b0c:	000089f1 	strdeq	r8, [r0], -r1
     b10:	099e180a 	ldmibeq	lr, {r1, r3, fp, ip}
     b14:	23020000 	movwcs	r0, #8192	; 0x2000
     b18:	040d000a 	streq	r0, [sp], #-10
     b1c:	00000a2f 	andeq	r0, r0, pc, lsr #20
     b20:	000df504 	andeq	pc, sp, r4, lsl #10
     b24:	d9190a00 	ldmdble	r9, {r9, fp}
     b28:	0a00000a 	beq	b58 <_Min_Stack_Size+0x758>
     b2c:	6c1c0a14 			; <UNDEFINED> instruction: 0x6c1c0a14
     b30:	0b00000b 	bleq	b64 <_Min_Stack_Size+0x764>
     b34:	00005136 	andeq	r5, r0, r6, lsr r1
     b38:	0b201e0a 	bleq	808368 <_Min_Stack_Size+0x807f68>
     b3c:	23020000 	movwcs	r0, #8192	; 0x2000
     b40:	8c030b00 			; <UNDEFINED> instruction: 0x8c030b00
     b44:	210a0000 	mrscs	r0, (UNDEF: 10)
     b48:	0000099e 	muleq	r0, lr, r9
     b4c:	0b0c2302 	bleq	30975c <_Min_Stack_Size+0x30935c>
     b50:	000001fa 	strdeq	r0, [r0], -sl
     b54:	099e240a 	ldmibeq	lr, {r1, r3, sl, sp}
     b58:	23020000 	movwcs	r0, #8192	; 0x2000
     b5c:	8fdd0b0d 	svchi	0x00dd0b0d
     b60:	280a0000 	stmdacs	sl, {}	; <UNPREDICTABLE>
     b64:	00000306 	andeq	r0, r0, r6, lsl #6
     b68:	00102302 	andseq	r2, r0, r2, lsl #6
     b6c:	002b0404 	eoreq	r0, fp, r4, lsl #8
     b70:	2b2b0a00 	blcs	ac3378 <_Min_Stack_Size+0xac2f78>
     b74:	1d00000b 	stcne	0, cr0, [r0, #-44]	; 0xffffffd4
     b78:	00002f8a 	andeq	r2, r0, sl, lsl #31
     b7c:	09a92101 	stmibeq	r9!, {r0, r8, sp}
     b80:	05010000 	streq	r0, [r1, #-0]
     b84:	00001c03 	andeq	r1, r0, r3, lsl #24
     b88:	11dc1d20 	bicsne	r1, ip, r0, lsr #26
     b8c:	26010000 	strcs	r0, [r1], -r0
     b90:	00000034 	andeq	r0, r0, r4, lsr r0
     b94:	00030501 	andeq	r0, r3, r1, lsl #10
     b98:	1d000000 	stcne	0, cr0, [r0, #-0]
     b9c:	000011e1 	andeq	r1, r0, r1, ror #3
     ba0:	00342701 	eorseq	r2, r4, r1, lsl #14
     ba4:	05010000 	streq	r0, [r1, #-0]
     ba8:	00000003 	andeq	r0, r0, r3
     bac:	11e61d00 	mvnne	r1, r0, lsl #26
     bb0:	29010000 	stmdbcs	r1, {}	; <UNPREDICTABLE>
     bb4:	00000034 	andeq	r0, r0, r4, lsr r0
     bb8:	00030501 	andeq	r0, r3, r1, lsl #10
     bbc:	1d000000 	stcne	0, cr0, [r0, #-0]
     bc0:	000011eb 	andeq	r1, r0, fp, ror #3
     bc4:	00342a01 	eorseq	r2, r4, r1, lsl #20
     bc8:	05010000 	streq	r0, [r1, #-0]
     bcc:	00000003 	andeq	r0, r0, r3
     bd0:	0bb31d00 	bleq	fecc7fd8 <_estack+0xdecc57d8>
     bd4:	2d010000 	stccs	0, cr0, [r1, #-0]
     bd8:	00000034 	andeq	r0, r0, r4, lsr r0
     bdc:	00030501 	andeq	r0, r3, r1, lsl #10
     be0:	1d000000 	stcne	0, cr0, [r0, #-0]
     be4:	00001e94 	muleq	r0, r4, lr
     be8:	00342e01 	eorseq	r2, r4, r1, lsl #28
     bec:	05010000 	streq	r0, [r1, #-0]
     bf0:	00000003 	andeq	r0, r0, r3
     bf4:	01071e00 	tsteq	r7, r0, lsl #28
     bf8:	0000005b 	andeq	r0, r0, fp, asr r0
     bfc:	0c0f3101 	stfeqs	f3, [pc], {1}
     c00:	121f0000 	andsne	r0, pc, #0
     c04:	0000004c 	andeq	r0, r0, ip, asr #32
     c08:	004c101f 	subeq	r1, ip, pc, lsl r0
     c0c:	04000100 	streq	r0, [r0], #-256	; 0xffffff00
     c10:	00005bea 	andeq	r5, r0, sl, ror #23
     c14:	0bf53401 	bleq	ffd4dc20 <_estack+0xdfd4b420>
     c18:	01200000 			; <UNDEFINED> instruction: 0x01200000
     c1c:	00001879 	andeq	r1, r0, r9, ror r8
     c20:	34015501 	strcc	r5, [r1], #-1281	; 0xfffffaff
     c24:	c8000000 	stmdagt	r0, {}	; <UNPREDICTABLE>
     c28:	38080001 	stmdacc	r8, {r0}
     c2c:	00080002 	andeq	r0, r8, r2
     c30:	01000000 	mrseq	r0, (UNDEF: 0)
     c34:	00000c47 	andeq	r0, r0, r7, asr #24
     c38:	007e7e21 	rsbseq	r7, lr, r1, lsr #28
     c3c:	6c610100 	stfvse	f0, [r1], #-0
     c40:	0200000b 	andeq	r0, r0, #11
     c44:	22006491 	andcs	r6, r0, #-1862270976	; 0x91000000
     c48:	00870801 	addeq	r0, r7, r1, lsl #16
     c4c:	014b0100 	mrseq	r0, (UNDEF: 91)
     c50:	080001b0 	stmdaeq	r0, {r4, r5, r7, r8}
     c54:	080001c8 	stmdaeq	r0, {r3, r6, r7, r8}
     c58:	00000038 	andeq	r0, r0, r8, lsr r0
     c5c:	c0012301 	andgt	r2, r1, r1, lsl #6
     c60:	01000080 	smlabbeq	r0, r0, r0, r0
     c64:	01700136 	cmneq	r0, r6, lsr r1
     c68:	01b00800 	lslseq	r0, r0, #16
     c6c:	00640800 	rsbeq	r0, r4, r0, lsl #16
     c70:	24010000 	strcs	r0, [r1], #-0
     c74:	0000005a 	andeq	r0, r0, sl, asr r0
     c78:	0c0f3601 	stceq	6, cr3, [pc], {1}
     c7c:	91020000 	mrsls	r0, (UNDEF: 2)
     c80:	1e000077 	mcrne	0, 0, r0, cr0, cr7, {3}
     c84:	02000000 	andeq	r0, r0, #0
     c88:	0001eb00 	andeq	lr, r1, r0, lsl #22
     c8c:	33010400 	movwcc	r0, #5120	; 0x1400
     c90:	20000006 	andcs	r0, r0, r6
     c94:	69000000 	stmdbvs	r0, {}	; <UNPREDICTABLE>
     c98:	9600008e 	strls	r0, [r0], -lr, lsl #1
     c9c:	8c000035 	stchi	0, cr0, [r0], {53}	; 0x35
     ca0:	0100008e 	smlabbeq	r0, lr, r0, r0
     ca4:	000dbb80 	andeq	fp, sp, r0, lsl #23
     ca8:	fd000200 	stc2	2, cr0, [r0, #-0]
     cac:	04000001 	streq	r0, [r0], #-1
     cb0:	00878a01 	addeq	r8, r7, r1, lsl #20
     cb4:	90330c00 	eorsls	r0, r3, r0, lsl #24
     cb8:	35960000 	ldrcc	r0, [r6]
     cbc:	00400000 	subeq	r0, r0, r0
	...
     cc8:	06b70000 	ldrteq	r0, [r7], r0
     ccc:	03b50000 			; <UNDEFINED> instruction: 0x03b50000
     cd0:	04020000 	streq	r0, [r2], #-0
     cd4:	0020e407 	eoreq	lr, r0, r7, lsl #8
     cd8:	05040300 	streq	r0, [r4, #-768]	; 0xfffffd00
     cdc:	00746e69 	rsbseq	r6, r4, r9, ror #28
     ce0:	d9050802 	stmdble	r5, {r1, fp}
     ce4:	02000050 	andeq	r0, r0, #80	; 0x50
     ce8:	02a30408 	adceq	r0, r3, #8, 8	; 0x8000000
     cec:	01020000 	mrseq	r0, (UNDEF: 2)
     cf0:	00079506 	andeq	r9, r7, r6, lsl #10
     cf4:	129e0400 	addsne	r0, lr, #0, 8
     cf8:	2b020000 	blcs	80d00 <_Min_Stack_Size+0x80900>
     cfc:	0000005b 	andeq	r0, r0, fp, asr r0
     d00:	21080102 	tstcs	r8, r2, lsl #2
     d04:	02000030 	andeq	r0, r0, #48	; 0x30
     d08:	09f10502 	ldmibeq	r1!, {r1, r8, sl}^
     d0c:	6f040000 	svcvs	0x00040000
     d10:	02000029 	andeq	r0, r0, #41	; 0x29
     d14:	00007439 	andeq	r7, r0, r9, lsr r4
     d18:	07020200 	streq	r0, [r2, -r0, lsl #4]
     d1c:	00006844 	andeq	r6, r0, r4, asr #16
     d20:	a3050402 	movwge	r0, #21506	; 0x5402
     d24:	0400006a 	streq	r0, [r0], #-106	; 0xffffff96
     d28:	000040d6 	ldrdeq	r4, [r0], -r6
     d2c:	008d4f02 	addeq	r4, sp, r2, lsl #30
     d30:	04020000 	streq	r0, [r2], #-0
     d34:	00194307 	andseq	r4, r9, r7, lsl #6
     d38:	07080200 	streq	r0, [r8, -r0, lsl #4]
     d3c:	000074aa 	andeq	r7, r0, sl, lsr #9
     d40:	00436704 	subeq	r6, r3, r4, lsl #14
     d44:	340c0300 	strcc	r0, [ip], #-768	; 0xfffffd00
     d48:	04000000 	streq	r0, [r0], #-0
     d4c:	0000838f 	andeq	r8, r0, pc, lsl #7
     d50:	007b2c04 	rsbseq	r2, fp, r4, lsl #24
     d54:	c0040000 	andgt	r0, r4, r0
     d58:	04000082 	streq	r0, [r0], #-130	; 0xffffff7e
     d5c:	00007b72 	andeq	r7, r0, r2, ror fp
     d60:	22f40500 	rscscs	r0, r4, #0, 10
     d64:	65050000 	strvs	r0, [r5, #-0]
     d68:	00002d01 	andeq	r2, r0, r1, lsl #26
     d6c:	04040600 	streq	r0, [r4], #-1536	; 0xfffffa00
     d70:	0000e7a6 	andeq	lr, r0, r6, lsr #15
     d74:	149d0700 	ldrne	r0, [sp], #1792	; 0x700
     d78:	a8040000 	stmdage	r4, {}	; <UNPREDICTABLE>
     d7c:	000000bc 	strheq	r0, [r0], -ip
     d80:	0063ea07 	rsbeq	lr, r3, r7, lsl #20
     d84:	e7a90400 	str	r0, [r9, r0, lsl #8]!
     d88:	00000000 	andeq	r0, r0, r0
     d8c:	00005b08 	andeq	r5, r0, r8, lsl #22
     d90:	0000f700 	andeq	pc, r0, r0, lsl #14
     d94:	002d0900 	eoreq	r0, sp, r0, lsl #18
     d98:	00030000 	andeq	r0, r3, r0
     d9c:	a304080a 	movwge	r0, #18442	; 0x480a
     da0:	0000011c 	andeq	r0, r0, ip, lsl r1
     da4:	005e9d0b 	subseq	r9, lr, fp, lsl #26
     da8:	34a50400 	strtcc	r0, [r5], #1024	; 0x400
     dac:	02000000 	andeq	r0, r0, #0
     db0:	f20b0023 	vhadd.s8	d0, d11, d19
     db4:	04000001 	streq	r0, [r0], #-1
     db8:	0000c8aa 	andeq	ip, r0, sl, lsr #17
     dbc:	04230200 	strteq	r0, [r3], #-512	; 0xfffffe00
     dc0:	52e10400 	rscpl	r0, r1, #0, 8
     dc4:	ab040000 	blge	100dcc <_Min_Stack_Size+0x1009cc>
     dc8:	000000f7 	strdeq	r0, [r0], -r7
     dcc:	006c6e04 	rsbeq	r6, ip, r4, lsl #28
     dd0:	9baf0400 	blls	febc1dd8 <_estack+0xdebbf5d8>
     dd4:	0c000000 	stceq	0, cr0, [r0], {-0}
     dd8:	3a040d04 	bcc	1041f0 <_Min_Stack_Size+0x103df0>
     ddc:	02000001 	andeq	r0, r0, #1
     de0:	079c0801 	ldreq	r0, [ip, r1, lsl #16]
     de4:	3a0e0000 	bcc	380dec <_Min_Stack_Size+0x3809ec>
     de8:	04000001 	streq	r0, [r0], #-1
     dec:	0000814b 	andeq	r8, r0, fp, asr #2
     df0:	008d1606 	addeq	r1, sp, r6, lsl #12
     df4:	040f0000 	streq	r0, [pc], #-0	; dfc <_Min_Stack_Size+0x9fc>
     df8:	18000048 	stmdane	r0, {r3, r6}
     dfc:	01b02f06 	lslseq	r2, r6, #30
     e00:	d40b0000 	strle	r0, [fp], #-0
     e04:	0600005a 			; <UNDEFINED> instruction: 0x0600005a
     e08:	0001b031 	andeq	fp, r1, r1, lsr r0
     e0c:	00230200 	eoreq	r0, r3, r0, lsl #4
     e10:	006b5f10 	rsbeq	r5, fp, r0, lsl pc
     e14:	00343206 	eorseq	r3, r4, r6, lsl #4
     e18:	23020000 	movwcs	r0, #8192	; 0x2000
     e1c:	7a240b04 	bvc	903a34 <_Min_Stack_Size+0x903634>
     e20:	32060000 	andcc	r0, r6, #0
     e24:	00000034 	andeq	r0, r0, r4, lsr r0
     e28:	0b082302 	bleq	209a38 <_Min_Stack_Size+0x209638>
     e2c:	000052ec 	andeq	r5, r0, ip, ror #5
     e30:	00343206 	eorseq	r3, r4, r6, lsl #4
     e34:	23020000 	movwcs	r0, #8192	; 0x2000
     e38:	35080b0c 	strcc	r0, [r8, #-2828]	; 0xfffff4f4
     e3c:	32060000 	andcc	r0, r6, #0
     e40:	00000034 	andeq	r0, r0, r4, lsr r0
     e44:	10102302 	andsne	r2, r0, r2, lsl #6
     e48:	0600785f 			; <UNDEFINED> instruction: 0x0600785f
     e4c:	0001b633 	andeq	fp, r1, r3, lsr r6
     e50:	14230200 	strtne	r0, [r3], #-512	; 0xfffffe00
     e54:	51040d00 	tstpl	r4, r0, lsl #26
     e58:	08000001 	stmdaeq	r0, {r0}
     e5c:	00000146 	andeq	r0, r0, r6, asr #2
     e60:	000001c6 	andeq	r0, r0, r6, asr #3
     e64:	00002d09 	andeq	r2, r0, r9, lsl #26
     e68:	0f000000 	svceq	0x00000000
     e6c:	000009ae 	andeq	r0, r0, lr, lsr #19
     e70:	51370624 	teqpl	r7, r4, lsr #12
     e74:	0b000002 	bleq	e84 <_Min_Stack_Size+0xa84>
     e78:	000009ca 	andeq	r0, r0, sl, asr #19
     e7c:	00343906 	eorseq	r3, r4, r6, lsl #18
     e80:	23020000 	movwcs	r0, #8192	; 0x2000
     e84:	8ca70b00 	vstmiahi	r7!, {d0-d-1}
     e88:	3a060000 	bcc	180e90 <_Min_Stack_Size+0x180a90>
     e8c:	00000034 	andeq	r0, r0, r4, lsr r0
     e90:	0b042302 	bleq	109aa0 <_Min_Stack_Size+0x1096a0>
     e94:	000084f2 	strdeq	r8, [r0], -r2
     e98:	00343b06 	eorseq	r3, r4, r6, lsl #22
     e9c:	23020000 	movwcs	r0, #8192	; 0x2000
     ea0:	58fd0b08 	ldmpl	sp!, {r3, r8, r9, fp}^
     ea4:	3c060000 	stccc	0, cr0, [r6], {-0}
     ea8:	00000034 	andeq	r0, r0, r4, lsr r0
     eac:	0b0c2302 	bleq	309abc <_Min_Stack_Size+0x3096bc>
     eb0:	000019f6 	strdeq	r1, [r0], -r6
     eb4:	00343d06 	eorseq	r3, r4, r6, lsl #26
     eb8:	23020000 	movwcs	r0, #8192	; 0x2000
     ebc:	7a9c0b10 	bvc	fe703b04 <_estack+0xde701304>
     ec0:	3e060000 	cdpcc	0, 0, cr0, cr6, cr0, {0}
     ec4:	00000034 	andeq	r0, r0, r4, lsr r0
     ec8:	0b142302 	bleq	509ad8 <_Min_Stack_Size+0x5096d8>
     ecc:	00006053 	andeq	r6, r0, r3, asr r0
     ed0:	00343f06 	eorseq	r3, r4, r6, lsl #30
     ed4:	23020000 	movwcs	r0, #8192	; 0x2000
     ed8:	61170b18 	tstvs	r7, r8, lsl fp
     edc:	40060000 	andmi	r0, r6, r0
     ee0:	00000034 	andeq	r0, r0, r4, lsr r0
     ee4:	0b1c2302 	bleq	709af4 <_Min_Stack_Size+0x7096f4>
     ee8:	00008aca 	andeq	r8, r0, sl, asr #21
     eec:	00344106 	eorseq	r4, r4, r6, lsl #2
     ef0:	23020000 	movwcs	r0, #8192	; 0x2000
     ef4:	ba110020 	blt	440f7c <_Min_Stack_Size+0x440b7c>
     ef8:	08000013 	stmdaeq	r0, {r0, r1, r4}
     efc:	9a4a0601 	bls	1282708 <_Min_Stack_Size+0x1282308>
     f00:	0b000002 	bleq	f10 <_Min_Stack_Size+0xb10>
     f04:	00000ca3 	andeq	r0, r0, r3, lsr #25
     f08:	029a4b06 	addseq	r4, sl, #6144	; 0x1800
     f0c:	23020000 	movwcs	r0, #8192	; 0x2000
     f10:	67290b00 	strvs	r0, [r9, -r0, lsl #22]!
     f14:	4c060000 	stcmi	0, cr0, [r6], {-0}
     f18:	0000029a 	muleq	r0, sl, r2
     f1c:	01802303 	orreq	r2, r0, r3, lsl #6
     f20:	0018e30b 	andseq	lr, r8, fp, lsl #6
     f24:	464e0600 	strbmi	r0, [lr], -r0, lsl #12
     f28:	03000001 	movweq	r0, #1
     f2c:	0b028023 	bleq	a0fc0 <_Min_Stack_Size+0xa0bc0>
     f30:	00007ff0 	strdeq	r7, [r0], -r0
     f34:	01465106 	cmpeq	r6, r6, lsl #2
     f38:	23030000 	movwcs	r0, #12288	; 0x3000
     f3c:	08000284 	stmdaeq	r0, {r2, r7, r9}
     f40:	00000132 	andeq	r0, r0, r2, lsr r1
     f44:	000002aa 	andeq	r0, r0, sl, lsr #5
     f48:	00002d09 	andeq	r2, r0, r9, lsl #26
     f4c:	0f001f00 	svceq	0x00001f00
     f50:	00004759 	andeq	r4, r0, r9, asr r7
     f54:	f055068c 			; <UNDEFINED> instruction: 0xf055068c
     f58:	0b000002 	bleq	f68 <_Min_Stack_Size+0xb68>
     f5c:	00005ad4 	ldrdeq	r5, [r0], -r4
     f60:	02f05606 	rscseq	r5, r0, #6291456	; 0x600000
     f64:	23020000 	movwcs	r0, #8192	; 0x2000
     f68:	254d0b00 	strbcs	r0, [sp, #-2816]	; 0xfffff500
     f6c:	57060000 	strpl	r0, [r6, -r0]
     f70:	00000034 	andeq	r0, r0, r4, lsr r0
     f74:	0b042302 	bleq	109b84 <_Min_Stack_Size+0x109784>
     f78:	00002736 	andeq	r2, r0, r6, lsr r7
     f7c:	02f65806 	rscseq	r5, r6, #393216	; 0x60000
     f80:	23020000 	movwcs	r0, #8192	; 0x2000
     f84:	2cf20b08 	vldmiacs	r2!, {d16-d19}
     f88:	59060000 	stmdbpl	r6, {}	; <UNPREDICTABLE>
     f8c:	0000030e 	andeq	r0, r0, lr, lsl #6
     f90:	01882303 	orreq	r2, r8, r3, lsl #6
     f94:	aa040d00 	bge	10439c <_Min_Stack_Size+0x103f9c>
     f98:	08000002 	stmdaeq	r0, {r1}
     f9c:	00000306 	andeq	r0, r0, r6, lsl #6
     fa0:	00000306 	andeq	r0, r0, r6, lsl #6
     fa4:	00002d09 	andeq	r2, r0, r9, lsl #26
     fa8:	0d001f00 	stceq	15, cr1, [r0, #-0]
     fac:	00030c04 	andeq	r0, r3, r4, lsl #24
     fb0:	0d011200 	sfmeq	f1, 4, [r1, #-0]
     fb4:	00025104 	andeq	r5, r2, r4, lsl #2
     fb8:	02e20f00 	rsceq	r0, r2, #0, 30
     fbc:	06080000 	streq	r0, [r8], -r0
     fc0:	00033d75 	andeq	r3, r3, r5, ror sp
     fc4:	698c0b00 	stmibvs	ip, {r8, r9, fp}
     fc8:	76060000 	strvc	r0, [r6], -r0
     fcc:	0000033d 	andeq	r0, r0, sp, lsr r3
     fd0:	0b002302 	bleq	9be0 <_Min_Stack_Size+0x97e0>
     fd4:	00008202 	andeq	r8, r0, r2, lsl #4
     fd8:	00347706 	eorseq	r7, r4, r6, lsl #14
     fdc:	23020000 	movwcs	r0, #8192	; 0x2000
     fe0:	040d0004 	streq	r0, [sp], #-4
     fe4:	0000005b 	andeq	r0, r0, fp, asr r0
     fe8:	0034d30f 	eorseq	sp, r4, pc, lsl #6
     fec:	99062000 	stmdbls	r6, {sp}
     ff0:	000003bd 			; <UNDEFINED> instruction: 0x000003bd
     ff4:	00705f10 	rsbseq	r5, r0, r0, lsl pc
     ff8:	033d9a06 	teqeq	sp, #24576	; 0x6000
     ffc:	23020000 	movwcs	r0, #8192	; 0x2000
    1000:	725f1000 	subsvc	r1, pc, #0
    1004:	349b0600 	ldrcc	r0, [fp], #1536	; 0x600
    1008:	02000000 	andeq	r0, r0, #0
    100c:	5f100423 	svcpl	0x00100423
    1010:	9c060077 	stcls	0, cr0, [r6], {119}	; 0x77
    1014:	00000034 	andeq	r0, r0, r4, lsr r0
    1018:	0b082302 	bleq	209c28 <_Min_Stack_Size+0x209828>
    101c:	00005af2 	strdeq	r5, [r0], -r2
    1020:	00629d06 	rsbeq	r9, r2, r6, lsl #26
    1024:	23020000 	movwcs	r0, #8192	; 0x2000
    1028:	13370b0c 	teqne	r7, #12, 22	; 0x3000
    102c:	9e060000 	cdpls	0, 0, cr0, cr6, cr0, {0}
    1030:	00000062 	andeq	r0, r0, r2, rrx
    1034:	100e2302 	andne	r2, lr, r2, lsl #6
    1038:	0066625f 	rsbeq	r6, r6, pc, asr r2
    103c:	03149f06 	tsteq	r4, #6, 30
    1040:	23020000 	movwcs	r0, #8192	; 0x2000
    1044:	7e510b10 	vmovvc.s8	r0, d1[0]
    1048:	a0060000 	andge	r0, r6, r0
    104c:	00000034 	andeq	r0, r0, r4, lsr r0
    1050:	0b182302 	bleq	609c60 <_Min_Stack_Size+0x609860>
    1054:	00006eb0 			; <UNDEFINED> instruction: 0x00006eb0
    1058:	051aa206 	ldreq	sl, [sl, #-518]	; 0xfffffdfa
    105c:	23020000 	movwcs	r0, #8192	; 0x2000
    1060:	430e001c 	movwmi	r0, #57372	; 0xe01c
    1064:	13000003 	movwne	r0, #3
    1068:	00001b9f 	muleq	r0, pc, fp	; <UNPREDICTABLE>
    106c:	01740660 	cmneq	r4, r0, ror #12
    1070:	0000051a 	andeq	r0, r0, sl, lsl r5
    1074:	00448f14 	subeq	r8, r4, r4, lsl pc
    1078:	01780600 	cmneq	r8, r0, lsl #12
    107c:	00000034 	andeq	r0, r0, r4, lsr r0
    1080:	14002302 	strne	r2, [r0], #-770	; 0xfffffcfe
    1084:	00001e27 	andeq	r1, r0, r7, lsr #28
    1088:	7c017d06 	stcvc	13, cr7, [r1], {6}
    108c:	02000007 	andeq	r0, r0, #7
    1090:	3b140423 	blcc	502124 <_Min_Stack_Size+0x501d24>
    1094:	06000055 			; <UNDEFINED> instruction: 0x06000055
    1098:	077c017d 			; <UNDEFINED> instruction: 0x077c017d
    109c:	23020000 	movwcs	r0, #8192	; 0x2000
    10a0:	43f11408 	mvnsmi	r1, #8, 8	; 0x8000000
    10a4:	7d060000 	stcvc	0, cr0, [r6, #-0]
    10a8:	00077c01 	andeq	r7, r7, r1, lsl #24
    10ac:	0c230200 	sfmeq	f0, 4, [r3], #-0
    10b0:	00254814 	eoreq	r4, r5, r4, lsl r8
    10b4:	017f0600 	cmneq	pc, r0, lsl #12
    10b8:	00000034 	andeq	r0, r0, r4, lsr r0
    10bc:	14102302 	ldrne	r2, [r0], #-770	; 0xfffffcfe
    10c0:	000055bd 			; <UNDEFINED> instruction: 0x000055bd
    10c4:	34018106 	strcc	r8, [r1], #-262	; 0xfffffefa
    10c8:	02000001 	andeq	r0, r0, #1
    10cc:	71141423 	tstvc	r4, r3, lsr #8
    10d0:	06000041 	streq	r0, [r0], -r1, asr #32
    10d4:	00340183 	eorseq	r0, r4, r3, lsl #3
    10d8:	23020000 	movwcs	r0, #8192	; 0x2000
    10dc:	22d41418 	sbcscs	r1, r4, #24, 8	; 0x18000000
    10e0:	85060000 	strhi	r0, [r6, #-0]
    10e4:	00003401 	andeq	r3, r0, r1, lsl #8
    10e8:	1c230200 	sfmne	f0, 4, [r3], #-0
    10ec:	00814314 	addeq	r4, r1, r4, lsl r3
    10f0:	01860600 	orreq	r0, r6, r0, lsl #12
    10f4:	000008f5 	strdeq	r0, [r0], -r5
    10f8:	15202302 	strne	r2, [r0, #-770]!	; 0xfffffcfe
    10fc:	00706d5f 	rsbseq	r6, r0, pc, asr sp
    1100:	fb018806 	blx	63122 <_Min_Stack_Size+0x62d22>
    1104:	02000008 	andeq	r0, r0, #8
    1108:	db142423 	blle	50a19c <_Min_Stack_Size+0x509d9c>
    110c:	06000049 	streq	r0, [r0], -r9, asr #32
    1110:	090d018a 	stmdbeq	sp, {r1, r3, r7, r8}
    1114:	23020000 	movwcs	r0, #8192	; 0x2000
    1118:	50891428 	addpl	r1, r9, r8, lsr #8
    111c:	8c060000 	stchi	0, cr0, [r6], {-0}
    1120:	00003401 	andeq	r3, r0, r1, lsl #8
    1124:	2c230200 	sfmcs	f0, 4, [r3], #-0
    1128:	0005da14 	andeq	sp, r5, r4, lsl sl
    112c:	018f0600 	orreq	r0, pc, r0, lsl #12
    1130:	00000034 	andeq	r0, r0, r4, lsr r0
    1134:	14302302 	ldrtne	r2, [r0], #-770	; 0xfffffcfe
    1138:	0000378f 	andeq	r3, r0, pc, lsl #15
    113c:	34019006 	strcc	r9, [r1], #-6
    1140:	02000001 	andeq	r0, r0, #1
    1144:	9f143423 	svcls	0x00143423
    1148:	0600006d 	streq	r0, [r0], -sp, rrx
    114c:	09130192 	ldmdbeq	r3, {r1, r4, r7, r8}
    1150:	23020000 	movwcs	r0, #8192	; 0x2000
    1154:	17e11438 			; <UNDEFINED> instruction: 0x17e11438
    1158:	93060000 	movwls	r0, #24576	; 0x6000
    115c:	00091901 	andeq	r1, r9, r1, lsl #18
    1160:	3c230200 	sfmcc	f0, 4, [r3], #-0
    1164:	0005b614 	andeq	fp, r5, r4, lsl r6
    1168:	01940600 	orrseq	r0, r4, r0, lsl #12
    116c:	00000134 	andeq	r0, r0, r4, lsr r1
    1170:	14402302 	strbne	r2, [r0], #-770	; 0xfffffcfe
    1174:	0000360d 	andeq	r3, r0, sp, lsl #12
    1178:	2b019706 	blcs	66d98 <_Min_Stack_Size+0x66998>
    117c:	02000009 	andeq	r0, r0, #9
    1180:	da144423 	ble	512214 <_Min_Stack_Size+0x511e14>
    1184:	06000089 	streq	r0, [r0], -r9, lsl #1
    1188:	073b019f 			; <UNDEFINED> instruction: 0x073b019f
    118c:	23020000 	movwcs	r0, #8192	; 0x2000
    1190:	02761448 	rsbseq	r1, r6, #72, 8	; 0x48000000
    1194:	a0060000 	andge	r0, r6, r0
    1198:	00077c01 	andeq	r7, r7, r1, lsl #24
    119c:	54230200 	strtpl	r0, [r3], #-512	; 0xfffffe00
    11a0:	00811914 	addeq	r1, r1, r4, lsl r9
    11a4:	01a10600 			; <UNDEFINED> instruction: 0x01a10600
    11a8:	00000937 	andeq	r0, r0, r7, lsr r9
    11ac:	14582302 	ldrbne	r2, [r8], #-770	; 0xfffffcfe
    11b0:	0000469d 	muleq	r0, sp, r6
    11b4:	3401a206 	strcc	sl, [r1], #-518	; 0xfffffdfa
    11b8:	02000001 	andeq	r0, r0, #1
    11bc:	0d005c23 	stceq	12, cr5, [r0, #-140]	; 0xffffff74
    11c0:	0003c204 	andeq	ip, r3, r4, lsl #4
    11c4:	051a0e00 	ldreq	r0, [sl, #-3584]	; 0xfffff200
    11c8:	080f0000 	stmdaeq	pc, {}	; <UNPREDICTABLE>
    11cc:	68000085 	stmdavs	r0, {r0, r2, r7}
    11d0:	067fb506 	ldrbteq	fp, [pc], -r6, lsl #10
    11d4:	5f100000 	svcpl	0x00100000
    11d8:	b6060070 			; <UNDEFINED> instruction: 0xb6060070
    11dc:	0000033d 	andeq	r0, r0, sp, lsr r3
    11e0:	10002302 	andne	r2, r0, r2, lsl #6
    11e4:	0600725f 			; <UNDEFINED> instruction: 0x0600725f
    11e8:	000034b7 			; <UNDEFINED> instruction: 0x000034b7
    11ec:	04230200 	strteq	r0, [r3], #-512	; 0xfffffe00
    11f0:	00775f10 	rsbseq	r5, r7, r0, lsl pc
    11f4:	0034b806 	eorseq	fp, r4, r6, lsl #16
    11f8:	23020000 	movwcs	r0, #8192	; 0x2000
    11fc:	5af20b08 	bpl	ffc83e24 <_estack+0xdfc81624>
    1200:	b9060000 	stmdblt	r6, {}	; <UNPREDICTABLE>
    1204:	00000062 	andeq	r0, r0, r2, rrx
    1208:	0b0c2302 	bleq	309e18 <_Min_Stack_Size+0x309a18>
    120c:	00001337 	andeq	r1, r0, r7, lsr r3
    1210:	0062ba06 	rsbeq	fp, r2, r6, lsl #20
    1214:	23020000 	movwcs	r0, #8192	; 0x2000
    1218:	625f100e 	subsvs	r1, pc, #14
    121c:	bb060066 	bllt	1813bc <_Min_Stack_Size+0x180fbc>
    1220:	00000314 	andeq	r0, r0, r4, lsl r3
    1224:	0b102302 	bleq	409e34 <_Min_Stack_Size+0x409a34>
    1228:	00007e51 	andeq	r7, r0, r1, asr lr
    122c:	0034bc06 	eorseq	fp, r4, r6, lsl #24
    1230:	23020000 	movwcs	r0, #8192	; 0x2000
    1234:	6eb00b18 	vmovvs.32	r0, d0[1]
    1238:	bf060000 	svclt	0x00060000
    123c:	0000051a 	andeq	r0, r0, sl, lsl r5
    1240:	0b1c2302 	bleq	709e50 <_Min_Stack_Size+0x709a50>
    1244:	0000346a 	andeq	r3, r0, sl, ror #8
    1248:	0132c306 	teqeq	r2, r6, lsl #6
    124c:	23020000 	movwcs	r0, #8192	; 0x2000
    1250:	02e90b20 	rsceq	r0, r9, #32, 22	; 0x8000
    1254:	c5060000 	strgt	r0, [r6, #-0]
    1258:	0000069e 	muleq	r0, lr, r6
    125c:	0b242302 	bleq	909e6c <_Min_Stack_Size+0x909a6c>
    1260:	000004c5 	andeq	r0, r0, r5, asr #9
    1264:	06c9c706 	strbeq	ip, [r9], r6, lsl #14
    1268:	23020000 	movwcs	r0, #8192	; 0x2000
    126c:	62e10b28 	rscvs	r0, r1, #40, 22	; 0xa000
    1270:	ca060000 	bgt	181278 <_Min_Stack_Size+0x180e78>
    1274:	000006ee 	andeq	r0, r0, lr, ror #13
    1278:	0b2c2302 	bleq	b09e88 <_Min_Stack_Size+0xb09a88>
    127c:	000060d2 	ldrdeq	r6, [r0], -r2
    1280:	0709cb06 	streq	ip, [r9, -r6, lsl #22]
    1284:	23020000 	movwcs	r0, #8192	; 0x2000
    1288:	755f1030 	ldrbvc	r1, [pc, #-48]	; 1260 <_Min_Stack_Size+0xe60>
    128c:	ce060062 	cdpgt	0, 0, cr0, cr6, cr2, {3}
    1290:	00000314 	andeq	r0, r0, r4, lsl r3
    1294:	10342302 	eorsne	r2, r4, r2, lsl #6
    1298:	0070755f 	rsbseq	r7, r0, pc, asr r5
    129c:	033dcf06 	teqeq	sp, #6, 30
    12a0:	23020000 	movwcs	r0, #8192	; 0x2000
    12a4:	755f103c 	ldrbvc	r1, [pc, #-60]	; 1270 <_Min_Stack_Size+0xe70>
    12a8:	d0060072 	andle	r0, r6, r2, ror r0
    12ac:	00000034 	andeq	r0, r0, r4, lsr r0
    12b0:	0b402302 	bleq	1009ec0 <_Min_Stack_Size+0x1009ac0>
    12b4:	00005993 	muleq	r0, r3, r9
    12b8:	070fd306 	streq	sp, [pc, -r6, lsl #6]
    12bc:	23020000 	movwcs	r0, #8192	; 0x2000
    12c0:	09c40b44 	stmibeq	r4, {r2, r6, r8, r9, fp}^
    12c4:	d4060000 	strle	r0, [r6], #-0
    12c8:	0000071f 	andeq	r0, r0, pc, lsl r7
    12cc:	10472302 	subne	r2, r7, r2, lsl #6
    12d0:	00626c5f 	rsbeq	r6, r2, pc, asr ip
    12d4:	0314d706 	tsteq	r4, #1572864	; 0x180000
    12d8:	23020000 	movwcs	r0, #8192	; 0x2000
    12dc:	693b0b48 	ldmdbvs	fp!, {r3, r6, r8, r9, fp}
    12e0:	da060000 	ble	1812e8 <_Min_Stack_Size+0x180ee8>
    12e4:	00000034 	andeq	r0, r0, r4, lsr r0
    12e8:	0b502302 	bleq	1409ef8 <_Min_Stack_Size+0x1409af8>
    12ec:	00003776 	andeq	r3, r0, r6, ror r7
    12f0:	00a6db06 	adceq	sp, r6, r6, lsl #22
    12f4:	23020000 	movwcs	r0, #8192	; 0x2000
    12f8:	0cab0b54 	vstmiaeq	fp!, {d0-<overflow reg d41>}
    12fc:	e2060000 	and	r0, r6, #0
    1300:	00000127 	andeq	r0, r0, r7, lsr #2
    1304:	0b582302 	bleq	1609f14 <_Min_Stack_Size+0x1609b14>
    1308:	00005a60 	andeq	r5, r0, r0, ror #20
    130c:	011ce406 	tsteq	ip, r6, lsl #8
    1310:	23020000 	movwcs	r0, #8192	; 0x2000
    1314:	55790b5c 	ldrbpl	r0, [r9, #-2908]!	; 0xfffff4a4
    1318:	e5060000 	str	r0, [r6, #-0]
    131c:	00000034 	andeq	r0, r0, r4, lsr r0
    1320:	00642302 	rsbeq	r2, r4, r2, lsl #6
    1324:	00340116 	eorseq	r0, r4, r6, lsl r1
    1328:	069e0000 	ldreq	r0, [lr], r0
    132c:	1a170000 	bne	5c1334 <_Min_Stack_Size+0x5c0f34>
    1330:	17000005 	strne	r0, [r0, -r5]
    1334:	00000132 	andeq	r0, r0, r2, lsr r1
    1338:	00013417 	andeq	r3, r1, r7, lsl r4
    133c:	00341700 	eorseq	r1, r4, r0, lsl #14
    1340:	0d000000 	stceq	0, cr0, [r0, #-0]
    1344:	00067f04 	andeq	r7, r6, r4, lsl #30
    1348:	34011600 	strcc	r1, [r1], #-1536	; 0xfffffa00
    134c:	c3000000 	movwgt	r0, #0
    1350:	17000006 	strne	r0, [r0, -r6]
    1354:	0000051a 	andeq	r0, r0, sl, lsl r5
    1358:	00013217 	andeq	r3, r1, r7, lsl r2
    135c:	06c31700 	strbeq	r1, [r3], r0, lsl #14
    1360:	34170000 	ldrcc	r0, [r7], #-0
    1364:	00000000 	andeq	r0, r0, r0
    1368:	0141040d 	cmpeq	r1, sp, lsl #8
    136c:	040d0000 	streq	r0, [sp], #-0
    1370:	000006a4 	andeq	r0, r0, r4, lsr #13
    1374:	00b10116 	adcseq	r0, r1, r6, lsl r1
    1378:	06ee0000 	strbteq	r0, [lr], r0
    137c:	1a170000 	bne	5c1384 <_Min_Stack_Size+0x5c0f84>
    1380:	17000005 	strne	r0, [r0, -r5]
    1384:	00000132 	andeq	r0, r0, r2, lsr r1
    1388:	0000b117 	andeq	fp, r0, r7, lsl r1
    138c:	00341700 	eorseq	r1, r4, r0, lsl #14
    1390:	0d000000 	stceq	0, cr0, [r0, #-0]
    1394:	0006cf04 	andeq	ip, r6, r4, lsl #30
    1398:	34011600 	strcc	r1, [r1], #-1536	; 0xfffffa00
    139c:	09000000 	stmdbeq	r0, {}	; <UNPREDICTABLE>
    13a0:	17000007 	strne	r0, [r0, -r7]
    13a4:	0000051a 	andeq	r0, r0, sl, lsl r5
    13a8:	00013217 	andeq	r3, r1, r7, lsl r2
    13ac:	040d0000 	streq	r0, [sp], #-0
    13b0:	000006f4 	strdeq	r0, [r0], -r4
    13b4:	00005b08 	andeq	r5, r0, r8, lsl #22
    13b8:	00071f00 	andeq	r1, r7, r0, lsl #30
    13bc:	002d0900 	eoreq	r0, sp, r0, lsl #18
    13c0:	00020000 	andeq	r0, r2, r0
    13c4:	00005b08 	andeq	r5, r0, r8, lsl #22
    13c8:	00072f00 	andeq	r2, r7, r0, lsl #30
    13cc:	002d0900 	eoreq	r0, sp, r0, lsl #18
    13d0:	00000000 	andeq	r0, r0, r0
    13d4:	006c7705 	rsbeq	r7, ip, r5, lsl #14
    13d8:	011f0600 	tsteq	pc, r0, lsl #12
    13dc:	00000525 	andeq	r0, r0, r5, lsr #10
    13e0:	00529613 	subseq	r9, r2, r3, lsl r6
    13e4:	23060c00 	movwcs	r0, #27648	; 0x6c00
    13e8:	00077601 	andeq	r7, r7, r1, lsl #12
    13ec:	5ad41400 	bpl	ff5063f4 <_estack+0xdf503bf4>
    13f0:	25060000 	strcs	r0, [r6, #-0]
    13f4:	00077601 	andeq	r7, r7, r1, lsl #12
    13f8:	00230200 	eoreq	r0, r3, r0, lsl #4
    13fc:	002ba614 	eoreq	sl, fp, r4, lsl r6
    1400:	01260600 			; <UNDEFINED> instruction: 0x01260600
    1404:	00000034 	andeq	r0, r0, r4, lsr r0
    1408:	14042302 	strne	r2, [r4], #-770	; 0xfffffcfe
    140c:	00003808 	andeq	r3, r0, r8, lsl #16
    1410:	7c012706 	stcvc	7, cr2, [r1], {6}
    1414:	02000007 	andeq	r0, r0, #7
    1418:	0d000823 	stceq	8, cr0, [r0, #-140]	; 0xffffff74
    141c:	00073b04 	andeq	r3, r7, r4, lsl #22
    1420:	2f040d00 	svccs	0x00040d00
    1424:	13000007 	movwne	r0, #7
    1428:	000067c9 	andeq	r6, r0, r9, asr #15
    142c:	013f0618 	teqeq	pc, r8, lsl r6	; <UNPREDICTABLE>
    1430:	000007cc 	andeq	r0, r0, ip, asr #15
    1434:	00626714 	rsbeq	r6, r2, r4, lsl r7
    1438:	01400600 	cmpeq	r0, r0, lsl #12
    143c:	000007cc 	andeq	r0, r0, ip, asr #15
    1440:	14002302 	strne	r2, [r0], #-770	; 0xfffffcfe
    1444:	00000e3d 	andeq	r0, r0, sp, lsr lr
    1448:	cc014106 	stfgts	f4, [r1], {6}
    144c:	02000007 	andeq	r0, r0, #7
    1450:	5c140623 	ldcpl	6, cr0, [r4], {35}	; 0x23
    1454:	06000084 	streq	r0, [r0], -r4, lsl #1
    1458:	00740142 	rsbseq	r0, r4, r2, asr #2
    145c:	23020000 	movwcs	r0, #8192	; 0x2000
    1460:	5acf140c 	bpl	ff3c6498 <_estack+0xdf3c3c98>
    1464:	45060000 	strmi	r0, [r6, #-0]
    1468:	00009401 	andeq	r9, r0, r1, lsl #8
    146c:	10230200 	eorne	r0, r3, r0, lsl #4
    1470:	00740800 	rsbseq	r0, r4, r0, lsl #16
    1474:	07dc0000 	ldrbeq	r0, [ip, r0]
    1478:	2d090000 	stccs	0, cr0, [r9, #-0]
    147c:	02000000 	andeq	r0, r0, #0
    1480:	4d331300 	ldcmi	3, cr1, [r3, #-0]
    1484:	06100000 	ldreq	r0, [r0], -r0
    1488:	08260158 	stmdaeq	r6!, {r3, r4, r6, r8}
    148c:	34140000 	ldrcc	r0, [r4], #-0
    1490:	06000082 	streq	r0, [r0], -r2, lsl #1
    1494:	01b0015b 	asrseq	r0, fp, r1
    1498:	23020000 	movwcs	r0, #8192	; 0x2000
    149c:	165d1400 	ldrbne	r1, [sp], -r0, lsl #8
    14a0:	5c060000 	stcpl	0, cr0, [r6], {-0}
    14a4:	00003401 	andeq	r3, r0, r1, lsl #8
    14a8:	04230200 	strteq	r0, [r3], #-512	; 0xfffffe00
    14ac:	00348514 	eorseq	r8, r4, r4, lsl r5
    14b0:	015d0600 	cmpeq	sp, r0, lsl #12
    14b4:	000001b0 			; <UNDEFINED> instruction: 0x000001b0
    14b8:	14082302 	strne	r2, [r8], #-770	; 0xfffffcfe
    14bc:	000051df 	ldrdeq	r5, [r0], -pc	; <UNPREDICTABLE>
    14c0:	26015e06 	strcs	r5, [r1], -r6, lsl #28
    14c4:	02000008 	andeq	r0, r0, #8
    14c8:	0d000c23 	stceq	12, cr0, [r0, #-140]	; 0xffffff74
    14cc:	0001b004 	andeq	fp, r1, r4
    14d0:	1b9a1300 	blne	fe6860d8 <_estack+0xde6838d8>
    14d4:	06500000 	ldrbeq	r0, [r0], -r0
    14d8:	08df0162 	ldmeq	pc, {r1, r5, r6, r8}^	; <UNPREDICTABLE>
    14dc:	62140000 	andsvs	r0, r4, #0
    14e0:	0600006a 	streq	r0, [r0], -sl, rrx
    14e4:	01340165 	teqeq	r4, r5, ror #2
    14e8:	23020000 	movwcs	r0, #8192	; 0x2000
    14ec:	75ea1400 	strbvc	r1, [sl, #1024]!	; 0x400
    14f0:	66060000 	strvs	r0, [r6], -r0
    14f4:	00011c01 	andeq	r1, r1, r1, lsl #24
    14f8:	04230200 	strteq	r0, [r3], #-512	; 0xfffffe00
    14fc:	005a3814 	subseq	r3, sl, r4, lsl r8
    1500:	01670600 	cmneq	r7, r0, lsl #12
    1504:	0000011c 	andeq	r0, r0, ip, lsl r1
    1508:	140c2302 	strne	r2, [ip], #-770	; 0xfffffcfe
    150c:	00006491 	muleq	r0, r1, r4
    1510:	1c016806 	stcne	8, cr6, [r1], {6}
    1514:	02000001 	andeq	r0, r0, #1
    1518:	75141423 	ldrvc	r1, [r4, #-1059]	; 0xfffffbdd
    151c:	0600000a 	streq	r0, [r0], -sl
    1520:	08df0169 	ldmeq	pc, {r0, r3, r5, r6, r8}^	; <UNPREDICTABLE>
    1524:	23020000 	movwcs	r0, #8192	; 0x2000
    1528:	0e30141c 	mrceq	4, 1, r1, cr0, cr12, {0}
    152c:	6a060000 	bvs	181534 <_Min_Stack_Size+0x181134>
    1530:	00003401 	andeq	r3, r0, r1, lsl #8
    1534:	24230200 	strtcs	r0, [r3], #-512	; 0xfffffe00
    1538:	0015ef14 	andseq	lr, r5, r4, lsl pc
    153c:	016b0600 	cmneq	fp, r0, lsl #12
    1540:	0000011c 	andeq	r0, r0, ip, lsl r1
    1544:	14282302 	strtne	r2, [r8], #-770	; 0xfffffcfe
    1548:	00006ac5 	andeq	r6, r0, r5, asr #21
    154c:	1c016c06 	stcne	12, cr6, [r1], {6}
    1550:	02000001 	andeq	r0, r0, #1
    1554:	ac143023 	ldcge	0, cr3, [r4], {35}	; 0x23
    1558:	06000086 	streq	r0, [r0], -r6, lsl #1
    155c:	011c016d 	tsteq	ip, sp, ror #2
    1560:	23020000 	movwcs	r0, #8192	; 0x2000
    1564:	58771438 	ldmdapl	r7!, {r3, r4, r5, sl, ip}^
    1568:	6e060000 	cdpvs	0, 0, cr0, cr6, cr0, {0}
    156c:	00011c01 	andeq	r1, r1, r1, lsl #24
    1570:	40230200 	eormi	r0, r3, r0, lsl #4
    1574:	0009b314 	andeq	fp, r9, r4, lsl r3
    1578:	016f0600 	cmneq	pc, r0, lsl #12
    157c:	0000011c 	andeq	r0, r0, ip, lsl r1
    1580:	00482302 	subeq	r2, r8, r2, lsl #6
    1584:	00013a08 	andeq	r3, r1, r8, lsl #20
    1588:	0008ef00 	andeq	lr, r8, r0, lsl #30
    158c:	002d0900 	eoreq	r0, sp, r0, lsl #18
    1590:	00070000 	andeq	r0, r7, r0
    1594:	0001ce18 	andeq	ip, r1, r8, lsl lr
    1598:	040d0100 	streq	r0, [sp], #-256	; 0xffffff00
    159c:	000008ef 	andeq	r0, r0, pc, ror #17
    15a0:	07dc040d 	ldrbeq	r0, [ip, sp, lsl #8]
    15a4:	01190000 	tsteq	r9, r0
    15a8:	0000090d 	andeq	r0, r0, sp, lsl #18
    15ac:	00051a17 	andeq	r1, r5, r7, lsl sl
    15b0:	040d0000 	streq	r0, [sp], #-0
    15b4:	00000901 	andeq	r0, r0, r1, lsl #18
    15b8:	0782040d 	streq	r0, [r2, sp, lsl #8]
    15bc:	040d0000 	streq	r0, [sp], #-0
    15c0:	000001c6 	andeq	r0, r0, r6, asr #3
    15c4:	092b0119 	stmdbeq	fp!, {r0, r3, r4, r8}
    15c8:	34170000 	ldrcc	r0, [r7], #-0
    15cc:	00000000 	andeq	r0, r0, r0
    15d0:	0931040d 	ldmdbeq	r1!, {r0, r2, r3, sl}
    15d4:	040d0000 	streq	r0, [sp], #-0
    15d8:	0000091f 	andeq	r0, r0, pc, lsl r9
    15dc:	082c040d 	stmdaeq	ip!, {r0, r2, r3, sl}
    15e0:	1e1a0000 	cdpne	0, 1, cr0, cr10, cr0, {0}
    15e4:	0600001e 			; <UNDEFINED> instruction: 0x0600001e
    15e8:	03bd01ca 			; <UNDEFINED> instruction: 0x03bd01ca
    15ec:	01010000 	mrseq	r0, (UNDEF: 1)
    15f0:	0055321a 	subseq	r3, r5, sl, lsl r2
    15f4:	01cb0600 	biceq	r0, fp, r0, lsl #12
    15f8:	000003bd 			; <UNDEFINED> instruction: 0x000003bd
    15fc:	e81a0101 	ldmda	sl, {r0, r8}
    1600:	06000043 	streq	r0, [r0], -r3, asr #32
    1604:	03bd01cc 			; <UNDEFINED> instruction: 0x03bd01cc
    1608:	01010000 	mrseq	r0, (UNDEF: 1)
    160c:	002ae21a 	eoreq	lr, sl, sl, lsl r2
    1610:	032e0600 			; <UNDEFINED> instruction: 0x032e0600
    1614:	0000051a 	andeq	r0, r0, sl, lsl r5
    1618:	731a0101 	tstvc	sl, #1073741824	; 0x40000000
    161c:	0600007a 			; <UNDEFINED> instruction: 0x0600007a
    1620:	0520032f 	streq	r0, [r0, #-815]!	; 0xfffffcd1
    1624:	01010000 	mrseq	r0, (UNDEF: 1)
    1628:	0047521a 	subeq	r5, r7, sl, lsl r2
    162c:	03410600 	movteq	r0, #5632	; 0x1600
    1630:	000002f0 	strdeq	r0, [r0], -r0	; <UNPREDICTABLE>
    1634:	881b0101 	ldmdahi	fp, {r0, r8}
    1638:	07000079 	smlsdxeq	r0, r9, r0, r0
    163c:	00013463 	andeq	r3, r1, r3, ror #8
    1640:	04010100 	streq	r0, [r1], #-256	; 0xffffff00
    1644:	000012a0 	andeq	r1, r0, r0, lsr #5
    1648:	00501808 	subseq	r1, r0, r8, lsl #16
    164c:	71040000 	mrsvc	r0, (UNDEF: 4)
    1650:	08000029 	stmdaeq	r0, {r0, r3, r5}
    1654:	00006924 	andeq	r6, r0, r4, lsr #18
    1658:	40d80400 	sbcsmi	r0, r8, r0, lsl #8
    165c:	30080000 	andcc	r0, r8, r0
    1660:	00000082 	andeq	r0, r0, r2, lsl #1
    1664:	0009b41c 	andeq	fp, r9, ip, lsl r4
    1668:	091c0a00 	ldmdbeq	ip, {r9, fp}
    166c:	000a2f6e 	andeq	r2, sl, lr, ror #30
    1670:	52431000 	subpl	r1, r3, #0
    1674:	7009004c 	andvc	r0, r9, ip, asr #32
    1678:	000009bf 			; <UNDEFINED> instruction: 0x000009bf
    167c:	10002302 	andne	r2, r0, r2, lsl #6
    1680:	00485243 	subeq	r5, r8, r3, asr #4
    1684:	09bf7109 	ldmibeq	pc!, {r0, r3, r8, ip, sp, lr}	; <UNPREDICTABLE>
    1688:	23020000 	movwcs	r0, #8192	; 0x2000
    168c:	44491004 	strbmi	r1, [r9], #-4
    1690:	72090052 	andvc	r0, r9, #82	; 0x52
    1694:	000009bf 			; <UNDEFINED> instruction: 0x000009bf
    1698:	10082302 	andne	r2, r8, r2, lsl #6
    169c:	0052444f 	subseq	r4, r2, pc, asr #8
    16a0:	09bf7309 	ldmibeq	pc!, {r0, r3, r8, r9, ip, sp, lr}	; <UNPREDICTABLE>
    16a4:	23020000 	movwcs	r0, #8192	; 0x2000
    16a8:	7cbd0b0c 	vpopvc	{d0-d5}
    16ac:	74090000 	strvc	r0, [r9], #-0
    16b0:	000009bf 			; <UNDEFINED> instruction: 0x000009bf
    16b4:	10102302 	andsne	r2, r0, r2, lsl #6
    16b8:	00525242 	subseq	r5, r2, r2, asr #4
    16bc:	09bf7509 	ldmibeq	pc!, {r0, r3, r8, sl, ip, sp, lr}	; <UNPREDICTABLE>
    16c0:	23020000 	movwcs	r0, #8192	; 0x2000
    16c4:	46a90b14 	ssatmi	r0, #10, r4, lsl #22
    16c8:	76090000 	strvc	r0, [r9], -r0
    16cc:	000009bf 			; <UNDEFINED> instruction: 0x000009bf
    16d0:	00182302 	andseq	r2, r8, r2, lsl #6
    16d4:	007e0b04 	rsbseq	r0, lr, r4, lsl #22
    16d8:	c4770900 	ldrbtgt	r0, [r7], #-2304	; 0xfffff700
    16dc:	0a000009 	beq	1708 <_Min_Stack_Size+0x1308>
    16e0:	96910918 			; <UNDEFINED> instruction: 0x96910918
    16e4:	1000000a 	andne	r0, r0, sl
    16e8:	00524d49 	subseq	r4, r2, r9, asr #26
    16ec:	09bf9309 	ldmibeq	pc!, {r0, r3, r8, r9, ip, pc}	; <UNPREDICTABLE>
    16f0:	23020000 	movwcs	r0, #8192	; 0x2000
    16f4:	4d451000 	stclmi	0, cr1, [r5, #-0]
    16f8:	94090052 	strls	r0, [r9], #-82	; 0xffffffae
    16fc:	000009bf 			; <UNDEFINED> instruction: 0x000009bf
    1700:	0b042302 	bleq	10a310 <_Min_Stack_Size+0x109f10>
    1704:	00008ee2 	andeq	r8, r0, r2, ror #29
    1708:	09bf9509 	ldmibeq	pc!, {r0, r3, r8, sl, ip, pc}	; <UNPREDICTABLE>
    170c:	23020000 	movwcs	r0, #8192	; 0x2000
    1710:	8ed10b08 	vfnmshi.f64	d16, d1, d8
    1714:	96090000 	strls	r0, [r9], -r0
    1718:	000009bf 			; <UNDEFINED> instruction: 0x000009bf
    171c:	0b0c2302 	bleq	30a32c <_Min_Stack_Size+0x309f2c>
    1720:	00008fd0 	ldrdeq	r8, [r0], -r0
    1724:	09bf9709 	ldmibeq	pc!, {r0, r3, r8, r9, sl, ip, pc}	; <UNPREDICTABLE>
    1728:	23020000 	movwcs	r0, #8192	; 0x2000
    172c:	52501010 	subspl	r1, r0, #16
    1730:	bf980900 	svclt	0x00980900
    1734:	02000009 	andeq	r0, r0, #9
    1738:	04001423 	streq	r1, [r0], #-1059	; 0xfffffbdd
    173c:	00008fec 	andeq	r8, r0, ip, ror #31
    1740:	0a3a9909 	beq	ea7b6c <_Min_Stack_Size+0xea776c>
    1744:	200a0000 	andcs	r0, sl, r0
    1748:	0af0a009 	beq	ffc29774 <_estack+0xdfc26f74>
    174c:	9d0b0000 	stcls	0, cr0, [fp, #-0]
    1750:	09000090 	stmdbeq	r0, {r4, r7}
    1754:	0009bfa2 	andeq	fp, r9, r2, lsr #31
    1758:	00230200 	eoreq	r0, r3, r0, lsl #4
    175c:	008ff90b 	addeq	pc, pc, fp, lsl #18
    1760:	bfa30900 	svclt	0x00a30900
    1764:	02000009 	andeq	r0, r0, #9
    1768:	9a0b0423 	bls	2c27fc <_Min_Stack_Size+0x2c23fc>
    176c:	0900008e 	stmdbeq	r0, {r1, r2, r3, r7}
    1770:	000b00a4 	andeq	r0, fp, r4, lsr #1
    1774:	08230200 	stmdaeq	r3!, {r9}
    1778:	008f4f0b 	addeq	r4, pc, fp, lsl #30
    177c:	b4a50900 	strtlt	r0, [r5], #2304	; 0x900
    1780:	02000009 	andeq	r0, r0, #9
    1784:	d60b1823 	strle	r1, [fp], -r3, lsr #16
    1788:	0900008f 	stmdbeq	r0, {r0, r1, r2, r3, r7}
    178c:	0009bfa6 	andeq	fp, r9, r6, lsr #31
    1790:	1c230200 	sfmne	f0, 4, [r3], #-0
    1794:	09bf0800 	ldmibeq	pc!, {fp}	; <UNPREDICTABLE>
    1798:	0b000000 	bleq	17a0 <_Min_Stack_Size+0x13a0>
    179c:	2d090000 	stccs	0, cr0, [r9, #-0]
    17a0:	03000000 	movweq	r0, #0
    17a4:	0af01c00 	beq	ffc087ac <_estack+0xdfc05fac>
    17a8:	87040000 	strhi	r0, [r4, -r0]
    17ac:	0900008f 	stmdbeq	r0, {r0, r1, r2, r3, r7}
    17b0:	000aa1a7 	andeq	sl, sl, r7, lsr #3
    17b4:	0a040a00 	beq	103fbc <_Min_Stack_Size+0x103bbc>
    17b8:	000b4317 	andeq	r4, fp, r7, lsl r3
    17bc:	908e0b00 	addls	r0, lr, r0, lsl #22
    17c0:	1a0a0000 	bne	2817c8 <_Min_Stack_Size+0x2813c8>
    17c4:	000009a9 	andeq	r0, r0, r9, lsr #19
    17c8:	0b002302 	bleq	a3d8 <_Min_Stack_Size+0x9fd8>
    17cc:	00008f45 	andeq	r8, r0, r5, asr #30
    17d0:	099e1d0a 	ldmibeq	lr, {r1, r3, r8, sl, fp, ip}
    17d4:	23020000 	movwcs	r0, #8192	; 0x2000
    17d8:	8fbe0b02 	svchi	0x00be0b02
    17dc:	200a0000 	andcs	r0, sl, r0
    17e0:	0000099e 	muleq	r0, lr, r9
    17e4:	00032302 	andeq	r2, r3, r2, lsl #6
    17e8:	008f7604 	addeq	r7, pc, r4, lsl #12
    17ec:	10220a00 	eorne	r0, r2, r0, lsl #20
    17f0:	0a00000b 	beq	1824 <_Min_Stack_Size+0x1424>
    17f4:	8f130b0c 	svchi	0x00130b0c
    17f8:	0b00000b 	bleq	182c <_Min_Stack_Size+0x142c>
    17fc:	000049e5 	andeq	r4, r0, r5, ror #19
    1800:	09a9150b 	stmibeq	r9!, {r0, r1, r3, r8, sl, ip}
    1804:	23020000 	movwcs	r0, #8192	; 0x2000
    1808:	68570b00 	ldmdavs	r7, {r8, r9, fp}^
    180c:	160b0000 	strne	r0, [fp], -r0
    1810:	00000b8f 	andeq	r0, r0, pc, lsl #23
    1814:	0b042302 	bleq	10a424 <_Min_Stack_Size+0x10a024>
    1818:	00007270 	andeq	r7, r0, r0, ror r2
    181c:	09a9170b 	stmibeq	r9!, {r0, r1, r3, r8, r9, sl, ip}
    1820:	23020000 	movwcs	r0, #8192	; 0x2000
    1824:	89f10b08 	ldmibhi	r1!, {r3, r8, r9, fp}^
    1828:	180b0000 	stmdane	fp, {}	; <UNPREDICTABLE>
    182c:	0000099e 	muleq	r0, lr, r9
    1830:	000a2302 	andeq	r2, sl, r2, lsl #6
    1834:	0a2f040d 	beq	bc2870 <_Min_Stack_Size+0xbc2470>
    1838:	f5040000 			; <UNDEFINED> instruction: 0xf5040000
    183c:	0b00000d 	bleq	1878 <_Min_Stack_Size+0x1478>
    1840:	000b4e19 	andeq	r4, fp, r9, lsl lr
    1844:	0b140a00 	bleq	50404c <_Min_Stack_Size+0x503c4c>
    1848:	000be11c 	andeq	lr, fp, ip, lsl r1
    184c:	51360b00 	teqpl	r6, r0, lsl #22
    1850:	1e0b0000 	cdpne	0, 0, cr0, cr11, cr0, {0}
    1854:	00000b95 	muleq	r0, r5, fp
    1858:	0b002302 	bleq	a468 <_Min_Stack_Size+0xa068>
    185c:	00008c03 	andeq	r8, r0, r3, lsl #24
    1860:	099e210b 	ldmibeq	lr, {r0, r1, r3, r8, sp}
    1864:	23020000 	movwcs	r0, #8192	; 0x2000
    1868:	01fa0b0c 	mvnseq	r0, ip, lsl #22
    186c:	240b0000 	strcs	r0, [fp], #-0
    1870:	0000099e 	muleq	r0, lr, r9
    1874:	0b0d2302 	bleq	34a484 <_Min_Stack_Size+0x34a084>
    1878:	00008fdd 	ldrdeq	r8, [r0], -sp
    187c:	0306280b 	movweq	r2, #26635	; 0x680b
    1880:	23020000 	movwcs	r0, #8192	; 0x2000
    1884:	04040010 	streq	r0, [r4], #-16
    1888:	0b00002b 	bleq	193c <_Min_Stack_Size+0x153c>
    188c:	000ba02b 	andeq	sl, fp, fp, lsr #32
    1890:	03060800 	movweq	r0, #26624	; 0x6800
    1894:	0bfc0000 	bleq	fff0189c <_estack+0xdfeff09c>
    1898:	2d090000 	stccs	0, cr0, [r9, #-0]
    189c:	0e000000 	cdpeq	0, 0, cr0, cr0, cr0, {0}
    18a0:	8fdc1d00 	svchi	0x00dc1d00
    18a4:	14010000 	strne	r0, [r1], #-0
    18a8:	00000bec 	andeq	r0, r0, ip, ror #23
    18ac:	20030501 	andcs	r0, r3, r1, lsl #10
    18b0:	1e200000 	cdpne	0, 2, cr0, cr0, cr0, {0}
    18b4:	0090a201 	addseq	sl, r0, r1, lsl #4
    18b8:	014d0100 	mrseq	r0, (UNDEF: 93)
    18bc:	00077001 	andeq	r7, r7, r1
    18c0:	00083408 	andeq	r3, r8, r8, lsl #8
    18c4:	0000c008 	andeq	ip, r0, r8
    18c8:	011e0100 	tsteq	lr, r0, lsl #2
    18cc:	0000900f 	andeq	r9, r0, pc
    18d0:	01014101 	tsteq	r1, r1, lsl #2
    18d4:	080006c8 	stmdaeq	r0, {r3, r6, r7, r9, sl}
    18d8:	08000770 	stmdaeq	r0, {r4, r5, r6, r8, r9, sl}
    18dc:	000000ec 	andeq	r0, r0, ip, ror #1
    18e0:	59011e01 	stmdbpl	r1, {r0, r9, sl, fp, ip}
    18e4:	0100008f 	smlabbeq	r0, pc, r0, r0	; <UNPREDICTABLE>
    18e8:	a4010136 	strge	r0, [r1], #-310	; 0xfffffeca
    18ec:	c8080006 	stmdagt	r8, {r1, r2}
    18f0:	18080006 	stmdane	r8, {r1, r2}
    18f4:	01000001 	tsteq	r0, r1
    18f8:	9022011e 	eorls	r0, r2, lr, lsl r1
    18fc:	2b010000 	blcs	41904 <_Min_Stack_Size+0x41504>
    1900:	06800101 	streq	r0, [r0], r1, lsl #2
    1904:	06a40800 	strteq	r0, [r4], r0, lsl #16
    1908:	01440800 	cmpeq	r4, r0, lsl #16
    190c:	1e010000 	cdpne	0, 0, cr0, cr1, cr0, {0}
    1910:	008ffe01 	addeq	pc, pc, r1, lsl #28
    1914:	01200100 			; <UNDEFINED> instruction: 0x01200100
    1918:	00065c01 	andeq	r5, r6, r1, lsl #24
    191c:	00068008 	andeq	r8, r6, r8
    1920:	00017008 	andeq	r7, r1, r8
    1924:	011e0100 	tsteq	lr, r0, lsl #2
    1928:	000090c4 	andeq	r9, r0, r4, asr #1
    192c:	01011601 	tsteq	r1, r1, lsl #12
    1930:	08000638 	stmdaeq	r0, {r3, r4, r5, r9, sl}
    1934:	0800065c 	stmdaeq	r0, {r2, r3, r4, r6, r9, sl}
    1938:	0000019c 	muleq	r0, ip, r1
    193c:	7d011e01 	stcvc	14, cr1, [r1, #-4]
    1940:	01000090 	swpeq	r0, r0, [r0]	; <UNPREDICTABLE>
    1944:	1401010a 	strne	r0, [r1], #-266	; 0xfffffef6
    1948:	38080006 	stmdacc	r8, {r1, r2}
    194c:	c8080006 	stmdagt	r8, {r1, r2}
    1950:	01000001 	tsteq	r0, r1
    1954:	8ea1011f 	mcrhi	1, 5, r0, cr1, cr15, {0}
    1958:	fc010000 	stc2	0, cr0, [r1], {-0}
    195c:	00000001 	andeq	r0, r0, r1
    1960:	00000000 	andeq	r0, r0, r0
    1964:	0001f400 	andeq	pc, r1, r0, lsl #8
    1968:	0cd80100 	ldfeqe	f0, [r8], {0}
    196c:	6a200000 	bvs	801974 <_Min_Stack_Size+0x801574>
    1970:	0100008f 	smlabbeq	r0, pc, r0, r0	; <UNPREDICTABLE>
    1974:	000cd8fc 	strdeq	sp, [ip], -ip
    1978:	74910200 	ldrvc	r0, [r1], #512	; 0x200
    197c:	e1040d00 	tst	r4, r0, lsl #26
    1980:	1f00000b 	svcne	0x0000000b
    1984:	008faa01 	addeq	sl, pc, r1, lsl #20
    1988:	01ec0100 	mvneq	r0, r0, lsl #2
    198c:	080005fc 	stmdaeq	r0, {r2, r3, r4, r5, r6, r7, r8, sl}
    1990:	08000612 	stmdaeq	r0, {r1, r4, r9, sl}
    1994:	00000244 	andeq	r0, r0, r4, asr #4
    1998:	000d0701 	andeq	r0, sp, r1, lsl #14
    199c:	8f6a2000 	svchi	0x006a2000
    19a0:	ec010000 	stc	0, cr0, [r1], {-0}
    19a4:	00000cd8 	ldrdeq	r0, [r0], -r8
    19a8:	00749102 	rsbseq	r9, r4, r2, lsl #2
    19ac:	8f940121 	svchi	0x00940121
    19b0:	ca010000 	bgt	419b8 <_Min_Stack_Size+0x415b8>
    19b4:	00000001 	andeq	r0, r0, r1
    19b8:	00000000 	andeq	r0, r0, r0
    19bc:	00029400 	andeq	r9, r2, r0, lsl #8
    19c0:	011f0100 	tsteq	pc, r0, lsl #2
    19c4:	00008ed6 	ldrdeq	r8, [r0], -r6
    19c8:	24017601 	strcs	r7, [r1], #-1537	; 0xfffff9ff
    19cc:	fc080004 	stc2	0, cr0, [r8], {4}
    19d0:	d8080005 	stmdale	r8, {r0, r2}
    19d4:	01000002 	tsteq	r0, r2
    19d8:	00000d70 	andeq	r0, r0, r0, ror sp
    19dc:	008f6a20 	addeq	r6, pc, r0, lsr #20
    19e0:	d8760100 	ldmdale	r6!, {r8}^
    19e4:	0200000c 	andeq	r0, r0, #12
    19e8:	3e226c91 	mcrcc	12, 1, r6, cr2, cr1, {4}
    19ec:	0100008f 	smlabbeq	r0, pc, r0, r0	; <UNPREDICTABLE>
    19f0:	000b437a 	andeq	r4, fp, sl, ror r3
    19f4:	70910200 	addsvc	r0, r1, r0, lsl #4
    19f8:	00906b22 	addseq	r6, r0, r2, lsr #22
    19fc:	9e830100 	rmflss	f0, f3, f0
    1a00:	02000009 	andeq	r0, r0, #9
    1a04:	b7227791 			; <UNDEFINED> instruction: 0xb7227791
    1a08:	0100008e 	smlabbeq	r0, lr, r0, r0
    1a0c:	00099e85 	andeq	r9, r9, r5, lsl #29
    1a10:	76910200 	ldrvc	r0, [r1], r0, lsl #4
    1a14:	b7012300 	strlt	r2, [r1, -r0, lsl #6]
    1a18:	01000090 	swpeq	r0, r0, [r0]	; <UNPREDICTABLE>
    1a1c:	0358014f 	cmpeq	r8, #-1073741805	; 0xc0000013
    1a20:	04240800 	strteq	r0, [r4], #-2048	; 0xfffff800
    1a24:	03280800 			; <UNDEFINED> instruction: 0x03280800
    1a28:	99010000 	stmdbls	r1, {}	; <UNPREDICTABLE>
    1a2c:	2400000d 	strcs	r0, [r0], #-13
    1a30:	00515249 	subseq	r5, r1, r9, asr #4
    1a34:	09a94f01 	stmibeq	r9!, {r0, r8, r9, sl, fp, lr}
    1a38:	91020000 	mrsls	r0, (UNDEF: 2)
    1a3c:	01250076 			; <UNDEFINED> instruction: 0x01250076
    1a40:	000090d5 	ldrdeq	r9, [r0], -r5
    1a44:	8c012901 			; <UNDEFINED> instruction: 0x8c012901
    1a48:	58080002 	stmdapl	r8, {r1}
    1a4c:	84080003 	strhi	r0, [r8], #-3
    1a50:	01000003 	tsteq	r0, r3
    1a54:	51524924 	cmppl	r2, r4, lsr #18
    1a58:	a9290100 	stmdbge	r9!, {r8}
    1a5c:	02000009 	andeq	r0, r0, #9
    1a60:	00007691 	muleq	r0, r1, r6
    1a64:	00000d55 	andeq	r0, r0, r5, asr sp
    1a68:	040d0002 	streq	r0, [sp], #-2
    1a6c:	01040000 	mrseq	r0, (UNDEF: 4)
    1a70:	0000878a 	andeq	r8, r0, sl, lsl #15
    1a74:	0090e10c 	addseq	lr, r0, ip, lsl #2
    1a78:	00359600 	eorseq	r9, r5, r0, lsl #12
    1a7c:	0000b000 	andeq	fp, r0, r0
	...
    1a88:	000e0a00 	andeq	r0, lr, r0, lsl #20
    1a8c:	0005dd00 	andeq	sp, r5, r0, lsl #26
    1a90:	07040200 	streq	r0, [r4, -r0, lsl #4]
    1a94:	000020e4 	andeq	r2, r0, r4, ror #1
    1a98:	69050403 	stmdbvs	r5, {r0, r1, sl}
    1a9c:	0200746e 	andeq	r7, r0, #1845493760	; 0x6e000000
    1aa0:	50d90508 	sbcspl	r0, r9, r8, lsl #10
    1aa4:	08020000 	stmdaeq	r2, {}	; <UNPREDICTABLE>
    1aa8:	0002a304 	andeq	sl, r2, r4, lsl #6
    1aac:	06010200 	streq	r0, [r1], -r0, lsl #4
    1ab0:	00000795 	muleq	r0, r5, r7
    1ab4:	00129e04 	andseq	r9, r2, r4, lsl #28
    1ab8:	5b2b0200 	blpl	ac22c0 <_Min_Stack_Size+0xac1ec0>
    1abc:	02000000 	andeq	r0, r0, #0
    1ac0:	30210801 	eorcc	r0, r1, r1, lsl #16
    1ac4:	02020000 	andeq	r0, r2, #0
    1ac8:	0009f105 	andeq	pc, r9, r5, lsl #2
    1acc:	296f0400 	stmdbcs	pc!, {sl}^	; <UNPREDICTABLE>
    1ad0:	39020000 	stmdbcc	r2, {}	; <UNPREDICTABLE>
    1ad4:	00000074 	andeq	r0, r0, r4, ror r0
    1ad8:	44070202 	strmi	r0, [r7], #-514	; 0xfffffdfe
    1adc:	02000068 	andeq	r0, r0, #104	; 0x68
    1ae0:	6aa30504 	bvs	fe8c2ef8 <_estack+0xde8c06f8>
    1ae4:	d6040000 	strle	r0, [r4], -r0
    1ae8:	02000040 	andeq	r0, r0, #64	; 0x40
    1aec:	00008d4f 	andeq	r8, r0, pc, asr #26
    1af0:	07040200 	streq	r0, [r4, -r0, lsl #4]
    1af4:	00001943 	andeq	r1, r0, r3, asr #18
    1af8:	aa070802 	bge	1c3b08 <_Min_Stack_Size+0x1c3708>
    1afc:	04000074 	streq	r0, [r0], #-116	; 0xffffff8c
    1b00:	00004367 	andeq	r4, r0, r7, ror #6
    1b04:	00340c03 	eorseq	r0, r4, r3, lsl #24
    1b08:	8f040000 	svchi	0x00040000
    1b0c:	04000083 	streq	r0, [r0], #-131	; 0xffffff7d
    1b10:	00007b2c 	andeq	r7, r0, ip, lsr #22
    1b14:	82c00400 	sbchi	r0, r0, #0, 8
    1b18:	72040000 	andvc	r0, r4, #0
    1b1c:	0000007b 	andeq	r0, r0, fp, ror r0
    1b20:	0022f405 	eoreq	pc, r2, r5, lsl #8
    1b24:	01650500 	cmneq	r5, r0, lsl #10
    1b28:	0000002d 	andeq	r0, r0, sp, lsr #32
    1b2c:	a6040406 	strge	r0, [r4], -r6, lsl #8
    1b30:	000000e7 	andeq	r0, r0, r7, ror #1
    1b34:	00149d07 	andseq	r9, r4, r7, lsl #26
    1b38:	bca80400 	cfstrslt	mvf0, [r8]
    1b3c:	07000000 	streq	r0, [r0, -r0]
    1b40:	000063ea 	andeq	r6, r0, sl, ror #7
    1b44:	00e7a904 	rsceq	sl, r7, r4, lsl #18
    1b48:	08000000 	stmdaeq	r0, {}	; <UNPREDICTABLE>
    1b4c:	0000005b 	andeq	r0, r0, fp, asr r0
    1b50:	000000f7 	strdeq	r0, [r0], -r7
    1b54:	00002d09 	andeq	r2, r0, r9, lsl #26
    1b58:	0a000300 	beq	2760 <_Min_Stack_Size+0x2360>
    1b5c:	1ca30408 	cfstrsne	mvf0, [r3], #32
    1b60:	0b000001 	bleq	1b6c <_Min_Stack_Size+0x176c>
    1b64:	00005e9d 	muleq	r0, sp, lr
    1b68:	0034a504 	eorseq	sl, r4, r4, lsl #10
    1b6c:	23020000 	movwcs	r0, #8192	; 0x2000
    1b70:	01f20b00 	mvnseq	r0, r0, lsl #22
    1b74:	aa040000 	bge	101b7c <_Min_Stack_Size+0x10177c>
    1b78:	000000c8 	andeq	r0, r0, r8, asr #1
    1b7c:	00042302 	andeq	r2, r4, r2, lsl #6
    1b80:	0052e104 	subseq	lr, r2, r4, lsl #2
    1b84:	f7ab0400 			; <UNDEFINED> instruction: 0xf7ab0400
    1b88:	04000000 	streq	r0, [r0], #-0
    1b8c:	00006c6e 	andeq	r6, r0, lr, ror #24
    1b90:	009baf04 	addseq	sl, fp, r4, lsl #30
    1b94:	040c0000 	streq	r0, [ip], #-0
    1b98:	013a040d 	teqeq	sl, sp, lsl #8
    1b9c:	01020000 	mrseq	r0, (UNDEF: 2)
    1ba0:	00079c08 	andeq	r9, r7, r8, lsl #24
    1ba4:	013a0e00 	teqeq	sl, r0, lsl #28
    1ba8:	4b040000 	blmi	101bb0 <_Min_Stack_Size+0x1017b0>
    1bac:	06000081 	streq	r0, [r0], -r1, lsl #1
    1bb0:	00008d16 	andeq	r8, r0, r6, lsl sp
    1bb4:	48040f00 	stmdami	r4, {r8, r9, sl, fp}
    1bb8:	06180000 	ldreq	r0, [r8], -r0
    1bbc:	0001b02f 	andeq	fp, r1, pc, lsr #32
    1bc0:	5ad40b00 	bpl	ff5047c8 <_estack+0xdf501fc8>
    1bc4:	31060000 	mrscc	r0, (UNDEF: 6)
    1bc8:	000001b0 			; <UNDEFINED> instruction: 0x000001b0
    1bcc:	10002302 	andne	r2, r0, r2, lsl #6
    1bd0:	06006b5f 			; <UNDEFINED> instruction: 0x06006b5f
    1bd4:	00003432 	andeq	r3, r0, r2, lsr r4
    1bd8:	04230200 	strteq	r0, [r3], #-512	; 0xfffffe00
    1bdc:	007a240b 	rsbseq	r2, sl, fp, lsl #8
    1be0:	34320600 	ldrtcc	r0, [r2], #-1536	; 0xfffffa00
    1be4:	02000000 	andeq	r0, r0, #0
    1be8:	ec0b0823 	stc	8, cr0, [fp], {35}	; 0x23
    1bec:	06000052 			; <UNDEFINED> instruction: 0x06000052
    1bf0:	00003432 	andeq	r3, r0, r2, lsr r4
    1bf4:	0c230200 	sfmeq	f0, 4, [r3], #-0
    1bf8:	0035080b 	eorseq	r0, r5, fp, lsl #16
    1bfc:	34320600 	ldrtcc	r0, [r2], #-1536	; 0xfffffa00
    1c00:	02000000 	andeq	r0, r0, #0
    1c04:	5f101023 	svcpl	0x00101023
    1c08:	33060078 	movwcc	r0, #24696	; 0x6078
    1c0c:	000001b6 			; <UNDEFINED> instruction: 0x000001b6
    1c10:	00142302 	andseq	r2, r4, r2, lsl #6
    1c14:	0151040d 	cmpeq	r1, sp, lsl #8
    1c18:	46080000 	strmi	r0, [r8], -r0
    1c1c:	c6000001 	strgt	r0, [r0], -r1
    1c20:	09000001 	stmdbeq	r0, {r0}
    1c24:	0000002d 	andeq	r0, r0, sp, lsr #32
    1c28:	ae0f0000 	cdpge	0, 0, cr0, cr15, cr0, {0}
    1c2c:	24000009 	strcs	r0, [r0], #-9
    1c30:	02513706 	subseq	r3, r1, #1572864	; 0x180000
    1c34:	ca0b0000 	bgt	2c1c3c <_Min_Stack_Size+0x2c183c>
    1c38:	06000009 	streq	r0, [r0], -r9
    1c3c:	00003439 	andeq	r3, r0, r9, lsr r4
    1c40:	00230200 	eoreq	r0, r3, r0, lsl #4
    1c44:	008ca70b 	addeq	sl, ip, fp, lsl #14
    1c48:	343a0600 	ldrtcc	r0, [sl], #-1536	; 0xfffffa00
    1c4c:	02000000 	andeq	r0, r0, #0
    1c50:	f20b0423 	vshl.s8	d0, d19, d11
    1c54:	06000084 	streq	r0, [r0], -r4, lsl #1
    1c58:	0000343b 	andeq	r3, r0, fp, lsr r4
    1c5c:	08230200 	stmdaeq	r3!, {r9}
    1c60:	0058fd0b 	subseq	pc, r8, fp, lsl #26
    1c64:	343c0600 	ldrtcc	r0, [ip], #-1536	; 0xfffffa00
    1c68:	02000000 	andeq	r0, r0, #0
    1c6c:	f60b0c23 			; <UNDEFINED> instruction: 0xf60b0c23
    1c70:	06000019 			; <UNDEFINED> instruction: 0x06000019
    1c74:	0000343d 	andeq	r3, r0, sp, lsr r4
    1c78:	10230200 	eorne	r0, r3, r0, lsl #4
    1c7c:	007a9c0b 	rsbseq	r9, sl, fp, lsl #24
    1c80:	343e0600 	ldrtcc	r0, [lr], #-1536	; 0xfffffa00
    1c84:	02000000 	andeq	r0, r0, #0
    1c88:	530b1423 	movwpl	r1, #46115	; 0xb423
    1c8c:	06000060 	streq	r0, [r0], -r0, rrx
    1c90:	0000343f 	andeq	r3, r0, pc, lsr r4
    1c94:	18230200 	stmdane	r3!, {r9}
    1c98:	0061170b 	rsbeq	r1, r1, fp, lsl #14
    1c9c:	34400600 	strbcc	r0, [r0], #-1536	; 0xfffffa00
    1ca0:	02000000 	andeq	r0, r0, #0
    1ca4:	ca0b1c23 	bgt	2c8d38 <_Min_Stack_Size+0x2c8938>
    1ca8:	0600008a 	streq	r0, [r0], -sl, lsl #1
    1cac:	00003441 	andeq	r3, r0, r1, asr #8
    1cb0:	20230200 	eorcs	r0, r3, r0, lsl #4
    1cb4:	13ba1100 			; <UNDEFINED> instruction: 0x13ba1100
    1cb8:	01080000 	mrseq	r0, (UNDEF: 8)
    1cbc:	029a4a06 	addseq	r4, sl, #24576	; 0x6000
    1cc0:	a30b0000 	movwge	r0, #45056	; 0xb000
    1cc4:	0600000c 	streq	r0, [r0], -ip
    1cc8:	00029a4b 	andeq	r9, r2, fp, asr #20
    1ccc:	00230200 	eoreq	r0, r3, r0, lsl #4
    1cd0:	0067290b 	rsbeq	r2, r7, fp, lsl #18
    1cd4:	9a4c0600 	bls	13034dc <_Min_Stack_Size+0x13030dc>
    1cd8:	03000002 	movweq	r0, #2
    1cdc:	0b018023 	bleq	61d70 <_Min_Stack_Size+0x61970>
    1ce0:	000018e3 	andeq	r1, r0, r3, ror #17
    1ce4:	01464e06 	cmpeq	r6, r6, lsl #28
    1ce8:	23030000 	movwcs	r0, #12288	; 0x3000
    1cec:	f00b0280 			; <UNDEFINED> instruction: 0xf00b0280
    1cf0:	0600007f 			; <UNDEFINED> instruction: 0x0600007f
    1cf4:	00014651 	andeq	r4, r1, r1, asr r6
    1cf8:	84230300 	strthi	r0, [r3], #-768	; 0xfffffd00
    1cfc:	32080002 	andcc	r0, r8, #2
    1d00:	aa000001 	bge	1d0c <_Min_Stack_Size+0x190c>
    1d04:	09000002 	stmdbeq	r0, {r1}
    1d08:	0000002d 	andeq	r0, r0, sp, lsr #32
    1d0c:	590f001f 	stmdbpl	pc, {r0, r1, r2, r3, r4}	; <UNPREDICTABLE>
    1d10:	8c000047 	stchi	0, cr0, [r0], {71}	; 0x47
    1d14:	02f05506 	rscseq	r5, r0, #25165824	; 0x1800000
    1d18:	d40b0000 	strle	r0, [fp], #-0
    1d1c:	0600005a 			; <UNDEFINED> instruction: 0x0600005a
    1d20:	0002f056 	andeq	pc, r2, r6, asr r0	; <UNPREDICTABLE>
    1d24:	00230200 	eoreq	r0, r3, r0, lsl #4
    1d28:	00254d0b 	eoreq	r4, r5, fp, lsl #26
    1d2c:	34570600 	ldrbcc	r0, [r7], #-1536	; 0xfffffa00
    1d30:	02000000 	andeq	r0, r0, #0
    1d34:	360b0423 	strcc	r0, [fp], -r3, lsr #8
    1d38:	06000027 	streq	r0, [r0], -r7, lsr #32
    1d3c:	0002f658 	andeq	pc, r2, r8, asr r6	; <UNPREDICTABLE>
    1d40:	08230200 	stmdaeq	r3!, {r9}
    1d44:	002cf20b 	eoreq	pc, ip, fp, lsl #4
    1d48:	0e590600 	cdpeq	6, 5, cr0, cr9, cr0, {0}
    1d4c:	03000003 	movweq	r0, #3
    1d50:	00018823 	andeq	r8, r1, r3, lsr #16
    1d54:	02aa040d 	adceq	r0, sl, #218103808	; 0xd000000
    1d58:	06080000 	streq	r0, [r8], -r0
    1d5c:	06000003 	streq	r0, [r0], -r3
    1d60:	09000003 	stmdbeq	r0, {r0, r1}
    1d64:	0000002d 	andeq	r0, r0, sp, lsr #32
    1d68:	040d001f 	streq	r0, [sp], #-31	; 0xffffffe1
    1d6c:	0000030c 	andeq	r0, r0, ip, lsl #6
    1d70:	040d0112 	streq	r0, [sp], #-274	; 0xfffffeee
    1d74:	00000251 	andeq	r0, r0, r1, asr r2
    1d78:	0002e20f 	andeq	lr, r2, pc, lsl #4
    1d7c:	75060800 	strvc	r0, [r6, #-2048]	; 0xfffff800
    1d80:	0000033d 	andeq	r0, r0, sp, lsr r3
    1d84:	00698c0b 	rsbeq	r8, r9, fp, lsl #24
    1d88:	3d760600 	ldclcc	6, cr0, [r6, #-0]
    1d8c:	02000003 	andeq	r0, r0, #3
    1d90:	020b0023 	andeq	r0, fp, #35	; 0x23
    1d94:	06000082 	streq	r0, [r0], -r2, lsl #1
    1d98:	00003477 	andeq	r3, r0, r7, ror r4
    1d9c:	04230200 	strteq	r0, [r3], #-512	; 0xfffffe00
    1da0:	5b040d00 	blpl	1051a8 <_Min_Stack_Size+0x104da8>
    1da4:	0f000000 	svceq	0x00000000
    1da8:	000034d3 	ldrdeq	r3, [r0], -r3	; <UNPREDICTABLE>
    1dac:	bd990620 	ldclt	6, cr0, [r9, #128]	; 0x80
    1db0:	10000003 	andne	r0, r0, r3
    1db4:	0600705f 			; <UNDEFINED> instruction: 0x0600705f
    1db8:	00033d9a 	muleq	r3, sl, sp
    1dbc:	00230200 	eoreq	r0, r3, r0, lsl #4
    1dc0:	00725f10 	rsbseq	r5, r2, r0, lsl pc
    1dc4:	00349b06 	eorseq	r9, r4, r6, lsl #22
    1dc8:	23020000 	movwcs	r0, #8192	; 0x2000
    1dcc:	775f1004 	ldrbvc	r1, [pc, -r4]
    1dd0:	349c0600 	ldrcc	r0, [ip], #1536	; 0x600
    1dd4:	02000000 	andeq	r0, r0, #0
    1dd8:	f20b0823 	vadd.i8	d0, d11, d19
    1ddc:	0600005a 			; <UNDEFINED> instruction: 0x0600005a
    1de0:	0000629d 	muleq	r0, sp, r2
    1de4:	0c230200 	sfmeq	f0, 4, [r3], #-0
    1de8:	0013370b 	andseq	r3, r3, fp, lsl #14
    1dec:	629e0600 	addsvs	r0, lr, #0, 12
    1df0:	02000000 	andeq	r0, r0, #0
    1df4:	5f100e23 	svcpl	0x00100e23
    1df8:	06006662 	streq	r6, [r0], -r2, ror #12
    1dfc:	0003149f 	muleq	r3, pc, r4	; <UNPREDICTABLE>
    1e00:	10230200 	eorne	r0, r3, r0, lsl #4
    1e04:	007e510b 	rsbseq	r5, lr, fp, lsl #2
    1e08:	34a00600 	strtcc	r0, [r0], #1536	; 0x600
    1e0c:	02000000 	andeq	r0, r0, #0
    1e10:	b00b1823 	andlt	r1, fp, r3, lsr #16
    1e14:	0600006e 	streq	r0, [r0], -lr, rrx
    1e18:	00051aa2 	andeq	r1, r5, r2, lsr #21
    1e1c:	1c230200 	sfmne	f0, 4, [r3], #-0
    1e20:	03430e00 	movteq	r0, #15872	; 0x3e00
    1e24:	9f130000 	svcls	0x00130000
    1e28:	6000001b 	andvs	r0, r0, fp, lsl r0
    1e2c:	1a017406 	bne	5ee4c <_Min_Stack_Size+0x5ea4c>
    1e30:	14000005 	strne	r0, [r0], #-5
    1e34:	0000448f 	andeq	r4, r0, pc, lsl #9
    1e38:	34017806 	strcc	r7, [r1], #-2054	; 0xfffff7fa
    1e3c:	02000000 	andeq	r0, r0, #0
    1e40:	27140023 	ldrcs	r0, [r4, -r3, lsr #32]
    1e44:	0600001e 			; <UNDEFINED> instruction: 0x0600001e
    1e48:	077c017d 			; <UNDEFINED> instruction: 0x077c017d
    1e4c:	23020000 	movwcs	r0, #8192	; 0x2000
    1e50:	553b1404 	ldrpl	r1, [fp, #-1028]!	; 0xfffffbfc
    1e54:	7d060000 	stcvc	0, cr0, [r6, #-0]
    1e58:	00077c01 	andeq	r7, r7, r1, lsl #24
    1e5c:	08230200 	stmdaeq	r3!, {r9}
    1e60:	0043f114 	subeq	pc, r3, r4, lsl r1	; <UNPREDICTABLE>
    1e64:	017d0600 	cmneq	sp, r0, lsl #12
    1e68:	0000077c 	andeq	r0, r0, ip, ror r7
    1e6c:	140c2302 	strne	r2, [ip], #-770	; 0xfffffcfe
    1e70:	00002548 	andeq	r2, r0, r8, asr #10
    1e74:	34017f06 	strcc	r7, [r1], #-3846	; 0xfffff0fa
    1e78:	02000000 	andeq	r0, r0, #0
    1e7c:	bd141023 	ldclt	0, cr1, [r4, #-140]	; 0xffffff74
    1e80:	06000055 			; <UNDEFINED> instruction: 0x06000055
    1e84:	01340181 	teqeq	r4, r1, lsl #3
    1e88:	23020000 	movwcs	r0, #8192	; 0x2000
    1e8c:	41711414 	cmnmi	r1, r4, lsl r4
    1e90:	83060000 	movwhi	r0, #24576	; 0x6000
    1e94:	00003401 	andeq	r3, r0, r1, lsl #8
    1e98:	18230200 	stmdane	r3!, {r9}
    1e9c:	0022d414 	eoreq	sp, r2, r4, lsl r4
    1ea0:	01850600 	orreq	r0, r5, r0, lsl #12
    1ea4:	00000034 	andeq	r0, r0, r4, lsr r0
    1ea8:	141c2302 	ldrne	r2, [ip], #-770	; 0xfffffcfe
    1eac:	00008143 	andeq	r8, r0, r3, asr #2
    1eb0:	f5018606 			; <UNDEFINED> instruction: 0xf5018606
    1eb4:	02000008 	andeq	r0, r0, #8
    1eb8:	5f152023 	svcpl	0x00152023
    1ebc:	0600706d 	streq	r7, [r0], -sp, rrx
    1ec0:	08fb0188 	ldmeq	fp!, {r3, r7, r8}^
    1ec4:	23020000 	movwcs	r0, #8192	; 0x2000
    1ec8:	49db1424 	ldmibmi	fp, {r2, r5, sl, ip}^
    1ecc:	8a060000 	bhi	181ed4 <_Min_Stack_Size+0x181ad4>
    1ed0:	00090d01 	andeq	r0, r9, r1, lsl #26
    1ed4:	28230200 	stmdacs	r3!, {r9}
    1ed8:	00508914 	subseq	r8, r0, r4, lsl r9
    1edc:	018c0600 	orreq	r0, ip, r0, lsl #12
    1ee0:	00000034 	andeq	r0, r0, r4, lsr r0
    1ee4:	142c2302 	strtne	r2, [ip], #-770	; 0xfffffcfe
    1ee8:	000005da 	ldrdeq	r0, [r0], -sl
    1eec:	34018f06 	strcc	r8, [r1], #-3846	; 0xfffff0fa
    1ef0:	02000000 	andeq	r0, r0, #0
    1ef4:	8f143023 	svchi	0x00143023
    1ef8:	06000037 			; <UNDEFINED> instruction: 0x06000037
    1efc:	01340190 	teqeq	r4, r0	; <illegal shifter operand>
    1f00:	23020000 	movwcs	r0, #8192	; 0x2000
    1f04:	6d9f1434 	cfldrsvs	mvf1, [pc, #208]	; 1fdc <_Min_Stack_Size+0x1bdc>
    1f08:	92060000 	andls	r0, r6, #0
    1f0c:	00091301 	andeq	r1, r9, r1, lsl #6
    1f10:	38230200 	stmdacc	r3!, {r9}
    1f14:	0017e114 	andseq	lr, r7, r4, lsl r1
    1f18:	01930600 	orrseq	r0, r3, r0, lsl #12
    1f1c:	00000919 	andeq	r0, r0, r9, lsl r9
    1f20:	143c2302 	ldrtne	r2, [ip], #-770	; 0xfffffcfe
    1f24:	000005b6 			; <UNDEFINED> instruction: 0x000005b6
    1f28:	34019406 	strcc	r9, [r1], #-1030	; 0xfffffbfa
    1f2c:	02000001 	andeq	r0, r0, #1
    1f30:	0d144023 	ldceq	0, cr4, [r4, #-140]	; 0xffffff74
    1f34:	06000036 			; <UNDEFINED> instruction: 0x06000036
    1f38:	092b0197 	stmdbeq	fp!, {r0, r1, r2, r4, r7, r8}
    1f3c:	23020000 	movwcs	r0, #8192	; 0x2000
    1f40:	89da1444 	ldmibhi	sl, {r2, r6, sl, ip}^
    1f44:	9f060000 	svcls	0x00060000
    1f48:	00073b01 	andeq	r3, r7, r1, lsl #22
    1f4c:	48230200 	stmdami	r3!, {r9}
    1f50:	00027614 	andeq	r7, r2, r4, lsl r6
    1f54:	01a00600 	lsleq	r0, r0, #12
    1f58:	0000077c 	andeq	r0, r0, ip, ror r7
    1f5c:	14542302 	ldrbne	r2, [r4], #-770	; 0xfffffcfe
    1f60:	00008119 	andeq	r8, r0, r9, lsl r1
    1f64:	3701a106 	strcc	sl, [r1, -r6, lsl #2]
    1f68:	02000009 	andeq	r0, r0, #9
    1f6c:	9d145823 	ldcls	8, cr5, [r4, #-140]	; 0xffffff74
    1f70:	06000046 	streq	r0, [r0], -r6, asr #32
    1f74:	013401a2 	teqeq	r4, r2, lsr #3
    1f78:	23020000 	movwcs	r0, #8192	; 0x2000
    1f7c:	040d005c 	streq	r0, [sp], #-92	; 0xffffffa4
    1f80:	000003c2 	andeq	r0, r0, r2, asr #7
    1f84:	00051a0e 	andeq	r1, r5, lr, lsl #20
    1f88:	85080f00 	strhi	r0, [r8, #-3840]	; 0xfffff100
    1f8c:	06680000 	strbteq	r0, [r8], -r0
    1f90:	00067fb5 			; <UNDEFINED> instruction: 0x00067fb5
    1f94:	705f1000 	subsvc	r1, pc, r0
    1f98:	3db60600 	ldccc	6, cr0, [r6]
    1f9c:	02000003 	andeq	r0, r0, #3
    1fa0:	5f100023 	svcpl	0x00100023
    1fa4:	b7060072 	smlsdxlt	r6, r2, r0, r0
    1fa8:	00000034 	andeq	r0, r0, r4, lsr r0
    1fac:	10042302 	andne	r2, r4, r2, lsl #6
    1fb0:	0600775f 			; <UNDEFINED> instruction: 0x0600775f
    1fb4:	000034b8 			; <UNDEFINED> instruction: 0x000034b8
    1fb8:	08230200 	stmdaeq	r3!, {r9}
    1fbc:	005af20b 	subseq	pc, sl, fp, lsl #4
    1fc0:	62b90600 	adcsvs	r0, r9, #0, 12
    1fc4:	02000000 	andeq	r0, r0, #0
    1fc8:	370b0c23 	strcc	r0, [fp, -r3, lsr #24]
    1fcc:	06000013 			; <UNDEFINED> instruction: 0x06000013
    1fd0:	000062ba 			; <UNDEFINED> instruction: 0x000062ba
    1fd4:	0e230200 	cdpeq	2, 2, cr0, cr3, cr0, {0}
    1fd8:	66625f10 	uqadd16vs	r5, r2, r0
    1fdc:	14bb0600 	ldrtne	r0, [fp], #1536	; 0x600
    1fe0:	02000003 	andeq	r0, r0, #3
    1fe4:	510b1023 	tstpl	fp, r3, lsr #32
    1fe8:	0600007e 			; <UNDEFINED> instruction: 0x0600007e
    1fec:	000034bc 			; <UNDEFINED> instruction: 0x000034bc
    1ff0:	18230200 	stmdane	r3!, {r9}
    1ff4:	006eb00b 	rsbeq	fp, lr, fp
    1ff8:	1abf0600 	bne	fefc3800 <_estack+0xdefc1000>
    1ffc:	02000005 	andeq	r0, r0, #5
    2000:	6a0b1c23 	bvs	2c9094 <_Min_Stack_Size+0x2c8c94>
    2004:	06000034 			; <UNDEFINED> instruction: 0x06000034
    2008:	000132c3 	andeq	r3, r1, r3, asr #5
    200c:	20230200 	eorcs	r0, r3, r0, lsl #4
    2010:	0002e90b 	andeq	lr, r2, fp, lsl #18
    2014:	9ec50600 	cdpls	6, 12, cr0, cr5, cr0, {0}
    2018:	02000006 	andeq	r0, r0, #6
    201c:	c50b2423 	strgt	r2, [fp, #-1059]	; 0xfffffbdd
    2020:	06000004 	streq	r0, [r0], -r4
    2024:	0006c9c7 	andeq	ip, r6, r7, asr #19
    2028:	28230200 	stmdacs	r3!, {r9}
    202c:	0062e10b 	rsbeq	lr, r2, fp, lsl #2
    2030:	eeca0600 	cdp	6, 12, cr0, cr10, cr0, {0}
    2034:	02000006 	andeq	r0, r0, #6
    2038:	d20b2c23 	andle	r2, fp, #8960	; 0x2300
    203c:	06000060 	streq	r0, [r0], -r0, rrx
    2040:	000709cb 	andeq	r0, r7, fp, asr #19
    2044:	30230200 	eorcc	r0, r3, r0, lsl #4
    2048:	62755f10 	rsbsvs	r5, r5, #16, 30	; 0x40
    204c:	14ce0600 	strbne	r0, [lr], #1536	; 0x600
    2050:	02000003 	andeq	r0, r0, #3
    2054:	5f103423 	svcpl	0x00103423
    2058:	06007075 			; <UNDEFINED> instruction: 0x06007075
    205c:	00033dcf 	andeq	r3, r3, pc, asr #27
    2060:	3c230200 	sfmcc	f0, 4, [r3], #-0
    2064:	72755f10 	rsbsvc	r5, r5, #16, 30	; 0x40
    2068:	34d00600 	ldrbcc	r0, [r0], #1536	; 0x600
    206c:	02000000 	andeq	r0, r0, #0
    2070:	930b4023 	movwls	r4, #45091	; 0xb023
    2074:	06000059 			; <UNDEFINED> instruction: 0x06000059
    2078:	00070fd3 	ldrdeq	r0, [r7], -r3
    207c:	44230200 	strtmi	r0, [r3], #-512	; 0xfffffe00
    2080:	0009c40b 	andeq	ip, r9, fp, lsl #8
    2084:	1fd40600 	svcne	0x00d40600
    2088:	02000007 	andeq	r0, r0, #7
    208c:	5f104723 	svcpl	0x00104723
    2090:	0600626c 	streq	r6, [r0], -ip, ror #4
    2094:	000314d7 	ldrdeq	r1, [r3], -r7
    2098:	48230200 	stmdami	r3!, {r9}
    209c:	00693b0b 	rsbeq	r3, r9, fp, lsl #22
    20a0:	34da0600 	ldrbcc	r0, [sl], #1536	; 0x600
    20a4:	02000000 	andeq	r0, r0, #0
    20a8:	760b5023 	strvc	r5, [fp], -r3, lsr #32
    20ac:	06000037 			; <UNDEFINED> instruction: 0x06000037
    20b0:	0000a6db 	ldrdeq	sl, [r0], -fp
    20b4:	54230200 	strtpl	r0, [r3], #-512	; 0xfffffe00
    20b8:	000cab0b 	andeq	sl, ip, fp, lsl #22
    20bc:	27e20600 	strbcs	r0, [r2, r0, lsl #12]!
    20c0:	02000001 	andeq	r0, r0, #1
    20c4:	600b5823 	andvs	r5, fp, r3, lsr #16
    20c8:	0600005a 			; <UNDEFINED> instruction: 0x0600005a
    20cc:	00011ce4 	andeq	r1, r1, r4, ror #25
    20d0:	5c230200 	sfmpl	f0, 4, [r3], #-0
    20d4:	0055790b 	subseq	r7, r5, fp, lsl #18
    20d8:	34e50600 	strbtcc	r0, [r5], #1536	; 0x600
    20dc:	02000000 	andeq	r0, r0, #0
    20e0:	16006423 	strne	r6, [r0], -r3, lsr #8
    20e4:	00003401 	andeq	r3, r0, r1, lsl #8
    20e8:	00069e00 	andeq	r9, r6, r0, lsl #28
    20ec:	051a1700 	ldreq	r1, [sl, #-1792]	; 0xfffff900
    20f0:	32170000 	andscc	r0, r7, #0
    20f4:	17000001 	strne	r0, [r0, -r1]
    20f8:	00000134 	andeq	r0, r0, r4, lsr r1
    20fc:	00003417 	andeq	r3, r0, r7, lsl r4
    2100:	040d0000 	streq	r0, [sp], #-0
    2104:	0000067f 	andeq	r0, r0, pc, ror r6
    2108:	00340116 	eorseq	r0, r4, r6, lsl r1
    210c:	06c30000 	strbeq	r0, [r3], r0
    2110:	1a170000 	bne	5c2118 <_Min_Stack_Size+0x5c1d18>
    2114:	17000005 	strne	r0, [r0, -r5]
    2118:	00000132 	andeq	r0, r0, r2, lsr r1
    211c:	0006c317 	andeq	ip, r6, r7, lsl r3
    2120:	00341700 	eorseq	r1, r4, r0, lsl #14
    2124:	0d000000 	stceq	0, cr0, [r0, #-0]
    2128:	00014104 	andeq	r4, r1, r4, lsl #2
    212c:	a4040d00 	strge	r0, [r4], #-3328	; 0xfffff300
    2130:	16000006 	strne	r0, [r0], -r6
    2134:	0000b101 	andeq	fp, r0, r1, lsl #2
    2138:	0006ee00 	andeq	lr, r6, r0, lsl #28
    213c:	051a1700 	ldreq	r1, [sl, #-1792]	; 0xfffff900
    2140:	32170000 	andscc	r0, r7, #0
    2144:	17000001 	strne	r0, [r0, -r1]
    2148:	000000b1 	strheq	r0, [r0], -r1
    214c:	00003417 	andeq	r3, r0, r7, lsl r4
    2150:	040d0000 	streq	r0, [sp], #-0
    2154:	000006cf 	andeq	r0, r0, pc, asr #13
    2158:	00340116 	eorseq	r0, r4, r6, lsl r1
    215c:	07090000 	streq	r0, [r9, -r0]
    2160:	1a170000 	bne	5c2168 <_Min_Stack_Size+0x5c1d68>
    2164:	17000005 	strne	r0, [r0, -r5]
    2168:	00000132 	andeq	r0, r0, r2, lsr r1
    216c:	f4040d00 			; <UNDEFINED> instruction: 0xf4040d00
    2170:	08000006 	stmdaeq	r0, {r1, r2}
    2174:	0000005b 	andeq	r0, r0, fp, asr r0
    2178:	0000071f 	andeq	r0, r0, pc, lsl r7
    217c:	00002d09 	andeq	r2, r0, r9, lsl #26
    2180:	08000200 	stmdaeq	r0, {r9}
    2184:	0000005b 	andeq	r0, r0, fp, asr r0
    2188:	0000072f 	andeq	r0, r0, pc, lsr #14
    218c:	00002d09 	andeq	r2, r0, r9, lsl #26
    2190:	05000000 	streq	r0, [r0, #-0]
    2194:	00006c77 	andeq	r6, r0, r7, ror ip
    2198:	25011f06 	strcs	r1, [r1, #-3846]	; 0xfffff0fa
    219c:	13000005 	movwne	r0, #5
    21a0:	00005296 	muleq	r0, r6, r2
    21a4:	0123060c 			; <UNDEFINED> instruction: 0x0123060c
    21a8:	00000776 	andeq	r0, r0, r6, ror r7
    21ac:	005ad414 	subseq	sp, sl, r4, lsl r4
    21b0:	01250600 			; <UNDEFINED> instruction: 0x01250600
    21b4:	00000776 	andeq	r0, r0, r6, ror r7
    21b8:	14002302 	strne	r2, [r0], #-770	; 0xfffffcfe
    21bc:	00002ba6 	andeq	r2, r0, r6, lsr #23
    21c0:	34012606 	strcc	r2, [r1], #-1542	; 0xfffff9fa
    21c4:	02000000 	andeq	r0, r0, #0
    21c8:	08140423 	ldmdaeq	r4, {r0, r1, r5, sl}
    21cc:	06000038 			; <UNDEFINED> instruction: 0x06000038
    21d0:	077c0127 	ldrbeq	r0, [ip, -r7, lsr #2]!
    21d4:	23020000 	movwcs	r0, #8192	; 0x2000
    21d8:	040d0008 	streq	r0, [sp], #-8
    21dc:	0000073b 	andeq	r0, r0, fp, lsr r7
    21e0:	072f040d 	streq	r0, [pc, -sp, lsl #8]!
    21e4:	c9130000 	ldmdbgt	r3, {}	; <UNPREDICTABLE>
    21e8:	18000067 	stmdane	r0, {r0, r1, r2, r5, r6}
    21ec:	cc013f06 	stcgt	15, cr3, [r1], {6}
    21f0:	14000007 	strne	r0, [r0], #-7
    21f4:	00006267 	andeq	r6, r0, r7, ror #4
    21f8:	cc014006 	stcgt	0, cr4, [r1], {6}
    21fc:	02000007 	andeq	r0, r0, #7
    2200:	3d140023 	ldccc	0, cr0, [r4, #-140]	; 0xffffff74
    2204:	0600000e 	streq	r0, [r0], -lr
    2208:	07cc0141 	strbeq	r0, [ip, r1, asr #2]
    220c:	23020000 	movwcs	r0, #8192	; 0x2000
    2210:	845c1406 	ldrbhi	r1, [ip], #-1030	; 0xfffffbfa
    2214:	42060000 	andmi	r0, r6, #0
    2218:	00007401 	andeq	r7, r0, r1, lsl #8
    221c:	0c230200 	sfmeq	f0, 4, [r3], #-0
    2220:	005acf14 	subseq	ip, sl, r4, lsl pc
    2224:	01450600 	cmpeq	r5, r0, lsl #12
    2228:	00000094 	muleq	r0, r4, r0
    222c:	00102302 	andseq	r2, r0, r2, lsl #6
    2230:	00007408 	andeq	r7, r0, r8, lsl #8
    2234:	0007dc00 	andeq	sp, r7, r0, lsl #24
    2238:	002d0900 	eoreq	r0, sp, r0, lsl #18
    223c:	00020000 	andeq	r0, r2, r0
    2240:	004d3313 	subeq	r3, sp, r3, lsl r3
    2244:	58061000 	stmdapl	r6, {ip}
    2248:	00082601 	andeq	r2, r8, r1, lsl #12
    224c:	82341400 	eorshi	r1, r4, #0, 8
    2250:	5b060000 	blpl	182258 <_Min_Stack_Size+0x181e58>
    2254:	0001b001 	andeq	fp, r1, r1
    2258:	00230200 	eoreq	r0, r3, r0, lsl #4
    225c:	00165d14 	andseq	r5, r6, r4, lsl sp
    2260:	015c0600 	cmpeq	ip, r0, lsl #12
    2264:	00000034 	andeq	r0, r0, r4, lsr r0
    2268:	14042302 	strne	r2, [r4], #-770	; 0xfffffcfe
    226c:	00003485 	andeq	r3, r0, r5, lsl #9
    2270:	b0015d06 	andlt	r5, r1, r6, lsl #26
    2274:	02000001 	andeq	r0, r0, #1
    2278:	df140823 	svcle	0x00140823
    227c:	06000051 			; <UNDEFINED> instruction: 0x06000051
    2280:	0826015e 	stmdaeq	r6!, {r1, r2, r3, r4, r6, r8}
    2284:	23020000 	movwcs	r0, #8192	; 0x2000
    2288:	040d000c 	streq	r0, [sp], #-12
    228c:	000001b0 			; <UNDEFINED> instruction: 0x000001b0
    2290:	001b9a13 	andseq	r9, fp, r3, lsl sl
    2294:	62065000 	andvs	r5, r6, #0
    2298:	0008df01 	andeq	sp, r8, r1, lsl #30
    229c:	6a621400 	bvs	18872a4 <_Min_Stack_Size+0x1886ea4>
    22a0:	65060000 	strvs	r0, [r6, #-0]
    22a4:	00013401 	andeq	r3, r1, r1, lsl #8
    22a8:	00230200 	eoreq	r0, r3, r0, lsl #4
    22ac:	0075ea14 	rsbseq	lr, r5, r4, lsl sl
    22b0:	01660600 	cmneq	r6, r0, lsl #12
    22b4:	0000011c 	andeq	r0, r0, ip, lsl r1
    22b8:	14042302 	strne	r2, [r4], #-770	; 0xfffffcfe
    22bc:	00005a38 	andeq	r5, r0, r8, lsr sl
    22c0:	1c016706 	stcne	7, cr6, [r1], {6}
    22c4:	02000001 	andeq	r0, r0, #1
    22c8:	91140c23 	tstls	r4, r3, lsr #24
    22cc:	06000064 	streq	r0, [r0], -r4, rrx
    22d0:	011c0168 	tsteq	ip, r8, ror #2
    22d4:	23020000 	movwcs	r0, #8192	; 0x2000
    22d8:	0a751414 	beq	1d47330 <_Min_Stack_Size+0x1d46f30>
    22dc:	69060000 	stmdbvs	r6, {}	; <UNPREDICTABLE>
    22e0:	0008df01 	andeq	sp, r8, r1, lsl #30
    22e4:	1c230200 	sfmne	f0, 4, [r3], #-0
    22e8:	000e3014 	andeq	r3, lr, r4, lsl r0
    22ec:	016a0600 	cmneq	sl, r0, lsl #12
    22f0:	00000034 	andeq	r0, r0, r4, lsr r0
    22f4:	14242302 	strtne	r2, [r4], #-770	; 0xfffffcfe
    22f8:	000015ef 	andeq	r1, r0, pc, ror #11
    22fc:	1c016b06 			; <UNDEFINED> instruction: 0x1c016b06
    2300:	02000001 	andeq	r0, r0, #1
    2304:	c5142823 	ldrgt	r2, [r4, #-2083]	; 0xfffff7dd
    2308:	0600006a 	streq	r0, [r0], -sl, rrx
    230c:	011c016c 	tsteq	ip, ip, ror #2
    2310:	23020000 	movwcs	r0, #8192	; 0x2000
    2314:	86ac1430 			; <UNDEFINED> instruction: 0x86ac1430
    2318:	6d060000 	stcvs	0, cr0, [r6, #-0]
    231c:	00011c01 	andeq	r1, r1, r1, lsl #24
    2320:	38230200 	stmdacc	r3!, {r9}
    2324:	00587714 	subseq	r7, r8, r4, lsl r7
    2328:	016e0600 	cmneq	lr, r0, lsl #12
    232c:	0000011c 	andeq	r0, r0, ip, lsl r1
    2330:	14402302 	strbne	r2, [r0], #-770	; 0xfffffcfe
    2334:	000009b3 			; <UNDEFINED> instruction: 0x000009b3
    2338:	1c016f06 	stcne	15, cr6, [r1], {6}
    233c:	02000001 	andeq	r0, r0, #1
    2340:	08004823 	stmdaeq	r0, {r0, r1, r5, fp, lr}
    2344:	0000013a 	andeq	r0, r0, sl, lsr r1
    2348:	000008ef 	andeq	r0, r0, pc, ror #17
    234c:	00002d09 	andeq	r2, r0, r9, lsl #26
    2350:	18000700 	stmdane	r0, {r8, r9, sl}
    2354:	000001ce 	andeq	r0, r0, lr, asr #3
    2358:	ef040d01 	svc	0x00040d01
    235c:	0d000008 	stceq	0, cr0, [r0, #-32]	; 0xffffffe0
    2360:	0007dc04 	andeq	sp, r7, r4, lsl #24
    2364:	0d011900 	vstreq.16	s2, [r1, #-0]	; <UNPREDICTABLE>
    2368:	17000009 	strne	r0, [r0, -r9]
    236c:	0000051a 	andeq	r0, r0, sl, lsl r5
    2370:	01040d00 	tsteq	r4, r0, lsl #26
    2374:	0d000009 	stceq	0, cr0, [r0, #-36]	; 0xffffffdc
    2378:	00078204 	andeq	r8, r7, r4, lsl #4
    237c:	c6040d00 	strgt	r0, [r4], -r0, lsl #26
    2380:	19000001 	stmdbne	r0, {r0}
    2384:	00092b01 	andeq	r2, r9, r1, lsl #22
    2388:	00341700 	eorseq	r1, r4, r0, lsl #14
    238c:	0d000000 	stceq	0, cr0, [r0, #-0]
    2390:	00093104 	andeq	r3, r9, r4, lsl #2
    2394:	1f040d00 	svcne	0x00040d00
    2398:	0d000009 	stceq	0, cr0, [r0, #-36]	; 0xffffffdc
    239c:	00082c04 	andeq	r2, r8, r4, lsl #24
    23a0:	1e1e1a00 	vnmlsne.f32	s2, s28, s0
    23a4:	ca060000 	bgt	1823ac <_Min_Stack_Size+0x181fac>
    23a8:	0003bd01 	andeq	fp, r3, r1, lsl #26
    23ac:	1a010100 	bne	427b4 <_Min_Stack_Size+0x423b4>
    23b0:	00005532 	andeq	r5, r0, r2, lsr r5
    23b4:	bd01cb06 	vstrlt	d12, [r1, #-24]	; 0xffffffe8
    23b8:	01000003 	tsteq	r0, r3
    23bc:	43e81a01 	mvnmi	r1, #4096	; 0x1000
    23c0:	cc060000 	stcgt	0, cr0, [r6], {-0}
    23c4:	0003bd01 	andeq	fp, r3, r1, lsl #26
    23c8:	1a010100 	bne	427d0 <_Min_Stack_Size+0x423d0>
    23cc:	00002ae2 	andeq	r2, r0, r2, ror #21
    23d0:	1a032e06 	bne	cdbf0 <_Min_Stack_Size+0xcd7f0>
    23d4:	01000005 	tsteq	r0, r5
    23d8:	7a731a01 	bvc	1cc8be4 <_Min_Stack_Size+0x1cc87e4>
    23dc:	2f060000 	svccs	0x00060000
    23e0:	00052003 	andeq	r2, r5, r3
    23e4:	1a010100 	bne	427ec <_Min_Stack_Size+0x423ec>
    23e8:	00004752 	andeq	r4, r0, r2, asr r7
    23ec:	f0034106 			; <UNDEFINED> instruction: 0xf0034106
    23f0:	01000002 	tsteq	r0, r2
    23f4:	79881b01 	stmibvc	r8, {r0, r8, r9, fp, ip}
    23f8:	63070000 	movwvs	r0, #28672	; 0x7000
    23fc:	00000134 	andeq	r0, r0, r4, lsr r1
    2400:	a0040101 	andge	r0, r4, r1, lsl #2
    2404:	08000012 	stmdaeq	r0, {r1, r4}
    2408:	00005018 	andeq	r5, r0, r8, lsl r0
    240c:	29710400 	ldmdbcs	r1!, {sl}^
    2410:	24080000 	strcs	r0, [r8], #-0
    2414:	00000069 	andeq	r0, r0, r9, rrx
    2418:	0040d804 	subeq	sp, r0, r4, lsl #16
    241c:	82300800 	eorshi	r0, r0, #0, 16
    2420:	1c000000 	stcne	0, cr0, [r0], {-0}
    2424:	000009b4 			; <UNDEFINED> instruction: 0x000009b4
    2428:	6e091c0a 	cdpvs	12, 0, cr1, cr9, cr10, {0}
    242c:	00000a2f 	andeq	r0, r0, pc, lsr #20
    2430:	4c524310 	mrrcmi	3, 1, r4, r2, cr0
    2434:	bf700900 	svclt	0x00700900
    2438:	02000009 	andeq	r0, r0, #9
    243c:	43100023 	tstmi	r0, #35	; 0x23
    2440:	09004852 	stmdbeq	r0, {r1, r4, r6, fp, lr}
    2444:	0009bf71 	andeq	fp, r9, r1, ror pc
    2448:	04230200 	strteq	r0, [r3], #-512	; 0xfffffe00
    244c:	52444910 	subpl	r4, r4, #16, 18	; 0x40000
    2450:	bf720900 	svclt	0x00720900
    2454:	02000009 	andeq	r0, r0, #9
    2458:	4f100823 	svcmi	0x00100823
    245c:	09005244 	stmdbeq	r0, {r2, r6, r9, ip, lr}
    2460:	0009bf73 	andeq	fp, r9, r3, ror pc
    2464:	0c230200 	sfmeq	f0, 4, [r3], #-0
    2468:	007cbd0b 	rsbseq	fp, ip, fp, lsl #26
    246c:	bf740900 	svclt	0x00740900
    2470:	02000009 	andeq	r0, r0, #9
    2474:	42101023 	andsmi	r1, r0, #35	; 0x23
    2478:	09005252 	stmdbeq	r0, {r1, r4, r6, r9, ip, lr}
    247c:	0009bf75 	andeq	fp, r9, r5, ror pc
    2480:	14230200 	strtne	r0, [r3], #-512	; 0xfffffe00
    2484:	0046a90b 	subeq	sl, r6, fp, lsl #18
    2488:	bf760900 	svclt	0x00760900
    248c:	02000009 	andeq	r0, r0, #9
    2490:	04001823 	streq	r1, [r0], #-2083	; 0xfffff7dd
    2494:	00007e0b 	andeq	r7, r0, fp, lsl #28
    2498:	09c47709 	stmibeq	r4, {r0, r3, r8, r9, sl, ip, sp, lr}^
    249c:	280a0000 	stmdacs	sl, {}	; <UNPREDICTABLE>
    24a0:	0ace7d09 	beq	ff3a18cc <_estack+0xdf39f0cc>
    24a4:	43100000 	tstmi	r0, #0
    24a8:	7f090052 	svcvc	0x00090052
    24ac:	000009bf 			; <UNDEFINED> instruction: 0x000009bf
    24b0:	0b002302 	bleq	b0c0 <_Min_Stack_Size+0xacc0>
    24b4:	0000372c 	andeq	r3, r0, ip, lsr #14
    24b8:	09bf8009 	ldmibeq	pc!, {r0, r3, pc}	; <UNPREDICTABLE>
    24bc:	23020000 	movwcs	r0, #8192	; 0x2000
    24c0:	49431004 	stmdbmi	r3, {r2, ip}^
    24c4:	81090052 	qaddhi	r0, r2, r9
    24c8:	000009bf 			; <UNDEFINED> instruction: 0x000009bf
    24cc:	0b082302 	bleq	20b0dc <_Min_Stack_Size+0x20acdc>
    24d0:	00005098 	muleq	r0, r8, r0
    24d4:	09bf8209 	ldmibeq	pc!, {r0, r3, r9, pc}	; <UNPREDICTABLE>
    24d8:	23020000 	movwcs	r0, #8192	; 0x2000
    24dc:	64160b0c 	ldrvs	r0, [r6], #-2828	; 0xfffff4f4
    24e0:	83090000 	movwhi	r0, #36864	; 0x9000
    24e4:	000009bf 			; <UNDEFINED> instruction: 0x000009bf
    24e8:	0b102302 	bleq	40b0f8 <_Min_Stack_Size+0x40acf8>
    24ec:	00007aa6 	andeq	r7, r0, r6, lsr #21
    24f0:	09bf8409 	ldmibeq	pc!, {r0, r3, sl, pc}	; <UNPREDICTABLE>
    24f4:	23020000 	movwcs	r0, #8192	; 0x2000
    24f8:	1a2c0b14 	bne	b05150 <_Min_Stack_Size+0xb04d50>
    24fc:	85090000 	strhi	r0, [r9, #-0]
    2500:	000009bf 			; <UNDEFINED> instruction: 0x000009bf
    2504:	0b182302 	bleq	60b114 <_Min_Stack_Size+0x60ad14>
    2508:	00006489 	andeq	r6, r0, r9, lsl #9
    250c:	09bf8609 	ldmibeq	pc!, {r0, r3, r9, sl, pc}	; <UNPREDICTABLE>
    2510:	23020000 	movwcs	r0, #8192	; 0x2000
    2514:	314c0b1c 	cmpcc	ip, ip, lsl fp
    2518:	87090000 	strhi	r0, [r9, -r0]
    251c:	000009bf 			; <UNDEFINED> instruction: 0x000009bf
    2520:	10202302 	eorne	r2, r0, r2, lsl #6
    2524:	00525343 	subseq	r5, r2, r3, asr #6
    2528:	09bf8809 	ldmibeq	pc!, {r0, r3, fp, pc}	; <UNPREDICTABLE>
    252c:	23020000 	movwcs	r0, #8192	; 0x2000
    2530:	be040024 	cdplt	0, 0, cr0, cr4, cr4, {1}
    2534:	09000075 	stmdbeq	r0, {r0, r2, r4, r5, r6}
    2538:	000a3a89 	andeq	r3, sl, r9, lsl #21
    253c:	0a040a00 	beq	104d44 <_Min_Stack_Size+0x104944>
    2540:	000b0c17 	andeq	r0, fp, r7, lsl ip
    2544:	908e0b00 	addls	r0, lr, r0, lsl #22
    2548:	1a0a0000 	bne	282550 <_Min_Stack_Size+0x282150>
    254c:	000009a9 	andeq	r0, r0, r9, lsr #19
    2550:	0b002302 	bleq	b160 <_Min_Stack_Size+0xad60>
    2554:	00008f45 	andeq	r8, r0, r5, asr #30
    2558:	099e1d0a 	ldmibeq	lr, {r1, r3, r8, sl, fp, ip}
    255c:	23020000 	movwcs	r0, #8192	; 0x2000
    2560:	8fbe0b02 	svchi	0x00be0b02
    2564:	200a0000 	andcs	r0, sl, r0
    2568:	0000099e 	muleq	r0, lr, r9
    256c:	00032302 	andeq	r2, r3, r2, lsl #6
    2570:	008f7604 	addeq	r7, pc, r4, lsl #12
    2574:	d9220a00 	stmdble	r2!, {r9, fp}
    2578:	1d00000a 	stcne	0, cr0, [r0, #-40]	; 0xffffffd8
    257c:	00917a01 	addseq	r7, r1, r1, lsl #20
    2580:	012e0100 			; <UNDEFINED> instruction: 0x012e0100
    2584:	00099e01 	andeq	r9, r9, r1, lsl #28
	...
    2590:	0003e000 	andeq	lr, r3, r0
    2594:	0b640100 	bleq	190299c <_Min_Stack_Size+0x190259c>
    2598:	581e0000 	ldmdapl	lr, {}	; <UNPREDICTABLE>
    259c:	01000091 	swpeq	r0, r1, [r0]	; <UNPREDICTABLE>
    25a0:	0b64012e 	bleq	1902a60 <_Min_Stack_Size+0x1902660>
    25a4:	91020000 	mrsls	r0, (UNDEF: 2)
    25a8:	90931e6c 	addsls	r1, r3, ip, ror #28
    25ac:	2e010000 	cdpcs	0, 0, cr0, cr1, cr0, {0}
    25b0:	0009a901 	andeq	sl, r9, r1, lsl #18
    25b4:	6a910200 	bvs	fe442dbc <_estack+0xde4405bc>
    25b8:	0091fb1f 	addseq	pc, r1, pc, lsl fp	; <UNPREDICTABLE>
    25bc:	01420100 	mrseq	r0, (UNDEF: 82)
    25c0:	000009bf 			; <UNDEFINED> instruction: 0x000009bf
    25c4:	00749102 	rsbseq	r9, r4, r2, lsl #2
    25c8:	0a2f040d 	beq	bc3604 <_Min_Stack_Size+0xbc3204>
    25cc:	01200000 			; <UNDEFINED> instruction: 0x01200000
    25d0:	00009144 	andeq	r9, r0, r4, asr #2
    25d4:	01011e01 	tsteq	r1, r1, lsl #28
	...
    25e0:	0000043c 	andeq	r0, r0, ip, lsr r4
    25e4:	000ba401 	andeq	sl, fp, r1, lsl #8
    25e8:	91581e00 	cmpls	r8, r0, lsl #28
    25ec:	1e010000 	cdpne	0, 0, cr0, cr1, cr0, {0}
    25f0:	000b6401 	andeq	r6, fp, r1, lsl #8
    25f4:	74910200 	ldrvc	r0, [r1], #512	; 0x200
    25f8:	0090931e 	addseq	r9, r0, lr, lsl r3
    25fc:	011e0100 	tsteq	lr, r0, lsl #2
    2600:	000009a9 	andeq	r0, r0, r9, lsr #19
    2604:	00729102 	rsbseq	r9, r2, r2, lsl #2
    2608:	91af0120 			; <UNDEFINED> instruction: 0x91af0120
    260c:	0f010000 	svceq	0x00010000
    2610:	00000101 	andeq	r0, r0, r1, lsl #2
    2614:	00000000 	andeq	r0, r0, r0
    2618:	04980000 	ldreq	r0, [r8], #0
    261c:	de010000 	cdple	0, 0, cr0, cr1, cr0, {0}
    2620:	1e00000b 	cdpne	0, 0, cr0, cr0, cr11, {0}
    2624:	00009158 	andeq	r9, r0, r8, asr r1
    2628:	64010f01 	strvs	r0, [r1], #-3841	; 0xfffff0ff
    262c:	0200000b 	andeq	r0, r0, #11
    2630:	c71e7491 			; <UNDEFINED> instruction: 0xc71e7491
    2634:	01000091 	swpeq	r0, r1, [r0]	; <UNPREDICTABLE>
    2638:	09a9010f 	stmibeq	r9!, {r0, r1, r2, r3, r8}
    263c:	91020000 	mrsls	r0, (UNDEF: 2)
    2640:	01210072 			; <UNDEFINED> instruction: 0x01210072
    2644:	0000919c 	muleq	r0, ip, r1
    2648:	0001ed01 	andeq	lr, r1, r1, lsl #26
    264c:	00000000 	andeq	r0, r0, r0
    2650:	f4000000 	vst4.8	{d0-d3}, [r0], r0
    2654:	01000004 	tsteq	r0, r4
    2658:	00000c23 	andeq	r0, r0, r3, lsr #24
    265c:	00915822 	addseq	r5, r1, r2, lsr #16
    2660:	64ed0100 	strbtvs	r0, [sp], #256	; 0x100
    2664:	0200000b 	andeq	r0, r0, #11
    2668:	93227491 			; <UNDEFINED> instruction: 0x93227491
    266c:	01000090 	swpeq	r0, r0, [r0]	; <UNPREDICTABLE>
    2670:	0009a9ed 	andeq	sl, r9, sp, ror #19
    2674:	72910200 	addsvc	r0, r1, #0, 4
    2678:	0091c722 	addseq	ip, r1, r2, lsr #14
    267c:	9eed0100 	cdpls	1, 14, cr0, cr13, cr0, {0}
    2680:	02000009 	andeq	r0, r0, #9
    2684:	23007191 	movwcs	r7, #401	; 0x191
    2688:	0091de01 	addseq	sp, r1, r1, lsl #28
    268c:	01da0100 	bicseq	r0, sl, r0, lsl #2
    2690:	000009a9 	andeq	r0, r0, r9, lsr #19
	...
    269c:	00000550 	andeq	r0, r0, r0, asr r5
    26a0:	000c5e01 	andeq	r5, ip, r1, lsl #28
    26a4:	91582200 	cmpls	r8, r0, lsl #4
    26a8:	da010000 	ble	426b0 <_Min_Stack_Size+0x422b0>
    26ac:	00000b64 	andeq	r0, r0, r4, ror #22
    26b0:	246c9102 	strbtcs	r9, [ip], #-258	; 0xfffffefe
    26b4:	000091c3 	andeq	r9, r0, r3, asr #3
    26b8:	09a9dc01 	stmibeq	r9!, {r0, sl, fp, ip, lr, pc}
    26bc:	91020000 	mrsls	r0, (UNDEF: 2)
    26c0:	01230076 			; <UNDEFINED> instruction: 0x01230076
    26c4:	0000915e 	andeq	r9, r0, lr, asr r1
    26c8:	9e01c201 	cdpls	2, 0, cr12, cr1, cr1, {0}
    26cc:	00000009 	andeq	r0, r0, r9
    26d0:	00000000 	andeq	r0, r0, r0
    26d4:	ac000000 	stcge	0, cr0, [r0], {-0}
    26d8:	01000005 	tsteq	r0, r5
    26dc:	00000ca7 	andeq	r0, r0, r7, lsr #25
    26e0:	00915822 	addseq	r5, r1, r2, lsr #16
    26e4:	64c20100 	strbvs	r0, [r2], #256	; 0x100
    26e8:	0200000b 	andeq	r0, r0, #11
    26ec:	93226c91 			; <UNDEFINED> instruction: 0x93226c91
    26f0:	01000090 	swpeq	r0, r0, [r0]	; <UNPREDICTABLE>
    26f4:	0009a9c2 	andeq	sl, r9, r2, asr #19
    26f8:	6a910200 	bvs	fe442f00 <_estack+0xde440700>
    26fc:	0091f124 	addseq	pc, r1, r4, lsr #2
    2700:	9ec40100 	pollss	f0, f4, f0
    2704:	02000009 	andeq	r0, r0, #9
    2708:	21007791 			; <UNDEFINED> instruction: 0x21007791
    270c:	0091cd01 	addseq	ip, r1, r1, lsl #26
    2710:	01960100 	orrseq	r0, r6, r0, lsl #2
	...
    271c:	00000608 	andeq	r0, r0, r8, lsl #12
    2720:	000cd001 	andeq	sp, ip, r1
    2724:	91582200 	cmpls	r8, r0, lsl #4
    2728:	96010000 	strls	r0, [r1], -r0
    272c:	00000b64 	andeq	r0, r0, r4, ror #22
    2730:	00749102 	rsbseq	r9, r4, r2, lsl #2
    2734:	91190125 	tstls	r9, r5, lsr #2
    2738:	54010000 	strpl	r0, [r1], #-0
    273c:	0008fa01 	andeq	pc, r8, r1, lsl #20
    2740:	0009f808 	andeq	pc, r9, r8, lsl #16
    2744:	00066408 	andeq	r6, r6, r8, lsl #8
    2748:	0d230100 	stfeqs	f0, [r3, #-0]
    274c:	58220000 	stmdapl	r2!, {}	; <UNPREDICTABLE>
    2750:	01000091 	swpeq	r0, r1, [r0]	; <UNPREDICTABLE>
    2754:	000b6454 	andeq	r6, fp, r4, asr r4
    2758:	64910200 	ldrvs	r0, [r1], #512	; 0x200
    275c:	00912822 	addseq	r2, r1, r2, lsr #16
    2760:	23540100 	cmpcs	r4, #0, 2
    2764:	0200000d 	andeq	r0, r0, #13
    2768:	8c246091 	stchi	0, cr6, [r4], #-580	; 0xfffffdbc
    276c:	01000091 	swpeq	r0, r1, [r0]	; <UNPREDICTABLE>
    2770:	000d2959 	andeq	r2, sp, r9, asr r9
    2774:	68910200 	ldmvs	r1, {r9}
    2778:	00917024 	addseq	r7, r1, r4, lsr #32
    277c:	9e5a0100 	rdflse	f0, f2, f0
    2780:	02000009 	andeq	r0, r0, #9
    2784:	0d006f91 	stceq	15, cr6, [r0, #-580]	; 0xfffffdbc
    2788:	000b0c04 	andeq	r0, fp, r4, lsl #24
    278c:	bf040d00 	svclt	0x00040d00
    2790:	26000009 	strcs	r0, [r0], -r9
    2794:	00913201 	addseq	r3, r1, r1, lsl #4
    2798:	010d0100 	mrseq	r0, (UNDEF: 29)
    279c:	0000099e 	muleq	r0, lr, r9
    27a0:	08000834 	stmdaeq	r0, {r2, r4, r5, fp}
    27a4:	080008fa 	stmdaeq	r0, {r1, r3, r4, r5, r6, r7, fp}
    27a8:	000006b4 			; <UNDEFINED> instruction: 0x000006b4
    27ac:	90932201 	addsls	r2, r3, r1, lsl #4
    27b0:	0d010000 	stceq	0, cr0, [r1, #-0]
    27b4:	000009a9 	andeq	r0, r0, r9, lsr #19
    27b8:	00769102 	rsbseq	r9, r6, r2, lsl #2
	...

Disassembly of section .debug_abbrev:

00000000 <.debug_abbrev>:
   0:	25011101 	strcs	r1, [r1, #-257]	; 0xfffffeff
   4:	030b130e 	movweq	r1, #45838	; 0xb30e
   8:	550e1b0e 	strpl	r1, [lr, #-2830]	; 0xfffff4f2
   c:	52011106 	andpl	r1, r1, #-2147483647	; 0x80000001
  10:	99061001 	stmdbls	r6, {r0, ip}
  14:	00000642 	andeq	r0, r0, r2, asr #12
  18:	0b002402 	bleq	9028 <_Min_Stack_Size+0x8c28>
  1c:	030b3e0b 	movweq	r3, #48651	; 0xbe0b
  20:	0300000e 	movweq	r0, #14
  24:	0b0b0024 	bleq	2c00bc <_Min_Stack_Size+0x2bfcbc>
  28:	08030b3e 	stmdaeq	r3, {r1, r2, r3, r4, r5, r8, r9, fp}
  2c:	16040000 	strne	r0, [r4], -r0
  30:	3a0e0300 	bcc	380c38 <_Min_Stack_Size+0x380838>
  34:	490b3b0b 	stmdbmi	fp, {r0, r1, r3, r8, r9, fp, ip, sp}
  38:	05000013 	streq	r0, [r0, #-19]	; 0xffffffed
  3c:	0e030016 	mcreq	0, 0, r0, cr3, cr6, {0}
  40:	053b0b3a 	ldreq	r0, [fp, #-2874]!	; 0xfffff4c6
  44:	00001349 	andeq	r1, r0, r9, asr #6
  48:	0b011706 	bleq	45c68 <_Min_Stack_Size+0x45868>
  4c:	3b0b3a0b 	blcc	2ce880 <_Min_Stack_Size+0x2ce480>
  50:	0013010b 	andseq	r0, r3, fp, lsl #2
  54:	000d0700 	andeq	r0, sp, r0, lsl #14
  58:	0b3a0e03 	bleq	e8386c <_Min_Stack_Size+0xe8346c>
  5c:	13490b3b 	movtne	r0, #39739	; 0x9b3b
  60:	01080000 	mrseq	r0, (UNDEF: 8)
  64:	01134901 	tsteq	r3, r1, lsl #18
  68:	09000013 	stmdbeq	r0, {r0, r1, r4}
  6c:	13490021 	movtne	r0, #36897	; 0x9021
  70:	00000b2f 	andeq	r0, r0, pc, lsr #22
  74:	0b01130a 	bleq	44ca4 <_Min_Stack_Size+0x448a4>
  78:	3b0b3a0b 	blcc	2ce8ac <_Min_Stack_Size+0x2ce4ac>
  7c:	0013010b 	andseq	r0, r3, fp, lsl #2
  80:	000d0b00 	andeq	r0, sp, r0, lsl #22
  84:	0b3a0e03 	bleq	e83898 <_Min_Stack_Size+0xe83498>
  88:	13490b3b 	movtne	r0, #39739	; 0x9b3b
  8c:	00000a38 	andeq	r0, r0, r8, lsr sl
  90:	0b000f0c 	bleq	3cc8 <_Min_Stack_Size+0x38c8>
  94:	0d00000b 	stceq	0, cr0, [r0, #-44]	; 0xffffffd4
  98:	0b0b000f 	bleq	2c00dc <_Min_Stack_Size+0x2bfcdc>
  9c:	00001349 	andeq	r1, r0, r9, asr #6
  a0:	4900260e 	stmdbmi	r0, {r1, r2, r3, r9, sl, sp}
  a4:	0f000013 	svceq	0x00000013
  a8:	0e030113 	mcreq	1, 0, r0, cr3, cr3, {0}
  ac:	0b3a0b0b 	bleq	e82ce0 <_Min_Stack_Size+0xe828e0>
  b0:	13010b3b 	movwne	r0, #6971	; 0x1b3b
  b4:	0d100000 	ldceq	0, cr0, [r0, #-0]
  b8:	3a080300 	bcc	200cc0 <_Min_Stack_Size+0x2008c0>
  bc:	490b3b0b 	stmdbmi	fp, {r0, r1, r3, r8, r9, fp, ip, sp}
  c0:	000a3813 	andeq	r3, sl, r3, lsl r8
  c4:	01131100 	tsteq	r3, r0, lsl #2
  c8:	050b0e03 	streq	r0, [fp, #-3587]	; 0xfffff1fd
  cc:	0b3b0b3a 	bleq	ec2dbc <_Min_Stack_Size+0xec29bc>
  d0:	00001301 	andeq	r1, r0, r1, lsl #6
  d4:	27001512 	smladcs	r0, r2, r5, r1
  d8:	1300000c 	movwne	r0, #12
  dc:	0e030113 	mcreq	1, 0, r0, cr3, cr3, {0}
  e0:	0b3a0b0b 	bleq	e82d14 <_Min_Stack_Size+0xe82914>
  e4:	1301053b 	movwne	r0, #5435	; 0x153b
  e8:	0d140000 	ldceq	0, cr0, [r4, #-0]
  ec:	3a0e0300 	bcc	380cf4 <_Min_Stack_Size+0x3808f4>
  f0:	49053b0b 	stmdbmi	r5, {r0, r1, r3, r8, r9, fp, ip, sp}
  f4:	000a3813 	andeq	r3, sl, r3, lsl r8
  f8:	000d1500 	andeq	r1, sp, r0, lsl #10
  fc:	0b3a0803 	bleq	e82110 <_Min_Stack_Size+0xe81d10>
 100:	1349053b 	movtne	r0, #38203	; 0x953b
 104:	00000a38 	andeq	r0, r0, r8, lsr sl
 108:	27011516 	smladcs	r1, r6, r5, r1
 10c:	0113490c 	tsteq	r3, ip, lsl #18
 110:	17000013 	smladne	r0, r3, r0, r0
 114:	13490005 	movtne	r0, #36869	; 0x9005
 118:	13180000 	tstne	r8, #0
 11c:	3c0e0300 	stccc	3, cr0, [lr], {-0}
 120:	1900000c 	stmdbne	r0, {r2, r3}
 124:	0c270115 	stfeqs	f0, [r7], #-84	; 0xffffffac
 128:	00001301 	andeq	r1, r0, r1, lsl #6
 12c:	0300341a 	movweq	r3, #1050	; 0x41a
 130:	3b0b3a0e 	blcc	2ce970 <_Min_Stack_Size+0x2ce570>
 134:	3f134905 	svccc	0x00134905
 138:	000c3c0c 	andeq	r3, ip, ip, lsl #24
 13c:	00341b00 	eorseq	r1, r4, r0, lsl #22
 140:	0b3a0e03 	bleq	e83954 <_Min_Stack_Size+0xe83554>
 144:	13490b3b 	movtne	r0, #39739	; 0x9b3b
 148:	0c3c0c3f 	ldceq	12, cr0, [ip], #-252	; 0xffffff04
 14c:	351c0000 	ldrcc	r0, [ip, #-0]
 150:	00134900 	andseq	r4, r3, r0, lsl #18
 154:	00341d00 	eorseq	r1, r4, r0, lsl #26
 158:	0b3a0e03 	bleq	e8396c <_Min_Stack_Size+0xe8356c>
 15c:	13490b3b 	movtne	r0, #39739	; 0x9b3b
 160:	0a020c3f 	beq	83264 <_Min_Stack_Size+0x82e64>
 164:	041e0000 	ldreq	r0, [lr], #-0
 168:	0b0b3e01 	bleq	2cf974 <_Min_Stack_Size+0x2cf574>
 16c:	3a13490b 	bcc	4d25a0 <_Min_Stack_Size+0x4d21a0>
 170:	010b3b0b 	tsteq	fp, fp, lsl #22
 174:	1f000013 	svcne	0x00000013
 178:	0e030028 	cdpeq	0, 0, cr0, cr3, cr8, {1}
 17c:	00000b1c 	andeq	r0, r0, ip, lsl fp
 180:	3f012e20 	svccc	0x00012e20
 184:	3a0e030c 	bcc	380dbc <_Min_Stack_Size+0x3809bc>
 188:	270b3b0b 	strcs	r3, [fp, -fp, lsl #22]
 18c:	1113490c 	tstne	r3, ip, lsl #18
 190:	40011201 	andmi	r1, r1, r1, lsl #4
 194:	0c429606 	mcrreq	6, 0, r9, r2, cr6
 198:	00001301 	andeq	r1, r0, r1, lsl #6
 19c:	03003421 	movweq	r3, #1057	; 0x421
 1a0:	3b0b3a0e 	blcc	2ce9e0 <_Min_Stack_Size+0x2ce5e0>
 1a4:	0213490b 	andseq	r4, r3, #180224	; 0x2c000
 1a8:	2200000a 	andcs	r0, r0, #10
 1ac:	0c3f002e 	ldceq	0, cr0, [pc], #-184	; fc <_Min_Heap_Size-0x104>
 1b0:	0b3a0e03 	bleq	e839c4 <_Min_Stack_Size+0xe835c4>
 1b4:	0c270b3b 			; <UNDEFINED> instruction: 0x0c270b3b
 1b8:	01120111 	tsteq	r2, r1, lsl r1
 1bc:	42960640 	addsmi	r0, r6, #64, 12	; 0x4000000
 1c0:	2300000c 	movwcs	r0, #12
 1c4:	0c3f012e 	ldfeqs	f0, [pc], #-184	; 114 <_Min_Heap_Size-0xec>
 1c8:	0b3a0e03 	bleq	e839dc <_Min_Stack_Size+0xe835dc>
 1cc:	0c270b3b 			; <UNDEFINED> instruction: 0x0c270b3b
 1d0:	01120111 	tsteq	r2, r1, lsl r1
 1d4:	42970640 	addsmi	r0, r7, #64, 12	; 0x4000000
 1d8:	2400000c 	strcs	r0, [r0], #-12
 1dc:	0e030005 	cdpeq	0, 0, cr0, cr3, cr5, {0}
 1e0:	0b3b0b3a 	bleq	ec2ed0 <_Min_Stack_Size+0xec2ad0>
 1e4:	0a021349 	beq	84f10 <_Min_Stack_Size+0x84b10>
 1e8:	01000000 	mrseq	r0, (UNDEF: 0)
 1ec:	06100011 			; <UNDEFINED> instruction: 0x06100011
 1f0:	0e030655 	mcreq	6, 0, r0, cr3, cr5, {2}
 1f4:	0e250e1b 	mcreq	14, 1, r0, cr5, cr11, {0}
 1f8:	00000513 	andeq	r0, r0, r3, lsl r5
 1fc:	01110100 	tsteq	r1, r0, lsl #2
 200:	0b130e25 	bleq	4c3a9c <_Min_Stack_Size+0x4c369c>
 204:	0e1b0e03 	cdpeq	14, 1, cr0, cr11, cr3, {0}
 208:	01110655 	tsteq	r1, r5, asr r6
 20c:	06100152 			; <UNDEFINED> instruction: 0x06100152
 210:	00064299 	muleq	r6, r9, r2
 214:	00240200 	eoreq	r0, r4, r0, lsl #4
 218:	0b3e0b0b 	bleq	f82e4c <_Min_Stack_Size+0xf82a4c>
 21c:	00000e03 	andeq	r0, r0, r3, lsl #28
 220:	0b002403 	bleq	9234 <_Min_Stack_Size+0x8e34>
 224:	030b3e0b 	movweq	r3, #48651	; 0xbe0b
 228:	04000008 	streq	r0, [r0], #-8
 22c:	0e030016 	mcreq	0, 0, r0, cr3, cr6, {0}
 230:	0b3b0b3a 	bleq	ec2f20 <_Min_Stack_Size+0xec2b20>
 234:	00001349 	andeq	r1, r0, r9, asr #6
 238:	03001605 	movweq	r1, #1541	; 0x605
 23c:	3b0b3a0e 	blcc	2cea7c <_Min_Stack_Size+0x2ce67c>
 240:	00134905 	andseq	r4, r3, r5, lsl #18
 244:	01170600 	tsteq	r7, r0, lsl #12
 248:	0b3a0b0b 	bleq	e82e7c <_Min_Stack_Size+0xe82a7c>
 24c:	13010b3b 	movwne	r0, #6971	; 0x1b3b
 250:	0d070000 	stceq	0, cr0, [r7, #-0]
 254:	3a0e0300 	bcc	380e5c <_Min_Stack_Size+0x380a5c>
 258:	490b3b0b 	stmdbmi	fp, {r0, r1, r3, r8, r9, fp, ip, sp}
 25c:	08000013 	stmdaeq	r0, {r0, r1, r4}
 260:	13490101 	movtne	r0, #37121	; 0x9101
 264:	00001301 	andeq	r1, r0, r1, lsl #6
 268:	49002109 	stmdbmi	r0, {r0, r3, r8, sp}
 26c:	000b2f13 	andeq	r2, fp, r3, lsl pc
 270:	01130a00 	tsteq	r3, r0, lsl #20
 274:	0b3a0b0b 	bleq	e82ea8 <_Min_Stack_Size+0xe82aa8>
 278:	13010b3b 	movwne	r0, #6971	; 0x1b3b
 27c:	0d0b0000 	stceq	0, cr0, [fp, #-0]
 280:	3a0e0300 	bcc	380e88 <_Min_Stack_Size+0x380a88>
 284:	490b3b0b 	stmdbmi	fp, {r0, r1, r3, r8, r9, fp, ip, sp}
 288:	000a3813 	andeq	r3, sl, r3, lsl r8
 28c:	000f0c00 	andeq	r0, pc, r0, lsl #24
 290:	00000b0b 	andeq	r0, r0, fp, lsl #22
 294:	0b000f0d 	bleq	3ed0 <_Min_Stack_Size+0x3ad0>
 298:	0013490b 	andseq	r4, r3, fp, lsl #18
 29c:	00260e00 	eoreq	r0, r6, r0, lsl #28
 2a0:	00001349 	andeq	r1, r0, r9, asr #6
 2a4:	0301130f 	movweq	r1, #4879	; 0x130f
 2a8:	3a0b0b0e 	bcc	2c2ee8 <_Min_Stack_Size+0x2c2ae8>
 2ac:	010b3b0b 	tsteq	fp, fp, lsl #22
 2b0:	10000013 	andne	r0, r0, r3, lsl r0
 2b4:	0803000d 	stmdaeq	r3, {r0, r2, r3}
 2b8:	0b3b0b3a 	bleq	ec2fa8 <_Min_Stack_Size+0xec2ba8>
 2bc:	0a381349 	beq	e04fe8 <_Min_Stack_Size+0xe04be8>
 2c0:	13110000 	tstne	r1, #0
 2c4:	0b0e0301 	bleq	380ed0 <_Min_Stack_Size+0x380ad0>
 2c8:	3b0b3a05 	blcc	2ceae4 <_Min_Stack_Size+0x2ce6e4>
 2cc:	0013010b 	andseq	r0, r3, fp, lsl #2
 2d0:	00151200 	andseq	r1, r5, r0, lsl #4
 2d4:	00000c27 	andeq	r0, r0, r7, lsr #24
 2d8:	03011313 	movweq	r1, #4883	; 0x1313
 2dc:	3a0b0b0e 	bcc	2c2f1c <_Min_Stack_Size+0x2c2b1c>
 2e0:	01053b0b 	tsteq	r5, fp, lsl #22
 2e4:	14000013 	strne	r0, [r0], #-19	; 0xffffffed
 2e8:	0e03000d 	cdpeq	0, 0, cr0, cr3, cr13, {0}
 2ec:	053b0b3a 	ldreq	r0, [fp, #-2874]!	; 0xfffff4c6
 2f0:	0a381349 	beq	e0501c <_Min_Stack_Size+0xe04c1c>
 2f4:	0d150000 	ldceq	0, cr0, [r5, #-0]
 2f8:	3a080300 	bcc	200f00 <_Min_Stack_Size+0x200b00>
 2fc:	49053b0b 	stmdbmi	r5, {r0, r1, r3, r8, r9, fp, ip, sp}
 300:	000a3813 	andeq	r3, sl, r3, lsl r8
 304:	01151600 	tsteq	r5, r0, lsl #12
 308:	13490c27 	movtne	r0, #39975	; 0x9c27
 30c:	00001301 	andeq	r1, r0, r1, lsl #6
 310:	49000517 	stmdbmi	r0, {r0, r1, r2, r4, r8, sl}
 314:	18000013 	stmdane	r0, {r0, r1, r4}
 318:	0e030013 	mcreq	0, 0, r0, cr3, cr3, {0}
 31c:	00000c3c 	andeq	r0, r0, ip, lsr ip
 320:	27011519 	smladcs	r1, r9, r5, r1
 324:	0013010c 	andseq	r0, r3, ip, lsl #2
 328:	00341a00 	eorseq	r1, r4, r0, lsl #20
 32c:	0b3a0e03 	bleq	e83b40 <_Min_Stack_Size+0xe83740>
 330:	1349053b 	movtne	r0, #38203	; 0x953b
 334:	0c3c0c3f 	ldceq	12, cr0, [ip], #-252	; 0xffffff04
 338:	341b0000 	ldrcc	r0, [fp], #-0
 33c:	3a0e0300 	bcc	380f44 <_Min_Stack_Size+0x380b44>
 340:	490b3b0b 	stmdbmi	fp, {r0, r1, r3, r8, r9, fp, ip, sp}
 344:	3c0c3f13 	stccc	15, cr3, [ip], {19}
 348:	1c00000c 	stcne	0, cr0, [r0], {12}
 34c:	13490035 	movtne	r0, #36917	; 0x9035
 350:	341d0000 	ldrcc	r0, [sp], #-0
 354:	3a0e0300 	bcc	380f5c <_Min_Stack_Size+0x380b5c>
 358:	490b3b0b 	stmdbmi	fp, {r0, r1, r3, r8, r9, fp, ip, sp}
 35c:	020c3f13 	andeq	r3, ip, #19, 30	; 0x4c
 360:	1e00000a 	cdpne	0, 0, cr0, cr0, cr10, {0}
 364:	0c3f002e 	ldceq	0, cr0, [pc], #-184	; 2b4 <_Min_Heap_Size+0xb4>
 368:	0b3a0e03 	bleq	e83b7c <_Min_Stack_Size+0xe8377c>
 36c:	0c27053b 	cfstr32eq	mvfx0, [r7], #-236	; 0xffffff14
 370:	01120111 	tsteq	r2, r1, lsl r1
 374:	42960640 	addsmi	r0, r6, #64, 12	; 0x4000000
 378:	1f00000c 	svcne	0x0000000c
 37c:	0c3f012e 	ldfeqs	f0, [pc], #-184	; 2cc <_Min_Heap_Size+0xcc>
 380:	0b3a0e03 	bleq	e83b94 <_Min_Stack_Size+0xe83794>
 384:	0c270b3b 			; <UNDEFINED> instruction: 0x0c270b3b
 388:	01120111 	tsteq	r2, r1, lsl r1
 38c:	42960640 	addsmi	r0, r6, #64, 12	; 0x4000000
 390:	0013010c 	andseq	r0, r3, ip, lsl #2
 394:	00052000 	andeq	r2, r5, r0
 398:	0b3a0e03 	bleq	e83bac <_Min_Stack_Size+0xe837ac>
 39c:	13490b3b 	movtne	r0, #39739	; 0x9b3b
 3a0:	00000a02 	andeq	r0, r0, r2, lsl #20
 3a4:	3f002e21 	svccc	0x00002e21
 3a8:	3a0e030c 	bcc	380fe0 <_Min_Stack_Size+0x380be0>
 3ac:	270b3b0b 	strcs	r3, [fp, -fp, lsl #22]
 3b0:	1201110c 	andne	r1, r1, #12, 2
 3b4:	97064001 	strls	r4, [r6, -r1]
 3b8:	00000c42 	andeq	r0, r0, r2, asr #24
 3bc:	03003422 	movweq	r3, #1058	; 0x422
 3c0:	3b0b3a0e 	blcc	2cec00 <_Min_Stack_Size+0x2ce800>
 3c4:	0213490b 	andseq	r4, r3, #180224	; 0x2c000
 3c8:	2300000a 	movwcs	r0, #10
 3cc:	0c3f012e 	ldfeqs	f0, [pc], #-184	; 31c <_Min_Heap_Size+0x11c>
 3d0:	0b3a0e03 	bleq	e83be4 <_Min_Stack_Size+0xe837e4>
 3d4:	0c270b3b 			; <UNDEFINED> instruction: 0x0c270b3b
 3d8:	01120111 	tsteq	r2, r1, lsl r1
 3dc:	42970640 	addsmi	r0, r7, #64, 12	; 0x4000000
 3e0:	0013010c 	andseq	r0, r3, ip, lsl #2
 3e4:	00052400 	andeq	r2, r5, r0, lsl #8
 3e8:	0b3a0803 	bleq	e823fc <_Min_Stack_Size+0xe81ffc>
 3ec:	13490b3b 	movtne	r0, #39739	; 0x9b3b
 3f0:	00000a02 	andeq	r0, r0, r2, lsl #20
 3f4:	3f012e25 	svccc	0x00012e25
 3f8:	3a0e030c 	bcc	381030 <_Min_Stack_Size+0x380c30>
 3fc:	270b3b0b 	strcs	r3, [fp, -fp, lsl #22]
 400:	1201110c 	andne	r1, r1, #12, 2
 404:	97064001 	strls	r4, [r6, -r1]
 408:	00000c42 	andeq	r0, r0, r2, asr #24
 40c:	01110100 	tsteq	r1, r0, lsl #2
 410:	0b130e25 	bleq	4c3cac <_Min_Stack_Size+0x4c38ac>
 414:	0e1b0e03 	cdpeq	14, 1, cr0, cr11, cr3, {0}
 418:	01110655 	tsteq	r1, r5, asr r6
 41c:	06100152 			; <UNDEFINED> instruction: 0x06100152
 420:	00064299 	muleq	r6, r9, r2
 424:	00240200 	eoreq	r0, r4, r0, lsl #4
 428:	0b3e0b0b 	bleq	f8305c <_Min_Stack_Size+0xf82c5c>
 42c:	00000e03 	andeq	r0, r0, r3, lsl #28
 430:	0b002403 	bleq	9444 <_Min_Stack_Size+0x9044>
 434:	030b3e0b 	movweq	r3, #48651	; 0xbe0b
 438:	04000008 	streq	r0, [r0], #-8
 43c:	0e030016 	mcreq	0, 0, r0, cr3, cr6, {0}
 440:	0b3b0b3a 	bleq	ec3130 <_Min_Stack_Size+0xec2d30>
 444:	00001349 	andeq	r1, r0, r9, asr #6
 448:	03001605 	movweq	r1, #1541	; 0x605
 44c:	3b0b3a0e 	blcc	2cec8c <_Min_Stack_Size+0x2ce88c>
 450:	00134905 	andseq	r4, r3, r5, lsl #18
 454:	01170600 	tsteq	r7, r0, lsl #12
 458:	0b3a0b0b 	bleq	e8308c <_Min_Stack_Size+0xe82c8c>
 45c:	13010b3b 	movwne	r0, #6971	; 0x1b3b
 460:	0d070000 	stceq	0, cr0, [r7, #-0]
 464:	3a0e0300 	bcc	38106c <_Min_Stack_Size+0x380c6c>
 468:	490b3b0b 	stmdbmi	fp, {r0, r1, r3, r8, r9, fp, ip, sp}
 46c:	08000013 	stmdaeq	r0, {r0, r1, r4}
 470:	13490101 	movtne	r0, #37121	; 0x9101
 474:	00001301 	andeq	r1, r0, r1, lsl #6
 478:	49002109 	stmdbmi	r0, {r0, r3, r8, sp}
 47c:	000b2f13 	andeq	r2, fp, r3, lsl pc
 480:	01130a00 	tsteq	r3, r0, lsl #20
 484:	0b3a0b0b 	bleq	e830b8 <_Min_Stack_Size+0xe82cb8>
 488:	13010b3b 	movwne	r0, #6971	; 0x1b3b
 48c:	0d0b0000 	stceq	0, cr0, [fp, #-0]
 490:	3a0e0300 	bcc	381098 <_Min_Stack_Size+0x380c98>
 494:	490b3b0b 	stmdbmi	fp, {r0, r1, r3, r8, r9, fp, ip, sp}
 498:	000a3813 	andeq	r3, sl, r3, lsl r8
 49c:	000f0c00 	andeq	r0, pc, r0, lsl #24
 4a0:	00000b0b 	andeq	r0, r0, fp, lsl #22
 4a4:	0b000f0d 	bleq	40e0 <_Min_Stack_Size+0x3ce0>
 4a8:	0013490b 	andseq	r4, r3, fp, lsl #18
 4ac:	00260e00 	eoreq	r0, r6, r0, lsl #28
 4b0:	00001349 	andeq	r1, r0, r9, asr #6
 4b4:	0301130f 	movweq	r1, #4879	; 0x130f
 4b8:	3a0b0b0e 	bcc	2c30f8 <_Min_Stack_Size+0x2c2cf8>
 4bc:	010b3b0b 	tsteq	fp, fp, lsl #22
 4c0:	10000013 	andne	r0, r0, r3, lsl r0
 4c4:	0803000d 	stmdaeq	r3, {r0, r2, r3}
 4c8:	0b3b0b3a 	bleq	ec31b8 <_Min_Stack_Size+0xec2db8>
 4cc:	0a381349 	beq	e051f8 <_Min_Stack_Size+0xe04df8>
 4d0:	13110000 	tstne	r1, #0
 4d4:	0b0e0301 	bleq	3810e0 <_Min_Stack_Size+0x380ce0>
 4d8:	3b0b3a05 	blcc	2cecf4 <_Min_Stack_Size+0x2ce8f4>
 4dc:	0013010b 	andseq	r0, r3, fp, lsl #2
 4e0:	00151200 	andseq	r1, r5, r0, lsl #4
 4e4:	00000c27 	andeq	r0, r0, r7, lsr #24
 4e8:	03011313 	movweq	r1, #4883	; 0x1313
 4ec:	3a0b0b0e 	bcc	2c312c <_Min_Stack_Size+0x2c2d2c>
 4f0:	01053b0b 	tsteq	r5, fp, lsl #22
 4f4:	14000013 	strne	r0, [r0], #-19	; 0xffffffed
 4f8:	0e03000d 	cdpeq	0, 0, cr0, cr3, cr13, {0}
 4fc:	053b0b3a 	ldreq	r0, [fp, #-2874]!	; 0xfffff4c6
 500:	0a381349 	beq	e0522c <_Min_Stack_Size+0xe04e2c>
 504:	0d150000 	ldceq	0, cr0, [r5, #-0]
 508:	3a080300 	bcc	201110 <_Min_Stack_Size+0x200d10>
 50c:	49053b0b 	stmdbmi	r5, {r0, r1, r3, r8, r9, fp, ip, sp}
 510:	000a3813 	andeq	r3, sl, r3, lsl r8
 514:	01151600 	tsteq	r5, r0, lsl #12
 518:	13490c27 	movtne	r0, #39975	; 0x9c27
 51c:	00001301 	andeq	r1, r0, r1, lsl #6
 520:	49000517 	stmdbmi	r0, {r0, r1, r2, r4, r8, sl}
 524:	18000013 	stmdane	r0, {r0, r1, r4}
 528:	0e030013 	mcreq	0, 0, r0, cr3, cr3, {0}
 52c:	00000c3c 	andeq	r0, r0, ip, lsr ip
 530:	27011519 	smladcs	r1, r9, r5, r1
 534:	0013010c 	andseq	r0, r3, ip, lsl #2
 538:	00341a00 	eorseq	r1, r4, r0, lsl #20
 53c:	0b3a0e03 	bleq	e83d50 <_Min_Stack_Size+0xe83950>
 540:	1349053b 	movtne	r0, #38203	; 0x953b
 544:	0c3c0c3f 	ldceq	12, cr0, [ip], #-252	; 0xffffff04
 548:	341b0000 	ldrcc	r0, [fp], #-0
 54c:	3a0e0300 	bcc	381154 <_Min_Stack_Size+0x380d54>
 550:	490b3b0b 	stmdbmi	fp, {r0, r1, r3, r8, r9, fp, ip, sp}
 554:	3c0c3f13 	stccc	15, cr3, [ip], {19}
 558:	1c00000c 	stcne	0, cr0, [r0], {12}
 55c:	13490035 	movtne	r0, #36917	; 0x9035
 560:	2e1d0000 	cdpcs	0, 1, cr0, cr13, cr0, {0}
 564:	030c3f01 	movweq	r3, #52993	; 0xcf01
 568:	3b0b3a0e 	blcc	2ceda8 <_Min_Stack_Size+0x2ce9a8>
 56c:	490c2705 	stmdbmi	ip, {r0, r2, r8, r9, sl, sp}
 570:	12011113 	andne	r1, r1, #-1073741820	; 0xc0000004
 574:	97064001 	strls	r4, [r6, -r1]
 578:	13010c42 	movwne	r0, #7234	; 0x1c42
 57c:	051e0000 	ldreq	r0, [lr, #-0]
 580:	3a0e0300 	bcc	381188 <_Min_Stack_Size+0x380d88>
 584:	49053b0b 	stmdbmi	r5, {r0, r1, r3, r8, r9, fp, ip, sp}
 588:	000a0213 	andeq	r0, sl, r3, lsl r2
 58c:	00341f00 	eorseq	r1, r4, r0, lsl #30
 590:	0b3a0e03 	bleq	e83da4 <_Min_Stack_Size+0xe839a4>
 594:	1349053b 	movtne	r0, #38203	; 0x953b
 598:	00000a02 	andeq	r0, r0, r2, lsl #20
 59c:	3f012e20 	svccc	0x00012e20
 5a0:	3a0e030c 	bcc	3811d8 <_Min_Stack_Size+0x380dd8>
 5a4:	27053b0b 	strcs	r3, [r5, -fp, lsl #22]
 5a8:	1201110c 	andne	r1, r1, #12, 2
 5ac:	97064001 	strls	r4, [r6, -r1]
 5b0:	13010c42 	movwne	r0, #7234	; 0x1c42
 5b4:	2e210000 	cdpcs	0, 2, cr0, cr1, cr0, {0}
 5b8:	030c3f01 	movweq	r3, #52993	; 0xcf01
 5bc:	3b0b3a0e 	blcc	2cedfc <_Min_Stack_Size+0x2ce9fc>
 5c0:	110c270b 	tstne	ip, fp, lsl #14
 5c4:	40011201 	andmi	r1, r1, r1, lsl #4
 5c8:	0c429706 	mcrreq	7, 0, r9, r2, cr6
 5cc:	00001301 	andeq	r1, r0, r1, lsl #6
 5d0:	03000522 	movweq	r0, #1314	; 0x522
 5d4:	3b0b3a0e 	blcc	2cee14 <_Min_Stack_Size+0x2cea14>
 5d8:	0213490b 	andseq	r4, r3, #180224	; 0x2c000
 5dc:	2300000a 	movwcs	r0, #10
 5e0:	0c3f012e 	ldfeqs	f0, [pc], #-184	; 530 <_Min_Stack_Size+0x130>
 5e4:	0b3a0e03 	bleq	e83df8 <_Min_Stack_Size+0xe839f8>
 5e8:	0c270b3b 			; <UNDEFINED> instruction: 0x0c270b3b
 5ec:	01111349 	tsteq	r1, r9, asr #6
 5f0:	06400112 			; <UNDEFINED> instruction: 0x06400112
 5f4:	010c4297 			; <UNDEFINED> instruction: 0x010c4297
 5f8:	24000013 	strcs	r0, [r0], #-19	; 0xffffffed
 5fc:	0e030034 	mcreq	0, 0, r0, cr3, cr4, {1}
 600:	0b3b0b3a 	bleq	ec32f0 <_Min_Stack_Size+0xec2ef0>
 604:	0a021349 	beq	85330 <_Min_Stack_Size+0x84f30>
 608:	2e250000 	cdpcs	0, 2, cr0, cr5, cr0, {0}
 60c:	030c3f01 	movweq	r3, #52993	; 0xcf01
 610:	3b0b3a0e 	blcc	2cee50 <_Min_Stack_Size+0x2cea50>
 614:	110c270b 	tstne	ip, fp, lsl #14
 618:	40011201 	andmi	r1, r1, r1, lsl #4
 61c:	0c429606 	mcrreq	6, 0, r9, r2, cr6
 620:	00001301 	andeq	r1, r0, r1, lsl #6
 624:	3f012e26 	svccc	0x00012e26
 628:	3a0e030c 	bcc	381260 <_Min_Stack_Size+0x380e60>
 62c:	270b3b0b 	strcs	r3, [fp, -fp, lsl #22]
 630:	1113490c 	tstne	r3, ip, lsl #18
 634:	40011201 	andmi	r1, r1, r1, lsl #4
 638:	0c429706 	mcrreq	7, 0, r9, r2, cr6
 63c:	Address 0x000000000000063c is out of bounds.


Disassembly of section .debug_loc:

00000000 <.debug_loc>:
   0:	080001c8 	stmdaeq	r0, {r3, r6, r7, r8}
   4:	080001ca 	stmdaeq	r0, {r1, r3, r6, r7, r8}
   8:	007d0002 	rsbseq	r0, sp, r2
   c:	080001ca 	stmdaeq	r0, {r1, r3, r6, r7, r8}
  10:	080001cc 	stmdaeq	r0, {r2, r3, r6, r7, r8}
  14:	087d0002 	ldmdaeq	sp!, {r1}^
  18:	080001cc 	stmdaeq	r0, {r2, r3, r6, r7, r8}
  1c:	080001ce 	stmdaeq	r0, {r1, r2, r3, r6, r7, r8}
  20:	207d0002 	rsbscs	r0, sp, r2
  24:	080001ce 	stmdaeq	r0, {r1, r2, r3, r6, r7, r8}
  28:	08000238 	stmdaeq	r0, {r3, r4, r5, r9}
  2c:	20770002 	rsbscs	r0, r7, r2
	...
  38:	080001b0 	stmdaeq	r0, {r4, r5, r7, r8}
  3c:	080001b2 	stmdaeq	r0, {r1, r4, r5, r7, r8}
  40:	007d0002 	rsbseq	r0, sp, r2
  44:	080001b2 	stmdaeq	r0, {r1, r4, r5, r7, r8}
  48:	080001b4 	stmdaeq	r0, {r2, r4, r5, r7, r8}
  4c:	087d0002 	ldmdaeq	sp!, {r1}^
  50:	080001b4 	stmdaeq	r0, {r2, r4, r5, r7, r8}
  54:	080001c8 	stmdaeq	r0, {r3, r6, r7, r8}
  58:	08770002 	ldmdaeq	r7!, {r1}^
	...
  64:	08000170 	stmdaeq	r0, {r4, r5, r6, r8}
  68:	08000172 	stmdaeq	r0, {r1, r4, r5, r6, r8}
  6c:	007d0002 	rsbseq	r0, sp, r2
  70:	08000172 	stmdaeq	r0, {r1, r4, r5, r6, r8}
  74:	08000174 	stmdaeq	r0, {r2, r4, r5, r6, r8}
  78:	047d0002 	ldrbteq	r0, [sp], #-2
  7c:	08000174 	stmdaeq	r0, {r2, r4, r5, r6, r8}
  80:	08000176 	stmdaeq	r0, {r1, r2, r4, r5, r6, r8}
  84:	107d0002 	rsbsne	r0, sp, r2
  88:	08000176 	stmdaeq	r0, {r1, r2, r4, r5, r6, r8}
  8c:	080001aa 	stmdaeq	r0, {r1, r3, r5, r7, r8}
  90:	10770002 	rsbsne	r0, r7, r2
  94:	080001aa 	stmdaeq	r0, {r1, r3, r5, r7, r8}
  98:	080001ac 	stmdaeq	r0, {r2, r3, r5, r7, r8}
  9c:	04770002 	ldrbteq	r0, [r7], #-2
  a0:	080001ac 	stmdaeq	r0, {r2, r3, r5, r7, r8}
  a4:	080001ae 	stmdaeq	r0, {r1, r2, r3, r5, r7, r8}
  a8:	047d0002 	ldrbteq	r0, [sp], #-2
  ac:	080001ae 	stmdaeq	r0, {r1, r2, r3, r5, r7, r8}
  b0:	080001b0 	stmdaeq	r0, {r4, r5, r7, r8}
  b4:	007d0002 	rsbseq	r0, sp, r2
	...
  c0:	08000770 	stmdaeq	r0, {r4, r5, r6, r8, r9, sl}
  c4:	08000772 	stmdaeq	r0, {r1, r4, r5, r6, r8, r9, sl}
  c8:	007d0002 	rsbseq	r0, sp, r2
  cc:	08000772 	stmdaeq	r0, {r1, r4, r5, r6, r8, r9, sl}
  d0:	08000774 	stmdaeq	r0, {r2, r4, r5, r6, r8, r9, sl}
  d4:	087d0002 	ldmdaeq	sp!, {r1}^
  d8:	08000774 	stmdaeq	r0, {r2, r4, r5, r6, r8, r9, sl}
  dc:	08000834 	stmdaeq	r0, {r2, r4, r5, fp}
  e0:	08770002 	ldmdaeq	r7!, {r1}^
	...
  ec:	080006c8 	stmdaeq	r0, {r3, r6, r7, r9, sl}
  f0:	080006ca 	stmdaeq	r0, {r1, r3, r6, r7, r9, sl}
  f4:	007d0002 	rsbseq	r0, sp, r2
  f8:	080006ca 	stmdaeq	r0, {r1, r3, r6, r7, r9, sl}
  fc:	080006cc 	stmdaeq	r0, {r2, r3, r6, r7, r9, sl}
 100:	087d0002 	ldmdaeq	sp!, {r1}^
 104:	080006cc 	stmdaeq	r0, {r2, r3, r6, r7, r9, sl}
 108:	08000770 	stmdaeq	r0, {r4, r5, r6, r8, r9, sl}
 10c:	08770002 	ldmdaeq	r7!, {r1}^
	...
 118:	080006a4 	stmdaeq	r0, {r2, r5, r7, r9, sl}
 11c:	080006a6 	stmdaeq	r0, {r1, r2, r5, r7, r9, sl}
 120:	007d0002 	rsbseq	r0, sp, r2
 124:	080006a6 	stmdaeq	r0, {r1, r2, r5, r7, r9, sl}
 128:	080006a8 	stmdaeq	r0, {r3, r5, r7, r9, sl}
 12c:	087d0002 	ldmdaeq	sp!, {r1}^
 130:	080006a8 	stmdaeq	r0, {r3, r5, r7, r9, sl}
 134:	080006c8 	stmdaeq	r0, {r3, r6, r7, r9, sl}
 138:	08770002 	ldmdaeq	r7!, {r1}^
	...
 144:	08000680 	stmdaeq	r0, {r7, r9, sl}
 148:	08000682 	stmdaeq	r0, {r1, r7, r9, sl}
 14c:	007d0002 	rsbseq	r0, sp, r2
 150:	08000682 	stmdaeq	r0, {r1, r7, r9, sl}
 154:	08000684 	stmdaeq	r0, {r2, r7, r9, sl}
 158:	087d0002 	ldmdaeq	sp!, {r1}^
 15c:	08000684 	stmdaeq	r0, {r2, r7, r9, sl}
 160:	080006a4 	stmdaeq	r0, {r2, r5, r7, r9, sl}
 164:	08770002 	ldmdaeq	r7!, {r1}^
	...
 170:	0800065c 	stmdaeq	r0, {r2, r3, r4, r6, r9, sl}
 174:	0800065e 	stmdaeq	r0, {r1, r2, r3, r4, r6, r9, sl}
 178:	007d0002 	rsbseq	r0, sp, r2
 17c:	0800065e 	stmdaeq	r0, {r1, r2, r3, r4, r6, r9, sl}
 180:	08000660 	stmdaeq	r0, {r5, r6, r9, sl}
 184:	087d0002 	ldmdaeq	sp!, {r1}^
 188:	08000660 	stmdaeq	r0, {r5, r6, r9, sl}
 18c:	08000680 	stmdaeq	r0, {r7, r9, sl}
 190:	08770002 	ldmdaeq	r7!, {r1}^
	...
 19c:	08000638 	stmdaeq	r0, {r3, r4, r5, r9, sl}
 1a0:	0800063a 	stmdaeq	r0, {r1, r3, r4, r5, r9, sl}
 1a4:	007d0002 	rsbseq	r0, sp, r2
 1a8:	0800063a 	stmdaeq	r0, {r1, r3, r4, r5, r9, sl}
 1ac:	0800063c 	stmdaeq	r0, {r2, r3, r4, r5, r9, sl}
 1b0:	087d0002 	ldmdaeq	sp!, {r1}^
 1b4:	0800063c 	stmdaeq	r0, {r2, r3, r4, r5, r9, sl}
 1b8:	0800065c 	stmdaeq	r0, {r2, r3, r4, r6, r9, sl}
 1bc:	08770002 	ldmdaeq	r7!, {r1}^
	...
 1c8:	08000614 	stmdaeq	r0, {r2, r4, r9, sl}
 1cc:	08000616 	stmdaeq	r0, {r1, r2, r4, r9, sl}
 1d0:	007d0002 	rsbseq	r0, sp, r2
 1d4:	08000616 	stmdaeq	r0, {r1, r2, r4, r9, sl}
 1d8:	08000618 	stmdaeq	r0, {r3, r4, r9, sl}
 1dc:	087d0002 	ldmdaeq	sp!, {r1}^
 1e0:	08000618 	stmdaeq	r0, {r3, r4, r9, sl}
 1e4:	08000638 	stmdaeq	r0, {r3, r4, r5, r9, sl}
 1e8:	08770002 	ldmdaeq	r7!, {r1}^
	...
 1fc:	007d0002 	rsbseq	r0, sp, r2
	...
 208:	087d0002 	ldmdaeq	sp!, {r1}^
	...
 214:	107d0002 	rsbsne	r0, sp, r2
	...
 220:	10770002 	rsbsne	r0, r7, r2
	...
 22c:	08770002 	ldmdaeq	r7!, {r1}^
	...
 238:	087d0002 	ldmdaeq	sp!, {r1}^
	...
 244:	080005fc 	stmdaeq	r0, {r2, r3, r4, r5, r6, r7, r8, sl}
 248:	080005fe 	stmdaeq	r0, {r1, r2, r3, r4, r5, r6, r7, r8, sl}
 24c:	007d0002 	rsbseq	r0, sp, r2
 250:	080005fe 	stmdaeq	r0, {r1, r2, r3, r4, r5, r6, r7, r8, sl}
 254:	08000600 	stmdaeq	r0, {r9, sl}
 258:	087d0002 	ldmdaeq	sp!, {r1}^
 25c:	08000600 	stmdaeq	r0, {r9, sl}
 260:	08000602 	stmdaeq	r0, {r1, r9, sl}
 264:	107d0002 	rsbsne	r0, sp, r2
 268:	08000602 	stmdaeq	r0, {r1, r9, sl}
 26c:	0800060e 	stmdaeq	r0, {r1, r2, r3, r9, sl}
 270:	10770002 	rsbsne	r0, r7, r2
 274:	0800060e 	stmdaeq	r0, {r1, r2, r3, r9, sl}
 278:	08000610 	stmdaeq	r0, {r4, r9, sl}
 27c:	08770002 	ldmdaeq	r7!, {r1}^
 280:	08000610 	stmdaeq	r0, {r4, r9, sl}
 284:	08000612 	stmdaeq	r0, {r1, r4, r9, sl}
 288:	087d0002 	ldmdaeq	sp!, {r1}^
	...
 29c:	007d0002 	rsbseq	r0, sp, r2
	...
 2a8:	047d0002 	ldrbteq	r0, [sp], #-2
	...
 2b4:	04770002 	ldrbteq	r0, [r7], #-2
	...
 2c0:	047d0002 	ldrbteq	r0, [sp], #-2
	...
 2cc:	007d0002 	rsbseq	r0, sp, r2
	...
 2d8:	08000424 	stmdaeq	r0, {r2, r5, sl}
 2dc:	08000426 	stmdaeq	r0, {r1, r2, r5, sl}
 2e0:	007d0002 	rsbseq	r0, sp, r2
 2e4:	08000426 	stmdaeq	r0, {r1, r2, r5, sl}
 2e8:	08000428 	stmdaeq	r0, {r3, r5, sl}
 2ec:	087d0002 	ldmdaeq	sp!, {r1}^
 2f0:	08000428 	stmdaeq	r0, {r3, r5, sl}
 2f4:	0800042a 	stmdaeq	r0, {r1, r3, r5, sl}
 2f8:	187d0002 	ldmdane	sp!, {r1}^
 2fc:	0800042a 	stmdaeq	r0, {r1, r3, r5, sl}
 300:	080005dc 	stmdaeq	r0, {r2, r3, r4, r6, r7, r8, sl}
 304:	18770002 	ldmdane	r7!, {r1}^
 308:	080005dc 	stmdaeq	r0, {r2, r3, r4, r6, r7, r8, sl}
 30c:	080005de 	stmdaeq	r0, {r1, r2, r3, r4, r6, r7, r8, sl}
 310:	08770002 	ldmdaeq	r7!, {r1}^
 314:	080005de 	stmdaeq	r0, {r1, r2, r3, r4, r6, r7, r8, sl}
 318:	080005fc 	stmdaeq	r0, {r2, r3, r4, r5, r6, r7, r8, sl}
 31c:	087d0002 	ldmdaeq	sp!, {r1}^
	...
 328:	08000358 	stmdaeq	r0, {r3, r4, r6, r8, r9}
 32c:	0800035a 	stmdaeq	r0, {r1, r3, r4, r6, r8, r9}
 330:	007d0002 	rsbseq	r0, sp, r2
 334:	0800035a 	stmdaeq	r0, {r1, r3, r4, r6, r8, r9}
 338:	0800035c 	stmdaeq	r0, {r2, r3, r4, r6, r8, r9}
 33c:	047d0002 	ldrbteq	r0, [sp], #-2
 340:	0800035c 	stmdaeq	r0, {r2, r3, r4, r6, r8, r9}
 344:	0800035e 	stmdaeq	r0, {r1, r2, r3, r4, r6, r8, r9}
 348:	107d0002 	rsbsne	r0, sp, r2
 34c:	0800035e 	stmdaeq	r0, {r1, r2, r3, r4, r6, r8, r9}
 350:	08000416 	stmdaeq	r0, {r1, r2, r4, sl}
 354:	10770002 	rsbsne	r0, r7, r2
 358:	08000416 	stmdaeq	r0, {r1, r2, r4, sl}
 35c:	08000418 	stmdaeq	r0, {r3, r4, sl}
 360:	04770002 	ldrbteq	r0, [r7], #-2
 364:	08000418 	stmdaeq	r0, {r3, r4, sl}
 368:	0800041a 	stmdaeq	r0, {r1, r3, r4, sl}
 36c:	047d0002 	ldrbteq	r0, [sp], #-2
 370:	0800041a 	stmdaeq	r0, {r1, r3, r4, sl}
 374:	08000424 	stmdaeq	r0, {r2, r5, sl}
 378:	007d0002 	rsbseq	r0, sp, r2
	...
 384:	0800028c 	stmdaeq	r0, {r2, r3, r7, r9}
 388:	0800028e 	stmdaeq	r0, {r1, r2, r3, r7, r9}
 38c:	007d0002 	rsbseq	r0, sp, r2
 390:	0800028e 	stmdaeq	r0, {r1, r2, r3, r7, r9}
 394:	08000290 	stmdaeq	r0, {r4, r7, r9}
 398:	047d0002 	ldrbteq	r0, [sp], #-2
 39c:	08000290 	stmdaeq	r0, {r4, r7, r9}
 3a0:	08000292 	stmdaeq	r0, {r1, r4, r7, r9}
 3a4:	107d0002 	rsbsne	r0, sp, r2
 3a8:	08000292 	stmdaeq	r0, {r1, r4, r7, r9}
 3ac:	0800034a 	stmdaeq	r0, {r1, r3, r6, r8, r9}
 3b0:	10770002 	rsbsne	r0, r7, r2
 3b4:	0800034a 	stmdaeq	r0, {r1, r3, r6, r8, r9}
 3b8:	0800034c 	stmdaeq	r0, {r2, r3, r6, r8, r9}
 3bc:	04770002 	ldrbteq	r0, [r7], #-2
 3c0:	0800034c 	stmdaeq	r0, {r2, r3, r6, r8, r9}
 3c4:	0800034e 	stmdaeq	r0, {r1, r2, r3, r6, r8, r9}
 3c8:	047d0002 	ldrbteq	r0, [sp], #-2
 3cc:	0800034e 	stmdaeq	r0, {r1, r2, r3, r6, r8, r9}
 3d0:	08000358 	stmdaeq	r0, {r3, r4, r6, r8, r9}
 3d4:	007d0002 	rsbseq	r0, sp, r2
	...
 3e8:	007d0002 	rsbseq	r0, sp, r2
	...
 3f4:	047d0002 	ldrbteq	r0, [sp], #-2
	...
 400:	187d0002 	ldmdane	sp!, {r1}^
	...
 40c:	18770002 	ldmdane	r7!, {r1}^
	...
 418:	04770002 	ldrbteq	r0, [r7], #-2
	...
 424:	047d0002 	ldrbteq	r0, [sp], #-2
	...
 430:	007d0002 	rsbseq	r0, sp, r2
	...
 444:	007d0002 	rsbseq	r0, sp, r2
	...
 450:	047d0002 	ldrbteq	r0, [sp], #-2
	...
 45c:	107d0002 	rsbsne	r0, sp, r2
	...
 468:	10770002 	rsbsne	r0, r7, r2
	...
 474:	04770002 	ldrbteq	r0, [r7], #-2
	...
 480:	047d0002 	ldrbteq	r0, [sp], #-2
	...
 48c:	007d0002 	rsbseq	r0, sp, r2
	...
 4a0:	007d0002 	rsbseq	r0, sp, r2
	...
 4ac:	047d0002 	ldrbteq	r0, [sp], #-2
	...
 4b8:	107d0002 	rsbsne	r0, sp, r2
	...
 4c4:	10770002 	rsbsne	r0, r7, r2
	...
 4d0:	04770002 	ldrbteq	r0, [r7], #-2
	...
 4dc:	047d0002 	ldrbteq	r0, [sp], #-2
	...
 4e8:	007d0002 	rsbseq	r0, sp, r2
	...
 4fc:	007d0002 	rsbseq	r0, sp, r2
	...
 508:	047d0002 	ldrbteq	r0, [sp], #-2
	...
 514:	107d0002 	rsbsne	r0, sp, r2
	...
 520:	10770002 	rsbsne	r0, r7, r2
	...
 52c:	04770002 	ldrbteq	r0, [r7], #-2
	...
 538:	047d0002 	ldrbteq	r0, [sp], #-2
	...
 544:	007d0002 	rsbseq	r0, sp, r2
	...
 558:	007d0002 	rsbseq	r0, sp, r2
	...
 564:	047d0002 	ldrbteq	r0, [sp], #-2
	...
 570:	187d0002 	ldmdane	sp!, {r1}^
	...
 57c:	18770002 	ldmdane	r7!, {r1}^
	...
 588:	04770002 	ldrbteq	r0, [r7], #-2
	...
 594:	047d0002 	ldrbteq	r0, [sp], #-2
	...
 5a0:	007d0002 	rsbseq	r0, sp, r2
	...
 5b4:	007d0002 	rsbseq	r0, sp, r2
	...
 5c0:	047d0002 	ldrbteq	r0, [sp], #-2
	...
 5cc:	187d0002 	ldmdane	sp!, {r1}^
	...
 5d8:	18770002 	ldmdane	r7!, {r1}^
	...
 5e4:	04770002 	ldrbteq	r0, [r7], #-2
	...
 5f0:	047d0002 	ldrbteq	r0, [sp], #-2
	...
 5fc:	007d0002 	rsbseq	r0, sp, r2
	...
 610:	007d0002 	rsbseq	r0, sp, r2
	...
 61c:	047d0002 	ldrbteq	r0, [sp], #-2
	...
 628:	107d0002 	rsbsne	r0, sp, r2
	...
 634:	10770002 	rsbsne	r0, r7, r2
	...
 640:	04770002 	ldrbteq	r0, [r7], #-2
	...
 64c:	047d0002 	ldrbteq	r0, [sp], #-2
	...
 658:	007d0002 	rsbseq	r0, sp, r2
	...
 664:	080008fa 	stmdaeq	r0, {r1, r3, r4, r5, r6, r7, fp}
 668:	080008fc 	stmdaeq	r0, {r2, r3, r4, r5, r6, r7, fp}
 66c:	007d0002 	rsbseq	r0, sp, r2
 670:	080008fc 	stmdaeq	r0, {r2, r3, r4, r5, r6, r7, fp}
 674:	080008fe 	stmdaeq	r0, {r1, r2, r3, r4, r5, r6, r7, fp}
 678:	0c7d0002 	ldcleq	0, cr0, [sp], #-8
 67c:	080008fe 	stmdaeq	r0, {r1, r2, r3, r4, r5, r6, r7, fp}
 680:	08000900 	stmdaeq	r0, {r8, fp}
 684:	207d0002 	rsbscs	r0, sp, r2
 688:	08000900 	stmdaeq	r0, {r8, fp}
 68c:	080009f4 	stmdaeq	r0, {r2, r4, r5, r6, r7, r8, fp}
 690:	20770002 	rsbscs	r0, r7, r2
 694:	080009f4 	stmdaeq	r0, {r2, r4, r5, r6, r7, r8, fp}
 698:	080009f6 	stmdaeq	r0, {r1, r2, r4, r5, r6, r7, r8, fp}
 69c:	0c770002 	ldcleq	0, cr0, [r7], #-8
 6a0:	080009f6 	stmdaeq	r0, {r1, r2, r4, r5, r6, r7, r8, fp}
 6a4:	080009f8 	stmdaeq	r0, {r3, r4, r5, r6, r7, r8, fp}
 6a8:	0c7d0002 	ldcleq	0, cr0, [sp], #-8
	...
 6b4:	08000834 	stmdaeq	r0, {r2, r4, r5, fp}
 6b8:	08000836 	stmdaeq	r0, {r1, r2, r4, r5, fp}
 6bc:	007d0002 	rsbseq	r0, sp, r2
 6c0:	08000836 	stmdaeq	r0, {r1, r2, r4, r5, fp}
 6c4:	08000838 	stmdaeq	r0, {r3, r4, r5, fp}
 6c8:	047d0002 	ldrbteq	r0, [sp], #-2
 6cc:	08000838 	stmdaeq	r0, {r3, r4, r5, fp}
 6d0:	0800083a 	stmdaeq	r0, {r1, r3, r4, r5, fp}
 6d4:	107d0002 	rsbsne	r0, sp, r2
 6d8:	0800083a 	stmdaeq	r0, {r1, r3, r4, r5, fp}
 6dc:	080008f4 	stmdaeq	r0, {r2, r4, r5, r6, r7, fp}
 6e0:	10770002 	rsbsne	r0, r7, r2
 6e4:	080008f4 	stmdaeq	r0, {r2, r4, r5, r6, r7, fp}
 6e8:	080008f6 	stmdaeq	r0, {r1, r2, r4, r5, r6, r7, fp}
 6ec:	04770002 	ldrbteq	r0, [r7], #-2
 6f0:	080008f6 	stmdaeq	r0, {r1, r2, r4, r5, r6, r7, fp}
 6f4:	080008f8 	stmdaeq	r0, {r3, r4, r5, r6, r7, fp}
 6f8:	047d0002 	ldrbteq	r0, [sp], #-2
 6fc:	080008f8 	stmdaeq	r0, {r3, r4, r5, r6, r7, fp}
 700:	080008fa 	stmdaeq	r0, {r1, r3, r4, r5, r6, r7, fp}
 704:	007d0002 	rsbseq	r0, sp, r2
	...

Disassembly of section .debug_aranges:

00000000 <.debug_aranges>:
   0:	0000002c 	andeq	r0, r0, ip, lsr #32
   4:	00000002 	andeq	r0, r0, r2
   8:	00040000 	andeq	r0, r4, r0
   c:	00000000 	andeq	r0, r0, r0
  10:	08000170 	stmdaeq	r0, {r4, r5, r6, r8}
  14:	00000040 	andeq	r0, r0, r0, asr #32
  18:	080001b0 	stmdaeq	r0, {r4, r5, r7, r8}
  1c:	00000018 	andeq	r0, r0, r8, lsl r0
  20:	080001c8 	stmdaeq	r0, {r3, r6, r7, r8}
  24:	00000070 	andeq	r0, r0, r0, ror r0
	...
  30:	00000024 	andeq	r0, r0, r4, lsr #32
  34:	0c830002 	stceq	0, cr0, [r3], {2}
  38:	00040000 	andeq	r0, r4, r0
  3c:	00000000 	andeq	r0, r0, r0
  40:	08000238 	stmdaeq	r0, {r3, r4, r5, r9}
  44:	00000050 	andeq	r0, r0, r0, asr r0
  48:	08000288 	stmdaeq	r0, {r3, r7, r9}
  4c:	00000002 	andeq	r0, r0, r2
	...
  58:	0000007c 	andeq	r0, r0, ip, ror r0
  5c:	0ca50002 	stceq	0, cr0, [r5], #8
  60:	00040000 	andeq	r0, r4, r0
  64:	00000000 	andeq	r0, r0, r0
  68:	0800028c 	stmdaeq	r0, {r2, r3, r7, r9}
  6c:	000000cc 	andeq	r0, r0, ip, asr #1
  70:	08000358 	stmdaeq	r0, {r3, r4, r6, r8, r9}
  74:	000000cc 	andeq	r0, r0, ip, asr #1
  78:	08000424 	stmdaeq	r0, {r2, r5, sl}
  7c:	000001d8 	ldrdeq	r0, [r0], -r8
  80:	00000000 	andeq	r0, r0, r0
  84:	00000098 	muleq	r0, r8, r0
  88:	080005fc 	stmdaeq	r0, {r2, r3, r4, r5, r6, r7, r8, sl}
  8c:	00000016 	andeq	r0, r0, r6, lsl r0
  90:	00000000 	andeq	r0, r0, r0
  94:	00000016 	andeq	r0, r0, r6, lsl r0
  98:	08000614 	stmdaeq	r0, {r2, r4, r9, sl}
  9c:	00000024 	andeq	r0, r0, r4, lsr #32
  a0:	08000638 	stmdaeq	r0, {r3, r4, r5, r9, sl}
  a4:	00000024 	andeq	r0, r0, r4, lsr #32
  a8:	0800065c 	stmdaeq	r0, {r2, r3, r4, r6, r9, sl}
  ac:	00000024 	andeq	r0, r0, r4, lsr #32
  b0:	08000680 	stmdaeq	r0, {r7, r9, sl}
  b4:	00000024 	andeq	r0, r0, r4, lsr #32
  b8:	080006a4 	stmdaeq	r0, {r2, r5, r7, r9, sl}
  bc:	00000024 	andeq	r0, r0, r4, lsr #32
  c0:	080006c8 	stmdaeq	r0, {r3, r6, r7, r9, sl}
  c4:	000000a8 	andeq	r0, r0, r8, lsr #1
  c8:	08000770 	stmdaeq	r0, {r4, r5, r6, r8, r9, sl}
  cc:	000000c4 	andeq	r0, r0, r4, asr #1
	...
  d8:	0000005c 	andeq	r0, r0, ip, asr r0
  dc:	1a640002 	bne	19000ec <_Min_Stack_Size+0x18ffcec>
  e0:	00040000 	andeq	r0, r4, r0
  e4:	00000000 	andeq	r0, r0, r0
  e8:	08000834 	stmdaeq	r0, {r2, r4, r5, fp}
  ec:	000000c6 	andeq	r0, r0, r6, asr #1
  f0:	080008fa 	stmdaeq	r0, {r1, r3, r4, r5, r6, r7, fp}
  f4:	000000fe 	strdeq	r0, [r0], -lr
  f8:	00000000 	andeq	r0, r0, r0
  fc:	000000d4 	ldrdeq	r0, [r0], -r4
 100:	00000000 	andeq	r0, r0, r0
 104:	0000002e 	andeq	r0, r0, lr, lsr #32
 108:	00000000 	andeq	r0, r0, r0
 10c:	0000001a 	andeq	r0, r0, sl, lsl r0
 110:	00000000 	andeq	r0, r0, r0
 114:	0000002e 	andeq	r0, r0, lr, lsr #32
 118:	00000000 	andeq	r0, r0, r0
 11c:	0000001c 	andeq	r0, r0, ip, lsl r0
 120:	00000000 	andeq	r0, r0, r0
 124:	00000022 	andeq	r0, r0, r2, lsr #32
 128:	00000000 	andeq	r0, r0, r0
 12c:	0000004e 	andeq	r0, r0, lr, asr #32
	...

Disassembly of section .debug_ranges:

00000000 <.debug_ranges>:
   0:	08000170 	stmdaeq	r0, {r4, r5, r6, r8}
   4:	080001b0 	stmdaeq	r0, {r4, r5, r7, r8}
   8:	080001b0 	stmdaeq	r0, {r4, r5, r7, r8}
   c:	080001c8 	stmdaeq	r0, {r3, r6, r7, r8}
  10:	080001c8 	stmdaeq	r0, {r3, r6, r7, r8}
  14:	08000238 	stmdaeq	r0, {r3, r4, r5, r9}
	...
  20:	ffffffff 			; <UNDEFINED> instruction: 0xffffffff
  24:	00000000 	andeq	r0, r0, r0
  28:	08000238 	stmdaeq	r0, {r3, r4, r5, r9}
  2c:	08000288 	stmdaeq	r0, {r3, r7, r9}
  30:	08000288 	stmdaeq	r0, {r3, r7, r9}
  34:	0800028a 	stmdaeq	r0, {r1, r3, r7, r9}
	...
  40:	0800028c 	stmdaeq	r0, {r2, r3, r7, r9}
  44:	08000358 	stmdaeq	r0, {r3, r4, r6, r8, r9}
  48:	08000358 	stmdaeq	r0, {r3, r4, r6, r8, r9}
  4c:	08000424 	stmdaeq	r0, {r2, r5, sl}
  50:	08000424 	stmdaeq	r0, {r2, r5, sl}
  54:	080005fc 	stmdaeq	r0, {r2, r3, r4, r5, r6, r7, r8, sl}
  58:	00000001 	andeq	r0, r0, r1
  5c:	00000001 	andeq	r0, r0, r1
  60:	080005fc 	stmdaeq	r0, {r2, r3, r4, r5, r6, r7, r8, sl}
  64:	08000612 	stmdaeq	r0, {r1, r4, r9, sl}
  68:	00000001 	andeq	r0, r0, r1
  6c:	00000001 	andeq	r0, r0, r1
  70:	08000614 	stmdaeq	r0, {r2, r4, r9, sl}
  74:	08000638 	stmdaeq	r0, {r3, r4, r5, r9, sl}
  78:	08000638 	stmdaeq	r0, {r3, r4, r5, r9, sl}
  7c:	0800065c 	stmdaeq	r0, {r2, r3, r4, r6, r9, sl}
  80:	0800065c 	stmdaeq	r0, {r2, r3, r4, r6, r9, sl}
  84:	08000680 	stmdaeq	r0, {r7, r9, sl}
  88:	08000680 	stmdaeq	r0, {r7, r9, sl}
  8c:	080006a4 	stmdaeq	r0, {r2, r5, r7, r9, sl}
  90:	080006a4 	stmdaeq	r0, {r2, r5, r7, r9, sl}
  94:	080006c8 	stmdaeq	r0, {r3, r6, r7, r9, sl}
  98:	080006c8 	stmdaeq	r0, {r3, r6, r7, r9, sl}
  9c:	08000770 	stmdaeq	r0, {r4, r5, r6, r8, r9, sl}
  a0:	08000770 	stmdaeq	r0, {r4, r5, r6, r8, r9, sl}
  a4:	08000834 	stmdaeq	r0, {r2, r4, r5, fp}
	...
  b0:	08000834 	stmdaeq	r0, {r2, r4, r5, fp}
  b4:	080008fa 	stmdaeq	r0, {r1, r3, r4, r5, r6, r7, fp}
  b8:	080008fa 	stmdaeq	r0, {r1, r3, r4, r5, r6, r7, fp}
  bc:	080009f8 	stmdaeq	r0, {r3, r4, r5, r6, r7, r8, fp}
  c0:	00000001 	andeq	r0, r0, r1
  c4:	00000001 	andeq	r0, r0, r1
  c8:	00000001 	andeq	r0, r0, r1
  cc:	00000001 	andeq	r0, r0, r1
  d0:	00000001 	andeq	r0, r0, r1
  d4:	00000001 	andeq	r0, r0, r1
  d8:	00000001 	andeq	r0, r0, r1
  dc:	00000001 	andeq	r0, r0, r1
  e0:	00000001 	andeq	r0, r0, r1
  e4:	00000001 	andeq	r0, r0, r1
  e8:	00000001 	andeq	r0, r0, r1
  ec:	00000001 	andeq	r0, r0, r1
  f0:	00000001 	andeq	r0, r0, r1
  f4:	00000001 	andeq	r0, r0, r1
	...

Disassembly of section .debug_macro:

00000000 <.debug_macro>:
   0:	00020004 	andeq	r0, r2, r4
   4:	07000000 	streq	r0, [r0, -r0]
   8:	00000000 	andeq	r0, r0, r0
   c:	03010003 	movweq	r0, #4099	; 0x1003
  10:	09050b1b 	stmdbeq	r5, {r0, r1, r3, r4, r8, r9, fp}
  14:	00004c6f 	andeq	r4, r0, pc, ror #24
  18:	05090f03 	streq	r0, [r9, #-3843]	; 0xfffff0fd
  1c:	00451409 	subeq	r1, r5, r9, lsl #8
  20:	07100300 	ldreq	r0, [r0, -r0, lsl #6]
  24:	7ca90805 	stcvc	8, cr0, [r9], #20
  28:	0a030000 	beq	c0030 <_Min_Stack_Size+0xbfc30>
  2c:	0000070c 	andeq	r0, r0, ip, lsl #14
  30:	03040000 	movweq	r0, #16384	; 0x4000
  34:	08050d0b 	stmdaeq	r5, {r0, r1, r3, r8, sl, fp}
  38:	0000540c 	andeq	r5, r0, ip, lsl #8
  3c:	050e0a03 	streq	r0, [lr, #-2563]	; 0xfffff5fd
  40:	0012a808 	andseq	sl, r2, r8, lsl #16
  44:	0f0e0300 	svceq	0x000e0300
  48:	00000007 	andeq	r0, r0, r7
  4c:	00070400 	andeq	r0, r7, r0, lsl #8
  50:	04000000 	streq	r0, [r0], #-0
  54:	05100b03 	ldreq	r0, [r0, #-2819]	; 0xfffff4fd
  58:	007b6a02 	rsbseq	r6, fp, r2, lsl #20
  5c:	0c040300 	stceq	3, cr0, [r4], {-0}
  60:	11050304 	tstne	r5, r4, lsl #6
  64:	00000007 	andeq	r0, r0, r7
  68:	00070400 	andeq	r0, r7, r0, lsl #8
  6c:	04000000 	streq	r0, [r0], #-0
  70:	00000007 	andeq	r0, r0, r7
  74:	00070400 	andeq	r0, r7, r0, lsl #8
  78:	03000000 	movweq	r0, #0
  7c:	00070510 	andeq	r0, r7, r0, lsl r5
  80:	04000000 	streq	r0, [r0], #-0
  84:	05061203 	streq	r1, [r6, #-515]	; 0xfffffdfd
  88:	0057220b 	subseq	r2, r7, fp, lsl #4
  8c:	0d0d0300 	stceq	3, cr0, [sp, #-0]
  90:	050e0304 	streq	r0, [lr, #-772]	; 0xfffffcfc
  94:	00000007 	andeq	r0, r0, r7
  98:	0f030400 	svceq	0x00030400
  9c:	b1140504 	tstlt	r4, r4, lsl #10
  a0:	0300007f 	movweq	r0, #127	; 0x7f
  a4:	06051218 			; <UNDEFINED> instruction: 0x06051218
  a8:	00007227 	andeq	r7, r0, r7, lsr #4
  ac:	07020703 	streq	r0, [r2, -r3, lsl #14]
  b0:	00000000 	andeq	r0, r0, r0
  b4:	19030404 	stmdbne	r3, {r2, sl}
  b8:	00000703 	andeq	r0, r0, r3, lsl #14
  bc:	07040000 	streq	r0, [r4, -r0]
  c0:	00000000 	andeq	r0, r0, r0
  c4:	05019f03 	streq	r9, [r1, #-3843]	; 0xfffff0fd
  c8:	00000007 	andeq	r0, r0, r7
  cc:	00070400 	andeq	r0, r7, r0, lsl #8
  d0:	04000000 	streq	r0, [r0], #-0
  d4:	00000007 	andeq	r0, r0, r7
  d8:	13030400 	movwne	r0, #13312	; 0x3400
  dc:	5b290513 	blpl	a41530 <_Min_Stack_Size+0xa41130>
  e0:	03000087 	movweq	r0, #135	; 0x87
  e4:	0704052d 	streq	r0, [r4, -sp, lsr #10]
  e8:	00000000 	andeq	r0, r0, r0
  ec:	14140304 	ldrne	r0, [r4], #-772	; 0xfffffcfc
  f0:	22c40205 	sbccs	r0, r4, #1342177280	; 0x50000000
  f4:	03040000 	movweq	r0, #16384	; 0x4000
  f8:	00071516 	andeq	r1, r7, r6, lsl r5
  fc:	04000000 	streq	r0, [r0], #-0
 100:	00000007 	andeq	r0, r0, r7
 104:	11030400 	tstne	r3, r0, lsl #8
 108:	17090316 	smladne	r9, r6, r3, r0
 10c:	07670a05 	strbeq	r0, [r7, -r5, lsl #20]!
 110:	0d030000 	stceq	0, cr0, [r3, #-0]
 114:	00000718 	andeq	r0, r0, r8, lsl r7
 118:	03040000 	movweq	r0, #16384	; 0x4000
 11c:	0007080e 	andeq	r0, r7, lr, lsl #16
 120:	04000000 	streq	r0, [r0], #-0
 124:	00000007 	andeq	r0, r0, r7
 128:	0d050400 	cfstrseq	mvf0, [r5, #-0]
 12c:	0000075e 	andeq	r0, r0, lr, asr r7
 130:	00000704 	andeq	r0, r0, r4, lsl #14
 134:	07040000 	streq	r0, [r4, -r0]
 138:	00000000 	andeq	r0, r0, r0
 13c:	0a1c0304 	beq	700d54 <_Min_Stack_Size+0x700954>
 140:	19b50905 	ldmibne	r5!, {r0, r2, r8, fp}
 144:	0e030000 	cdpeq	0, 0, cr0, cr3, cr0, {0}
 148:	8c07040b 	cfstrshi	mvf0, [r7], {11}
 14c:	04000001 	streq	r0, [r0], #-1
 150:	04091d03 	streq	r1, [r9], #-3331	; 0xfffff2fd
 154:	05191e03 	ldreq	r1, [r9, #-3587]	; 0xfffff1fd
 158:	00791f09 	rsbseq	r1, r9, r9, lsl #30
 15c:	1a0c0300 	bne	300d64 <_Min_Stack_Size+0x300964>
 160:	00000007 	andeq	r0, r0, r7
 164:	0f030400 	svceq	0x00030400
 168:	0c09051b 	cfstr32eq	mvfx0, [r9], {27}
 16c:	04000033 	streq	r0, [r0], #-51	; 0xffffffcd
 170:	00000007 	andeq	r0, r0, r7
 174:	1f030400 	svcne	0x00030400
 178:	0709051c 	smladeq	r9, ip, r5, r0
 17c:	0300000c 	movweq	r0, #12
 180:	0504190e 	streq	r1, [r4, #-2318]	; 0xfffff6f2
 184:	00320810 	eorseq	r0, r2, r0, lsl r8
 188:	00040400 	andeq	r0, r4, r0, lsl #8
 18c:	05000004 	streq	r0, [r0, #-4]
 190:	0032ba36 	eorseq	fp, r2, r6, lsr sl
 194:	21370500 	teqcs	r7, r0, lsl #10
 198:	0500005f 	streq	r0, [r0, #-95]	; 0xffffffa1
 19c:	006d0a38 	rsbeq	r0, sp, r8, lsr sl
 1a0:	53390500 	teqpl	r9, #0, 10
 1a4:	05000088 	streq	r0, [r0, #-136]	; 0xffffff78
 1a8:	0060383a 	rsbeq	r3, r0, sl, lsr r8
 1ac:	8b3b0500 	blhi	ec15b4 <_Min_Stack_Size+0xec11b4>
 1b0:	05000033 	streq	r0, [r0, #-51]	; 0xffffffcd
 1b4:	0055c83c 	subseq	ip, r5, ip, lsr r8
 1b8:	b53d0500 	ldrlt	r0, [sp, #-1280]!	; 0xfffffb00
 1bc:	0500007c 	streq	r0, [r0, #-124]	; 0xffffff84
 1c0:	00898d3e 	addeq	r8, r9, lr, lsr sp
 1c4:	1e3f0500 	cfabs32ne	mvfx0, mvfx15
 1c8:	05000018 	streq	r0, [r0, #-24]	; 0xffffffe8
 1cc:	000deb40 	andeq	lr, sp, r0, asr #22
 1d0:	4d410500 	cfstr64mi	mvdx0, [r1, #-0]
 1d4:	05000059 	streq	r0, [r0, #-89]	; 0xffffffa7
 1d8:	000e7142 	andeq	r7, lr, r2, asr #2
 1dc:	ab430500 	blge	10c15e4 <_Min_Stack_Size+0x10c11e4>
 1e0:	05000088 	streq	r0, [r0, #-136]	; 0xffffff78
 1e4:	000fea44 	andeq	lr, pc, r4, asr #20
 1e8:	fb450500 	blx	11415f2 <_Min_Stack_Size+0x11411f2>
 1ec:	0500005b 	streq	r0, [r0, #-91]	; 0xffffffa5
 1f0:	002d044d 	eoreq	r0, sp, sp, asr #8
 1f4:	e74e0500 	strb	r0, [lr, -r0, lsl #10]
 1f8:	05000085 	streq	r0, [r0, #-133]	; 0xffffff7b
 1fc:	005d0f4f 	subseq	r0, sp, pc, asr #30
 200:	cb500500 	blgt	1401608 <_Min_Stack_Size+0x1401208>
 204:	05000088 	streq	r0, [r0, #-136]	; 0xffffff78
 208:	00846f54 	addeq	r6, r4, r4, asr pc
 20c:	c9550500 	ldmdbgt	r5, {r8, sl}^
 210:	05000033 	streq	r0, [r0, #-51]	; 0xffffffcd
 214:	00315156 	eorseq	r5, r1, r6, asr r1
 218:	c2570500 	subsgt	r0, r7, #0, 10
 21c:	0500006b 	streq	r0, [r0, #-107]	; 0xffffff95
 220:	0025895b 	eoreq	r8, r5, fp, asr r9
 224:	c85c0500 	ldmdagt	ip, {r8, sl}^
 228:	05000070 	streq	r0, [r0, #-112]	; 0xffffff90
 22c:	0029a65d 	eoreq	sl, r9, sp, asr r6
 230:	ef5e0500 	svc	0x005e0500
 234:	05000073 	streq	r0, [r0, #-115]	; 0xffffff8d
 238:	008d6462 	addeq	r6, sp, r2, ror #8
 23c:	ed630500 	cfstr64	mvdx0, [r3, #-0]
 240:	0500006f 	streq	r0, [r0, #-111]	; 0xffffff91
 244:	00727964 	rsbseq	r7, r2, r4, ror #18
 248:	a4650500 	strbtge	r0, [r5], #-1280	; 0xfffffb00
 24c:	0500001f 	streq	r0, [r0, #-31]	; 0xffffffe1
 250:	0068b269 	rsbeq	fp, r8, r9, ror #4
 254:	a46a0500 	strbtge	r0, [sl], #-1280	; 0xfffffb00
 258:	0500005d 	streq	r0, [r0, #-93]	; 0xffffffa3
 25c:	0075466b 	rsbseq	r4, r5, fp, ror #12
 260:	0e6c0500 	cdpeq	5, 6, cr0, cr12, cr0, {0}
 264:	0500002e 	streq	r0, [r0, #-46]	; 0xffffffd2
 268:	001e2e70 	andseq	r2, lr, r0, ror lr
 26c:	38710500 	ldmdacc	r1!, {r8, sl}^
 270:	05000032 	streq	r0, [r0, #-50]	; 0xffffffce
 274:	00707072 	rsbseq	r7, r0, r2, ror r0
 278:	82730500 	rsbshi	r0, r3, #0, 10
 27c:	0500006b 	streq	r0, [r0, #-107]	; 0xffffff95
 280:	0063aa77 	rsbeq	sl, r3, r7, ror sl
 284:	01780500 	cmneq	r8, r0, lsl #10
 288:	05000015 	streq	r0, [r0, #-21]	; 0xffffffeb
 28c:	00106579 	andseq	r6, r0, r9, ror r5
 290:	e57a0500 	ldrb	r0, [sl, #-1280]!	; 0xfffffb00
 294:	0500008d 	streq	r0, [r0, #-141]	; 0xffffff73
 298:	0007b77e 	andeq	fp, r7, lr, ror r7
 29c:	2b7f0500 	blcs	1fc16a4 <_Min_Stack_Size+0x1fc12a4>
 2a0:	05000073 	streq	r0, [r0, #-115]	; 0xffffff8d
 2a4:	1b5a0180 	blne	16808ac <_Min_Stack_Size+0x16804ac>
 2a8:	81050000 	mrshi	r0, (UNDEF: 5)
 2ac:	005e4201 	subseq	r4, lr, r1, lsl #4
 2b0:	01850500 	orreq	r0, r5, r0, lsl #10
 2b4:	000040e1 	andeq	r4, r0, r1, ror #1
 2b8:	c3018605 	movwgt	r8, #5637	; 0x1605
 2bc:	0500008b 	streq	r0, [r0, #-139]	; 0xffffff75
 2c0:	851c0187 	ldrhi	r0, [ip, #-391]	; 0xfffffe79
 2c4:	88050000 	stmdahi	r5, {}	; <UNPREDICTABLE>
 2c8:	008a0001 	addeq	r0, sl, r1
 2cc:	018c0500 	orreq	r0, ip, r0, lsl #10
 2d0:	0000564e 	andeq	r5, r0, lr, asr #12
 2d4:	18018d05 	stmdane	r1, {r0, r2, r8, sl, fp, pc}
 2d8:	0500006e 	streq	r0, [r0, #-110]	; 0xffffff92
 2dc:	4e77018e 	rpwmid	f0, f7, #0.5
 2e0:	8f050000 	svchi	0x00050000
 2e4:	00543f01 	subseq	r3, r4, r1, lsl #30
 2e8:	01930500 	orrseq	r0, r3, r0, lsl #10
 2ec:	00002fcd 	andeq	r2, r0, sp, asr #31
 2f0:	2f019405 	svccs	0x00019405
 2f4:	05000012 	streq	r0, [r0, #-18]	; 0xffffffee
 2f8:	0c5e0195 	ldfeqe	f0, [lr], {149}	; 0x95
 2fc:	96050000 	strls	r0, [r5], -r0
 300:	00529c01 	subseq	r9, r2, r1, lsl #24
 304:	019a0500 	orrseq	r0, sl, r0, lsl #10
 308:	00000b31 	andeq	r0, r0, r1, lsr fp
 30c:	2d019b05 	vstrcs	d9, [r1, #-20]	; 0xffffffec
 310:	05000026 	streq	r0, [r0, #-38]	; 0xffffffda
 314:	2026019c 	mlacs	r6, ip, r1, r0
 318:	9d050000 	stcls	0, cr0, [r5, #-0]
 31c:	0004cc01 	andeq	ip, r4, r1, lsl #24
 320:	01a10500 			; <UNDEFINED> instruction: 0x01a10500
 324:	00003068 	andeq	r3, r0, r8, rrx
 328:	3f01a205 	svccc	0x0001a205
 32c:	0500003f 	streq	r0, [r0, #-63]	; 0xffffffc1
 330:	278001a3 	strcs	r0, [r0, r3, lsr #3]
 334:	a4050000 	strge	r0, [r5], #-0
 338:	000d2201 	andeq	r2, sp, r1, lsl #4
 33c:	01a80500 			; <UNDEFINED> instruction: 0x01a80500
 340:	000049f5 	strdeq	r4, [r0], -r5
 344:	6201a905 	andvs	sl, r1, #81920	; 0x14000
 348:	05000067 	streq	r0, [r0, #-103]	; 0xffffff99
 34c:	2dc901aa 	stfcse	f0, [r9, #680]	; 0x2a8
 350:	ab050000 	blge	140358 <_Min_Stack_Size+0x13ff58>
 354:	00480c01 	subeq	r0, r8, r1, lsl #24
 358:	01af0500 			; <UNDEFINED> instruction: 0x01af0500
 35c:	0000055a 	andeq	r0, r0, sl, asr r5
 360:	ad01b005 	stcge	0, cr11, [r1, #-20]	; 0xffffffec
 364:	0500002c 	streq	r0, [r0, #-44]	; 0xffffffd4
 368:	2ebf01b1 	mrccs	1, 5, r0, cr15, cr1, {5}
 36c:	b2050000 	andlt	r0, r5, #0
 370:	00014f01 	andeq	r4, r1, r1, lsl #30
 374:	01b60500 			; <UNDEFINED> instruction: 0x01b60500
 378:	00004f38 	andeq	r4, r0, r8, lsr pc
 37c:	0301b705 	movweq	fp, #5893	; 0x1705
 380:	05000010 	streq	r0, [r0, #-16]
 384:	4a6c01b8 	bmi	1b00a6c <_Min_Stack_Size+0x1b0066c>
 388:	b9050000 	stmdblt	r5, {}	; <UNPREDICTABLE>
 38c:	0042ce01 	subeq	ip, r2, r1, lsl #28
 390:	01bd0500 			; <UNDEFINED> instruction: 0x01bd0500
 394:	000031f2 	strdeq	r3, [r0], -r2
 398:	0701be05 	streq	fp, [r1, -r5, lsl #28]
 39c:	0500001e 	streq	r0, [r0, #-30]	; 0xffffffe2
 3a0:	5a8301bf 	bpl	fe0c0aa4 <_estack+0xde0be2a4>
 3a4:	c4050000 	strgt	r0, [r5], #-0
 3a8:	003c2c01 	eorseq	r2, ip, r1, lsl #24
 3ac:	01c50500 	biceq	r0, r5, r0, lsl #10
 3b0:	000054a0 	andeq	r5, r0, r0, lsr #9
 3b4:	02000400 	andeq	r0, r0, #0, 8
 3b8:	000006b7 			; <UNDEFINED> instruction: 0x000006b7
 3bc:	00000007 	andeq	r0, r0, r7
 3c0:	01000300 	mrseq	r0, LR_irq
 3c4:	050b0903 	streq	r0, [fp, #-2307]	; 0xfffff6fd
 3c8:	0019b509 	andseq	fp, r9, r9, lsl #10
 3cc:	090d0300 	stmdbeq	sp, {r8, r9}
 3d0:	45140905 	ldrmi	r0, [r4, #-2309]	; 0xfffff6fb
 3d4:	10030000 	andne	r0, r3, r0
 3d8:	a9080507 	stmdbge	r8, {r0, r1, r2, r8, sl}
 3dc:	0300007c 	movweq	r0, #124	; 0x7c
 3e0:	00070c0a 	andeq	r0, r7, sl, lsl #24
 3e4:	04000000 	streq	r0, [r0], #-0
 3e8:	050d0b03 	streq	r0, [sp, #-2819]	; 0xfffff4fd
 3ec:	00540c08 	subseq	r0, r4, r8, lsl #24
 3f0:	0e0a0300 	cdpeq	3, 0, cr0, cr10, cr0, {0}
 3f4:	12a80805 	adcne	r0, r8, #327680	; 0x50000
 3f8:	0e030000 	cdpeq	0, 0, cr0, cr3, cr0, {0}
 3fc:	0000070f 	andeq	r0, r0, pc, lsl #14
 400:	07040000 	streq	r0, [r4, -r0]
 404:	00000000 	andeq	r0, r0, r0
 408:	100b0304 	andne	r0, fp, r4, lsl #6
 40c:	7b6a0205 	blvc	1a80c28 <_Min_Stack_Size+0x1a80828>
 410:	04030000 	streq	r0, [r3], #-0
 414:	0503040c 	streq	r0, [r3, #-1036]	; 0xfffffbf4
 418:	00000711 	andeq	r0, r0, r1, lsl r7
 41c:	07040000 	streq	r0, [r4, -r0]
 420:	00000000 	andeq	r0, r0, r0
 424:	00000704 	andeq	r0, r0, r4, lsl #14
 428:	07040000 	streq	r0, [r4, -r0]
 42c:	00000000 	andeq	r0, r0, r0
 430:	07051003 	streq	r1, [r5, -r3]
 434:	00000000 	andeq	r0, r0, r0
 438:	06120304 	ldreq	r0, [r2], -r4, lsl #6
 43c:	57220b05 	strpl	r0, [r2, -r5, lsl #22]!
 440:	0d030000 	stceq	0, cr0, [r3, #-0]
 444:	0e03040d 	cdpeq	4, 0, cr0, cr3, cr13, {0}
 448:	00000705 	andeq	r0, r0, r5, lsl #14
 44c:	03040000 	movweq	r0, #16384	; 0x4000
 450:	1405040f 	strne	r0, [r5], #-1039	; 0xfffffbf1
 454:	00007fb1 			; <UNDEFINED> instruction: 0x00007fb1
 458:	05121803 	ldreq	r1, [r2, #-2051]	; 0xfffff7fd
 45c:	00722706 	rsbseq	r2, r2, r6, lsl #14
 460:	02070300 	andeq	r0, r7, #0, 6
 464:	00000007 	andeq	r0, r0, r7
 468:	03040400 	movweq	r0, #17408	; 0x4400
 46c:	00070319 	andeq	r0, r7, r9, lsl r3
 470:	04000000 	streq	r0, [r0], #-0
 474:	00000007 	andeq	r0, r0, r7
 478:	019f0300 	orrseq	r0, pc, r0, lsl #6
 47c:	00000705 	andeq	r0, r0, r5, lsl #14
 480:	07040000 	streq	r0, [r4, -r0]
 484:	00000000 	andeq	r0, r0, r0
 488:	00000704 	andeq	r0, r0, r4, lsl #14
 48c:	03040000 	movweq	r0, #16384	; 0x4000
 490:	29051313 	stmdbcs	r5, {r0, r1, r4, r8, r9, ip}
 494:	0000875b 	andeq	r8, r0, fp, asr r7
 498:	04052d03 	streq	r2, [r5], #-3331	; 0xfffff2fd
 49c:	00000007 	andeq	r0, r0, r7
 4a0:	14030400 	strne	r0, [r3], #-1024	; 0xfffffc00
 4a4:	c4020514 	strgt	r0, [r2], #-1300	; 0xfffffaec
 4a8:	04000022 	streq	r0, [r0], #-34	; 0xffffffde
 4ac:	07151603 	ldreq	r1, [r5, -r3, lsl #12]
 4b0:	00000000 	andeq	r0, r0, r0
 4b4:	00000704 	andeq	r0, r0, r4, lsl #14
 4b8:	03040000 	movweq	r0, #16384	; 0x4000
 4bc:	09031611 	stmdbeq	r3, {r0, r4, r9, sl, ip}
 4c0:	670a0517 	smladvs	sl, r7, r5, r0
 4c4:	03000007 	movweq	r0, #7
 4c8:	0007180d 	andeq	r1, r7, sp, lsl #16
 4cc:	04000000 	streq	r0, [r0], #-0
 4d0:	07080e03 	streq	r0, [r8, -r3, lsl #28]
 4d4:	00000000 	andeq	r0, r0, r0
 4d8:	00000704 	andeq	r0, r0, r4, lsl #14
 4dc:	05040000 	streq	r0, [r4, #-0]
 4e0:	00075e0d 	andeq	r5, r7, sp, lsl #28
 4e4:	00070400 	andeq	r0, r7, r0, lsl #8
 4e8:	04000000 	streq	r0, [r0], #-0
 4ec:	070a0e03 	streq	r0, [sl, -r3, lsl #28]
 4f0:	00000507 	andeq	r0, r0, r7, lsl #10
 4f4:	018c0704 	orreq	r0, ip, r4, lsl #14
 4f8:	03040000 	movweq	r0, #16384	; 0x4000
 4fc:	05040a0a 	streq	r0, [r4, #-2570]	; 0xfffff5f6
 500:	008ee71d 	addeq	lr, lr, sp, lsl r7
 504:	04000400 	streq	r0, [r0], #-1024	; 0xfffffc00
 508:	09050000 	stmdbeq	r5, {}	; <UNPREDICTABLE>
 50c:	00004c6f 	andeq	r4, r0, pc, ror #24
 510:	5ede2c05 	cdppl	12, 13, cr2, cr14, cr5, {0}
 514:	2d050000 	stccs	0, cr0, [r5, #-0]
 518:	00001db9 			; <UNDEFINED> instruction: 0x00001db9
 51c:	519f3105 	orrspl	r3, pc, r5, lsl #2
 520:	32050000 	andcc	r0, r5, #0
 524:	00008e57 	andeq	r8, r0, r7, asr lr
 528:	15fd3605 	ldrbne	r3, [sp, #1541]!	; 0x605
 52c:	37050000 	strcc	r0, [r5, -r0]
 530:	00000f07 	andeq	r0, r0, r7, lsl #30
 534:	4d3a3805 	ldcmi	8, cr3, [sl, #-20]!	; 0xffffffec
 538:	39050000 	stmdbcc	r5, {}	; <UNPREDICTABLE>
 53c:	00002552 	andeq	r2, r0, r2, asr r5
 540:	8ad53a05 	bhi	ff54ed5c <_estack+0xdf54c55c>
 544:	3b050000 	blcc	14054c <_Min_Stack_Size+0x14014c>
 548:	0000670b 	andeq	r6, r0, fp, lsl #14
 54c:	68613c05 	stmdavs	r1!, {r0, r2, sl, fp, ip, sp}^
 550:	3d050000 	stccc	0, cr0, [r5, #-0]
 554:	00007199 	muleq	r0, r9, r1
 558:	10f93e05 	rscsne	r3, r9, r5, lsl #28
 55c:	3f050000 	svccc	0x00050000
 560:	00004416 	andeq	r4, r0, r6, lsl r4
 564:	4e254005 	cdpmi	0, 2, cr4, cr5, cr5, {0}
 568:	41050000 	mrsmi	r0, (UNDEF: 5)
 56c:	00008995 	muleq	r0, r5, r9
 570:	1de84205 	sfmne	f4, 2, [r8, #20]!
 574:	43050000 	movwmi	r0, #20480	; 0x5000
 578:	00002b60 	andeq	r2, r0, r0, ror #22
 57c:	5c054405 	cfstrspl	mvf4, [r5], {5}
 580:	45050000 	strmi	r0, [r5, #-0]
 584:	00007bdb 	ldrdeq	r7, [r0], -fp
 588:	8e254605 	cfmadda32hi	mvax0, mvax4, mvfx5, mvfx5
 58c:	48050000 	stmdami	r5, {}	; <UNPREDICTABLE>
 590:	000028ec 	andeq	r2, r0, ip, ror #17
 594:	3da05805 	stccc	8, cr5, [r0, #20]!
 598:	59050000 	stmdbpl	r5, {}	; <UNPREDICTABLE>
 59c:	00002f65 	andeq	r2, r0, r5, ror #30
 5a0:	62ae5a05 	adcvs	r5, lr, #20480	; 0x5000
 5a4:	5b050000 	blpl	1405ac <_Min_Stack_Size+0x1401ac>
 5a8:	00008b94 	muleq	r0, r4, fp
 5ac:	34ad5c05 	strtcc	r5, [sp], #3077	; 0xc05
 5b0:	5d050000 	stcpl	0, cr0, [r5, #-0]
 5b4:	0000893a 	andeq	r8, r0, sl, lsr r9
 5b8:	48945e05 	ldmmi	r4, {r0, r2, r9, sl, fp, ip, lr}
 5bc:	5f050000 	svcpl	0x00050000
 5c0:	0000486a 	andeq	r4, r0, sl, ror #16
 5c4:	82706005 	rsbshi	r6, r0, #5
 5c8:	68050000 	stmdavs	r5, {}	; <UNPREDICTABLE>
 5cc:	00001048 	andeq	r1, r0, r8, asr #32
 5d0:	7b7c6905 	blvc	1f1a9ec <_Min_Stack_Size+0x1f1a5ec>
 5d4:	6a050000 	bvs	1405dc <_Min_Stack_Size+0x1401dc>
 5d8:	0000248d 	andeq	r2, r0, sp, lsl #9
 5dc:	02000400 	andeq	r0, r0, #0, 8
 5e0:	00000e0a 	andeq	r0, r0, sl, lsl #28
 5e4:	00000007 	andeq	r0, r0, r7
 5e8:	01000300 	mrseq	r0, LR_irq
 5ec:	050a0903 	streq	r0, [sl, #-2307]	; 0xfffff6fd
 5f0:	004c6f09 	subeq	r6, ip, r9, lsl #30
 5f4:	090f0300 	stmdbeq	pc, {r8, r9}	; <UNPREDICTABLE>
 5f8:	45140905 	ldrmi	r0, [r4, #-2309]	; 0xfffff6fb
 5fc:	10030000 	andne	r0, r3, r0
 600:	a9080507 	stmdbge	r8, {r0, r1, r2, r8, sl}
 604:	0300007c 	movweq	r0, #124	; 0x7c
 608:	00070b0a 	andeq	r0, r7, sl, lsl #22
 60c:	04000000 	streq	r0, [r0], #-0
 610:	050c0b03 	streq	r0, [ip, #-2819]	; 0xfffff4fd
 614:	00540c08 	subseq	r0, r4, r8, lsl #24
 618:	0d0a0300 	stceq	3, cr0, [sl, #-0]
 61c:	12a80805 	adcne	r0, r8, #327680	; 0x50000
 620:	0e030000 	cdpeq	0, 0, cr0, cr3, cr0, {0}
 624:	0000070e 	andeq	r0, r0, lr, lsl #14
 628:	07040000 	streq	r0, [r4, -r0]
 62c:	00000000 	andeq	r0, r0, r0
 630:	0f0b0304 	svceq	0x000b0304
 634:	7b6a0205 	blvc	1a80e50 <_Min_Stack_Size+0x1a80a50>
 638:	04030000 	streq	r0, [r3], #-0
 63c:	0503040b 	streq	r0, [r3, #-1035]	; 0xfffffbf5
 640:	00000710 	andeq	r0, r0, r0, lsl r7
 644:	07040000 	streq	r0, [r4, -r0]
 648:	00000000 	andeq	r0, r0, r0
 64c:	00000704 	andeq	r0, r0, r4, lsl #14
 650:	07040000 	streq	r0, [r4, -r0]
 654:	00000000 	andeq	r0, r0, r0
 658:	07051003 	streq	r1, [r5, -r3]
 65c:	00000000 	andeq	r0, r0, r0
 660:	06120304 	ldreq	r0, [r2], -r4, lsl #6
 664:	57220b05 	strpl	r0, [r2, -r5, lsl #22]!
 668:	0d030000 	stceq	0, cr0, [r3, #-0]
 66c:	0e03040c 	cdpeq	4, 0, cr0, cr3, cr12, {0}
 670:	00000705 	andeq	r0, r0, r5, lsl #14
 674:	03040000 	movweq	r0, #16384	; 0x4000
 678:	1405040f 	strne	r0, [r5], #-1039	; 0xfffffbf1
 67c:	00007fb1 			; <UNDEFINED> instruction: 0x00007fb1
 680:	05111803 	ldreq	r1, [r1, #-2051]	; 0xfffff7fd
 684:	00722706 	rsbseq	r2, r2, r6, lsl #14
 688:	02070300 	andeq	r0, r7, #0, 6
 68c:	00000007 	andeq	r0, r0, r7
 690:	03040400 	movweq	r0, #17408	; 0x4400
 694:	00070319 	andeq	r0, r7, r9, lsl r3
 698:	04000000 	streq	r0, [r0], #-0
 69c:	00000007 	andeq	r0, r0, r7
 6a0:	019f0300 	orrseq	r0, pc, r0, lsl #6
 6a4:	00000705 	andeq	r0, r0, r5, lsl #14
 6a8:	07040000 	streq	r0, [r4, -r0]
 6ac:	00000000 	andeq	r0, r0, r0
 6b0:	00000704 	andeq	r0, r0, r4, lsl #14
 6b4:	03040000 	movweq	r0, #16384	; 0x4000
 6b8:	29051213 	stmdbcs	r5, {r0, r1, r4, r9, ip}
 6bc:	0000875b 	andeq	r8, r0, fp, asr r7
 6c0:	04052d03 	streq	r2, [r5], #-3331	; 0xfffff2fd
 6c4:	00000007 	andeq	r0, r0, r7
 6c8:	14030400 	strne	r0, [r3], #-1024	; 0xfffffc00
 6cc:	c4020513 	strgt	r0, [r2], #-1299	; 0xfffffaed
 6d0:	04000022 	streq	r0, [r0], #-34	; 0xffffffde
 6d4:	07141603 	ldreq	r1, [r4, -r3, lsl #12]
 6d8:	00000000 	andeq	r0, r0, r0
 6dc:	00000704 	andeq	r0, r0, r4, lsl #14
 6e0:	03040000 	movweq	r0, #16384	; 0x4000
 6e4:	09031511 	stmdbeq	r3, {r0, r4, r8, sl, ip}
 6e8:	670a0516 	smladvs	sl, r6, r5, r0
 6ec:	03000007 	movweq	r0, #7
 6f0:	0007170d 	andeq	r1, r7, sp, lsl #14
 6f4:	04000000 	streq	r0, [r0], #-0
 6f8:	07080e03 	streq	r0, [r8, -r3, lsl #28]
 6fc:	00000000 	andeq	r0, r0, r0
 700:	00000704 	andeq	r0, r0, r4, lsl #14
 704:	05040000 	streq	r0, [r4, #-0]
 708:	00075e0d 	andeq	r5, r7, sp, lsl #28
 70c:	00070400 	andeq	r0, r7, r0, lsl #8
 710:	04000000 	streq	r0, [r0], #-0
 714:	00000007 	andeq	r0, r0, r7
 718:	00040400 	andeq	r0, r4, r0, lsl #8

Disassembly of section .debug_line:

00000000 <.debug_line>:
       0:	0000062f 	andeq	r0, r0, pc, lsr #12
       4:	05df0002 	ldrbeq	r0, [pc, #2]	; e <_Min_Heap_Size-0x1f2>
       8:	01020000 	mrseq	r0, (UNDEF: 2)
       c:	000d0efb 	strdeq	r0, [sp], -fp
      10:	01010101 	tsteq	r1, r1, lsl #2
      14:	01000000 	mrseq	r0, (UNDEF: 0)
      18:	2e010000 	cdpcs	0, 0, cr0, cr1, cr0, {0}
      1c:	72532f2e 	subsvc	r2, r3, #46, 30	; 0xb8
      20:	3a630063 	bcc	18c01b4 <_Min_Stack_Size+0x18bfdb4>
      24:	5c74735c 	ldclpl	3, cr7, [r4], #-368	; 0xfffffe90
      28:	336d7473 	cmncc	sp, #1929379840	; 0x73000000
      2c:	62756332 	rsbsvs	r6, r5, #-939524096	; 0xc8000000
      30:	65646965 	strbvs	r6, [r4, #-2405]!	; 0xfffff69b
      34:	342e315f 	strtcc	r3, [lr], #-351	; 0xfffffea1
      38:	735c302e 	cmpvc	ip, #46	; 0x2e
      3c:	32336d74 	eorscc	r6, r3, #116, 26	; 0x1d00
      40:	65627563 	strbvs	r7, [r2, #-1379]!	; 0xfffffa9d
      44:	5c656469 	cfstrdpl	mvd6, [r5], #-420	; 0xfffffe5c
      48:	67756c70 			; <UNDEFINED> instruction: 0x67756c70
      4c:	5c736e69 	ldclpl	14, cr6, [r3], #-420	; 0xfffffe5c
      50:	2e6d6f63 	cdpcs	15, 6, cr6, cr13, cr3, {3}
      54:	732e7473 			; <UNDEFINED> instruction: 0x732e7473
      58:	32336d74 	eorscc	r6, r3, #116, 26	; 0x1d00
      5c:	65627563 	strbvs	r7, [r2, #-1379]!	; 0xfffffa9d
      60:	6564692e 	strbvs	r6, [r4, #-2350]!	; 0xfffff6d2
      64:	75636d2e 	strbvc	r6, [r3, #-3374]!	; 0xfffff2d2
      68:	7478652e 	ldrbtvc	r6, [r8], #-1326	; 0xfffffad2
      6c:	616e7265 	cmnvs	lr, r5, ror #4
      70:	6f6f746c 	svcvs	0x006f746c
      74:	672e736c 	strvs	r7, [lr, -ip, ror #6]!
      78:	742d756e 	strtvc	r7, [sp], #-1390	; 0xfffffa92
      7c:	736c6f6f 	cmnvc	ip, #444	; 0x1bc
      80:	726f662d 	rsbvc	r6, pc, #47185920	; 0x2d00000
      84:	6d74732d 	ldclvs	3, cr7, [r4, #-180]!	; 0xffffff4c
      88:	372e3233 			; <UNDEFINED> instruction: 0x372e3233
      8c:	3130322d 	teqcc	r0, sp, lsr #4
      90:	32712d38 	rsbscc	r2, r1, #56, 26	; 0xe00
      94:	6470752d 	ldrbtvs	r7, [r0], #-1325	; 0xfffffad3
      98:	2e657461 	cdpcs	4, 6, cr7, cr5, cr1, {3}
      9c:	336e6977 	cmncc	lr, #1949696	; 0x1dc000
      a0:	2e315f32 	mrccs	15, 1, r5, cr1, cr2, {1}
      a4:	2e302e34 	mrccs	14, 1, r2, cr0, cr4, {1}
      a8:	30323032 	eorscc	r3, r2, r2, lsr r0
      ac:	38303730 	ldmdacc	r0!, {r4, r5, r8, r9, sl, ip, sp}
      b0:	38303231 	ldmdacc	r0!, {r0, r4, r5, r9, ip, sp}
      b4:	6f6f745c 	svcvs	0x006f745c
      b8:	615c736c 	cmpvs	ip, ip, ror #6
      bc:	6e2d6d72 	mcrvs	13, 1, r6, cr13, cr2, {3}
      c0:	2d656e6f 	stclcs	14, cr6, [r5, #-444]!	; 0xfffffe44
      c4:	69626165 	stmdbvs	r2!, {r0, r2, r5, r6, r8, sp, lr}^
      c8:	636e695c 	cmnvs	lr, #92, 18	; 0x170000
      cc:	6564756c 	strbvs	r7, [r4, #-1388]!	; 0xfffffa94
      d0:	63616d5c 	cmnvs	r1, #92, 26	; 0x1700
      d4:	656e6968 	strbvs	r6, [lr, #-2408]!	; 0xfffff698
      d8:	5c3a6300 	ldcpl	3, cr6, [sl], #-0
      dc:	735c7473 	cmpvc	ip, #1929379840	; 0x73000000
      e0:	32336d74 	eorscc	r6, r3, #116, 26	; 0x1d00
      e4:	65627563 	strbvs	r7, [r2, #-1379]!	; 0xfffffa9d
      e8:	5f656469 	svcpl	0x00656469
      ec:	2e342e31 	mrccs	14, 1, r2, cr4, cr1, {1}
      f0:	74735c30 	ldrbtvc	r5, [r3], #-3120	; 0xfffff3d0
      f4:	6332336d 	teqvs	r2, #-1275068415	; 0xb4000001
      f8:	69656275 	stmdbvs	r5!, {r0, r2, r4, r5, r6, r9, sp, lr}^
      fc:	705c6564 	subsvc	r6, ip, r4, ror #10
     100:	6967756c 	stmdbvs	r7!, {r2, r3, r5, r6, r8, sl, ip, sp, lr}^
     104:	635c736e 	cmpvs	ip, #-1207959551	; 0xb8000001
     108:	732e6d6f 			; <UNDEFINED> instruction: 0x732e6d6f
     10c:	74732e74 	ldrbtvc	r2, [r3], #-3700	; 0xfffff18c
     110:	6332336d 	teqvs	r2, #-1275068415	; 0xb4000001
     114:	2e656275 	mcrcs	2, 3, r6, cr5, cr5, {3}
     118:	2e656469 	cdpcs	4, 6, cr6, cr5, cr9, {3}
     11c:	2e75636d 	cdpcs	3, 7, cr6, cr5, cr13, {3}
     120:	65747865 	ldrbvs	r7, [r4, #-2149]!	; 0xfffff79b
     124:	6c616e72 	stclvs	14, cr6, [r1], #-456	; 0xfffffe38
     128:	6c6f6f74 	stclvs	15, cr6, [pc], #-464	; ffffff60 <_estack+0xdfffd760>
     12c:	6e672e73 	mcrvs	14, 3, r2, cr7, cr3, {3}
     130:	6f742d75 	svcvs	0x00742d75
     134:	2d736c6f 	ldclcs	12, cr6, [r3, #-444]!	; 0xfffffe44
     138:	2d726f66 	ldclcs	15, cr6, [r2, #-408]!	; 0xfffffe68
     13c:	336d7473 	cmncc	sp, #1929379840	; 0x73000000
     140:	2d372e32 	ldccs	14, cr2, [r7, #-200]!	; 0xffffff38
     144:	38313032 	ldmdacc	r1!, {r1, r4, r5, ip, sp}
     148:	2d32712d 	ldfcss	f7, [r2, #-180]!	; 0xffffff4c
     14c:	61647075 	smcvs	18181	; 0x4705
     150:	772e6574 			; <UNDEFINED> instruction: 0x772e6574
     154:	32336e69 	eorscc	r6, r3, #1680	; 0x690
     158:	342e315f 	strtcc	r3, [lr], #-351	; 0xfffffea1
     15c:	322e302e 	eorcc	r3, lr, #46	; 0x2e
     160:	30303230 	eorscc	r3, r0, r0, lsr r2
     164:	31383037 	teqcc	r8, r7, lsr r0
     168:	5c383032 	ldcpl	0, cr3, [r8], #-200	; 0xffffff38
     16c:	6c6f6f74 	stclvs	15, cr6, [pc], #-464	; ffffffa4 <_estack+0xdfffd7a4>
     170:	72615c73 	rsbvc	r5, r1, #29440	; 0x7300
     174:	6f6e2d6d 	svcvs	0x006e2d6d
     178:	652d656e 	strvs	r6, [sp, #-1390]!	; 0xfffffa92
     17c:	5c696261 	sfmpl	f6, 2, [r9], #-388	; 0xfffffe7c
     180:	6c636e69 	stclvs	14, cr6, [r3], #-420	; 0xfffffe5c
     184:	5c656475 	cfstrdpl	mvd6, [r5], #-468	; 0xfffffe2c
     188:	00737973 	rsbseq	r7, r3, r3, ror r9
     18c:	735c3a63 	cmpvc	ip, #405504	; 0x63000
     190:	74735c74 	ldrbtvc	r5, [r3], #-3188	; 0xfffff38c
     194:	6332336d 	teqvs	r2, #-1275068415	; 0xb4000001
     198:	69656275 	stmdbvs	r5!, {r0, r2, r4, r5, r6, r9, sp, lr}^
     19c:	315f6564 	cmpcc	pc, r4, ror #10
     1a0:	302e342e 	eorcc	r3, lr, lr, lsr #8
     1a4:	6d74735c 	ldclvs	3, cr7, [r4, #-368]!	; 0xfffffe90
     1a8:	75633233 	strbvc	r3, [r3, #-563]!	; 0xfffffdcd
     1ac:	64696562 	strbtvs	r6, [r9], #-1378	; 0xfffffa9e
     1b0:	6c705c65 	ldclvs	12, cr5, [r0], #-404	; 0xfffffe6c
     1b4:	6e696775 	mcrvs	7, 3, r6, cr9, cr5, {3}
     1b8:	6f635c73 	svcvs	0x00635c73
     1bc:	74732e6d 	ldrbtvc	r2, [r3], #-3693	; 0xfffff193
     1c0:	6d74732e 	ldclvs	3, cr7, [r4, #-184]!	; 0xffffff48
     1c4:	75633233 	strbvc	r3, [r3, #-563]!	; 0xfffffdcd
     1c8:	692e6562 	stmdbvs	lr!, {r1, r5, r6, r8, sl, sp, lr}
     1cc:	6d2e6564 	cfstr32vs	mvfx6, [lr, #-400]!	; 0xfffffe70
     1d0:	652e7563 	strvs	r7, [lr, #-1379]!	; 0xfffffa9d
     1d4:	72657478 	rsbvc	r7, r5, #120, 8	; 0x78000000
     1d8:	746c616e 	strbtvc	r6, [ip], #-366	; 0xfffffe92
     1dc:	736c6f6f 	cmnvc	ip, #444	; 0x1bc
     1e0:	756e672e 	strbvc	r6, [lr, #-1838]!	; 0xfffff8d2
     1e4:	6f6f742d 	svcvs	0x006f742d
     1e8:	662d736c 	strtvs	r7, [sp], -ip, ror #6
     1ec:	732d726f 			; <UNDEFINED> instruction: 0x732d726f
     1f0:	32336d74 	eorscc	r6, r3, #116, 26	; 0x1d00
     1f4:	322d372e 	eorcc	r3, sp, #12058624	; 0xb80000
     1f8:	2d383130 	ldfcss	f3, [r8, #-192]!	; 0xffffff40
     1fc:	752d3271 	strvc	r3, [sp, #-625]!	; 0xfffffd8f
     200:	74616470 	strbtvc	r6, [r1], #-1136	; 0xfffffb90
     204:	69772e65 	ldmdbvs	r7!, {r0, r2, r5, r6, r9, sl, fp, sp}^
     208:	5f32336e 	svcpl	0x0032336e
     20c:	2e342e31 	mrccs	14, 1, r2, cr4, cr1, {1}
     210:	30322e30 	eorscc	r2, r2, r0, lsr lr
     214:	37303032 			; <UNDEFINED> instruction: 0x37303032
     218:	32313830 	eorscc	r3, r1, #48, 16	; 0x300000
     21c:	745c3830 	ldrbvc	r3, [ip], #-2096	; 0xfffff7d0
     220:	736c6f6f 	cmnvc	ip, #444	; 0x1bc
     224:	62696c5c 	rsbvs	r6, r9, #92, 24	; 0x5c00
     228:	6363675c 	cmnvs	r3, #92, 14	; 0x1700000
     22c:	6d72615c 	ldfvse	f6, [r2, #-368]!	; 0xfffffe90
     230:	6e6f6e2d 	cdpvs	14, 6, cr6, cr15, cr13, {1}
     234:	61652d65 	cmnvs	r5, r5, ror #26
     238:	375c6962 	ldrbcc	r6, [ip, -r2, ror #18]
     23c:	312e332e 			; <UNDEFINED> instruction: 0x312e332e
     240:	636e695c 	cmnvs	lr, #92, 18	; 0x170000
     244:	6564756c 	strbvs	r7, [r4, #-1388]!	; 0xfffffa94
     248:	5c3a6300 	ldcpl	3, cr6, [sl], #-0
     24c:	735c7473 	cmpvc	ip, #1929379840	; 0x73000000
     250:	32336d74 	eorscc	r6, r3, #116, 26	; 0x1d00
     254:	65627563 	strbvs	r7, [r2, #-1379]!	; 0xfffffa9d
     258:	5f656469 	svcpl	0x00656469
     25c:	2e342e31 	mrccs	14, 1, r2, cr4, cr1, {1}
     260:	74735c30 	ldrbtvc	r5, [r3], #-3120	; 0xfffff3d0
     264:	6332336d 	teqvs	r2, #-1275068415	; 0xb4000001
     268:	69656275 	stmdbvs	r5!, {r0, r2, r4, r5, r6, r9, sp, lr}^
     26c:	705c6564 	subsvc	r6, ip, r4, ror #10
     270:	6967756c 	stmdbvs	r7!, {r2, r3, r5, r6, r8, sl, ip, sp, lr}^
     274:	635c736e 	cmpvs	ip, #-1207959551	; 0xb8000001
     278:	732e6d6f 			; <UNDEFINED> instruction: 0x732e6d6f
     27c:	74732e74 	ldrbtvc	r2, [r3], #-3700	; 0xfffff18c
     280:	6332336d 	teqvs	r2, #-1275068415	; 0xb4000001
     284:	2e656275 	mcrcs	2, 3, r6, cr5, cr5, {3}
     288:	2e656469 	cdpcs	4, 6, cr6, cr5, cr9, {3}
     28c:	2e75636d 	cdpcs	3, 7, cr6, cr5, cr13, {3}
     290:	65747865 	ldrbvs	r7, [r4, #-2149]!	; 0xfffff79b
     294:	6c616e72 	stclvs	14, cr6, [r1], #-456	; 0xfffffe38
     298:	6c6f6f74 	stclvs	15, cr6, [pc], #-464	; d0 <_Min_Heap_Size-0x130>
     29c:	6e672e73 	mcrvs	14, 3, r2, cr7, cr3, {3}
     2a0:	6f742d75 	svcvs	0x00742d75
     2a4:	2d736c6f 	ldclcs	12, cr6, [r3, #-444]!	; 0xfffffe44
     2a8:	2d726f66 	ldclcs	15, cr6, [r2, #-408]!	; 0xfffffe68
     2ac:	336d7473 	cmncc	sp, #1929379840	; 0x73000000
     2b0:	2d372e32 	ldccs	14, cr2, [r7, #-200]!	; 0xffffff38
     2b4:	38313032 	ldmdacc	r1!, {r1, r4, r5, ip, sp}
     2b8:	2d32712d 	ldfcss	f7, [r2, #-180]!	; 0xffffff4c
     2bc:	61647075 	smcvs	18181	; 0x4705
     2c0:	772e6574 			; <UNDEFINED> instruction: 0x772e6574
     2c4:	32336e69 	eorscc	r6, r3, #1680	; 0x690
     2c8:	342e315f 	strtcc	r3, [lr], #-351	; 0xfffffea1
     2cc:	322e302e 	eorcc	r3, lr, #46	; 0x2e
     2d0:	30303230 	eorscc	r3, r0, r0, lsr r2
     2d4:	31383037 	teqcc	r8, r7, lsr r0
     2d8:	5c383032 	ldcpl	0, cr3, [r8], #-200	; 0xffffff38
     2dc:	6c6f6f74 	stclvs	15, cr6, [pc], #-464	; 114 <_Min_Heap_Size-0xec>
     2e0:	72615c73 	rsbvc	r5, r1, #29440	; 0x7300
     2e4:	6f6e2d6d 	svcvs	0x006e2d6d
     2e8:	652d656e 	strvs	r6, [sp, #-1390]!	; 0xfffffa92
     2ec:	5c696261 	sfmpl	f6, 2, [r9], #-388	; 0xfffffe7c
     2f0:	6c636e69 	stclvs	14, cr6, [r3], #-420	; 0xfffffe5c
     2f4:	00656475 	rsbeq	r6, r5, r5, ror r4
     2f8:	552f3a43 	strpl	r3, [pc, #-2627]!	; fffff8bd <_estack+0xdfffd0bd>
     2fc:	73726573 	cmnvc	r2, #482344960	; 0x1cc00000
     300:	6462412f 	strbtvs	r4, [r2], #-303	; 0xfffffed1
     304:	616c6c61 	cmnvs	ip, r1, ror #24
     308:	54532f68 	ldrbpl	r2, [r3], #-3944	; 0xfffff098
     30c:	4332334d 	teqmi	r2, #872415233	; 0x34000001
     310:	49656275 	stmdbmi	r5!, {r0, r2, r4, r5, r6, r9, sp, lr}^
     314:	772f4544 	strvc	r4, [pc, -r4, asr #10]!
     318:	736b726f 	cmnvc	fp, #-268435450	; 0xf0000006
     31c:	65636170 	strbvs	r6, [r3, #-368]!	; 0xfffffe90
     320:	342e315f 	strtcc	r3, [lr], #-351	; 0xfffffea1
     324:	442f302e 	strtmi	r3, [pc], #-46	; 32c <_Min_Heap_Size+0x12c>
     328:	65766972 	ldrbvs	r6, [r6, #-2418]!	; 0xfffff68e
     32c:	5f327372 	svcpl	0x00327372
     330:	49545845 	ldmdbmi	r4, {r0, r2, r6, fp, ip, lr}^
     334:	6d74532f 	ldclvs	3, cr5, [r4, #-188]!	; 0xffffff44
     338:	465f3233 			; <UNDEFINED> instruction: 0x465f3233
     33c:	43333031 	teqmi	r3, #49	; 0x31
     340:	72445f36 	subvc	r5, r4, #54, 30	; 0xd8
     344:	72657669 	rsbvc	r7, r5, #110100480	; 0x6900000
     348:	6e692f73 	mcrvs	15, 3, r2, cr9, cr3, {3}
     34c:	3a630063 	bcc	18c04e0 <_Min_Stack_Size+0x18c00e0>
     350:	5c74735c 	ldclpl	3, cr7, [r4], #-368	; 0xfffffe90
     354:	336d7473 	cmncc	sp, #1929379840	; 0x73000000
     358:	62756332 	rsbsvs	r6, r5, #-939524096	; 0xc8000000
     35c:	65646965 	strbvs	r6, [r4, #-2405]!	; 0xfffff69b
     360:	342e315f 	strtcc	r3, [lr], #-351	; 0xfffffea1
     364:	735c302e 	cmpvc	ip, #46	; 0x2e
     368:	32336d74 	eorscc	r6, r3, #116, 26	; 0x1d00
     36c:	65627563 	strbvs	r7, [r2, #-1379]!	; 0xfffffa9d
     370:	5c656469 	cfstrdpl	mvd6, [r5], #-420	; 0xfffffe5c
     374:	67756c70 			; <UNDEFINED> instruction: 0x67756c70
     378:	5c736e69 	ldclpl	14, cr6, [r3], #-420	; 0xfffffe5c
     37c:	2e6d6f63 	cdpcs	15, 6, cr6, cr13, cr3, {3}
     380:	732e7473 			; <UNDEFINED> instruction: 0x732e7473
     384:	32336d74 	eorscc	r6, r3, #116, 26	; 0x1d00
     388:	65627563 	strbvs	r7, [r2, #-1379]!	; 0xfffffa9d
     38c:	6564692e 	strbvs	r6, [r4, #-2350]!	; 0xfffff6d2
     390:	75636d2e 	strbvc	r6, [r3, #-3374]!	; 0xfffff2d2
     394:	7478652e 	ldrbtvc	r6, [r8], #-1326	; 0xfffffad2
     398:	616e7265 	cmnvs	lr, r5, ror #4
     39c:	6f6f746c 	svcvs	0x006f746c
     3a0:	672e736c 	strvs	r7, [lr, -ip, ror #6]!
     3a4:	742d756e 	strtvc	r7, [sp], #-1390	; 0xfffffa92
     3a8:	736c6f6f 	cmnvc	ip, #444	; 0x1bc
     3ac:	726f662d 	rsbvc	r6, pc, #47185920	; 0x2d00000
     3b0:	6d74732d 	ldclvs	3, cr7, [r4, #-180]!	; 0xffffff4c
     3b4:	372e3233 			; <UNDEFINED> instruction: 0x372e3233
     3b8:	3130322d 	teqcc	r0, sp, lsr #4
     3bc:	32712d38 	rsbscc	r2, r1, #56, 26	; 0xe00
     3c0:	6470752d 	ldrbtvs	r7, [r0], #-1325	; 0xfffffad3
     3c4:	2e657461 	cdpcs	4, 6, cr7, cr5, cr1, {3}
     3c8:	336e6977 	cmncc	lr, #1949696	; 0x1dc000
     3cc:	2e315f32 	mrccs	15, 1, r5, cr1, cr2, {1}
     3d0:	2e302e34 	mrccs	14, 1, r2, cr0, cr4, {1}
     3d4:	30323032 	eorscc	r3, r2, r2, lsr r0
     3d8:	38303730 	ldmdacc	r0!, {r4, r5, r8, r9, sl, ip, sp}
     3dc:	38303231 	ldmdacc	r0!, {r0, r4, r5, r9, ip, sp}
     3e0:	6f6f745c 	svcvs	0x006f745c
     3e4:	615c736c 	cmpvs	ip, ip, ror #6
     3e8:	6e2d6d72 	mcrvs	13, 1, r6, cr13, cr2, {3}
     3ec:	2d656e6f 	stclcs	14, cr6, [r5, #-444]!	; 0xfffffe44
     3f0:	69626165 	stmdbvs	r2!, {r0, r2, r5, r6, r8, sp, lr}^
     3f4:	636e695c 	cmnvs	lr, #92, 18	; 0x170000
     3f8:	6564756c 	strbvs	r7, [r4, #-1388]!	; 0xfffffa94
     3fc:	77656e5c 			; <UNDEFINED> instruction: 0x77656e5c
     400:	2d62696c 			; <UNDEFINED> instruction: 0x2d62696c
     404:	6f6e616e 	svcvs	0x006e616e
     408:	2f3a4300 	svccs	0x003a4300
     40c:	72657355 	rsbvc	r7, r5, #1409286145	; 0x54000001
     410:	62412f73 	subvs	r2, r1, #460	; 0x1cc
     414:	6c6c6164 	stfvse	f6, [ip], #-400	; 0xfffffe70
     418:	532f6861 			; <UNDEFINED> instruction: 0x532f6861
     41c:	32334d54 	eorscc	r4, r3, #84, 26	; 0x1500
     420:	65627543 	strbvs	r7, [r2, #-1347]!	; 0xfffffabd
     424:	2f454449 	svccs	0x00454449
     428:	6b726f77 	blvs	1c9c20c <_Min_Stack_Size+0x1c9be0c>
     42c:	63617073 	cmnvs	r1, #115	; 0x73
     430:	2e315f65 	cdpcs	15, 3, cr5, cr1, cr5, {3}
     434:	2f302e34 	svccs	0x00302e34
     438:	76697244 	strbtvc	r7, [r9], -r4, asr #4
     43c:	32737265 	rsbscc	r7, r3, #1342177286	; 0x50000006
     440:	5458455f 	ldrbpl	r4, [r8], #-1375	; 0xfffffaa1
     444:	41482f49 	cmpmi	r8, r9, asr #30
     448:	6e692f4c 	cdpvs	15, 6, cr2, cr9, cr12, {2}
     44c:	64756c63 	ldrbtvs	r6, [r5], #-3171	; 0xfffff39d
     450:	00007365 	andeq	r7, r0, r5, ror #6
     454:	6e69616d 	powvsez	f6, f1, #5.0
     458:	0100632e 	tsteq	r0, lr, lsr #6
     45c:	645f0000 	ldrbvs	r0, [pc], #-0	; 464 <_Min_Stack_Size+0x64>
     460:	75616665 	strbvc	r6, [r1, #-1637]!	; 0xfffff99b
     464:	745f746c 	ldrbvc	r7, [pc], #-1132	; 46c <_Min_Stack_Size+0x6c>
     468:	73657079 	cmnvc	r5, #121	; 0x79
     46c:	0200682e 	andeq	r6, r0, #3014656	; 0x2e0000
     470:	6f6c0000 	svcvs	0x006c0000
     474:	682e6b63 	stmdavs	lr!, {r0, r1, r5, r6, r8, r9, fp, sp, lr}
     478:	00000300 	andeq	r0, r0, r0, lsl #6
     47c:	7079745f 	rsbsvc	r7, r9, pc, asr r4
     480:	682e7365 	stmdavs	lr!, {r0, r2, r5, r6, r8, r9, ip, sp, lr}
     484:	00000300 	andeq	r0, r0, r0, lsl #6
     488:	64647473 	strbtvs	r7, [r4], #-1139	; 0xfffffb8d
     48c:	682e6665 	stmdavs	lr!, {r0, r2, r5, r6, r9, sl, sp, lr}
     490:	00000400 	andeq	r0, r0, r0, lsl #8
     494:	6e656572 	mcrvs	5, 3, r6, cr5, cr2, {3}
     498:	00682e74 	rsbeq	r2, r8, r4, ror lr
     49c:	73000003 	movwvc	r0, #3
     4a0:	696c6474 	stmdbvs	ip!, {r2, r4, r5, r6, sl, sp, lr}^
     4a4:	00682e62 	rsbeq	r2, r8, r2, ror #28
     4a8:	5f000005 	svcpl	0x00000005
     4ac:	69647473 	stmdbvs	r4!, {r0, r1, r4, r5, r6, sl, ip, sp, lr}^
     4b0:	682e746e 	stmdavs	lr!, {r1, r2, r3, r5, r6, sl, ip, sp, lr}
     4b4:	00000300 	andeq	r0, r0, r0, lsl #6
     4b8:	336d7473 	cmncc	sp, #1929379840	; 0x73000000
     4bc:	30316632 	eorscc	r6, r1, r2, lsr r6
     4c0:	2e366333 	mrccs	3, 1, r6, cr6, cr3, {1}
     4c4:	00060068 	andeq	r0, r6, r8, rrx
     4c8:	6d745300 	ldclvs	3, cr5, [r4, #-0]
     4cc:	465f3233 			; <UNDEFINED> instruction: 0x465f3233
     4d0:	43333031 	teqmi	r3, #49	; 0x31
     4d4:	58455f36 	stmdapl	r5, {r1, r2, r4, r5, r8, r9, sl, fp, ip, lr}^
     4d8:	645f4954 	ldrbvs	r4, [pc], #-2388	; 4e0 <_Min_Stack_Size+0xe0>
     4dc:	65766972 	ldrbvs	r6, [r6, #-2418]!	; 0xfffff68e
     4e0:	00682e72 	rsbeq	r2, r8, r2, ror lr
     4e4:	53000006 	movwpl	r0, #6
     4e8:	32336d74 	eorscc	r6, r3, #116, 26	; 0x1d00
     4ec:	3031465f 	eorscc	r4, r1, pc, asr r6
     4f0:	5f364333 	svcpl	0x00364333
     4f4:	6f697067 	svcvs	0x00697067
     4f8:	6972645f 	ldmdbvs	r2!, {r0, r1, r2, r3, r4, r6, sl, sp, lr}^
     4fc:	2e726576 	mrccs	5, 3, r6, cr2, cr6, {3}
     500:	00060068 	andeq	r0, r6, r8, rrx
     504:	65656900 	strbvs	r6, [r5, #-2304]!	; 0xfffff700
     508:	2e706665 	cdpcs	6, 7, cr6, cr0, cr5, {3}
     50c:	00020068 	andeq	r0, r2, r8, rrx
     510:	6e615f00 	cdpvs	15, 6, cr5, cr1, cr0, {0}
     514:	682e6973 	stmdavs	lr!, {r0, r1, r4, r5, r6, r8, fp, sp, lr}
     518:	00000500 	andeq	r0, r0, r0, lsl #10
     51c:	6c77656e 	cfldr64vs	mvdx6, [r7], #-440	; 0xfffffe48
     520:	682e6269 	stmdavs	lr!, {r0, r3, r5, r6, r9, sp, lr}
     524:	00000700 	andeq	r0, r0, r0, lsl #14
     528:	77656e5f 			; <UNDEFINED> instruction: 0x77656e5f
     52c:	5f62696c 	svcpl	0x0062696c
     530:	73726576 	cmnvc	r2, #494927872	; 0x1d800000
     534:	2e6e6f69 	cdpcs	15, 6, cr6, cr14, cr9, {3}
     538:	00050068 	andeq	r0, r5, r8, rrx
     53c:	6e6f6300 	cdpvs	3, 6, cr6, cr15, cr0, {0}
     540:	2e676966 	vnmulcs.f16	s13, s14, s13	; <UNPREDICTABLE>
     544:	00030068 	andeq	r0, r3, r8, rrx
     548:	61656600 	cmnvs	r5, r0, lsl #12
     54c:	65727574 	ldrbvs	r7, [r2, #-1396]!	; 0xfffffa8c
     550:	00682e73 	rsbeq	r2, r8, r3, ror lr
     554:	5f000003 	svcpl	0x00000003
     558:	65707974 	ldrbvs	r7, [r0, #-2420]!	; 0xfffff68c
     55c:	00682e73 	rsbeq	r2, r8, r3, ror lr
     560:	63000002 	movwvs	r0, #2
     564:	73666564 	cmnvc	r6, #100, 10	; 0x19000000
     568:	0300682e 	movweq	r6, #2094	; 0x82e
     56c:	74730000 	ldrbtvc	r0, [r3], #-0
     570:	62696c64 	rsbvs	r6, r9, #100, 24	; 0x6400
     574:	0200682e 	andeq	r6, r0, #3014656	; 0x2e0000
     578:	6c610000 	stclvs	0, cr0, [r1], #-0
     57c:	61636f6c 	cmnvs	r3, ip, ror #30
     580:	0500682e 	streq	r6, [r0, #-2094]	; 0xfffff7d2
     584:	74730000 	ldrbtvc	r0, [r3], #-0
     588:	746e6964 	strbtvc	r6, [lr], #-2404	; 0xfffff69c
     58c:	0400682e 	streq	r6, [r0], #-2094	; 0xfffff7d2
     590:	74730000 	ldrbtvc	r0, [r3], #-0
     594:	746e6964 	strbtvc	r6, [lr], #-2404	; 0xfffff69c
     598:	0500682e 	streq	r6, [r0, #-2094]	; 0xfffff7d2
     59c:	695f0000 	ldmdbvs	pc, {}^	; <UNPREDICTABLE>
     5a0:	7573746e 	ldrbvc	r7, [r3, #-1134]!	; 0xfffffb92
     5a4:	00682e70 	rsbeq	r2, r8, r0, ror lr
     5a8:	4c000003 	stcmi	0, cr0, [r0], {3}
     5ac:	682e6463 	stmdavs	lr!, {r0, r1, r5, r6, sl, sp, lr}
     5b0:	00000800 	andeq	r0, r0, r0, lsl #16
     5b4:	5f64634c 	svcpl	0x0064634c
     5b8:	666e6f43 	strbtvs	r6, [lr], -r3, asr #30
     5bc:	682e6769 	stmdavs	lr!, {r0, r3, r5, r6, r8, r9, sl, sp, lr}
     5c0:	00000800 	andeq	r0, r0, r0, lsl #16
     5c4:	6f727245 	svcvs	0x00727245
     5c8:	61745372 	cmnvs	r4, r2, ror r3
     5cc:	2e736574 	mrccs	5, 3, r6, cr3, cr4, {3}
     5d0:	00060068 	andeq	r0, r6, r8, rrx
     5d4:	44504b00 	ldrbmi	r4, [r0], #-2816	; 0xfffff500
     5d8:	746e695f 	strbtvc	r6, [lr], #-2399	; 0xfffff6a1
     5dc:	61667265 	cmnvs	r6, r5, ror #4
     5e0:	682e6563 	stmdavs	lr!, {r0, r1, r5, r6, r8, sl, sp, lr}
     5e4:	00000800 	andeq	r0, r0, r0, lsl #16
     5e8:	02050000 	andeq	r0, r5, #0
     5ec:	08000170 	stmdaeq	r0, {r4, r5, r6, r8}
     5f0:	59013603 	stmdbpl	r1, {r0, r1, r9, sl, ip, sp}
     5f4:	03581003 	cmpeq	r8, #3
     5f8:	23862074 	orrcs	r2, r6, #116	; 0x74
     5fc:	05022269 	streq	r2, [r2, #-617]	; 0xfffffd97
     600:	00010100 	andeq	r0, r1, r0, lsl #2
     604:	01b00205 	lslseq	r0, r5, #4
     608:	ca030800 	bgt	c2610 <_Min_Stack_Size+0xc2210>
     60c:	412f0100 			; <UNDEFINED> instruction: 0x412f0100
     610:	0004023e 	andeq	r0, r4, lr, lsr r2
     614:	05000101 	streq	r0, [r0, #-257]	; 0xfffffeff
     618:	0001c802 	andeq	ip, r1, r2, lsl #16
     61c:	00d50308 	sbcseq	r0, r5, r8, lsl #6
     620:	6e673f01 	cdpvs	15, 6, cr3, cr7, cr1, {0}
     624:	302f2f59 	eorcc	r2, pc, r9, asr pc	; <UNPREDICTABLE>
     628:	403f3e4c 	eorsmi	r3, pc, ip, asr #28
     62c:	0a02394d 	beq	8eb68 <_Min_Stack_Size+0x8e768>
     630:	80010100 	andhi	r0, r1, r0, lsl #2
     634:	02000000 	andeq	r0, r0, #0
     638:	00003900 	andeq	r3, r0, r0, lsl #18
     63c:	fb010200 	blx	40e46 <_Min_Stack_Size+0x40a46>
     640:	01000d0e 	tsteq	r0, lr, lsl #26
     644:	00010101 	andeq	r0, r1, r1, lsl #2
     648:	00010000 	andeq	r0, r1, r0
     64c:	2e2e0100 	sufcse	f0, f6, f0
     650:	6174532f 	cmnvs	r4, pc, lsr #6
     654:	70757472 	rsbsvc	r7, r5, r2, ror r4
     658:	74730000 	ldrbtvc	r0, [r3], #-0
     65c:	75747261 	ldrbvc	r7, [r4, #-609]!	; 0xfffffd9f
     660:	74735f70 	ldrbtvc	r5, [r3], #-3952	; 0xfffff090
     664:	6632336d 	ldrtvs	r3, [r2], -sp, ror #6
     668:	63333031 	teqvs	r3, #49	; 0x31
     66c:	2e787436 	mrccs	4, 3, r7, cr8, cr6, {1}
     670:	00010073 	andeq	r0, r1, r3, ror r0
     674:	05000000 	streq	r0, [r0, #-0]
     678:	00023802 	andeq	r3, r2, r2, lsl #16
     67c:	013a0308 	teqeq	sl, r8, lsl #6
     680:	21312221 	teqcs	r1, r1, lsr #4
     684:	23212121 			; <UNDEFINED> instruction: 0x23212121
     688:	21232121 			; <UNDEFINED> instruction: 0x21232121
     68c:	21212321 			; <UNDEFINED> instruction: 0x21212321
     690:	23212321 			; <UNDEFINED> instruction: 0x23212321
     694:	31302321 	teqcc	r0, r1, lsr #6
     698:	34205603 	strtcc	r5, [r0], #-1539	; 0xfffff9fd
     69c:	0f032f2f 	svceq	0x00032f2f
     6a0:	02022f2e 	andeq	r2, r2, #46, 30	; 0xb8
     6a4:	00010100 	andeq	r0, r1, r0, lsl #2
     6a8:	02880205 	addeq	r0, r8, #1342177280	; 0x50000000
     6ac:	f3030800 	vsub.i8	d0, d3, d0
     6b0:	01020100 	mrseq	r0, (UNDEF: 18)
     6b4:	4f010100 	svcmi	0x00010100
     6b8:	02000007 	andeq	r0, r0, #7
     6bc:	00058200 	andeq	r8, r5, r0, lsl #4
     6c0:	fb010200 	blx	40eca <_Min_Stack_Size+0x40aca>
     6c4:	01000d0e 	tsteq	r0, lr, lsl #26
     6c8:	00010101 	andeq	r0, r1, r1, lsl #2
     6cc:	00010000 	andeq	r0, r1, r0
     6d0:	2e2e0100 	sufcse	f0, f6, f0
     6d4:	6d74532f 	ldclvs	3, cr5, [r4, #-188]!	; 0xffffff44
     6d8:	465f3233 			; <UNDEFINED> instruction: 0x465f3233
     6dc:	43333031 	teqmi	r3, #49	; 0x31
     6e0:	72445f36 	subvc	r5, r4, #54, 30	; 0xd8
     6e4:	72657669 	rsbvc	r7, r5, #110100480	; 0x6900000
     6e8:	58452f73 	stmdapl	r5, {r0, r1, r4, r5, r6, r8, r9, sl, fp, sp}^
     6ec:	63004954 	movwvs	r4, #2388	; 0x954
     6f0:	74735c3a 	ldrbtvc	r5, [r3], #-3130	; 0xfffff3c6
     6f4:	6d74735c 	ldclvs	3, cr7, [r4, #-368]!	; 0xfffffe90
     6f8:	75633233 	strbvc	r3, [r3, #-563]!	; 0xfffffdcd
     6fc:	64696562 	strbtvs	r6, [r9], #-1378	; 0xfffffa9e
     700:	2e315f65 	cdpcs	15, 3, cr5, cr1, cr5, {3}
     704:	5c302e34 	ldcpl	14, cr2, [r0], #-208	; 0xffffff30
     708:	336d7473 	cmncc	sp, #1929379840	; 0x73000000
     70c:	62756332 	rsbsvs	r6, r5, #-939524096	; 0xc8000000
     710:	65646965 	strbvs	r6, [r4, #-2405]!	; 0xfffff69b
     714:	756c705c 	strbvc	r7, [ip, #-92]!	; 0xffffffa4
     718:	736e6967 	cmnvc	lr, #1687552	; 0x19c000
     71c:	6d6f635c 	stclvs	3, cr6, [pc, #-368]!	; 5b4 <_Min_Stack_Size+0x1b4>
     720:	2e74732e 	cdpcs	3, 7, cr7, cr4, cr14, {1}
     724:	336d7473 	cmncc	sp, #1929379840	; 0x73000000
     728:	62756332 	rsbsvs	r6, r5, #-939524096	; 0xc8000000
     72c:	64692e65 	strbtvs	r2, [r9], #-3685	; 0xfffff19b
     730:	636d2e65 	cmnvs	sp, #1616	; 0x650
     734:	78652e75 	stmdavc	r5!, {r0, r2, r4, r5, r6, r9, sl, fp, sp}^
     738:	6e726574 	mrcvs	5, 3, r6, cr2, cr4, {3}
     73c:	6f746c61 	svcvs	0x00746c61
     740:	2e736c6f 	cdpcs	12, 7, cr6, cr3, cr15, {3}
     744:	2d756e67 	ldclcs	14, cr6, [r5, #-412]!	; 0xfffffe64
     748:	6c6f6f74 	stclvs	15, cr6, [pc], #-464	; 580 <_Min_Stack_Size+0x180>
     74c:	6f662d73 	svcvs	0x00662d73
     750:	74732d72 	ldrbtvc	r2, [r3], #-3442	; 0xfffff28e
     754:	2e32336d 	cdpcs	3, 3, cr3, cr2, cr13, {3}
     758:	30322d37 	eorscc	r2, r2, r7, lsr sp
     75c:	712d3831 			; <UNDEFINED> instruction: 0x712d3831
     760:	70752d32 	rsbsvc	r2, r5, r2, lsr sp
     764:	65746164 	ldrbvs	r6, [r4, #-356]!	; 0xfffffe9c
     768:	6e69772e 	cdpvs	7, 6, cr7, cr9, cr14, {1}
     76c:	315f3233 	cmpcc	pc, r3, lsr r2	; <UNPREDICTABLE>
     770:	302e342e 	eorcc	r3, lr, lr, lsr #8
     774:	3230322e 	eorscc	r3, r0, #-536870910	; 0xe0000002
     778:	30373030 	eorscc	r3, r7, r0, lsr r0
     77c:	30323138 	eorscc	r3, r2, r8, lsr r1
     780:	6f745c38 	svcvs	0x00745c38
     784:	5c736c6f 	ldclpl	12, cr6, [r3], #-444	; 0xfffffe44
     788:	2d6d7261 	sfmcs	f7, 2, [sp, #-388]!	; 0xfffffe7c
     78c:	656e6f6e 	strbvs	r6, [lr, #-3950]!	; 0xfffff092
     790:	6261652d 	rsbvs	r6, r1, #188743680	; 0xb400000
     794:	6e695c69 	cdpvs	12, 6, cr5, cr9, cr9, {3}
     798:	64756c63 	ldrbtvs	r6, [r5], #-3171	; 0xfffff39d
     79c:	616d5c65 	cmnvs	sp, r5, ror #24
     7a0:	6e696863 	cdpvs	8, 6, cr6, cr9, cr3, {3}
     7a4:	3a630065 	bcc	18c0940 <_Min_Stack_Size+0x18c0540>
     7a8:	5c74735c 	ldclpl	3, cr7, [r4], #-368	; 0xfffffe90
     7ac:	336d7473 	cmncc	sp, #1929379840	; 0x73000000
     7b0:	62756332 	rsbsvs	r6, r5, #-939524096	; 0xc8000000
     7b4:	65646965 	strbvs	r6, [r4, #-2405]!	; 0xfffff69b
     7b8:	342e315f 	strtcc	r3, [lr], #-351	; 0xfffffea1
     7bc:	735c302e 	cmpvc	ip, #46	; 0x2e
     7c0:	32336d74 	eorscc	r6, r3, #116, 26	; 0x1d00
     7c4:	65627563 	strbvs	r7, [r2, #-1379]!	; 0xfffffa9d
     7c8:	5c656469 	cfstrdpl	mvd6, [r5], #-420	; 0xfffffe5c
     7cc:	67756c70 			; <UNDEFINED> instruction: 0x67756c70
     7d0:	5c736e69 	ldclpl	14, cr6, [r3], #-420	; 0xfffffe5c
     7d4:	2e6d6f63 	cdpcs	15, 6, cr6, cr13, cr3, {3}
     7d8:	732e7473 			; <UNDEFINED> instruction: 0x732e7473
     7dc:	32336d74 	eorscc	r6, r3, #116, 26	; 0x1d00
     7e0:	65627563 	strbvs	r7, [r2, #-1379]!	; 0xfffffa9d
     7e4:	6564692e 	strbvs	r6, [r4, #-2350]!	; 0xfffff6d2
     7e8:	75636d2e 	strbvc	r6, [r3, #-3374]!	; 0xfffff2d2
     7ec:	7478652e 	ldrbtvc	r6, [r8], #-1326	; 0xfffffad2
     7f0:	616e7265 	cmnvs	lr, r5, ror #4
     7f4:	6f6f746c 	svcvs	0x006f746c
     7f8:	672e736c 	strvs	r7, [lr, -ip, ror #6]!
     7fc:	742d756e 	strtvc	r7, [sp], #-1390	; 0xfffffa92
     800:	736c6f6f 	cmnvc	ip, #444	; 0x1bc
     804:	726f662d 	rsbvc	r6, pc, #47185920	; 0x2d00000
     808:	6d74732d 	ldclvs	3, cr7, [r4, #-180]!	; 0xffffff4c
     80c:	372e3233 			; <UNDEFINED> instruction: 0x372e3233
     810:	3130322d 	teqcc	r0, sp, lsr #4
     814:	32712d38 	rsbscc	r2, r1, #56, 26	; 0xe00
     818:	6470752d 	ldrbtvs	r7, [r0], #-1325	; 0xfffffad3
     81c:	2e657461 	cdpcs	4, 6, cr7, cr5, cr1, {3}
     820:	336e6977 	cmncc	lr, #1949696	; 0x1dc000
     824:	2e315f32 	mrccs	15, 1, r5, cr1, cr2, {1}
     828:	2e302e34 	mrccs	14, 1, r2, cr0, cr4, {1}
     82c:	30323032 	eorscc	r3, r2, r2, lsr r0
     830:	38303730 	ldmdacc	r0!, {r4, r5, r8, r9, sl, ip, sp}
     834:	38303231 	ldmdacc	r0!, {r0, r4, r5, r9, ip, sp}
     838:	6f6f745c 	svcvs	0x006f745c
     83c:	615c736c 	cmpvs	ip, ip, ror #6
     840:	6e2d6d72 	mcrvs	13, 1, r6, cr13, cr2, {3}
     844:	2d656e6f 	stclcs	14, cr6, [r5, #-444]!	; 0xfffffe44
     848:	69626165 	stmdbvs	r2!, {r0, r2, r5, r6, r8, sp, lr}^
     84c:	636e695c 	cmnvs	lr, #92, 18	; 0x170000
     850:	6564756c 	strbvs	r7, [r4, #-1388]!	; 0xfffffa94
     854:	7379735c 	cmnvc	r9, #92, 6	; 0x70000001
     858:	5c3a6300 	ldcpl	3, cr6, [sl], #-0
     85c:	735c7473 	cmpvc	ip, #1929379840	; 0x73000000
     860:	32336d74 	eorscc	r6, r3, #116, 26	; 0x1d00
     864:	65627563 	strbvs	r7, [r2, #-1379]!	; 0xfffffa9d
     868:	5f656469 	svcpl	0x00656469
     86c:	2e342e31 	mrccs	14, 1, r2, cr4, cr1, {1}
     870:	74735c30 	ldrbtvc	r5, [r3], #-3120	; 0xfffff3d0
     874:	6332336d 	teqvs	r2, #-1275068415	; 0xb4000001
     878:	69656275 	stmdbvs	r5!, {r0, r2, r4, r5, r6, r9, sp, lr}^
     87c:	705c6564 	subsvc	r6, ip, r4, ror #10
     880:	6967756c 	stmdbvs	r7!, {r2, r3, r5, r6, r8, sl, ip, sp, lr}^
     884:	635c736e 	cmpvs	ip, #-1207959551	; 0xb8000001
     888:	732e6d6f 			; <UNDEFINED> instruction: 0x732e6d6f
     88c:	74732e74 	ldrbtvc	r2, [r3], #-3700	; 0xfffff18c
     890:	6332336d 	teqvs	r2, #-1275068415	; 0xb4000001
     894:	2e656275 	mcrcs	2, 3, r6, cr5, cr5, {3}
     898:	2e656469 	cdpcs	4, 6, cr6, cr5, cr9, {3}
     89c:	2e75636d 	cdpcs	3, 7, cr6, cr5, cr13, {3}
     8a0:	65747865 	ldrbvs	r7, [r4, #-2149]!	; 0xfffff79b
     8a4:	6c616e72 	stclvs	14, cr6, [r1], #-456	; 0xfffffe38
     8a8:	6c6f6f74 	stclvs	15, cr6, [pc], #-464	; 6e0 <_Min_Stack_Size+0x2e0>
     8ac:	6e672e73 	mcrvs	14, 3, r2, cr7, cr3, {3}
     8b0:	6f742d75 	svcvs	0x00742d75
     8b4:	2d736c6f 	ldclcs	12, cr6, [r3, #-444]!	; 0xfffffe44
     8b8:	2d726f66 	ldclcs	15, cr6, [r2, #-408]!	; 0xfffffe68
     8bc:	336d7473 	cmncc	sp, #1929379840	; 0x73000000
     8c0:	2d372e32 	ldccs	14, cr2, [r7, #-200]!	; 0xffffff38
     8c4:	38313032 	ldmdacc	r1!, {r1, r4, r5, ip, sp}
     8c8:	2d32712d 	ldfcss	f7, [r2, #-180]!	; 0xffffff4c
     8cc:	61647075 	smcvs	18181	; 0x4705
     8d0:	772e6574 			; <UNDEFINED> instruction: 0x772e6574
     8d4:	32336e69 	eorscc	r6, r3, #1680	; 0x690
     8d8:	342e315f 	strtcc	r3, [lr], #-351	; 0xfffffea1
     8dc:	322e302e 	eorcc	r3, lr, #46	; 0x2e
     8e0:	30303230 	eorscc	r3, r0, r0, lsr r2
     8e4:	31383037 	teqcc	r8, r7, lsr r0
     8e8:	5c383032 	ldcpl	0, cr3, [r8], #-200	; 0xffffff38
     8ec:	6c6f6f74 	stclvs	15, cr6, [pc], #-464	; 724 <_Min_Stack_Size+0x324>
     8f0:	696c5c73 	stmdbvs	ip!, {r0, r1, r4, r5, r6, sl, fp, ip, lr}^
     8f4:	63675c62 	cmnvs	r7, #25088	; 0x6200
     8f8:	72615c63 	rsbvc	r5, r1, #25344	; 0x6300
     8fc:	6f6e2d6d 	svcvs	0x006e2d6d
     900:	652d656e 	strvs	r6, [sp, #-1390]!	; 0xfffffa92
     904:	5c696261 	sfmpl	f6, 2, [r9], #-388	; 0xfffffe7c
     908:	2e332e37 	mrccs	14, 1, r2, cr3, cr7, {1}
     90c:	6e695c31 	mcrvs	12, 3, r5, cr9, cr1, {1}
     910:	64756c63 	ldrbtvs	r6, [r5], #-3171	; 0xfffff39d
     914:	3a630065 	bcc	18c0ab0 <_Min_Stack_Size+0x18c06b0>
     918:	5c74735c 	ldclpl	3, cr7, [r4], #-368	; 0xfffffe90
     91c:	336d7473 	cmncc	sp, #1929379840	; 0x73000000
     920:	62756332 	rsbsvs	r6, r5, #-939524096	; 0xc8000000
     924:	65646965 	strbvs	r6, [r4, #-2405]!	; 0xfffff69b
     928:	342e315f 	strtcc	r3, [lr], #-351	; 0xfffffea1
     92c:	735c302e 	cmpvc	ip, #46	; 0x2e
     930:	32336d74 	eorscc	r6, r3, #116, 26	; 0x1d00
     934:	65627563 	strbvs	r7, [r2, #-1379]!	; 0xfffffa9d
     938:	5c656469 	cfstrdpl	mvd6, [r5], #-420	; 0xfffffe5c
     93c:	67756c70 			; <UNDEFINED> instruction: 0x67756c70
     940:	5c736e69 	ldclpl	14, cr6, [r3], #-420	; 0xfffffe5c
     944:	2e6d6f63 	cdpcs	15, 6, cr6, cr13, cr3, {3}
     948:	732e7473 			; <UNDEFINED> instruction: 0x732e7473
     94c:	32336d74 	eorscc	r6, r3, #116, 26	; 0x1d00
     950:	65627563 	strbvs	r7, [r2, #-1379]!	; 0xfffffa9d
     954:	6564692e 	strbvs	r6, [r4, #-2350]!	; 0xfffff6d2
     958:	75636d2e 	strbvc	r6, [r3, #-3374]!	; 0xfffff2d2
     95c:	7478652e 	ldrbtvc	r6, [r8], #-1326	; 0xfffffad2
     960:	616e7265 	cmnvs	lr, r5, ror #4
     964:	6f6f746c 	svcvs	0x006f746c
     968:	672e736c 	strvs	r7, [lr, -ip, ror #6]!
     96c:	742d756e 	strtvc	r7, [sp], #-1390	; 0xfffffa92
     970:	736c6f6f 	cmnvc	ip, #444	; 0x1bc
     974:	726f662d 	rsbvc	r6, pc, #47185920	; 0x2d00000
     978:	6d74732d 	ldclvs	3, cr7, [r4, #-180]!	; 0xffffff4c
     97c:	372e3233 			; <UNDEFINED> instruction: 0x372e3233
     980:	3130322d 	teqcc	r0, sp, lsr #4
     984:	32712d38 	rsbscc	r2, r1, #56, 26	; 0xe00
     988:	6470752d 	ldrbtvs	r7, [r0], #-1325	; 0xfffffad3
     98c:	2e657461 	cdpcs	4, 6, cr7, cr5, cr1, {3}
     990:	336e6977 	cmncc	lr, #1949696	; 0x1dc000
     994:	2e315f32 	mrccs	15, 1, r5, cr1, cr2, {1}
     998:	2e302e34 	mrccs	14, 1, r2, cr0, cr4, {1}
     99c:	30323032 	eorscc	r3, r2, r2, lsr r0
     9a0:	38303730 	ldmdacc	r0!, {r4, r5, r8, r9, sl, ip, sp}
     9a4:	38303231 	ldmdacc	r0!, {r0, r4, r5, r9, ip, sp}
     9a8:	6f6f745c 	svcvs	0x006f745c
     9ac:	615c736c 	cmpvs	ip, ip, ror #6
     9b0:	6e2d6d72 	mcrvs	13, 1, r6, cr13, cr2, {3}
     9b4:	2d656e6f 	stclcs	14, cr6, [r5, #-444]!	; 0xfffffe44
     9b8:	69626165 	stmdbvs	r2!, {r0, r2, r5, r6, r8, sp, lr}^
     9bc:	636e695c 	cmnvs	lr, #92, 18	; 0x170000
     9c0:	6564756c 	strbvs	r7, [r4, #-1388]!	; 0xfffffa94
     9c4:	2f3a4300 	svccs	0x003a4300
     9c8:	72657355 	rsbvc	r7, r5, #1409286145	; 0x54000001
     9cc:	62412f73 	subvs	r2, r1, #460	; 0x1cc
     9d0:	6c6c6164 	stfvse	f6, [ip], #-400	; 0xfffffe70
     9d4:	532f6861 			; <UNDEFINED> instruction: 0x532f6861
     9d8:	32334d54 	eorscc	r4, r3, #84, 26	; 0x1500
     9dc:	65627543 	strbvs	r7, [r2, #-1347]!	; 0xfffffabd
     9e0:	2f454449 	svccs	0x00454449
     9e4:	6b726f77 	blvs	1c9c7c8 <_Min_Stack_Size+0x1c9c3c8>
     9e8:	63617073 	cmnvs	r1, #115	; 0x73
     9ec:	2e315f65 	cdpcs	15, 3, cr5, cr1, cr5, {3}
     9f0:	2f302e34 	svccs	0x00302e34
     9f4:	76697244 	strbtvc	r7, [r9], -r4, asr #4
     9f8:	32737265 	rsbscc	r7, r3, #1342177286	; 0x50000006
     9fc:	5458455f 	ldrbpl	r4, [r8], #-1375	; 0xfffffaa1
     a00:	74532f49 	ldrbvc	r2, [r3], #-3913	; 0xfffff0b7
     a04:	5f32336d 	svcpl	0x0032336d
     a08:	33303146 	teqcc	r0, #-2147483631	; 0x80000011
     a0c:	445f3643 	ldrbmi	r3, [pc], #-1603	; a14 <_Min_Stack_Size+0x614>
     a10:	65766972 	ldrbvs	r6, [r6, #-2418]!	; 0xfffff68e
     a14:	692f7372 	stmdbvs	pc!, {r1, r4, r5, r6, r8, r9, ip, sp, lr}	; <UNPREDICTABLE>
     a18:	6300636e 	movwvs	r6, #878	; 0x36e
     a1c:	74735c3a 	ldrbtvc	r5, [r3], #-3130	; 0xfffff3c6
     a20:	6d74735c 	ldclvs	3, cr7, [r4, #-368]!	; 0xfffffe90
     a24:	75633233 	strbvc	r3, [r3, #-563]!	; 0xfffffdcd
     a28:	64696562 	strbtvs	r6, [r9], #-1378	; 0xfffffa9e
     a2c:	2e315f65 	cdpcs	15, 3, cr5, cr1, cr5, {3}
     a30:	5c302e34 	ldcpl	14, cr2, [r0], #-208	; 0xffffff30
     a34:	336d7473 	cmncc	sp, #1929379840	; 0x73000000
     a38:	62756332 	rsbsvs	r6, r5, #-939524096	; 0xc8000000
     a3c:	65646965 	strbvs	r6, [r4, #-2405]!	; 0xfffff69b
     a40:	756c705c 	strbvc	r7, [ip, #-92]!	; 0xffffffa4
     a44:	736e6967 	cmnvc	lr, #1687552	; 0x19c000
     a48:	6d6f635c 	stclvs	3, cr6, [pc, #-368]!	; 8e0 <_Min_Stack_Size+0x4e0>
     a4c:	2e74732e 	cdpcs	3, 7, cr7, cr4, cr14, {1}
     a50:	336d7473 	cmncc	sp, #1929379840	; 0x73000000
     a54:	62756332 	rsbsvs	r6, r5, #-939524096	; 0xc8000000
     a58:	64692e65 	strbtvs	r2, [r9], #-3685	; 0xfffff19b
     a5c:	636d2e65 	cmnvs	sp, #1616	; 0x650
     a60:	78652e75 	stmdavc	r5!, {r0, r2, r4, r5, r6, r9, sl, fp, sp}^
     a64:	6e726574 	mrcvs	5, 3, r6, cr2, cr4, {3}
     a68:	6f746c61 	svcvs	0x00746c61
     a6c:	2e736c6f 	cdpcs	12, 7, cr6, cr3, cr15, {3}
     a70:	2d756e67 	ldclcs	14, cr6, [r5, #-412]!	; 0xfffffe64
     a74:	6c6f6f74 	stclvs	15, cr6, [pc], #-464	; 8ac <_Min_Stack_Size+0x4ac>
     a78:	6f662d73 	svcvs	0x00662d73
     a7c:	74732d72 	ldrbtvc	r2, [r3], #-3442	; 0xfffff28e
     a80:	2e32336d 	cdpcs	3, 3, cr3, cr2, cr13, {3}
     a84:	30322d37 	eorscc	r2, r2, r7, lsr sp
     a88:	712d3831 			; <UNDEFINED> instruction: 0x712d3831
     a8c:	70752d32 	rsbsvc	r2, r5, r2, lsr sp
     a90:	65746164 	ldrbvs	r6, [r4, #-356]!	; 0xfffffe9c
     a94:	6e69772e 	cdpvs	7, 6, cr7, cr9, cr14, {1}
     a98:	315f3233 	cmpcc	pc, r3, lsr r2	; <UNPREDICTABLE>
     a9c:	302e342e 	eorcc	r3, lr, lr, lsr #8
     aa0:	3230322e 	eorscc	r3, r0, #-536870910	; 0xe0000002
     aa4:	30373030 	eorscc	r3, r7, r0, lsr r0
     aa8:	30323138 	eorscc	r3, r2, r8, lsr r1
     aac:	6f745c38 	svcvs	0x00745c38
     ab0:	5c736c6f 	ldclpl	12, cr6, [r3], #-444	; 0xfffffe44
     ab4:	2d6d7261 	sfmcs	f7, 2, [sp, #-388]!	; 0xfffffe7c
     ab8:	656e6f6e 	strbvs	r6, [lr, #-3950]!	; 0xfffff092
     abc:	6261652d 	rsbvs	r6, r1, #188743680	; 0xb400000
     ac0:	6e695c69 	cdpvs	12, 6, cr5, cr9, cr9, {3}
     ac4:	64756c63 	ldrbtvs	r6, [r5], #-3171	; 0xfffff39d
     ac8:	656e5c65 	strbvs	r5, [lr, #-3173]!	; 0xfffff39b
     acc:	62696c77 	rsbvs	r6, r9, #30464	; 0x7700
     ad0:	6e616e2d 	cdpvs	14, 6, cr6, cr1, cr13, {1}
     ad4:	5300006f 	movwpl	r0, #111	; 0x6f
     ad8:	32336d74 	eorscc	r6, r3, #116, 26	; 0x1d00
     adc:	3031465f 	eorscc	r4, r1, pc, asr r6
     ae0:	5f364333 	svcpl	0x00364333
     ae4:	49545845 	ldmdbmi	r4, {r0, r2, r6, fp, ip, lr}^
     ae8:	6972645f 	ldmdbvs	r2!, {r0, r1, r2, r3, r4, r6, sl, sp, lr}^
     aec:	2e726576 	mrccs	5, 3, r6, cr2, cr6, {3}
     af0:	00010063 	andeq	r0, r1, r3, rrx
     af4:	65645f00 	strbvs	r5, [r4, #-3840]!	; 0xfffff100
     af8:	6c756166 	ldfvse	f6, [r5], #-408	; 0xfffffe68
     afc:	79745f74 	ldmdbvc	r4!, {r2, r4, r5, r6, r8, r9, sl, fp, ip, lr}^
     b00:	2e736570 	mrccs	5, 3, r6, cr3, cr0, {3}
     b04:	00020068 	andeq	r0, r2, r8, rrx
     b08:	636f6c00 	cmnvs	pc, #0, 24
     b0c:	00682e6b 	rsbeq	r2, r8, fp, ror #28
     b10:	5f000003 	svcpl	0x00000003
     b14:	65707974 	ldrbvs	r7, [r0, #-2420]!	; 0xfffff68c
     b18:	00682e73 	rsbeq	r2, r8, r3, ror lr
     b1c:	73000003 	movwvc	r0, #3
     b20:	65646474 	strbvs	r6, [r4, #-1140]!	; 0xfffffb8c
     b24:	00682e66 	rsbeq	r2, r8, r6, ror #28
     b28:	72000004 	andvc	r0, r0, #4
     b2c:	746e6565 	strbtvc	r6, [lr], #-1381	; 0xfffffa9b
     b30:	0300682e 	movweq	r6, #2094	; 0x82e
     b34:	74730000 	ldrbtvc	r0, [r3], #-0
     b38:	62696c64 	rsbvs	r6, r9, #100, 24	; 0x6400
     b3c:	0500682e 	streq	r6, [r0, #-2094]	; 0xfffff7d2
     b40:	735f0000 	cmpvc	pc, #0
     b44:	6e696474 	mcrvs	4, 3, r6, cr9, cr4, {3}
     b48:	00682e74 	rsbeq	r2, r8, r4, ror lr
     b4c:	73000003 	movwvc	r0, #3
     b50:	32336d74 	eorscc	r6, r3, #116, 26	; 0x1d00
     b54:	33303166 	teqcc	r0, #-2147483623	; 0x80000019
     b58:	682e3663 	stmdavs	lr!, {r0, r1, r5, r6, r9, sl, ip, sp}
     b5c:	00000600 	andeq	r0, r0, r0, lsl #12
     b60:	336d7453 	cmncc	sp, #1392508928	; 0x53000000
     b64:	31465f32 	cmpcc	r6, r2, lsr pc
     b68:	36433330 			; <UNDEFINED> instruction: 0x36433330
     b6c:	6970675f 	ldmdbvs	r0!, {r0, r1, r2, r3, r4, r6, r8, r9, sl, sp, lr}^
     b70:	72645f6f 	rsbvc	r5, r4, #444	; 0x1bc
     b74:	72657669 	rsbvc	r7, r5, #110100480	; 0x6900000
     b78:	0600682e 	streq	r6, [r0], -lr, lsr #16
     b7c:	74530000 	ldrbvc	r0, [r3], #-0
     b80:	5f32336d 	svcpl	0x0032336d
     b84:	33303146 	teqcc	r0, #-2147483631	; 0x80000011
     b88:	455f3643 	ldrbmi	r3, [pc, #-1603]	; 54d <_Min_Stack_Size+0x14d>
     b8c:	5f495458 	svcpl	0x00495458
     b90:	76697264 	strbtvc	r7, [r9], -r4, ror #4
     b94:	682e7265 	stmdavs	lr!, {r0, r2, r5, r6, r9, ip, sp, lr}
     b98:	00000600 	andeq	r0, r0, r0, lsl #12
     b9c:	65656569 	strbvs	r6, [r5, #-1385]!	; 0xfffffa97
     ba0:	682e7066 	stmdavs	lr!, {r1, r2, r5, r6, ip, sp, lr}
     ba4:	00000200 	andeq	r0, r0, r0, lsl #4
     ba8:	736e615f 	cmnvc	lr, #-1073741801	; 0xc0000017
     bac:	00682e69 	rsbeq	r2, r8, r9, ror #28
     bb0:	6e000005 	cdpvs	0, 0, cr0, cr0, cr5, {0}
     bb4:	696c7765 	stmdbvs	ip!, {r0, r2, r5, r6, r8, r9, sl, ip, sp, lr}^
     bb8:	00682e62 	rsbeq	r2, r8, r2, ror #28
     bbc:	5f000007 	svcpl	0x00000007
     bc0:	6c77656e 	cfldr64vs	mvdx6, [r7], #-440	; 0xfffffe48
     bc4:	765f6269 	ldrbvc	r6, [pc], -r9, ror #4
     bc8:	69737265 	ldmdbvs	r3!, {r0, r2, r5, r6, r9, ip, sp, lr}^
     bcc:	682e6e6f 	stmdavs	lr!, {r0, r1, r2, r3, r5, r6, r9, sl, fp, sp, lr}
     bd0:	00000500 	andeq	r0, r0, r0, lsl #10
     bd4:	666e6f63 	strbtvs	r6, [lr], -r3, ror #30
     bd8:	682e6769 	stmdavs	lr!, {r0, r3, r5, r6, r8, r9, sl, sp, lr}
     bdc:	00000300 	andeq	r0, r0, r0, lsl #6
     be0:	74616566 	strbtvc	r6, [r1], #-1382	; 0xfffffa9a
     be4:	73657275 	cmnvc	r5, #1342177287	; 0x50000007
     be8:	0300682e 	movweq	r6, #2094	; 0x82e
     bec:	745f0000 	ldrbvc	r0, [pc], #-0	; bf4 <_Min_Stack_Size+0x7f4>
     bf0:	73657079 	cmnvc	r5, #121	; 0x79
     bf4:	0200682e 	andeq	r6, r0, #3014656	; 0x2e0000
     bf8:	64630000 	strbtvs	r0, [r3], #-0
     bfc:	2e736665 	cdpcs	6, 7, cr6, cr3, cr5, {3}
     c00:	00030068 	andeq	r0, r3, r8, rrx
     c04:	64747300 	ldrbtvs	r7, [r4], #-768	; 0xfffffd00
     c08:	2e62696c 	vnmulcs.f16	s13, s4, s25	; <UNPREDICTABLE>
     c0c:	00020068 	andeq	r0, r2, r8, rrx
     c10:	6c6c6100 	stfvse	f6, [ip], #-0
     c14:	2e61636f 	cdpcs	3, 6, cr6, cr1, cr15, {3}
     c18:	00050068 	andeq	r0, r5, r8, rrx
     c1c:	64747300 	ldrbtvs	r7, [r4], #-768	; 0xfffffd00
     c20:	2e746e69 	cdpcs	14, 7, cr6, cr4, cr9, {3}
     c24:	00040068 	andeq	r0, r4, r8, rrx
     c28:	64747300 	ldrbtvs	r7, [r4], #-768	; 0xfffffd00
     c2c:	2e746e69 	cdpcs	14, 7, cr6, cr4, cr9, {3}
     c30:	00050068 	andeq	r0, r5, r8, rrx
     c34:	6e695f00 	cdpvs	15, 6, cr5, cr9, cr0, {0}
     c38:	70757374 	rsbsvc	r7, r5, r4, ror r3
     c3c:	0300682e 	movweq	r6, #2094	; 0x82e
     c40:	00000000 	andeq	r0, r0, r0
     c44:	028c0205 	addeq	r0, ip, #1342177280	; 0x50000000
     c48:	29030800 	stmdbcs	r3, {fp}
     c4c:	27025901 	strcs	r5, [r2, -r1, lsl #18]
     c50:	67226715 			; <UNDEFINED> instruction: 0x67226715
     c54:	67226722 	strvs	r6, [r2, -r2, lsr #14]!
     c58:	67266722 	strvs	r6, [r6, -r2, lsr #14]!
     c5c:	02226727 	eoreq	r6, r2, #10223616	; 0x9c0000
     c60:	01010009 	tsteq	r1, r9
     c64:	58020500 	stmdapl	r2, {r8, sl}
     c68:	03080003 	movweq	r0, #32771	; 0x8003
     c6c:	590100cf 	stmdbpl	r1, {r0, r1, r2, r3, r6, r7}
     c70:	67152702 	ldrvs	r2, [r5, -r2, lsl #14]
     c74:	67226722 	strvs	r6, [r2, -r2, lsr #14]!
     c78:	67226722 	strvs	r6, [r2, -r2, lsr #14]!
     c7c:	67276726 	strvs	r6, [r7, -r6, lsr #14]!
     c80:	00090222 	andeq	r0, r9, r2, lsr #4
     c84:	05000101 	streq	r0, [r0, #-257]	; 0xfffffeff
     c88:	00042402 	andeq	r2, r4, r2, lsl #8
     c8c:	00f60308 	rscseq	r0, r6, r8, lsl #6
     c90:	2f3d4e01 	svccs	0x003d4e01
     c94:	08865a88 	stmeq	r6, {r3, r7, r9, fp, ip, lr}
     c98:	04020014 	streq	r0, [r2], #-20	; 0xffffffec
     c9c:	009e0601 	addseq	r0, lr, r1, lsl #12
     ca0:	58030402 	stmdapl	r3, {r1, sl}
     ca4:	05040200 	streq	r0, [r4, #-512]	; 0xfffffe00
     ca8:	04020058 	streq	r0, [r2], #-88	; 0xffffffa8
     cac:	02005807 	andeq	r5, r0, #458752	; 0x70000
     cb0:	002e0804 	eoreq	r0, lr, r4, lsl #16
     cb4:	2e060402 	cdpcs	4, 0, cr0, cr6, cr2, {0}
     cb8:	04040200 	streq	r0, [r4], #-512	; 0xfffffe00
     cbc:	0402002e 	streq	r0, [r2], #-46	; 0xffffffd2
     cc0:	02002e02 	andeq	r2, r0, #2, 28
     cc4:	00201004 	eoreq	r1, r0, r4
     cc8:	06100402 	ldreq	r0, [r0], -r2, lsl #8
     ccc:	04020098 	streq	r0, [r2], #-152	; 0xffffff68
     cd0:	0200bb10 	andeq	fp, r0, #16, 22	; 0x4000
     cd4:	4cbd1004 	ldcmi	0, cr1, [sp], #16
     cd8:	4cbb4cbb 	ldcmi	12, cr4, [fp], #748	; 0x2ec
     cdc:	ac0a03ad 	stcge	3, cr0, [sl], {173}	; 0xad
     ce0:	4c820903 			; <UNDEFINED> instruction: 0x4c820903
     ce4:	bb1b60ad 	bllt	6d8fa0 <_Min_Stack_Size+0x6d8ba0>
     ce8:	0012025c 	andseq	r0, r2, ip, asr r2
     cec:	05000101 	streq	r0, [r0, #-257]	; 0xfffffeff
     cf0:	00000002 	andeq	r0, r0, r2
     cf4:	01ca0300 	biceq	r0, sl, r0, lsl #6
     cf8:	3d3d3101 	ldfccs	f3, [sp, #-4]!
     cfc:	3d3d3d3d 	ldccc	13, cr3, [sp, #-244]!	; 0xffffff0c
     d00:	6767674d 	strbvs	r6, [r7, -sp, asr #14]!
     d04:	67676767 	strbvs	r6, [r7, -r7, ror #14]!
     d08:	01000a02 	tsteq	r0, r2, lsl #20
     d0c:	02050001 	andeq	r0, r5, #1
     d10:	080005fc 	stmdaeq	r0, {r2, r3, r4, r5, r6, r7, r8, sl}
     d14:	0101ec03 	tsteq	r1, r3, lsl #24
     d18:	04023d4b 	streq	r3, [r2], #-3403	; 0xfffff2b5
     d1c:	00010100 	andeq	r0, r1, r0, lsl #2
     d20:	00000205 	andeq	r0, r0, r5, lsl #4
     d24:	fc030000 	stc2	0, cr0, [r3], {-0}
     d28:	3d4b0101 	stfcce	f0, [fp, #-4]
     d2c:	01000402 	tsteq	r0, r2, lsl #8
     d30:	02050001 	andeq	r0, r5, #1
     d34:	08000614 	stmdaeq	r0, {r2, r4, r9, sl}
     d38:	01028a03 	tsteq	r2, r3, lsl #20
     d3c:	023e6931 	eorseq	r6, lr, #802816	; 0xc4000
     d40:	01010007 	tsteq	r1, r7
     d44:	38020500 	stmdacc	r2, {r8, sl}
     d48:	03080006 	movweq	r0, #32774	; 0x8006
     d4c:	30010296 	mulcc	r1, r6, r2
     d50:	07023d69 	streq	r3, [r2, -r9, ror #26]
     d54:	00010100 	andeq	r0, r1, r0, lsl #2
     d58:	065c0205 	ldrbeq	r0, [ip], -r5, lsl #4
     d5c:	a0030800 	andge	r0, r3, r0, lsl #16
     d60:	69300102 	ldmdbvs	r0!, {r1, r8}
     d64:	0007023d 	andeq	r0, r7, sp, lsr r2
     d68:	05000101 	streq	r0, [r0, #-257]	; 0xfffffeff
     d6c:	00068002 	andeq	r8, r6, r2
     d70:	02ab0308 	adceq	r0, fp, #8, 6	; 0x20000000
     d74:	3d693001 	stclcc	0, cr3, [r9, #-4]!
     d78:	01000702 	tsteq	r0, r2, lsl #14
     d7c:	02050001 	andeq	r0, r5, #1
     d80:	080006a4 	stmdaeq	r0, {r2, r5, r7, r9, sl}
     d84:	0102b603 	tsteq	r2, r3, lsl #12
     d88:	023d6930 	eorseq	r6, sp, #48, 18	; 0xc0000
     d8c:	01010007 	tsteq	r1, r7
     d90:	c8020500 	stmdagt	r2, {r8, sl}
     d94:	03080006 	movweq	r0, #32774	; 0x8006
     d98:	300102c1 	andcc	r0, r1, r1, asr #5
     d9c:	01040200 	mrseq	r0, R12_usr
     da0:	91066606 	tstls	r6, r6, lsl #12
     da4:	01040200 	mrseq	r0, R12_usr
     da8:	91066606 	tstls	r6, r6, lsl #12
     dac:	01040200 	mrseq	r0, R12_usr
     db0:	91066606 	tstls	r6, r6, lsl #12
     db4:	01040200 	mrseq	r0, R12_usr
     db8:	91066606 	tstls	r6, r6, lsl #12
     dbc:	01040200 	mrseq	r0, R12_usr
     dc0:	91066606 	tstls	r6, r6, lsl #12
     dc4:	01000702 	tsteq	r0, r2, lsl #14
     dc8:	02050001 	andeq	r0, r5, #1
     dcc:	08000770 	stmdaeq	r0, {r4, r5, r6, r8, r9, sl}
     dd0:	0102cd03 	tsteq	r2, r3, lsl #26
     dd4:	04020030 	streq	r0, [r2], #-48	; 0xffffffd0
     dd8:	06660601 	strbteq	r0, [r6], -r1, lsl #12
     ddc:	04020091 	streq	r0, [r2], #-145	; 0xffffff6f
     de0:	06660601 	strbteq	r0, [r6], -r1, lsl #12
     de4:	04020091 	streq	r0, [r2], #-145	; 0xffffff6f
     de8:	06660601 	strbteq	r0, [r6], -r1, lsl #12
     dec:	04020091 	streq	r0, [r2], #-145	; 0xffffff6f
     df0:	06660601 	strbteq	r0, [r6], -r1, lsl #12
     df4:	04020091 	streq	r0, [r2], #-145	; 0xffffff6f
     df8:	06660601 	strbteq	r0, [r6], -r1, lsl #12
     dfc:	04020091 	streq	r0, [r2], #-145	; 0xffffff6f
     e00:	06660601 	strbteq	r0, [r6], -r1, lsl #12
     e04:	00060291 	muleq	r6, r1, r2
     e08:	06900101 	ldreq	r0, [r0], r1, lsl #2
     e0c:	00020000 	andeq	r0, r2, r0
     e10:	00000564 	andeq	r0, r0, r4, ror #10
     e14:	0efb0102 	cdpeq	1, 15, cr0, cr11, cr2, {0}
     e18:	0101000d 	tsteq	r1, sp
     e1c:	00000101 	andeq	r0, r0, r1, lsl #2
     e20:	00000100 	andeq	r0, r0, r0, lsl #2
     e24:	2f2e2e01 	svccs	0x002e2e01
     e28:	336d7453 	cmncc	sp, #1392508928	; 0x53000000
     e2c:	31465f32 	cmpcc	r6, r2, lsr pc
     e30:	36433330 			; <UNDEFINED> instruction: 0x36433330
     e34:	6972445f 	ldmdbvs	r2!, {r0, r1, r2, r3, r4, r6, sl, lr}^
     e38:	73726576 	cmnvc	r2, #494927872	; 0x1d800000
     e3c:	4950472f 	ldmdbmi	r0, {r0, r1, r2, r3, r5, r8, r9, sl, lr}^
     e40:	3a63004f 	bcc	18c0f84 <_Min_Stack_Size+0x18c0b84>
     e44:	5c74735c 	ldclpl	3, cr7, [r4], #-368	; 0xfffffe90
     e48:	336d7473 	cmncc	sp, #1929379840	; 0x73000000
     e4c:	62756332 	rsbsvs	r6, r5, #-939524096	; 0xc8000000
     e50:	65646965 	strbvs	r6, [r4, #-2405]!	; 0xfffff69b
     e54:	342e315f 	strtcc	r3, [lr], #-351	; 0xfffffea1
     e58:	735c302e 	cmpvc	ip, #46	; 0x2e
     e5c:	32336d74 	eorscc	r6, r3, #116, 26	; 0x1d00
     e60:	65627563 	strbvs	r7, [r2, #-1379]!	; 0xfffffa9d
     e64:	5c656469 	cfstrdpl	mvd6, [r5], #-420	; 0xfffffe5c
     e68:	67756c70 			; <UNDEFINED> instruction: 0x67756c70
     e6c:	5c736e69 	ldclpl	14, cr6, [r3], #-420	; 0xfffffe5c
     e70:	2e6d6f63 	cdpcs	15, 6, cr6, cr13, cr3, {3}
     e74:	732e7473 			; <UNDEFINED> instruction: 0x732e7473
     e78:	32336d74 	eorscc	r6, r3, #116, 26	; 0x1d00
     e7c:	65627563 	strbvs	r7, [r2, #-1379]!	; 0xfffffa9d
     e80:	6564692e 	strbvs	r6, [r4, #-2350]!	; 0xfffff6d2
     e84:	75636d2e 	strbvc	r6, [r3, #-3374]!	; 0xfffff2d2
     e88:	7478652e 	ldrbtvc	r6, [r8], #-1326	; 0xfffffad2
     e8c:	616e7265 	cmnvs	lr, r5, ror #4
     e90:	6f6f746c 	svcvs	0x006f746c
     e94:	672e736c 	strvs	r7, [lr, -ip, ror #6]!
     e98:	742d756e 	strtvc	r7, [sp], #-1390	; 0xfffffa92
     e9c:	736c6f6f 	cmnvc	ip, #444	; 0x1bc
     ea0:	726f662d 	rsbvc	r6, pc, #47185920	; 0x2d00000
     ea4:	6d74732d 	ldclvs	3, cr7, [r4, #-180]!	; 0xffffff4c
     ea8:	372e3233 			; <UNDEFINED> instruction: 0x372e3233
     eac:	3130322d 	teqcc	r0, sp, lsr #4
     eb0:	32712d38 	rsbscc	r2, r1, #56, 26	; 0xe00
     eb4:	6470752d 	ldrbtvs	r7, [r0], #-1325	; 0xfffffad3
     eb8:	2e657461 	cdpcs	4, 6, cr7, cr5, cr1, {3}
     ebc:	336e6977 	cmncc	lr, #1949696	; 0x1dc000
     ec0:	2e315f32 	mrccs	15, 1, r5, cr1, cr2, {1}
     ec4:	2e302e34 	mrccs	14, 1, r2, cr0, cr4, {1}
     ec8:	30323032 	eorscc	r3, r2, r2, lsr r0
     ecc:	38303730 	ldmdacc	r0!, {r4, r5, r8, r9, sl, ip, sp}
     ed0:	38303231 	ldmdacc	r0!, {r0, r4, r5, r9, ip, sp}
     ed4:	6f6f745c 	svcvs	0x006f745c
     ed8:	615c736c 	cmpvs	ip, ip, ror #6
     edc:	6e2d6d72 	mcrvs	13, 1, r6, cr13, cr2, {3}
     ee0:	2d656e6f 	stclcs	14, cr6, [r5, #-444]!	; 0xfffffe44
     ee4:	69626165 	stmdbvs	r2!, {r0, r2, r5, r6, r8, sp, lr}^
     ee8:	636e695c 	cmnvs	lr, #92, 18	; 0x170000
     eec:	6564756c 	strbvs	r7, [r4, #-1388]!	; 0xfffffa94
     ef0:	63616d5c 	cmnvs	r1, #92, 26	; 0x1700
     ef4:	656e6968 	strbvs	r6, [lr, #-2408]!	; 0xfffff698
     ef8:	5c3a6300 	ldcpl	3, cr6, [sl], #-0
     efc:	735c7473 	cmpvc	ip, #1929379840	; 0x73000000
     f00:	32336d74 	eorscc	r6, r3, #116, 26	; 0x1d00
     f04:	65627563 	strbvs	r7, [r2, #-1379]!	; 0xfffffa9d
     f08:	5f656469 	svcpl	0x00656469
     f0c:	2e342e31 	mrccs	14, 1, r2, cr4, cr1, {1}
     f10:	74735c30 	ldrbtvc	r5, [r3], #-3120	; 0xfffff3d0
     f14:	6332336d 	teqvs	r2, #-1275068415	; 0xb4000001
     f18:	69656275 	stmdbvs	r5!, {r0, r2, r4, r5, r6, r9, sp, lr}^
     f1c:	705c6564 	subsvc	r6, ip, r4, ror #10
     f20:	6967756c 	stmdbvs	r7!, {r2, r3, r5, r6, r8, sl, ip, sp, lr}^
     f24:	635c736e 	cmpvs	ip, #-1207959551	; 0xb8000001
     f28:	732e6d6f 			; <UNDEFINED> instruction: 0x732e6d6f
     f2c:	74732e74 	ldrbtvc	r2, [r3], #-3700	; 0xfffff18c
     f30:	6332336d 	teqvs	r2, #-1275068415	; 0xb4000001
     f34:	2e656275 	mcrcs	2, 3, r6, cr5, cr5, {3}
     f38:	2e656469 	cdpcs	4, 6, cr6, cr5, cr9, {3}
     f3c:	2e75636d 	cdpcs	3, 7, cr6, cr5, cr13, {3}
     f40:	65747865 	ldrbvs	r7, [r4, #-2149]!	; 0xfffff79b
     f44:	6c616e72 	stclvs	14, cr6, [r1], #-456	; 0xfffffe38
     f48:	6c6f6f74 	stclvs	15, cr6, [pc], #-464	; d80 <_Min_Stack_Size+0x980>
     f4c:	6e672e73 	mcrvs	14, 3, r2, cr7, cr3, {3}
     f50:	6f742d75 	svcvs	0x00742d75
     f54:	2d736c6f 	ldclcs	12, cr6, [r3, #-444]!	; 0xfffffe44
     f58:	2d726f66 	ldclcs	15, cr6, [r2, #-408]!	; 0xfffffe68
     f5c:	336d7473 	cmncc	sp, #1929379840	; 0x73000000
     f60:	2d372e32 	ldccs	14, cr2, [r7, #-200]!	; 0xffffff38
     f64:	38313032 	ldmdacc	r1!, {r1, r4, r5, ip, sp}
     f68:	2d32712d 	ldfcss	f7, [r2, #-180]!	; 0xffffff4c
     f6c:	61647075 	smcvs	18181	; 0x4705
     f70:	772e6574 			; <UNDEFINED> instruction: 0x772e6574
     f74:	32336e69 	eorscc	r6, r3, #1680	; 0x690
     f78:	342e315f 	strtcc	r3, [lr], #-351	; 0xfffffea1
     f7c:	322e302e 	eorcc	r3, lr, #46	; 0x2e
     f80:	30303230 	eorscc	r3, r0, r0, lsr r2
     f84:	31383037 	teqcc	r8, r7, lsr r0
     f88:	5c383032 	ldcpl	0, cr3, [r8], #-200	; 0xffffff38
     f8c:	6c6f6f74 	stclvs	15, cr6, [pc], #-464	; dc4 <_Min_Stack_Size+0x9c4>
     f90:	72615c73 	rsbvc	r5, r1, #29440	; 0x7300
     f94:	6f6e2d6d 	svcvs	0x006e2d6d
     f98:	652d656e 	strvs	r6, [sp, #-1390]!	; 0xfffffa92
     f9c:	5c696261 	sfmpl	f6, 2, [r9], #-388	; 0xfffffe7c
     fa0:	6c636e69 	stclvs	14, cr6, [r3], #-420	; 0xfffffe5c
     fa4:	5c656475 	cfstrdpl	mvd6, [r5], #-468	; 0xfffffe2c
     fa8:	00737973 	rsbseq	r7, r3, r3, ror r9
     fac:	735c3a63 	cmpvc	ip, #405504	; 0x63000
     fb0:	74735c74 	ldrbtvc	r5, [r3], #-3188	; 0xfffff38c
     fb4:	6332336d 	teqvs	r2, #-1275068415	; 0xb4000001
     fb8:	69656275 	stmdbvs	r5!, {r0, r2, r4, r5, r6, r9, sp, lr}^
     fbc:	315f6564 	cmpcc	pc, r4, ror #10
     fc0:	302e342e 	eorcc	r3, lr, lr, lsr #8
     fc4:	6d74735c 	ldclvs	3, cr7, [r4, #-368]!	; 0xfffffe90
     fc8:	75633233 	strbvc	r3, [r3, #-563]!	; 0xfffffdcd
     fcc:	64696562 	strbtvs	r6, [r9], #-1378	; 0xfffffa9e
     fd0:	6c705c65 	ldclvs	12, cr5, [r0], #-404	; 0xfffffe6c
     fd4:	6e696775 	mcrvs	7, 3, r6, cr9, cr5, {3}
     fd8:	6f635c73 	svcvs	0x00635c73
     fdc:	74732e6d 	ldrbtvc	r2, [r3], #-3693	; 0xfffff193
     fe0:	6d74732e 	ldclvs	3, cr7, [r4, #-184]!	; 0xffffff48
     fe4:	75633233 	strbvc	r3, [r3, #-563]!	; 0xfffffdcd
     fe8:	692e6562 	stmdbvs	lr!, {r1, r5, r6, r8, sl, sp, lr}
     fec:	6d2e6564 	cfstr32vs	mvfx6, [lr, #-400]!	; 0xfffffe70
     ff0:	652e7563 	strvs	r7, [lr, #-1379]!	; 0xfffffa9d
     ff4:	72657478 	rsbvc	r7, r5, #120, 8	; 0x78000000
     ff8:	746c616e 	strbtvc	r6, [ip], #-366	; 0xfffffe92
     ffc:	736c6f6f 	cmnvc	ip, #444	; 0x1bc
    1000:	756e672e 	strbvc	r6, [lr, #-1838]!	; 0xfffff8d2
    1004:	6f6f742d 	svcvs	0x006f742d
    1008:	662d736c 	strtvs	r7, [sp], -ip, ror #6
    100c:	732d726f 			; <UNDEFINED> instruction: 0x732d726f
    1010:	32336d74 	eorscc	r6, r3, #116, 26	; 0x1d00
    1014:	322d372e 	eorcc	r3, sp, #12058624	; 0xb80000
    1018:	2d383130 	ldfcss	f3, [r8, #-192]!	; 0xffffff40
    101c:	752d3271 	strvc	r3, [sp, #-625]!	; 0xfffffd8f
    1020:	74616470 	strbtvc	r6, [r1], #-1136	; 0xfffffb90
    1024:	69772e65 	ldmdbvs	r7!, {r0, r2, r5, r6, r9, sl, fp, sp}^
    1028:	5f32336e 	svcpl	0x0032336e
    102c:	2e342e31 	mrccs	14, 1, r2, cr4, cr1, {1}
    1030:	30322e30 	eorscc	r2, r2, r0, lsr lr
    1034:	37303032 			; <UNDEFINED> instruction: 0x37303032
    1038:	32313830 	eorscc	r3, r1, #48, 16	; 0x300000
    103c:	745c3830 	ldrbvc	r3, [ip], #-2096	; 0xfffff7d0
    1040:	736c6f6f 	cmnvc	ip, #444	; 0x1bc
    1044:	62696c5c 	rsbvs	r6, r9, #92, 24	; 0x5c00
    1048:	6363675c 	cmnvs	r3, #92, 14	; 0x1700000
    104c:	6d72615c 	ldfvse	f6, [r2, #-368]!	; 0xfffffe90
    1050:	6e6f6e2d 	cdpvs	14, 6, cr6, cr15, cr13, {1}
    1054:	61652d65 	cmnvs	r5, r5, ror #26
    1058:	375c6962 	ldrbcc	r6, [ip, -r2, ror #18]
    105c:	312e332e 			; <UNDEFINED> instruction: 0x312e332e
    1060:	636e695c 	cmnvs	lr, #92, 18	; 0x170000
    1064:	6564756c 	strbvs	r7, [r4, #-1388]!	; 0xfffffa94
    1068:	5c3a6300 	ldcpl	3, cr6, [sl], #-0
    106c:	735c7473 	cmpvc	ip, #1929379840	; 0x73000000
    1070:	32336d74 	eorscc	r6, r3, #116, 26	; 0x1d00
    1074:	65627563 	strbvs	r7, [r2, #-1379]!	; 0xfffffa9d
    1078:	5f656469 	svcpl	0x00656469
    107c:	2e342e31 	mrccs	14, 1, r2, cr4, cr1, {1}
    1080:	74735c30 	ldrbtvc	r5, [r3], #-3120	; 0xfffff3d0
    1084:	6332336d 	teqvs	r2, #-1275068415	; 0xb4000001
    1088:	69656275 	stmdbvs	r5!, {r0, r2, r4, r5, r6, r9, sp, lr}^
    108c:	705c6564 	subsvc	r6, ip, r4, ror #10
    1090:	6967756c 	stmdbvs	r7!, {r2, r3, r5, r6, r8, sl, ip, sp, lr}^
    1094:	635c736e 	cmpvs	ip, #-1207959551	; 0xb8000001
    1098:	732e6d6f 			; <UNDEFINED> instruction: 0x732e6d6f
    109c:	74732e74 	ldrbtvc	r2, [r3], #-3700	; 0xfffff18c
    10a0:	6332336d 	teqvs	r2, #-1275068415	; 0xb4000001
    10a4:	2e656275 	mcrcs	2, 3, r6, cr5, cr5, {3}
    10a8:	2e656469 	cdpcs	4, 6, cr6, cr5, cr9, {3}
    10ac:	2e75636d 	cdpcs	3, 7, cr6, cr5, cr13, {3}
    10b0:	65747865 	ldrbvs	r7, [r4, #-2149]!	; 0xfffff79b
    10b4:	6c616e72 	stclvs	14, cr6, [r1], #-456	; 0xfffffe38
    10b8:	6c6f6f74 	stclvs	15, cr6, [pc], #-464	; ef0 <_Min_Stack_Size+0xaf0>
    10bc:	6e672e73 	mcrvs	14, 3, r2, cr7, cr3, {3}
    10c0:	6f742d75 	svcvs	0x00742d75
    10c4:	2d736c6f 	ldclcs	12, cr6, [r3, #-444]!	; 0xfffffe44
    10c8:	2d726f66 	ldclcs	15, cr6, [r2, #-408]!	; 0xfffffe68
    10cc:	336d7473 	cmncc	sp, #1929379840	; 0x73000000
    10d0:	2d372e32 	ldccs	14, cr2, [r7, #-200]!	; 0xffffff38
    10d4:	38313032 	ldmdacc	r1!, {r1, r4, r5, ip, sp}
    10d8:	2d32712d 	ldfcss	f7, [r2, #-180]!	; 0xffffff4c
    10dc:	61647075 	smcvs	18181	; 0x4705
    10e0:	772e6574 			; <UNDEFINED> instruction: 0x772e6574
    10e4:	32336e69 	eorscc	r6, r3, #1680	; 0x690
    10e8:	342e315f 	strtcc	r3, [lr], #-351	; 0xfffffea1
    10ec:	322e302e 	eorcc	r3, lr, #46	; 0x2e
    10f0:	30303230 	eorscc	r3, r0, r0, lsr r2
    10f4:	31383037 	teqcc	r8, r7, lsr r0
    10f8:	5c383032 	ldcpl	0, cr3, [r8], #-200	; 0xffffff38
    10fc:	6c6f6f74 	stclvs	15, cr6, [pc], #-464	; f34 <_Min_Stack_Size+0xb34>
    1100:	72615c73 	rsbvc	r5, r1, #29440	; 0x7300
    1104:	6f6e2d6d 	svcvs	0x006e2d6d
    1108:	652d656e 	strvs	r6, [sp, #-1390]!	; 0xfffffa92
    110c:	5c696261 	sfmpl	f6, 2, [r9], #-388	; 0xfffffe7c
    1110:	6c636e69 	stclvs	14, cr6, [r3], #-420	; 0xfffffe5c
    1114:	00656475 	rsbeq	r6, r5, r5, ror r4
    1118:	552f3a43 	strpl	r3, [pc, #-2627]!	; 6dd <_Min_Stack_Size+0x2dd>
    111c:	73726573 	cmnvc	r2, #482344960	; 0x1cc00000
    1120:	6462412f 	strbtvs	r4, [r2], #-303	; 0xfffffed1
    1124:	616c6c61 	cmnvs	ip, r1, ror #24
    1128:	54532f68 	ldrbpl	r2, [r3], #-3944	; 0xfffff098
    112c:	4332334d 	teqmi	r2, #872415233	; 0x34000001
    1130:	49656275 	stmdbmi	r5!, {r0, r2, r4, r5, r6, r9, sp, lr}^
    1134:	772f4544 	strvc	r4, [pc, -r4, asr #10]!
    1138:	736b726f 	cmnvc	fp, #-268435450	; 0xf0000006
    113c:	65636170 	strbvs	r6, [r3, #-368]!	; 0xfffffe90
    1140:	342e315f 	strtcc	r3, [lr], #-351	; 0xfffffea1
    1144:	442f302e 	strtmi	r3, [pc], #-46	; 114c <_Min_Stack_Size+0xd4c>
    1148:	65766972 	ldrbvs	r6, [r6, #-2418]!	; 0xfffff68e
    114c:	5f327372 	svcpl	0x00327372
    1150:	49545845 	ldmdbmi	r4, {r0, r2, r6, fp, ip, lr}^
    1154:	6d74532f 	ldclvs	3, cr5, [r4, #-188]!	; 0xffffff44
    1158:	465f3233 			; <UNDEFINED> instruction: 0x465f3233
    115c:	43333031 	teqmi	r3, #49	; 0x31
    1160:	72445f36 	subvc	r5, r4, #54, 30	; 0xd8
    1164:	72657669 	rsbvc	r7, r5, #110100480	; 0x6900000
    1168:	6e692f73 	mcrvs	15, 3, r2, cr9, cr3, {3}
    116c:	3a630063 	bcc	18c1300 <_Min_Stack_Size+0x18c0f00>
    1170:	5c74735c 	ldclpl	3, cr7, [r4], #-368	; 0xfffffe90
    1174:	336d7473 	cmncc	sp, #1929379840	; 0x73000000
    1178:	62756332 	rsbsvs	r6, r5, #-939524096	; 0xc8000000
    117c:	65646965 	strbvs	r6, [r4, #-2405]!	; 0xfffff69b
    1180:	342e315f 	strtcc	r3, [lr], #-351	; 0xfffffea1
    1184:	735c302e 	cmpvc	ip, #46	; 0x2e
    1188:	32336d74 	eorscc	r6, r3, #116, 26	; 0x1d00
    118c:	65627563 	strbvs	r7, [r2, #-1379]!	; 0xfffffa9d
    1190:	5c656469 	cfstrdpl	mvd6, [r5], #-420	; 0xfffffe5c
    1194:	67756c70 			; <UNDEFINED> instruction: 0x67756c70
    1198:	5c736e69 	ldclpl	14, cr6, [r3], #-420	; 0xfffffe5c
    119c:	2e6d6f63 	cdpcs	15, 6, cr6, cr13, cr3, {3}
    11a0:	732e7473 			; <UNDEFINED> instruction: 0x732e7473
    11a4:	32336d74 	eorscc	r6, r3, #116, 26	; 0x1d00
    11a8:	65627563 	strbvs	r7, [r2, #-1379]!	; 0xfffffa9d
    11ac:	6564692e 	strbvs	r6, [r4, #-2350]!	; 0xfffff6d2
    11b0:	75636d2e 	strbvc	r6, [r3, #-3374]!	; 0xfffff2d2
    11b4:	7478652e 	ldrbtvc	r6, [r8], #-1326	; 0xfffffad2
    11b8:	616e7265 	cmnvs	lr, r5, ror #4
    11bc:	6f6f746c 	svcvs	0x006f746c
    11c0:	672e736c 	strvs	r7, [lr, -ip, ror #6]!
    11c4:	742d756e 	strtvc	r7, [sp], #-1390	; 0xfffffa92
    11c8:	736c6f6f 	cmnvc	ip, #444	; 0x1bc
    11cc:	726f662d 	rsbvc	r6, pc, #47185920	; 0x2d00000
    11d0:	6d74732d 	ldclvs	3, cr7, [r4, #-180]!	; 0xffffff4c
    11d4:	372e3233 			; <UNDEFINED> instruction: 0x372e3233
    11d8:	3130322d 	teqcc	r0, sp, lsr #4
    11dc:	32712d38 	rsbscc	r2, r1, #56, 26	; 0xe00
    11e0:	6470752d 	ldrbtvs	r7, [r0], #-1325	; 0xfffffad3
    11e4:	2e657461 	cdpcs	4, 6, cr7, cr5, cr1, {3}
    11e8:	336e6977 	cmncc	lr, #1949696	; 0x1dc000
    11ec:	2e315f32 	mrccs	15, 1, r5, cr1, cr2, {1}
    11f0:	2e302e34 	mrccs	14, 1, r2, cr0, cr4, {1}
    11f4:	30323032 	eorscc	r3, r2, r2, lsr r0
    11f8:	38303730 	ldmdacc	r0!, {r4, r5, r8, r9, sl, ip, sp}
    11fc:	38303231 	ldmdacc	r0!, {r0, r4, r5, r9, ip, sp}
    1200:	6f6f745c 	svcvs	0x006f745c
    1204:	615c736c 	cmpvs	ip, ip, ror #6
    1208:	6e2d6d72 	mcrvs	13, 1, r6, cr13, cr2, {3}
    120c:	2d656e6f 	stclcs	14, cr6, [r5, #-444]!	; 0xfffffe44
    1210:	69626165 	stmdbvs	r2!, {r0, r2, r5, r6, r8, sp, lr}^
    1214:	636e695c 	cmnvs	lr, #92, 18	; 0x170000
    1218:	6564756c 	strbvs	r7, [r4, #-1388]!	; 0xfffffa94
    121c:	77656e5c 			; <UNDEFINED> instruction: 0x77656e5c
    1220:	2d62696c 			; <UNDEFINED> instruction: 0x2d62696c
    1224:	6f6e616e 	svcvs	0x006e616e
    1228:	74530000 	ldrbvc	r0, [r3], #-0
    122c:	5f32336d 	svcpl	0x0032336d
    1230:	33303146 	teqcc	r0, #-2147483631	; 0x80000011
    1234:	675f3643 	ldrbvs	r3, [pc, -r3, asr #12]
    1238:	5f6f6970 	svcpl	0x006f6970
    123c:	76697264 	strbtvc	r7, [r9], -r4, ror #4
    1240:	632e7265 			; <UNDEFINED> instruction: 0x632e7265
    1244:	00000100 	andeq	r0, r0, r0, lsl #2
    1248:	6665645f 			; <UNDEFINED> instruction: 0x6665645f
    124c:	746c7561 	strbtvc	r7, [ip], #-1377	; 0xfffffa9f
    1250:	7079745f 	rsbsvc	r7, r9, pc, asr r4
    1254:	682e7365 	stmdavs	lr!, {r0, r2, r5, r6, r8, r9, ip, sp, lr}
    1258:	00000200 	andeq	r0, r0, r0, lsl #4
    125c:	6b636f6c 	blvs	18dd014 <_Min_Stack_Size+0x18dcc14>
    1260:	0300682e 	movweq	r6, #2094	; 0x82e
    1264:	745f0000 	ldrbvc	r0, [pc], #-0	; 126c <_Min_Stack_Size+0xe6c>
    1268:	73657079 	cmnvc	r5, #121	; 0x79
    126c:	0300682e 	movweq	r6, #2094	; 0x82e
    1270:	74730000 	ldrbtvc	r0, [r3], #-0
    1274:	66656464 	strbtvs	r6, [r5], -r4, ror #8
    1278:	0400682e 	streq	r6, [r0], #-2094	; 0xfffff7d2
    127c:	65720000 	ldrbvs	r0, [r2, #-0]!
    1280:	2e746e65 	cdpcs	14, 7, cr6, cr4, cr5, {3}
    1284:	00030068 	andeq	r0, r3, r8, rrx
    1288:	64747300 	ldrbtvs	r7, [r4], #-768	; 0xfffffd00
    128c:	2e62696c 	vnmulcs.f16	s13, s4, s25	; <UNPREDICTABLE>
    1290:	00050068 	andeq	r0, r5, r8, rrx
    1294:	74735f00 	ldrbtvc	r5, [r3], #-3840	; 0xfffff100
    1298:	746e6964 	strbtvc	r6, [lr], #-2404	; 0xfffff69c
    129c:	0300682e 	movweq	r6, #2094	; 0x82e
    12a0:	74730000 	ldrbtvc	r0, [r3], #-0
    12a4:	6632336d 	ldrtvs	r3, [r2], -sp, ror #6
    12a8:	63333031 	teqvs	r3, #49	; 0x31
    12ac:	00682e36 	rsbeq	r2, r8, r6, lsr lr
    12b0:	53000006 	movwpl	r0, #6
    12b4:	32336d74 	eorscc	r6, r3, #116, 26	; 0x1d00
    12b8:	3031465f 	eorscc	r4, r1, pc, asr r6
    12bc:	5f364333 	svcpl	0x00364333
    12c0:	6f697067 	svcvs	0x00697067
    12c4:	6972645f 	ldmdbvs	r2!, {r0, r1, r2, r3, r4, r6, sl, sp, lr}^
    12c8:	2e726576 	mrccs	5, 3, r6, cr2, cr6, {3}
    12cc:	00060068 	andeq	r0, r6, r8, rrx
    12d0:	65656900 	strbvs	r6, [r5, #-2304]!	; 0xfffff700
    12d4:	2e706665 	cdpcs	6, 7, cr6, cr0, cr5, {3}
    12d8:	00020068 	andeq	r0, r2, r8, rrx
    12dc:	6e615f00 	cdpvs	15, 6, cr5, cr1, cr0, {0}
    12e0:	682e6973 	stmdavs	lr!, {r0, r1, r4, r5, r6, r8, fp, sp, lr}
    12e4:	00000500 	andeq	r0, r0, r0, lsl #10
    12e8:	6c77656e 	cfldr64vs	mvdx6, [r7], #-440	; 0xfffffe48
    12ec:	682e6269 	stmdavs	lr!, {r0, r3, r5, r6, r9, sp, lr}
    12f0:	00000700 	andeq	r0, r0, r0, lsl #14
    12f4:	77656e5f 			; <UNDEFINED> instruction: 0x77656e5f
    12f8:	5f62696c 	svcpl	0x0062696c
    12fc:	73726576 	cmnvc	r2, #494927872	; 0x1d800000
    1300:	2e6e6f69 	cdpcs	15, 6, cr6, cr14, cr9, {3}
    1304:	00050068 	andeq	r0, r5, r8, rrx
    1308:	6e6f6300 	cdpvs	3, 6, cr6, cr15, cr0, {0}
    130c:	2e676966 	vnmulcs.f16	s13, s14, s13	; <UNPREDICTABLE>
    1310:	00030068 	andeq	r0, r3, r8, rrx
    1314:	61656600 	cmnvs	r5, r0, lsl #12
    1318:	65727574 	ldrbvs	r7, [r2, #-1396]!	; 0xfffffa8c
    131c:	00682e73 	rsbeq	r2, r8, r3, ror lr
    1320:	5f000003 	svcpl	0x00000003
    1324:	65707974 	ldrbvs	r7, [r0, #-2420]!	; 0xfffff68c
    1328:	00682e73 	rsbeq	r2, r8, r3, ror lr
    132c:	63000002 	movwvs	r0, #2
    1330:	73666564 	cmnvc	r6, #100, 10	; 0x19000000
    1334:	0300682e 	movweq	r6, #2094	; 0x82e
    1338:	74730000 	ldrbtvc	r0, [r3], #-0
    133c:	62696c64 	rsbvs	r6, r9, #100, 24	; 0x6400
    1340:	0200682e 	andeq	r6, r0, #3014656	; 0x2e0000
    1344:	6c610000 	stclvs	0, cr0, [r1], #-0
    1348:	61636f6c 	cmnvs	r3, ip, ror #30
    134c:	0500682e 	streq	r6, [r0, #-2094]	; 0xfffff7d2
    1350:	74730000 	ldrbtvc	r0, [r3], #-0
    1354:	746e6964 	strbtvc	r6, [lr], #-2404	; 0xfffff69c
    1358:	0400682e 	streq	r6, [r0], #-2094	; 0xfffff7d2
    135c:	74730000 	ldrbtvc	r0, [r3], #-0
    1360:	746e6964 	strbtvc	r6, [lr], #-2404	; 0xfffff69c
    1364:	0500682e 	streq	r6, [r0, #-2094]	; 0xfffff7d2
    1368:	695f0000 	ldmdbvs	pc, {}^	; <UNPREDICTABLE>
    136c:	7573746e 	ldrbvc	r7, [r3, #-1134]!	; 0xfffffb92
    1370:	00682e70 	rsbeq	r2, r8, r0, ror lr
    1374:	00000003 	andeq	r0, r0, r3
    1378:	34020500 	strcc	r0, [r2], #-1280	; 0xfffffb00
    137c:	03080008 	movweq	r0, #32776	; 0x8008
    1380:	0259010d 	subseq	r0, r9, #1073741827	; 0x40000003
    1384:	31311538 	teqcc	r1, r8, lsr r5
    1388:	31313131 	teqcc	r1, r1, lsr r1
    138c:	31313131 	teqcc	r1, r1, lsr r1
    1390:	31313131 	teqcc	r1, r1, lsr r1
    1394:	02213131 	eoreq	r3, r1, #1073741836	; 0x4000000c
    1398:	01010005 	tsteq	r1, r5
    139c:	fa020500 	blx	827a4 <_Min_Stack_Size+0x823a4>
    13a0:	03080008 	movweq	r0, #32776	; 0x8008
    13a4:	5c0100d4 	stcpl	0, cr0, [r1], {212}	; 0xd4
    13a8:	02002f2f 	andeq	r2, r0, #47, 30	; 0xbc
    13ac:	4a060104 	bmi	1817c4 <_Min_Stack_Size+0x1813c4>
    13b0:	02040200 	andeq	r0, r4, #0, 4
    13b4:	0402002e 	streq	r0, [r2], #-46	; 0xffffffd2
    13b8:	02002e04 	andeq	r2, r0, #4, 28	; 0x40
    13bc:	22060404 	andcs	r0, r6, #4, 8	; 0x4000000
    13c0:	04040200 	streq	r0, [r4], #-512	; 0xfffffe00
    13c4:	040200e7 	streq	r0, [r2], #-231	; 0xffffff19
    13c8:	004a0601 	subeq	r0, sl, r1, lsl #12
    13cc:	4a020402 	bmi	823dc <_Min_Stack_Size+0x81fdc>
    13d0:	03040200 	movweq	r0, #16896	; 0x4200
    13d4:	ea50064a 	b	1402d04 <_Min_Stack_Size+0x1402904>
    13d8:	01040200 	mrseq	r0, R12_usr
    13dc:	4d064a06 	vstrmi	s8, [r6, #-24]	; 0xffffffe8
    13e0:	2f404e83 	svccs	0x00404e83
    13e4:	d988864d 	stmible	r8, {r0, r2, r3, r6, r9, sl, pc}
    13e8:	01000402 	tsteq	r0, r2, lsl #8
    13ec:	02050001 	andeq	r0, r5, #1
    13f0:	00000000 	andeq	r0, r0, r0
    13f4:	01019603 	tsteq	r1, r3, lsl #12
    13f8:	4b4a0e03 	blmi	1284c0c <_Min_Stack_Size+0x128480c>
    13fc:	660e0367 	strvs	r0, [lr], -r7, ror #6
    1400:	4b207303 	blmi	81e014 <_Min_Stack_Size+0x81dc14>
    1404:	660b0367 	strvs	r0, [fp], -r7, ror #6
    1408:	4b207603 	blmi	81ec1c <_Min_Stack_Size+0x81e81c>
    140c:	79036e67 	stmdbvc	r3, {r0, r1, r2, r5, r6, r9, sl, fp, sp, lr}
    1410:	6b674b20 	blvs	19d4098 <_Min_Stack_Size+0x19d3c98>
    1414:	68674b1c 	stmdavs	r7!, {r2, r3, r4, r8, r9, fp, lr}^
    1418:	01001202 	tsteq	r0, r2, lsl #4
    141c:	02050001 	andeq	r0, r5, #1
    1420:	00000000 	andeq	r0, r0, r0
    1424:	0101c203 	tsteq	r1, r3, lsl #4
    1428:	303f6868 	eorscc	r6, pc, r8, ror #16
    142c:	00050221 	andeq	r0, r5, r1, lsr #4
    1430:	05000101 	streq	r0, [r0, #-257]	; 0xfffffeff
    1434:	00000002 	andeq	r0, r0, r2
    1438:	01da0300 	bicseq	r0, sl, r0, lsl #6
    143c:	213d4c01 	teqcs	sp, r1, lsl #24
    1440:	01000502 	tsteq	r0, r2, lsl #10
    1444:	02050001 	andeq	r0, r5, #1
    1448:	00000000 	andeq	r0, r0, r0
    144c:	0101ed03 	tsteq	r1, r3, lsl #26
    1450:	3c090383 	stccc	3, cr0, [r9], {131}	; 0x83
    1454:	1e3c0903 	vaddne.f16	s0, s24, s6	; <UNPREDICTABLE>
    1458:	0005023e 	andeq	r0, r5, lr, lsr r2
    145c:	05000101 	streq	r0, [r0, #-257]	; 0xfffffeff
    1460:	00000002 	andeq	r0, r0, r2
    1464:	028f0300 	addeq	r0, pc, #0, 6
    1468:	023d6701 	eorseq	r6, sp, #262144	; 0x40000
    146c:	01010005 	tsteq	r1, r5
    1470:	00020500 	andeq	r0, r2, r0, lsl #10
    1474:	03000000 	movweq	r0, #0
    1478:	6701029e 			; <UNDEFINED> instruction: 0x6701029e
    147c:	00050267 	andeq	r0, r5, r7, ror #4
    1480:	05000101 	streq	r0, [r0, #-257]	; 0xfffffeff
    1484:	00000002 	andeq	r0, r0, r2
    1488:	02ae0300 	adceq	r0, lr, #0, 6
    148c:	66130301 	ldrvs	r0, [r3], -r1, lsl #6
    1490:	3e3e4d3e 	mrccc	13, 1, r4, cr14, cr14, {1}
    1494:	30683e3e 	rsbcc	r3, r8, lr, lsr lr
    1498:	00050223 	andeq	r0, r5, r3, lsr #4
    149c:	Address 0x000000000000149c is out of bounds.


Disassembly of section .debug_str:

00000000 <.debug_str>:
       0:	38544e49 	ldmdacc	r4, {r0, r3, r6, r9, sl, fp, lr}^
       4:	58414d5f 	stmdapl	r1, {r0, r1, r2, r3, r4, r6, r8, sl, fp, lr}^
       8:	5f5f2820 	svcpl	0x005f2820
       c:	38544e49 	ldmdacc	r4, {r0, r3, r6, r9, sl, fp, lr}^
      10:	58414d5f 	stmdapl	r1, {r0, r1, r2, r3, r4, r6, r8, sl, fp, lr}^
      14:	00295f5f 	eoreq	r5, r9, pc, asr pc
      18:	4e475f5f 	mcrmi	15, 2, r5, cr7, cr15, {2}
      1c:	494c4355 	stmdbmi	ip, {r0, r2, r4, r6, r8, r9, lr}^
      20:	5f5f454b 	svcpl	0x005f454b
      24:	4345535f 	movtmi	r5, #21343	; 0x535f
      28:	4e4f4954 			; <UNDEFINED> instruction: 0x4e4f4954
      2c:	57003120 	strpl	r3, [r0, -r0, lsr #2]
      30:	5f544e49 	svcpl	0x00544e49
      34:	204e494d 	subcs	r4, lr, sp, asr #18
      38:	575f5f28 	ldrbpl	r5, [pc, -r8, lsr #30]
      3c:	5f544e49 	svcpl	0x00544e49
      40:	5f4e494d 	svcpl	0x004e494d
      44:	5f00295f 	svcpl	0x0000295f
      48:	4345445f 	movtmi	r4, #21599	; 0x545f
      4c:	4c414d49 	mcrrmi	13, 4, r4, r1, cr9
      50:	4749445f 	smlsldmi	r4, r9, pc, r4	; <UNPREDICTABLE>
      54:	31205f5f 			; <UNDEFINED> instruction: 0x31205f5f
      58:	656c0037 	strbvs	r0, [ip, #-55]!	; 0xffffffc9
      5c:	006c6576 	rsbeq	r6, ip, r6, ror r5
      60:	48555f5f 	ldmdami	r5, {r0, r1, r2, r3, r4, r6, r8, r9, sl, fp, ip, lr}^
      64:	42465f41 	submi	r5, r6, #260	; 0x104
      68:	5f5f5449 	svcpl	0x005f5449
      6c:	5f003820 	svcpl	0x00003820
      70:	4956535f 	ldmdbmi	r6, {r0, r1, r2, r3, r4, r6, r8, r9, ip, lr}^
      74:	49565f44 	ldmdbmi	r6, {r2, r6, r8, r9, sl, fp, ip, lr}^
      78:	4c424953 	mcrrmi	9, 5, r4, r2, cr3	; <UNPREDICTABLE>
      7c:	00312045 	eorseq	r2, r1, r5, asr #32
      80:	6e695f5f 	mcrvs	15, 3, r5, cr9, cr15, {2}
      84:	20303274 	eorscs	r3, r0, r4, ror r2
      88:	5f00322b 	svcpl	0x0000322b
      8c:	4345445f 	movtmi	r4, #21599	; 0x545f
      90:	5f383231 	svcpl	0x00383231
      94:	49535045 	ldmdbmi	r3, {r0, r2, r6, ip, lr}^
      98:	5f4e4f4c 	svcpl	0x004e4f4c
      9c:	4531205f 	ldrmi	r2, [r1, #-95]!	; 0xffffffa1
      a0:	4433332d 	ldrtmi	r3, [r3], #-813	; 0xfffffcd3
      a4:	5f5f004c 	svcpl	0x005f004c
      a8:	36544c46 	ldrbcc	r4, [r4], -r6, asr #24
      ac:	45445f34 	strbmi	r5, [r4, #-3892]	; 0xfffff0cc
      b0:	4d524f4e 	ldclmi	15, cr4, [r2, #-312]	; 0xfffffec8
      b4:	4e494d5f 	mcrmi	13, 2, r4, cr9, cr15, {2}
      b8:	34205f5f 	strtcc	r5, [r0], #-3935	; 0xfffff0a1
      bc:	3034392e 	eorscc	r3, r4, lr, lsr #18
      c0:	34363536 	ldrtcc	r3, [r6], #-1334	; 0xfffffaca
      c4:	31343835 	teqcc	r4, r5, lsr r8
      c8:	35363432 	ldrcc	r3, [r6, #-1074]!	; 0xfffffbce
      cc:	332d6534 			; <UNDEFINED> instruction: 0x332d6534
      d0:	36463432 			; <UNDEFINED> instruction: 0x36463432
      d4:	5f5f0034 	svcpl	0x005f0034
      d8:	65726e75 	ldrbvs	r6, [r2, #-3701]!	; 0xfffff18b
      dc:	61686361 	cmnvs	r8, r1, ror #6
      e0:	28656c62 	stmdacs	r5!, {r1, r5, r6, sl, fp, sp, lr}^
      e4:	5f5f2029 	svcpl	0x005f2029
      e8:	6c697562 	cfstr64vs	mvdx7, [r9], #-392	; 0xfffffe78
      ec:	5f6e6974 	svcpl	0x006e6974
      f0:	65726e75 	ldrbvs	r6, [r2, #-3701]!	; 0xfffff18b
      f4:	61686361 	cmnvs	r8, r1, ror #6
      f8:	28656c62 	stmdacs	r5!, {r1, r5, r6, sl, fp, sp, lr}^
      fc:	5f5f0029 	svcpl	0x005f0029
     100:	5f434347 	svcpl	0x00434347
     104:	4d4f5441 	cfstrdmi	mvd5, [pc, #-260]	; 8 <_Min_Heap_Size-0x1f8>
     108:	575f4349 	ldrbpl	r4, [pc, -r9, asr #6]
     10c:	52414843 	subpl	r4, r1, #4390912	; 0x430000
     110:	4c5f545f 	cfldrdmi	mvd5, [pc], {95}	; 0x5f
     114:	5f4b434f 	svcpl	0x004b434f
     118:	45455246 	strbmi	r5, [r5, #-582]	; 0xfffffdba
     11c:	5f003220 	svcpl	0x00003220
     120:	4148435f 	cmpmi	r8, pc, asr r3
     124:	4e555f52 	mrcmi	15, 2, r5, cr5, cr2, {2}
     128:	4e474953 			; <UNDEFINED> instruction: 0x4e474953
     12c:	5f5f4445 	svcpl	0x005f4445
     130:	5f003120 	svcpl	0x00003120
     134:	4e49555f 	mcrmi	5, 2, r5, cr9, cr15, {2}
     138:	52545054 	subspl	r5, r4, #84	; 0x54
     13c:	58414d5f 	stmdapl	r1, {r0, r1, r2, r3, r4, r6, r8, sl, fp, lr}^
     140:	30205f5f 	eorcc	r5, r0, pc, asr pc
     144:	66666678 			; <UNDEFINED> instruction: 0x66666678
     148:	66666666 	strbtvs	r6, [r6], -r6, ror #12
     14c:	45005566 	strmi	r5, [r0, #-1382]	; 0xfffffa9a
     150:	31495458 	cmpcc	r9, r8, asr r4
     154:	31445034 	cmpcc	r4, r4, lsr r0
     158:	45282034 	strmi	r2, [r8, #-52]!	; 0xffffffcc
     15c:	5f495458 	svcpl	0x00495458
     160:	4f495047 	svcmi	0x00495047
     164:	70614d5f 	rsbvc	r4, r1, pc, asr sp
     168:	5f676e69 	svcpl	0x00676e69
     16c:	457b2974 	ldrbmi	r2, [fp, #-2420]!	; 0xfffff68c
     170:	31495458 	cmpcc	r9, r8, asr r4
     174:	50472c34 	subpl	r2, r7, r4, lsr ip
     178:	2c444f49 	mcrrcs	15, 4, r4, r4, cr9
     17c:	4f495047 	svcmi	0x00495047
     180:	4e49505f 	mcrmi	0, 2, r5, cr9, cr15, {2}
     184:	2c34315f 	ldfcss	f3, [r4], #-380	; 0xfffffe84
     188:	49545845 	ldmdbmi	r4, {r0, r2, r6, fp, ip, lr}^
     18c:	495f3431 	ldmdbmi	pc, {r0, r4, r5, sl, ip, sp}^	; <UNPREDICTABLE>
     190:	007d5152 	rsbseq	r5, sp, r2, asr r1
     194:	46535f5f 	usaxmi	r5, r3, pc	; <UNPREDICTABLE>
     198:	54434152 	strbpl	r4, [r3], #-338	; 0xfffffeae
     19c:	4942465f 	stmdbmi	r2, {r0, r1, r2, r3, r4, r6, r9, sl, lr}^
     1a0:	205f5f54 	subscs	r5, pc, r4, asr pc	; <UNPREDICTABLE>
     1a4:	5f5f0037 	svcpl	0x005f0037
     1a8:	6b616577 	blvs	185978c <_Min_Stack_Size+0x185938c>
     1ac:	6d79735f 	ldclvs	3, cr7, [r9, #-380]!	; 0xfffffe84
     1b0:	206c6f62 	rsbcs	r6, ip, r2, ror #30
     1b4:	74615f5f 	strbtvc	r5, [r1], #-3935	; 0xfffff0a1
     1b8:	62697274 	rsbvs	r7, r9, #116, 4	; 0x40000007
     1bc:	5f657475 	svcpl	0x00657475
     1c0:	5f28285f 	svcpl	0x0028285f
     1c4:	6165775f 	cmnvs	r5, pc, asr r7
     1c8:	295f5f6b 	ldmdbcs	pc, {r0, r1, r3, r5, r6, r8, r9, sl, fp, ip, lr}^	; <UNPREDICTABLE>
     1cc:	5f5f0029 	svcpl	0x005f0029
     1d0:	61636f6c 	cmnvs	r3, ip, ror #30
     1d4:	745f656c 	ldrbvc	r6, [pc], #-1388	; 1dc <_Min_Heap_Size-0x24>
     1d8:	465f5f00 	ldrbmi	r5, [pc], -r0, lsl #30
     1dc:	3436544c 	ldrtcc	r5, [r6], #-1100	; 0xfffffbb4
     1e0:	5341485f 	movtpl	r4, #6239	; 0x185f
     1e4:	464e495f 			; <UNDEFINED> instruction: 0x464e495f
     1e8:	54494e49 	strbpl	r4, [r9], #-3657	; 0xfffff1b7
     1ec:	205f5f59 	subscs	r5, pc, r9, asr pc	; <UNPREDICTABLE>
     1f0:	5f5f0031 	svcpl	0x005f0031
     1f4:	756c6176 	strbvc	r6, [ip, #-374]!	; 0xfffffe8a
     1f8:	52490065 	subpl	r0, r9, #101	; 0x65
     1fc:	6e455f51 	mcrvs	15, 2, r5, cr5, cr1, {2}
     200:	656c6261 	strbvs	r6, [ip, #-609]!	; 0xfffffd9f
     204:	45525f00 	ldrbmi	r5, [r2, #-3840]	; 0xfffff100
     208:	5f544e45 	svcpl	0x00544e45
     20c:	444e4152 	strbmi	r4, [lr], #-338	; 0xfffffeae
     210:	415f3834 	cmpmi	pc, r4, lsr r8	; <UNPREDICTABLE>
     214:	70284444 	eorvc	r4, r8, r4, asr #8
     218:	20297274 	eorcs	r7, r9, r4, ror r2
     21c:	74702828 	ldrbtvc	r2, [r0], #-2088	; 0xfffff7d8
     220:	3e2d2972 			; <UNDEFINED> instruction: 0x3e2d2972
     224:	3834725f 	ldmdacc	r4!, {r0, r1, r2, r3, r4, r6, r9, ip, sp, lr}
     228:	615f3e2d 	cmpvs	pc, sp, lsr #28
     22c:	00296464 	eoreq	r6, r9, r4, ror #8
     230:	31544e49 	cmpcc	r4, r9, asr #28
     234:	494d5f36 	stmdbmi	sp, {r1, r2, r4, r5, r8, r9, sl, fp, ip, lr}^
     238:	2d28204e 	stccs	0, cr2, [r8, #-312]!	; 0xfffffec8
     23c:	4e495f5f 	mcrmi	15, 2, r5, cr9, cr15, {2}
     240:	5f363154 	svcpl	0x00363154
     244:	5f58414d 	svcpl	0x0058414d
     248:	202d205f 	eorcs	r2, sp, pc, asr r0
     24c:	5f002931 	svcpl	0x00002931
     250:	414c4c5f 	cmpmi	ip, pc, asr ip
     254:	4d554343 	ldclmi	3, cr4, [r5, #-268]	; 0xfffffef4
     258:	4e494d5f 	mcrmi	13, 2, r4, cr9, cr15, {2}
     25c:	28205f5f 	stmdacs	r0!, {r0, r1, r2, r3, r4, r6, r8, r9, sl, fp, ip, lr}
     260:	3158302d 	cmpcc	r8, sp, lsr #32
     264:	4c313350 	ldcmi	3, cr3, [r1], #-320	; 0xfffffec0
     268:	302d4b4c 	eorcc	r4, sp, ip, asr #22
     26c:	33503158 	cmpcc	r0, #88, 2
     270:	4b4c4c31 	blmi	131333c <_Min_Stack_Size+0x1312f3c>
     274:	5f5f0029 	svcpl	0x005f0029
     278:	5f006673 	svcpl	0x00006673
     27c:	5254505f 	subspl	r5, r4, #95	; 0x5f
     280:	46464944 	strbmi	r4, [r6], -r4, asr #18
     284:	58414d5f 	stmdapl	r1, {r0, r1, r2, r3, r4, r6, r8, sl, fp, lr}^
     288:	30205f5f 	eorcc	r5, r0, pc, asr pc
     28c:	66663778 			; <UNDEFINED> instruction: 0x66663778
     290:	66666666 	strbtvs	r6, [r6], -r6, ror #12
     294:	4c5f0066 	mrrcmi	0, 6, r0, pc, cr6	; <UNPREDICTABLE>
     298:	5f474e4f 	svcpl	0x00474e4f
     29c:	42554f44 	subsmi	r4, r5, #68, 30	; 0x110
     2a0:	6c20454c 	cfstr32vs	mvfx4, [r0], #-304	; 0xfffffed0
     2a4:	20676e6f 	rsbcs	r6, r7, pc, ror #28
     2a8:	62756f64 	rsbsvs	r6, r5, #100, 30	; 0x190
     2ac:	4500656c 	strmi	r6, [r0, #-1388]	; 0xfffffa94
     2b0:	39495458 	stmdbcc	r9, {r3, r4, r6, sl, ip, lr}^
     2b4:	5152495f 	cmppl	r2, pc, asr r9
     2b8:	00333220 	eorseq	r3, r3, r0, lsr #4
     2bc:	52554f46 	subspl	r4, r5, #280	; 0x118
     2c0:	5449425f 	strbpl	r4, [r9], #-607	; 0xfffffda1
     2c4:	444f4d5f 	strbmi	r4, [pc], #-3423	; 2cc <_Min_Heap_Size+0xcc>
     2c8:	00312045 	eorseq	r2, r1, r5, asr #32
     2cc:	4e495f5f 	mcrmi	15, 2, r5, cr9, cr15, {2}
     2d0:	58414d54 	stmdapl	r1, {r2, r4, r6, r8, sl, fp, lr}^
     2d4:	6328435f 			; <UNDEFINED> instruction: 0x6328435f
     2d8:	20632029 	rsbcs	r2, r3, r9, lsr #32
     2dc:	4c202323 	stcmi	3, cr2, [r0], #-140	; 0xffffff74
     2e0:	5f5f004c 	svcpl	0x005f004c
     2e4:	66756273 			; <UNDEFINED> instruction: 0x66756273
     2e8:	65725f00 	ldrbvs	r5, [r2, #-3840]!	; 0xfffff100
     2ec:	5f006461 	svcpl	0x00006461
     2f0:	544e495f 	strbpl	r4, [lr], #-2399	; 0xfffff6a1
     2f4:	5f58414d 	svcpl	0x0058414d
     2f8:	5f58414d 	svcpl	0x0058414d
     2fc:	7830205f 	ldmdavc	r0!, {r0, r1, r2, r3, r4, r6, sp}
     300:	66666637 			; <UNDEFINED> instruction: 0x66666637
     304:	66666666 	strbtvs	r6, [r6], -r6, ror #12
     308:	66666666 	strbtvs	r6, [r6], -r6, ror #12
     30c:	66666666 	strbtvs	r6, [r6], -r6, ror #12
     310:	5f004c4c 	svcpl	0x00004c4c
     314:	4e454552 	mcrmi	5, 2, r4, cr5, cr2, {2}
     318:	4e495f54 	mcrmi	15, 2, r5, cr9, cr4, {2}
     31c:	4d5f5449 	cfldrdmi	mvd5, [pc, #-292]	; 200 <_Min_Heap_Size>
     320:	61762850 	cmnvs	r6, r0, asr r8
     324:	64202972 	strtvs	r2, [r0], #-2418	; 0xfffff68e
     328:	207b206f 	rsbscs	r2, fp, pc, rrx
     32c:	75727473 	ldrbvc	r7, [r2, #-1139]!	; 0xfffffb8d
     330:	5f207463 	svcpl	0x00207463
     334:	6e656572 	mcrvs	5, 3, r6, cr5, cr2, {3}
     338:	5f2a2074 	svcpl	0x002a2074
     33c:	203d2072 	eorscs	r2, sp, r2, ror r0
     340:	72617628 	rsbvc	r7, r1, #40, 12	; 0x2800000
     344:	5f203b29 	svcpl	0x00203b29
     348:	5f3e2d72 	svcpl	0x003e2d72
     34c:	3e2d706d 	cdpcc	0, 2, cr7, cr13, cr13, {3}
     350:	7365725f 	cmnvc	r5, #-268435451	; 0xf0000005
     354:	5f746c75 	svcpl	0x00746c75
     358:	203d206b 	eorscs	r2, sp, fp, rrx
     35c:	5f203b30 	svcpl	0x00203b30
     360:	5f3e2d72 	svcpl	0x003e2d72
     364:	3e2d706d 	cdpcc	0, 2, cr7, cr13, cr13, {3}
     368:	7365725f 	cmnvc	r5, #-268435451	; 0xf0000005
     36c:	20746c75 	rsbscs	r6, r4, r5, ror ip
     370:	725f203d 	subsvc	r2, pc, #61	; 0x3d
     374:	6d5f3e2d 	ldclvs	14, cr3, [pc, #-180]	; 2c8 <_Min_Heap_Size+0xc8>
     378:	5f3e2d70 	svcpl	0x003e2d70
     37c:	20733570 	rsbscs	r3, r3, r0, ror r5
     380:	4e5f203d 	mrcmi	0, 2, r2, cr15, cr13, {1}
     384:	3b4c4c55 	blcc	13134e0 <_Min_Stack_Size+0x13130e0>
     388:	2d725f20 	ldclcs	15, cr5, [r2, #-128]!	; 0xffffff80
     38c:	706d5f3e 	rsbvc	r5, sp, lr, lsr pc
     390:	665f3e2d 	ldrbvs	r3, [pc], -sp, lsr #28
     394:	6c656572 	cfstr64vs	mvdx6, [r5], #-456	; 0xfffffe38
     398:	20747369 	rsbscs	r7, r4, r9, ror #6
     39c:	4e5f203d 	mrcmi	0, 2, r2, cr15, cr13, {1}
     3a0:	3b4c4c55 	blcc	13134fc <_Min_Stack_Size+0x13130fc>
     3a4:	77207d20 	strvc	r7, [r0, -r0, lsr #26]!
     3a8:	656c6968 	strbvs	r6, [ip, #-2408]!	; 0xfffff698
     3ac:	29302820 	ldmdbcs	r0!, {r5, fp, sp}
     3b0:	445f5f00 	ldrbmi	r5, [pc], #-3840	; 3b8 <_Min_Heap_Size+0x1b8>
     3b4:	32334345 	eorscc	r4, r3, #335544321	; 0x14000001
     3b8:	4255535f 	subsmi	r5, r5, #2080374785	; 0x7c000001
     3bc:	4d524f4e 	ldclmi	15, cr4, [r2, #-312]	; 0xfffffec8
     3c0:	4d5f4c41 	ldclmi	12, cr4, [pc, #-260]	; 2c4 <_Min_Heap_Size+0xc4>
     3c4:	5f5f4e49 	svcpl	0x005f4e49
     3c8:	302e3020 	eorcc	r3, lr, r0, lsr #32
     3cc:	30303030 	eorscc	r3, r0, r0, lsr r0
     3d0:	392d4531 	pushcc	{r0, r4, r5, r8, sl, lr}
     3d4:	00464435 	subeq	r4, r6, r5, lsr r4
     3d8:	51545f5f 	cmppl	r4, pc, asr pc
     3dc:	4942495f 	stmdbmi	r2, {r0, r1, r2, r3, r4, r6, r8, fp, lr}^
     3e0:	205f5f54 	subscs	r5, pc, r4, asr pc	; <UNPREDICTABLE>
     3e4:	5f5f0030 	svcpl	0x005f0030
     3e8:	6b636f6c 	blvs	18dc1a0 <_Min_Stack_Size+0x18dbda0>
     3ec:	696e695f 	stmdbvs	lr!, {r0, r1, r2, r3, r4, r6, r8, fp, sp, lr}^
     3f0:	65725f74 	ldrbvs	r5, [r2, #-3956]!	; 0xfffff08c
     3f4:	73727563 	cmnvc	r2, #415236096	; 0x18c00000
     3f8:	28657669 	stmdacs	r5!, {r0, r3, r5, r6, r9, sl, ip, sp, lr}^
     3fc:	6b636f6c 	blvs	18dc1b4 <_Min_Stack_Size+0x18dbdb4>
     400:	28282029 	stmdacs	r8!, {r0, r3, r5, sp}
     404:	64696f76 	strbtvs	r6, [r9], #-3958	; 0xfffff08a
     408:	29302029 	ldmdbcs	r0!, {r0, r3, r5, sp}
     40c:	465f5f00 	ldrbmi	r5, [pc], -r0, lsl #30
     410:	3436544c 	ldrtcc	r5, [r6], #-1100	; 0xfffffbb4
     414:	4345445f 	movtmi	r4, #21599	; 0x545f
     418:	4c414d49 	mcrrmi	13, 4, r4, r1, cr9
     41c:	4749445f 	smlsldmi	r4, r9, pc, r4	; <UNPREDICTABLE>
     420:	31205f5f 			; <UNDEFINED> instruction: 0x31205f5f
     424:	525f0037 	subspl	r0, pc, #55	; 0x37
     428:	544e4545 	strbpl	r4, [lr], #-1349	; 0xfffffabb
     42c:	4749535f 	smlsldmi	r5, r9, pc, r3	; <UNPREDICTABLE>
     430:	5f4c414e 	svcpl	0x004c414e
     434:	455a4953 	ldrbmi	r4, [sl, #-2387]	; 0xfffff6ad
     438:	00343220 	eorseq	r3, r4, r0, lsr #4
     43c:	616d4b5f 	cmnvs	sp, pc, asr fp
     440:	73282078 			; <UNDEFINED> instruction: 0x73282078
     444:	6f657a69 	svcvs	0x00657a69
     448:	73282066 			; <UNDEFINED> instruction: 0x73282066
     44c:	5f657a69 	svcpl	0x00657a69
     450:	3c202974 			; <UNDEFINED> instruction: 0x3c202974
     454:	2933203c 	ldmdbcs	r3!, {r2, r3, r4, r5, sp}
     458:	415f5f00 	cmpmi	pc, r0, lsl #30
     45c:	494d4f54 	stmdbmi	sp, {r2, r4, r6, r8, r9, sl, fp, lr}^
     460:	4f435f43 	svcmi	0x00435f43
     464:	4d55534e 	ldclmi	3, cr5, [r5, #-312]	; 0xfffffec8
     468:	00312045 	eorseq	r2, r1, r5, asr #32
     46c:	4c555f5f 	mrrcmi	15, 5, r5, r5, cr15	; <UNPREDICTABLE>
     470:	55434341 	strbpl	r4, [r3, #-833]	; 0xfffffcbf
     474:	42465f4d 	submi	r5, r6, #308	; 0x134
     478:	5f5f5449 	svcpl	0x005f5449
     47c:	00323320 	eorseq	r3, r2, r0, lsr #6
     480:	43575f5f 	cmpmi	r7, #380	; 0x17c
     484:	5f524148 	svcpl	0x00524148
     488:	5f58414d 	svcpl	0x0058414d
     48c:	7830205f 	ldmdavc	r0!, {r0, r1, r2, r3, r4, r6, sp}
     490:	66666666 	strbtvs	r6, [r6], -r6, ror #12
     494:	66666666 	strbtvs	r6, [r6], -r6, ror #12
     498:	33440055 	movtcc	r0, #16469	; 0x4055
     49c:	49504720 	ldmdbmi	r0, {r5, r8, r9, sl, lr}^
     4a0:	49505f4f 	ldmdbmi	r0, {r0, r1, r2, r3, r6, r8, r9, sl, fp, ip, lr}^
     4a4:	00375f4e 	eorseq	r5, r7, lr, asr #30
     4a8:	4f435f5f 	svcmi	0x00435f5f
     4ac:	5441434e 	strbpl	r4, [r1], #-846	; 0xfffffcb2
     4b0:	792c7828 	stmdbvc	ip!, {r3, r5, fp, ip, sp, lr}
     4b4:	5f5f2029 	svcpl	0x005f2029
     4b8:	434e4f43 	movtmi	r4, #61251	; 0xef43
     4bc:	28315441 	ldmdacs	r1!, {r0, r6, sl, ip, lr}
     4c0:	29792c78 	ldmdbcs	r9!, {r3, r4, r5, r6, sl, fp, sp}^
     4c4:	72775f00 	rsbsvc	r5, r7, #0, 30
     4c8:	00657469 	rsbeq	r7, r5, r9, ror #8
     4cc:	49545845 	ldmdbmi	r4, {r0, r2, r6, fp, ip, lr}^
     4d0:	44503131 	ldrbmi	r3, [r0], #-305	; 0xfffffecf
     4d4:	28203131 	stmdacs	r0!, {r0, r4, r5, r8, ip, sp}
     4d8:	49545845 	ldmdbmi	r4, {r0, r2, r6, fp, ip, lr}^
     4dc:	4950475f 	ldmdbmi	r0, {r0, r1, r2, r3, r4, r6, r8, r9, sl, lr}^
     4e0:	614d5f4f 	cmpvs	sp, pc, asr #30
     4e4:	676e6970 			; <UNDEFINED> instruction: 0x676e6970
     4e8:	7b29745f 	blvc	a5d66c <_Min_Stack_Size+0xa5d26c>
     4ec:	49545845 	ldmdbmi	r4, {r0, r2, r6, fp, ip, lr}^
     4f0:	472c3131 			; <UNDEFINED> instruction: 0x472c3131
     4f4:	444f4950 	strbmi	r4, [pc], #-2384	; 4fc <_Min_Stack_Size+0xfc>
     4f8:	4950472c 	ldmdbmi	r0, {r2, r3, r5, r8, r9, sl, lr}^
     4fc:	49505f4f 	ldmdbmi	r0, {r0, r1, r2, r3, r6, r8, r9, sl, fp, ip, lr}^
     500:	31315f4e 	teqcc	r1, lr, asr #30
     504:	5458452c 	ldrbpl	r4, [r8], #-1324	; 0xfffffad4
     508:	5f313149 	svcpl	0x00313149
     50c:	7d515249 	lfmvc	f5, 2, [r1, #-292]	; 0xfffffedc
     510:	475f5f00 	ldrbmi	r5, [pc, -r0, lsl #30]
     514:	4c43554e 	cfstr64mi	mvdx5, [r3], {78}	; 0x4e
     518:	5f454b49 	svcpl	0x00454b49
     51c:	59545f5f 	ldmdbpl	r4, {r0, r1, r2, r3, r4, r6, r8, r9, sl, fp, ip, lr}^
     520:	464f4550 			; <UNDEFINED> instruction: 0x464f4550
     524:	4e003120 	adfmisp	f3, f0, f0
     528:	5f434956 	svcpl	0x00434956
     52c:	32515249 	subscc	r5, r1, #-1879048188	; 0x90000004
     530:	58455f33 	stmdapl	r5, {r0, r1, r4, r5, r8, r9, sl, fp, ip, lr}^
     534:	5f354954 	svcpl	0x00354954
     538:	69445f39 	stmdbvs	r4, {r0, r3, r4, r5, r8, r9, sl, fp, ip, lr}^
     53c:	6c626173 	stfvse	f6, [r2], #-460	; 0xfffffe34
     540:	4e282065 	cdpmi	0, 2, cr2, cr8, cr5, {3}
     544:	5f434956 	svcpl	0x00434956
     548:	52454349 	subpl	r4, r5, #603979777	; 0x24000001
     54c:	3d7c2030 	ldclcc	0, cr2, [ip, #-192]!	; 0xffffff40
     550:	3c312820 	ldccc	8, cr2, [r1], #-128	; 0xffffff80
     554:	2933323c 	ldmdbcs	r3!, {r2, r3, r4, r5, r9, ip, sp}
     558:	58450029 	stmdapl	r5, {r0, r3, r5}^
     55c:	34314954 	ldrtcc	r4, [r1], #-2388	; 0xfffff6ac
     560:	34314150 	ldrtcc	r4, [r1], #-336	; 0xfffffeb0
     564:	58452820 	stmdapl	r5, {r5, fp, sp}^
     568:	475f4954 			; <UNDEFINED> instruction: 0x475f4954
     56c:	5f4f4950 	svcpl	0x004f4950
     570:	6970614d 	ldmdbvs	r0!, {r0, r2, r3, r6, r8, sp, lr}^
     574:	745f676e 	ldrbvc	r6, [pc], #-1902	; 57c <_Min_Stack_Size+0x17c>
     578:	58457b29 	stmdapl	r5, {r0, r3, r5, r8, r9, fp, ip, sp, lr}^
     57c:	34314954 	ldrtcc	r4, [r1], #-2388	; 0xfffff6ac
     580:	4950472c 	ldmdbmi	r0, {r2, r3, r5, r8, r9, sl, lr}^
     584:	472c414f 	strmi	r4, [ip, -pc, asr #2]!
     588:	5f4f4950 	svcpl	0x004f4950
     58c:	5f4e4950 	svcpl	0x004e4950
     590:	452c3431 	strmi	r3, [ip, #-1073]!	; 0xfffffbcf
     594:	31495458 	cmpcc	r9, r8, asr r4
     598:	52495f34 	subpl	r5, r9, #52, 30	; 0xd0
     59c:	5f007d51 	svcpl	0x00007d51
     5a0:	5a49535f 	bpl	1255324 <_Min_Stack_Size+0x1254f24>
     5a4:	5f464f45 	svcpl	0x00464f45
     5a8:	474e4f4c 	strbmi	r4, [lr, -ip, asr #30]
     5ac:	4e4f4c5f 	mcrmi	12, 2, r4, cr15, cr15, {2}
     5b0:	205f5f47 	subscs	r5, pc, r7, asr #30
     5b4:	615f0038 	cmpvs	pc, r8, lsr r0	; <UNPREDICTABLE>
     5b8:	69746373 	ldmdbvs	r4!, {r0, r1, r4, r5, r6, r8, r9, sp, lr}^
     5bc:	625f656d 	subsvs	r6, pc, #457179136	; 0x1b400000
     5c0:	5f006675 	svcpl	0x00006675
     5c4:	4c42445f 	cfstrdmi	mvd4, [r2], {95}	; 0x5f
     5c8:	58414d5f 	stmdapl	r1, {r0, r1, r2, r3, r4, r6, r8, sl, fp, lr}^
     5cc:	5f30315f 	svcpl	0x0030315f
     5d0:	5f505845 	svcpl	0x00505845
     5d4:	3033205f 	eorscc	r2, r3, pc, asr r0
     5d8:	635f0038 	cmpvs	pc, #56	; 0x38
     5dc:	656c7476 	strbvs	r7, [ip, #-1142]!	; 0xfffffb8a
     5e0:	5f5f006e 	svcpl	0x005f006e
     5e4:	49534352 	ldmdbmi	r3, {r1, r4, r6, r8, r9, lr}^
     5e8:	4f535f44 	svcmi	0x00535f44
     5ec:	45435255 	strbmi	r5, [r3, #-597]	; 0xfffffdab
     5f0:	20297328 	eorcs	r7, r9, r8, lsr #6
     5f4:	75727473 	ldrbvc	r7, [r2, #-1139]!	; 0xfffffb8d
     5f8:	5f207463 	svcpl	0x00207463
     5fc:	6361685f 	cmnvs	r1, #6225920	; 0x5f0000
     600:	5f5f006b 	svcpl	0x005f006b
     604:	43415246 	movtmi	r5, #4678	; 0x1246
     608:	494d5f54 	stmdbmi	sp, {r2, r4, r6, r8, r9, sl, fp, ip, lr}^
     60c:	205f5f4e 	subscs	r5, pc, lr, asr #30
     610:	2e302d28 	cdpcs	13, 3, cr2, cr0, cr8, {1}
     614:	302d5235 	eorcc	r5, sp, r5, lsr r2
     618:	2952352e 	ldmdbcs	r2, {r1, r2, r3, r5, r8, sl, ip, sp}^
     61c:	555f5f00 	ldrbpl	r5, [pc, #-3840]	; fffff724 <_estack+0xdfffcf24>
     620:	43414c4c 	movtmi	r4, #7244	; 0x1c4c
     624:	5f4d5543 	svcpl	0x004d5543
     628:	5f58414d 	svcpl	0x0058414d
     62c:	5830205f 	ldmdapl	r0!, {r0, r1, r2, r3, r4, r6, sp}
     630:	46464646 	strbmi	r4, [r6], -r6, asr #12
     634:	46464646 	strbmi	r4, [r6], -r6, asr #12
     638:	46464646 	strbmi	r4, [r6], -r6, asr #12
     63c:	46464646 	strbmi	r4, [r6], -r6, asr #12
     640:	32332d50 	eorscc	r2, r3, #80, 26	; 0x1400
     644:	4b4c4c55 	blmi	13137a0 <_Min_Stack_Size+0x13133a0>
     648:	544e4900 	strbpl	r4, [lr], #-2304	; 0xfffff700
     64c:	435f3436 	cmpmi	pc, #905969664	; 0x36000000
     650:	20297828 	eorcs	r7, r9, r8, lsr #16
     654:	4e495f5f 	mcrmi	15, 2, r5, cr9, cr15, {2}
     658:	5f343654 	svcpl	0x00343654
     65c:	29782843 	ldmdbcs	r8!, {r0, r1, r6, fp, sp}^
     660:	43435200 	movtmi	r5, #12800	; 0x3200
     664:	52282820 	eorpl	r2, r8, #32, 16	; 0x200000
     668:	545f4343 	ldrbpl	r4, [pc], #-835	; 670 <_Min_Stack_Size+0x270>
     66c:	44657079 	strbtmi	r7, [r5], #-121	; 0xffffff87
     670:	2a206665 	bcs	81a00c <_Min_Stack_Size+0x819c0c>
     674:	43435229 	movtmi	r5, #12841	; 0x3229
     678:	5341425f 	movtpl	r4, #4703	; 0x125f
     67c:	5f002945 	svcpl	0x00002945
     680:	4153555f 	cmpmi	r3, pc, asr r5
     684:	4d554343 	ldclmi	3, cr4, [r5, #-268]	; 0xfffffef4
     688:	58414d5f 	stmdapl	r1, {r0, r1, r2, r3, r4, r6, r8, sl, fp, lr}^
     68c:	30205f5f 	eorcc	r5, r0, pc, asr pc
     690:	46464658 			; <UNDEFINED> instruction: 0x46464658
     694:	382d5046 	stmdacc	sp!, {r1, r2, r6, ip, lr}
     698:	004b4855 	subeq	r4, fp, r5, asr r8
     69c:	45445f5f 	strbmi	r5, [r4, #-3935]	; 0xfffff0a1
     6a0:	5f323343 	svcpl	0x00323343
     6a4:	5f4e494d 	svcpl	0x004e494d
     6a8:	4531205f 	ldrmi	r2, [r1, #-95]!	; 0xffffffa1
     6ac:	4435392d 	ldrtmi	r3, [r5], #-2349	; 0xfffff6d3
     6b0:	5f5f0046 	svcpl	0x005f0046
     6b4:	4d544e49 	ldclmi	14, cr4, [r4, #-292]	; 0xfffffedc
     6b8:	575f5841 	ldrbpl	r5, [pc, -r1, asr #16]
     6bc:	48544449 	ldmdami	r4, {r0, r3, r6, sl, lr}^
     6c0:	36205f5f 	qsaxcc	r5, r0, pc	; <UNPREDICTABLE>
     6c4:	525f0034 	subspl	r0, pc, #52	; 0x34
     6c8:	544e4545 	strbpl	r4, [lr], #-1349	; 0xfffffabb
     6cc:	53424d5f 	movtpl	r4, #11615	; 0x2d5f
     6d0:	574f5452 	smlsldpl	r5, pc, r2, r4	; <UNPREDICTABLE>
     6d4:	535f5343 	cmppl	pc, #201326593	; 0xc000001
     6d8:	45544154 	ldrbmi	r4, [r4, #-340]	; 0xfffffeac
     6dc:	72747028 	rsbsvc	r7, r4, #40	; 0x28
     6e0:	28282029 	stmdacs	r8!, {r0, r3, r5, sp}
     6e4:	29727470 	ldmdbcs	r2!, {r4, r5, r6, sl, ip, sp, lr}^
     6e8:	6d5f3e2d 	ldclvs	14, cr3, [pc, #-180]	; 63c <_Min_Stack_Size+0x23c>
     6ec:	2d637369 	stclcs	3, cr7, [r3, #-420]!	; 0xfffffe5c
     6f0:	626d5f3e 	rsbvs	r5, sp, #62, 30	; 0xf8
     6f4:	6f747273 	svcvs	0x00747273
     6f8:	5f736377 	svcpl	0x00736377
     6fc:	74617473 	strbtvc	r7, [r1], #-1139	; 0xfffffb8d
     700:	49002965 	stmdbmi	r0, {r0, r2, r5, r6, r8, fp, sp}
     704:	5450544e 	ldrbpl	r5, [r0], #-1102	; 0xfffffbb2
     708:	414d5f52 	cmpmi	sp, r2, asr pc
     70c:	5f282058 	svcpl	0x00282058
     710:	544e495f 	strbpl	r4, [lr], #-2399	; 0xfffff6a1
     714:	5f525450 	svcpl	0x00525450
     718:	5f58414d 	svcpl	0x0058414d
     71c:	5f00295f 	svcpl	0x0000295f
     720:	5f51535f 	svcpl	0x0051535f
     724:	54494249 	strbpl	r4, [r9], #-585	; 0xfffffdb7
     728:	30205f5f 	eorcc	r5, r0, pc, asr pc
     72c:	535f5f00 	cmppl	pc, #0, 30
     730:	5f455a49 	svcpl	0x00455a49
     734:	45505954 	ldrbmi	r5, [r0, #-2388]	; 0xfffff6ac
     738:	75205f5f 	strvc	r5, [r0, #-3935]!	; 0xfffff0a1
     73c:	6769736e 	strbvs	r7, [r9, -lr, ror #6]!
     740:	2064656e 	rsbcs	r6, r4, lr, ror #10
     744:	00746e69 	rsbseq	r6, r4, r9, ror #28
     748:	45445f5f 	strbmi	r5, [r4, #-3935]	; 0xfffff0a1
     74c:	5f343643 	svcpl	0x00343643
     750:	5f58414d 	svcpl	0x0058414d
     754:	5f505845 	svcpl	0x00505845
     758:	3833205f 	ldmdacc	r3!, {r0, r1, r2, r3, r4, r6, sp}
     75c:	475f0035 	smmlarmi	pc, r5, r0, r0	; <UNPREDICTABLE>
     760:	575f4343 	ldrbpl	r4, [pc, -r3, asr #6]
     764:	5f504152 	svcpl	0x00504152
     768:	49445453 	stmdbmi	r4, {r0, r1, r4, r6, sl, ip, lr}^
     76c:	485f544e 	ldmdami	pc, {r1, r2, r3, r6, sl, ip, lr}^	; <UNPREDICTABLE>
     770:	5f5f0020 	svcpl	0x005f0020
     774:	5f544c46 	svcpl	0x00544c46
     778:	5f534148 	svcpl	0x00534148
     77c:	4f4e4544 	svcmi	0x004e4544
     780:	5f5f4d52 	svcpl	0x005f4d52
     784:	5f003120 	svcpl	0x00003120
     788:	544e495f 	strbpl	r4, [lr], #-2399	; 0xfffff6a1
     78c:	59545f38 	ldmdbpl	r4, {r3, r4, r5, r8, r9, sl, fp, ip, lr}^
     790:	5f5f4550 	svcpl	0x005f4550
     794:	67697320 	strbvs	r7, [r9, -r0, lsr #6]!
     798:	2064656e 	rsbcs	r6, r4, lr, ror #10
     79c:	72616863 	rsbvc	r6, r1, #6488064	; 0x630000
     7a0:	415f5f00 	cmpmi	pc, r0, lsl #30
     7a4:	415f4d52 	cmpmi	pc, r2, asr sp	; <UNPREDICTABLE>
     7a8:	5f484352 	svcpl	0x00484352
     7ac:	464f5250 			; <UNDEFINED> instruction: 0x464f5250
     7b0:	20454c49 	subcs	r4, r5, r9, asr #24
     7b4:	45003737 	strmi	r3, [r0, #-1847]	; 0xfffff8c9
     7b8:	37495458 	smlsldcc	r5, r9, r8, r4
     7bc:	20374150 	eorscs	r4, r7, r0, asr r1
     7c0:	54584528 	ldrbpl	r4, [r8], #-1320	; 0xfffffad8
     7c4:	50475f49 	subpl	r5, r7, r9, asr #30
     7c8:	4d5f4f49 	ldclmi	15, cr4, [pc, #-292]	; 6ac <_Min_Stack_Size+0x2ac>
     7cc:	6e697061 	cdpvs	0, 6, cr7, cr9, cr1, {3}
     7d0:	29745f67 	ldmdbcs	r4!, {r0, r1, r2, r5, r6, r8, r9, sl, fp, ip, lr}^
     7d4:	5458457b 	ldrbpl	r4, [r8], #-1403	; 0xfffffa85
     7d8:	472c3749 	strmi	r3, [ip, -r9, asr #14]!
     7dc:	414f4950 	cmpmi	pc, r0, asr r9	; <UNPREDICTABLE>
     7e0:	4950472c 	ldmdbmi	r0, {r2, r3, r5, r8, r9, sl, lr}^
     7e4:	49505f4f 	ldmdbmi	r0, {r0, r1, r2, r3, r6, r8, r9, sl, fp, ip, lr}^
     7e8:	2c375f4e 	ldccs	15, cr5, [r7], #-312	; 0xfffffec8
     7ec:	49545845 	ldmdbmi	r4, {r0, r2, r6, fp, ip, lr}^
     7f0:	52495f37 	subpl	r5, r9, #55, 30	; 0xdc
     7f4:	5f007d51 	svcpl	0x00007d51
     7f8:	4153555f 	cmpmi	r3, pc, asr r5
     7fc:	4d554343 	ldclmi	3, cr4, [r5, #-268]	; 0xfffffef4
     800:	4e494d5f 	mcrmi	13, 2, r4, cr9, cr15, {2}
     804:	30205f5f 	eorcc	r5, r0, pc, asr pc
     808:	4855302e 	ldmdami	r5, {r1, r2, r3, r5, ip, sp}^
     80c:	5f5f004b 	svcpl	0x005f004b
     810:	33544c46 	cmpcc	r4, #17920	; 0x4600
     814:	45445f32 	strbmi	r5, [r4, #-3890]	; 0xfffff0ce
     818:	414d4943 	cmpmi	sp, r3, asr #18
     81c:	49445f4c 	stmdbmi	r4, {r2, r3, r6, r8, r9, sl, fp, ip, lr}^
     820:	205f5f47 	subscs	r5, pc, r7, asr #30
     824:	5f5f0039 	svcpl	0x005f0039
     828:	4c42444c 	cfstrdmi	mvd4, [r2], {76}	; 0x4c
     82c:	4e494d5f 	mcrmi	13, 2, r4, cr9, cr15, {2}
     830:	5058455f 	subspl	r4, r8, pc, asr r5
     834:	28205f5f 	stmdacs	r0!, {r0, r1, r2, r3, r4, r6, r8, r9, sl, fp, ip, lr}
     838:	3230312d 	eorscc	r3, r0, #1073741835	; 0x4000000b
     83c:	5f002931 	svcpl	0x00002931
     840:	4e454552 	mcrmi	5, 2, r4, cr5, cr2, {2}
     844:	4e495f54 	mcrmi	15, 2, r5, cr9, cr4, {2}
     848:	525f5449 	subspl	r5, pc, #1224736768	; 0x49000000
     84c:	34444e41 	strbcc	r4, [r4], #-3649	; 0xfffff1bf
     850:	61762838 	cmnvs	r6, r8, lsr r8
     854:	64202972 	strtvs	r2, [r0], #-2418	; 0xfffff68e
     858:	207b206f 	rsbscs	r2, fp, pc, rrx
     85c:	75727473 	ldrbvc	r7, [r2, #-1139]!	; 0xfffffb8d
     860:	5f207463 	svcpl	0x00207463
     864:	6e656572 	mcrvs	5, 3, r6, cr5, cr2, {3}
     868:	5f2a2074 	svcpl	0x002a2074
     86c:	203d2072 	eorscs	r2, sp, r2, ror r0
     870:	72617628 	rsbvc	r7, r1, #40, 12	; 0x2800000
     874:	5f203b29 	svcpl	0x00203b29
     878:	5f3e2d72 	svcpl	0x003e2d72
     87c:	2d383472 	cfldrscs	mvf3, [r8, #-456]!	; 0xfffffe38
     880:	65735f3e 	ldrbvs	r5, [r3, #-3902]!	; 0xfffff0c2
     884:	305b6465 	subscc	r6, fp, r5, ror #8
     888:	203d205d 	eorscs	r2, sp, sp, asr r0
     88c:	4e41525f 	mcrmi	2, 2, r5, cr1, cr15, {2}
     890:	5f383444 	svcpl	0x00383444
     894:	44454553 	strbmi	r4, [r5], #-1363	; 0xfffffaad
     898:	203b305f 	eorscs	r3, fp, pc, asr r0
     89c:	3e2d725f 	mcrcc	2, 1, r7, cr13, cr15, {2}
     8a0:	3834725f 	ldmdacc	r4!, {r0, r1, r2, r3, r4, r6, r9, ip, sp, lr}
     8a4:	735f3e2d 	cmpvc	pc, #720	; 0x2d0
     8a8:	5b646565 	blpl	1919e44 <_Min_Stack_Size+0x1919a44>
     8ac:	3d205d31 	stccc	13, cr5, [r0, #-196]!	; 0xffffff3c
     8b0:	41525f20 	cmpmi	r2, r0, lsr #30
     8b4:	3834444e 	ldmdacc	r4!, {r1, r2, r3, r6, sl, lr}
     8b8:	4545535f 	strbmi	r5, [r5, #-863]	; 0xfffffca1
     8bc:	3b315f44 	blcc	c585d4 <_Min_Stack_Size+0xc581d4>
     8c0:	2d725f20 	ldclcs	15, cr5, [r2, #-128]!	; 0xffffff80
     8c4:	34725f3e 	ldrbtcc	r5, [r2], #-3902	; 0xfffff0c2
     8c8:	5f3e2d38 	svcpl	0x003e2d38
     8cc:	64656573 	strbtvs	r6, [r5], #-1395	; 0xfffffa8d
     8d0:	205d325b 	subscs	r3, sp, fp, asr r2
     8d4:	525f203d 	subspl	r2, pc, #61	; 0x3d
     8d8:	34444e41 	strbcc	r4, [r4], #-3649	; 0xfffff1bf
     8dc:	45535f38 	ldrbmi	r5, [r3, #-3896]	; 0xfffff0c8
     8e0:	325f4445 	subscc	r4, pc, #1157627904	; 0x45000000
     8e4:	725f203b 	subsvc	r2, pc, #59	; 0x3b
     8e8:	725f3e2d 	subsvc	r3, pc, #720	; 0x2d0
     8ec:	3e2d3834 	mcrcc	8, 1, r3, cr13, cr4, {1}
     8f0:	6c756d5f 	ldclvs	13, cr6, [r5], #-380	; 0xfffffe84
     8f4:	5d305b74 	vldmdbpl	r0!, {d5-<overflow reg d62>}
     8f8:	5f203d20 	svcpl	0x00203d20
     8fc:	444e4152 	strbmi	r4, [lr], #-338	; 0xfffffeae
     900:	4d5f3834 	ldclmi	8, cr3, [pc, #-208]	; 838 <_Min_Stack_Size+0x438>
     904:	5f544c55 	svcpl	0x00544c55
     908:	5f203b30 	svcpl	0x00203b30
     90c:	5f3e2d72 	svcpl	0x003e2d72
     910:	2d383472 	cfldrscs	mvf3, [r8, #-456]!	; 0xfffffe38
     914:	756d5f3e 	strbvc	r5, [sp, #-3902]!	; 0xfffff0c2
     918:	315b746c 	cmpcc	fp, ip, ror #8
     91c:	203d205d 	eorscs	r2, sp, sp, asr r0
     920:	4e41525f 	mcrmi	2, 2, r5, cr1, cr15, {2}
     924:	5f383444 	svcpl	0x00383444
     928:	544c554d 	strbpl	r5, [ip], #-1357	; 0xfffffab3
     92c:	203b315f 	eorscs	r3, fp, pc, asr r1
     930:	3e2d725f 	mcrcc	2, 1, r7, cr13, cr15, {2}
     934:	3834725f 	ldmdacc	r4!, {r0, r1, r2, r3, r4, r6, r9, ip, sp, lr}
     938:	6d5f3e2d 	ldclvs	14, cr3, [pc, #-180]	; 88c <_Min_Stack_Size+0x48c>
     93c:	5b746c75 	blpl	1d1bb18 <_Min_Stack_Size+0x1d1b718>
     940:	3d205d32 	stccc	13, cr5, [r0, #-200]!	; 0xffffff38
     944:	41525f20 	cmpmi	r2, r0, lsr #30
     948:	3834444e 	ldmdacc	r4!, {r1, r2, r3, r6, sl, lr}
     94c:	4c554d5f 	mrrcmi	13, 5, r4, r5, cr15
     950:	3b325f54 	blcc	c986a8 <_Min_Stack_Size+0xc982a8>
     954:	2d725f20 	ldclcs	15, cr5, [r2, #-128]!	; 0xffffff80
     958:	34725f3e 	ldrbtcc	r5, [r2], #-3902	; 0xfffff0c2
     95c:	5f3e2d38 	svcpl	0x003e2d38
     960:	20646461 	rsbcs	r6, r4, r1, ror #8
     964:	525f203d 	subspl	r2, pc, #61	; 0x3d
     968:	34444e41 	strbcc	r4, [r4], #-3649	; 0xfffff1bf
     96c:	44415f38 	strbmi	r5, [r1], #-3896	; 0xfffff0c8
     970:	5f203b44 	svcpl	0x00203b44
     974:	5f3e2d72 	svcpl	0x003e2d72
     978:	2d383472 	cfldrscs	mvf3, [r8, #-456]!	; 0xfffffe38
     97c:	61725f3e 	cmnvs	r2, lr, lsr pc
     980:	6e5f646e 	cdpvs	4, 5, cr6, cr15, cr14, {3}
     984:	20747865 	rsbscs	r7, r4, r5, ror #16
     988:	3b31203d 	blcc	c48a84 <_Min_Stack_Size+0xc48684>
     98c:	77207d20 	strvc	r7, [r0, -r0, lsr #26]!
     990:	656c6968 	strbvs	r6, [ip, #-2408]!	; 0xfffff698
     994:	29302820 	ldmdbcs	r0!, {r5, fp, sp}
     998:	4c5f5f00 	mrrcmi	15, 0, r5, pc, cr0	; <UNPREDICTABLE>
     99c:	5f4c4244 	svcpl	0x004c4244
     9a0:	544e414d 	strbpl	r4, [lr], #-333	; 0xfffffeb3
     9a4:	4749445f 	smlsldmi	r4, r9, pc, r4	; <UNPREDICTABLE>
     9a8:	35205f5f 	strcc	r5, [r0, #-3935]!	; 0xfffff0a1
     9ac:	5f5f0033 	svcpl	0x005f0033
     9b0:	5f006d74 	svcpl	0x00006d74
     9b4:	72736377 	rsbsvc	r6, r3, #-603979775	; 0xdc000001
     9b8:	626d6f74 	rsbvs	r6, sp, #116, 30	; 0x1d0
     9bc:	74735f73 	ldrbtvc	r5, [r3], #-3955	; 0xfffff08d
     9c0:	00657461 	rsbeq	r7, r5, r1, ror #8
     9c4:	75626e5f 	strbvc	r6, [r2, #-3679]!	; 0xfffff1a1
     9c8:	5f5f0066 	svcpl	0x005f0066
     9cc:	735f6d74 	cmpvc	pc, #116, 26	; 0x1d00
     9d0:	5f006365 	svcpl	0x00006365
     9d4:	4e49555f 	mcrmi	5, 2, r5, cr9, cr15, {2}
     9d8:	435f3854 	cmpmi	pc, #84, 16	; 0x540000
     9dc:	20296328 	eorcs	r6, r9, r8, lsr #6
     9e0:	5f5f0063 	svcpl	0x005f0063
     9e4:	31544e49 	cmpcc	r4, r9, asr #28
     9e8:	59545f36 	ldmdbpl	r4, {r1, r2, r4, r5, r8, r9, sl, fp, ip, lr}^
     9ec:	5f5f4550 	svcpl	0x005f4550
     9f0:	6f687320 	svcvs	0x00687320
     9f4:	69207472 	stmdbvs	r0!, {r1, r4, r5, r6, sl, ip, sp, lr}
     9f8:	5f00746e 	svcpl	0x0000746e
     9fc:	696c615f 	stmdbvs	ip!, {r0, r1, r2, r3, r4, r6, r8, sp, lr}^
     a00:	64656e67 	strbtvs	r6, [r5], #-3687	; 0xfffff199
     a04:	20297828 	eorcs	r7, r9, r8, lsr #16
     a08:	74615f5f 	strbtvc	r5, [r1], #-3935	; 0xfffff0a1
     a0c:	62697274 	rsbvs	r7, r9, #116, 4	; 0x40000007
     a10:	5f657475 	svcpl	0x00657475
     a14:	5f28285f 	svcpl	0x0028285f
     a18:	696c615f 	stmdbvs	ip!, {r0, r1, r2, r3, r4, r6, r8, sp, lr}^
     a1c:	64656e67 	strbtvs	r6, [r5], #-3687	; 0xfffff199
     a20:	78285f5f 	stmdavc	r8!, {r0, r1, r2, r3, r4, r6, r8, r9, sl, fp, ip, lr}
     a24:	00292929 	eoreq	r2, r9, r9, lsr #18
     a28:	6f6c5f5f 	svcvs	0x006c5f5f
     a2c:	5f736b63 	svcpl	0x00736b63
     a30:	6c637865 	stclvs	8, cr7, [r3], #-404	; 0xfffffe6c
     a34:	76697375 			; <UNDEFINED> instruction: 0x76697375
     a38:	2e2e2865 	cdpcs	8, 2, cr2, cr14, cr5, {3}
     a3c:	5f20292e 	svcpl	0x0020292e
     a40:	636f6c5f 	cmnvs	pc, #24320	; 0x5f00
     a44:	6e615f6b 	cdpvs	15, 6, cr5, cr1, cr11, {3}
     a48:	61746f6e 	cmnvs	r4, lr, ror #30
     a4c:	65286574 	strvs	r6, [r8, #-1396]!	; 0xfffffa8c
     a50:	756c6378 	strbvc	r6, [ip, #-888]!	; 0xfffffc88
     a54:	65766973 	ldrbvs	r6, [r6, #-2419]!	; 0xfffff68d
     a58:	636f6c5f 	cmnvs	pc, #24320	; 0x5f00
     a5c:	75665f6b 	strbvc	r5, [r6, #-3947]!	; 0xfffff095
     a60:	6974636e 	ldmdbvs	r4!, {r1, r2, r3, r5, r6, r8, r9, sp, lr}^
     a64:	5f286e6f 	svcpl	0x00286e6f
     a68:	5f41565f 	svcpl	0x0041565f
     a6c:	53475241 	movtpl	r5, #29249	; 0x7241
     a70:	29295f5f 	stmdbcs	r9!, {r0, r1, r2, r3, r4, r6, r8, r9, sl, fp, ip, lr}
     a74:	366c5f00 	strbtcc	r5, [ip], -r0, lsl #30
     a78:	625f6134 	subsvs	r6, pc, #52, 2
     a7c:	5f006675 	svcpl	0x00006675
     a80:	544c465f 	strbpl	r4, [ip], #-1631	; 0xfffff9a1
     a84:	4d5f3436 	cfldrdmi	mvd3, [pc, #-216]	; 9b4 <_Min_Stack_Size+0x5b4>
     a88:	5f5f5841 	svcpl	0x005f5841
     a8c:	372e3120 	strcc	r3, [lr, -r0, lsr #2]!
     a90:	39363739 	ldmdbcc	r6!, {r0, r3, r4, r5, r8, r9, sl, ip, sp}
     a94:	34333133 	ldrtcc	r3, [r3], #-307	; 0xfffffecd
     a98:	33323638 	teqcc	r2, #56, 12	; 0x3800000
     a9c:	65373531 	ldrvs	r3, [r7, #-1329]!	; 0xfffffacf
     aa0:	3830332b 	ldmdacc	r0!, {r0, r1, r3, r5, r8, r9, ip, sp}
     aa4:	00343646 	eorseq	r3, r4, r6, asr #12
     aa8:	65725f5f 	ldrbvs	r5, [r2, #-3935]!	; 0xfffff0a1
     aac:	72697571 	rsbvc	r7, r9, #473956352	; 0x1c400000
     ab0:	655f7365 	ldrbvs	r7, [pc, #-869]	; 753 <_Min_Stack_Size+0x353>
     ab4:	756c6378 	strbvc	r6, [ip, #-888]!	; 0xfffffc88
     ab8:	65766973 	ldrbvs	r6, [r6, #-2419]!	; 0xfffff68d
     abc:	2e2e2e28 	cdpcs	14, 2, cr2, cr14, cr8, {1}
     ac0:	5f5f2029 	svcpl	0x005f2029
     ac4:	6b636f6c 	blvs	18dc87c <_Min_Stack_Size+0x18dc47c>
     ac8:	6e6e615f 	mcrvs	1, 3, r6, cr14, cr15, {2}
     acc:	7461746f 	strbtvc	r7, [r1], #-1135	; 0xfffffb91
     ad0:	78652865 	stmdavc	r5!, {r0, r2, r5, r6, fp, sp}^
     ad4:	73756c63 	cmnvc	r5, #25344	; 0x6300
     ad8:	5f657669 	svcpl	0x00657669
     adc:	6b636f6c 	blvs	18dc894 <_Min_Stack_Size+0x18dc494>
     ae0:	65725f73 	ldrbvs	r5, [r2, #-3955]!	; 0xfffff08d
     ae4:	72697571 	rsbvc	r7, r9, #473956352	; 0x1c400000
     ae8:	5f286465 	svcpl	0x00286465
     aec:	5f41565f 	svcpl	0x0041565f
     af0:	53475241 	movtpl	r5, #29249	; 0x7241
     af4:	29295f5f 	stmdbcs	r9!, {r0, r1, r2, r3, r4, r6, r8, r9, sl, fp, ip, lr}
     af8:	755f5f00 	ldrbvc	r5, [pc, #-3840]	; fffffc00 <_estack+0xdfffd400>
     afc:	756f626e 	strbvc	r6, [pc, #-622]!	; 896 <_Min_Stack_Size+0x496>
     b00:	6465646e 	strbtvs	r6, [r5], #-1134	; 0xfffffb92
     b04:	5f5f0020 	svcpl	0x005f0020
     b08:	38544e49 	ldmdacc	r4, {r0, r3, r6, r9, sl, fp, lr}^
     b0c:	68682220 	stmdavs	r8!, {r5, r9, sp}^
     b10:	49450022 	stmdbmi	r5, {r1, r5}^
     b14:	5f544847 	svcpl	0x00544847
     b18:	5f544942 	svcpl	0x00544942
     b1c:	45444f4d 	strbmi	r4, [r4, #-3917]	; 0xfffff0b3
     b20:	5f003020 	svcpl	0x00003020
     b24:	4350415f 	cmpmi	r0, #-1073741801	; 0xc0000017
     b28:	32335f53 	eorscc	r5, r3, #332	; 0x14c
     b2c:	31205f5f 			; <UNDEFINED> instruction: 0x31205f5f
     b30:	54584500 	ldrbpl	r4, [r8], #-1280	; 0xfffffb00
     b34:	50313149 	eorspl	r3, r1, r9, asr #2
     b38:	20313141 	eorscs	r3, r1, r1, asr #2
     b3c:	54584528 	ldrbpl	r4, [r8], #-1320	; 0xfffffad8
     b40:	50475f49 	subpl	r5, r7, r9, asr #30
     b44:	4d5f4f49 	ldclmi	15, cr4, [pc, #-292]	; a28 <_Min_Stack_Size+0x628>
     b48:	6e697061 	cdpvs	0, 6, cr7, cr9, cr1, {3}
     b4c:	29745f67 	ldmdbcs	r4!, {r0, r1, r2, r5, r6, r8, r9, sl, fp, ip, lr}^
     b50:	5458457b 	ldrbpl	r4, [r8], #-1403	; 0xfffffa85
     b54:	2c313149 	ldfcss	f3, [r1], #-292	; 0xfffffedc
     b58:	4f495047 	svcmi	0x00495047
     b5c:	50472c41 	subpl	r2, r7, r1, asr #24
     b60:	505f4f49 	subspl	r4, pc, r9, asr #30
     b64:	315f4e49 	cmpcc	pc, r9, asr #28
     b68:	58452c31 	stmdapl	r5, {r0, r4, r5, sl, fp, sp}^
     b6c:	31314954 	teqcc	r1, r4, asr r9
     b70:	5152495f 	cmppl	r2, pc, asr r9
     b74:	4e49007d 	mcrmi	0, 2, r0, cr9, cr13, {3}
     b78:	454c5f54 	strbmi	r5, [ip, #-3924]	; 0xfffff0ac
     b7c:	31545341 	cmpcc	r4, r1, asr #6
     b80:	414d5f36 	cmpmi	sp, r6, lsr pc
     b84:	5f282058 	svcpl	0x00282058
     b88:	544e495f 	strbpl	r4, [lr], #-2399	; 0xfffff6a1
     b8c:	41454c5f 	cmpmi	r5, pc, asr ip
     b90:	36315453 			; <UNDEFINED> instruction: 0x36315453
     b94:	58414d5f 	stmdapl	r1, {r0, r1, r2, r3, r4, r6, r8, sl, fp, lr}^
     b98:	00295f5f 	eoreq	r5, r9, pc, asr pc
     b9c:	4e495f5f 	mcrmi	15, 2, r5, cr9, cr15, {2}
     ba0:	41465f54 	cmpmi	r6, r4, asr pc
     ba4:	5f385453 	svcpl	0x00385453
     ba8:	45505954 	ldrbmi	r5, [r0, #-2388]	; 0xfffff6ac
     bac:	69205f5f 	stmdbvs	r0!, {r0, r1, r2, r3, r4, r6, r8, r9, sl, fp, ip, lr}
     bb0:	4300746e 	movwmi	r7, #1134	; 0x46e
     bb4:	52544e4f 	subspl	r4, r4, #1264	; 0x4f0
     bb8:	525f4c4f 	subspl	r4, pc, #20224	; 0x4f00
     bbc:	73696765 	cmnvc	r9, #26476544	; 0x1940000
     bc0:	5f726574 	svcpl	0x00726574
     bc4:	00726156 	rsbseq	r6, r2, r6, asr r1
     bc8:	54535f5f 	ldrbpl	r5, [r3], #-3935	; 0xfffff0a1
     bcc:	485f4344 	ldmdami	pc, {r2, r6, r8, r9, lr}^	; <UNPREDICTABLE>
     bd0:	4554534f 	ldrbmi	r5, [r4, #-847]	; 0xfffffcb1
     bd4:	205f5f44 	subscs	r5, pc, r4, asr #30
     bd8:	5f5f0031 	svcpl	0x005f0031
     bdc:	464c4c55 			; <UNDEFINED> instruction: 0x464c4c55
     be0:	54434152 	strbpl	r4, [r3], #-338	; 0xfffffeae
     be4:	4942465f 	stmdbmi	r2, {r0, r1, r2, r3, r4, r6, r9, sl, lr}^
     be8:	205f5f54 	subscs	r5, pc, r4, asr pc	; <UNPREDICTABLE>
     bec:	5f003436 	svcpl	0x00003436
     bf0:	4749535f 	smlsldmi	r5, r9, pc, r3	; <UNPREDICTABLE>
     bf4:	4f54415f 	svcmi	0x0054415f
     bf8:	5f43494d 	svcpl	0x0043494d
     bfc:	45505954 	ldrbmi	r5, [r0, #-2388]	; 0xfffff6ac
     c00:	69205f5f 	stmdbvs	r0!, {r0, r1, r2, r3, r4, r6, r8, r9, sl, fp, ip, lr}
     c04:	4800746e 	stmdami	r0, {r1, r2, r3, r5, r6, sl, ip, sp, lr}
     c08:	4b5f4c41 	blmi	17d3d14 <_Min_Stack_Size+0x17d3914>
     c0c:	4b5f4450 	blmi	17d1d54 <_Min_Stack_Size+0x17d1954>
     c10:	495f4450 	ldmdbmi	pc, {r4, r6, sl, lr}^	; <UNPREDICTABLE>
     c14:	5245544e 	subpl	r5, r5, #1308622848	; 0x4e000000
     c18:	45434146 	strbmi	r4, [r3, #-326]	; 0xfffffeba
     c1c:	205f485f 	subscs	r4, pc, pc, asr r8	; <UNPREDICTABLE>
     c20:	495f5f00 	ldmdbmi	pc, {r8, r9, sl, fp, ip, lr}^	; <UNPREDICTABLE>
     c24:	465f544e 	ldrbmi	r5, [pc], -lr, asr #8
     c28:	36545341 	ldrbcc	r5, [r4], -r1, asr #6
     c2c:	59545f34 	ldmdbpl	r4, {r2, r4, r5, r8, r9, sl, fp, ip, lr}^
     c30:	5f5f4550 	svcpl	0x005f4550
     c34:	6e6f6c20 	cdpvs	12, 6, cr6, cr15, cr0, {1}
     c38:	6f6c2067 	svcvs	0x006c2067
     c3c:	6920676e 	stmdbvs	r0!, {r1, r2, r3, r5, r6, r8, r9, sl, sp, lr}
     c40:	5f00746e 	svcpl	0x0000746e
     c44:	4e49575f 	mcrmi	7, 2, r5, cr9, cr15, {2}
     c48:	59545f54 	ldmdbpl	r4, {r2, r4, r6, r8, r9, sl, fp, ip, lr}^
     c4c:	5f5f4550 	svcpl	0x005f4550
     c50:	736e7520 	cmnvc	lr, #32, 10	; 0x8000000
     c54:	656e6769 	strbvs	r6, [lr, #-1897]!	; 0xfffff897
     c58:	6e692064 	cdpvs	0, 6, cr2, cr9, cr4, {3}
     c5c:	58450074 	stmdapl	r5, {r2, r4, r5, r6}^
     c60:	30314954 	eorscc	r4, r1, r4, asr r9
     c64:	30314350 	eorscc	r4, r1, r0, asr r3
     c68:	58452820 	stmdapl	r5, {r5, fp, sp}^
     c6c:	475f4954 			; <UNDEFINED> instruction: 0x475f4954
     c70:	5f4f4950 	svcpl	0x004f4950
     c74:	6970614d 	ldmdbvs	r0!, {r0, r2, r3, r6, r8, sp, lr}^
     c78:	745f676e 	ldrbvc	r6, [pc], #-1902	; c80 <_Min_Stack_Size+0x880>
     c7c:	58457b29 	stmdapl	r5, {r0, r3, r5, r8, r9, fp, ip, sp, lr}^
     c80:	30314954 	eorscc	r4, r1, r4, asr r9
     c84:	4950472c 	ldmdbmi	r0, {r2, r3, r5, r8, r9, sl, lr}^
     c88:	472c434f 	strmi	r4, [ip, -pc, asr #6]!
     c8c:	5f4f4950 	svcpl	0x004f4950
     c90:	5f4e4950 	svcpl	0x004e4950
     c94:	452c3031 	strmi	r3, [ip, #-49]!	; 0xffffffcf
     c98:	31495458 	cmpcc	r9, r8, asr r4
     c9c:	52495f30 	subpl	r5, r9, #48, 30	; 0xc0
     ca0:	5f007d51 	svcpl	0x00007d51
     ca4:	72616e66 	rsbvc	r6, r1, #1632	; 0x660
     ca8:	5f007367 	svcpl	0x00007367
     cac:	6b636f6c 	blvs	18dca64 <_Min_Stack_Size+0x18dc664>
     cb0:	43435200 	movtmi	r5, #12800	; 0x3200
     cb4:	4946415f 	stmdbmi	r6, {r0, r1, r2, r3, r4, r6, r8, lr}^
     cb8:	4c435f4f 	mcrrmi	15, 4, r5, r3, cr15
     cbc:	4e455f4b 	cdpmi	15, 4, cr5, cr5, cr11, {2}
     cc0:	28202928 	stmdacs	r0!, {r3, r5, r8, fp, sp}
     cc4:	2d434352 	stclcs	3, cr4, [r3, #-328]	; 0xfffffeb8
     cc8:	4250413e 	subsmi	r4, r0, #-2147483633	; 0x8000000f
     ccc:	524e4532 	subpl	r4, lr, #209715200	; 0xc800000
     cd0:	203d7c20 	eorscs	r7, sp, r0, lsr #24
     cd4:	303c3c31 	eorscc	r3, ip, r1, lsr ip
     cd8:	54500029 	ldrbpl	r0, [r0], #-41	; 0xffffffd7
     cdc:	46494452 			; <UNDEFINED> instruction: 0x46494452
     ce0:	414d5f46 	cmpmi	sp, r6, asr #30
     ce4:	5f282058 	svcpl	0x00282058
     ce8:	5254505f 	subspl	r5, r4, #95	; 0x5f
     cec:	46464944 	strbmi	r4, [r6], -r4, asr #18
     cf0:	58414d5f 	stmdapl	r1, {r0, r1, r2, r3, r4, r6, r8, sl, fp, lr}^
     cf4:	00295f5f 	eoreq	r5, r9, pc, asr pc
     cf8:	49555f5f 	ldmdbmi	r5, {r0, r1, r2, r3, r4, r6, r8, r9, sl, fp, ip, lr}^
     cfc:	465f544e 	ldrbmi	r5, [pc], -lr, asr #8
     d00:	38545341 	ldmdacc	r4, {r0, r6, r8, r9, ip, lr}^
     d04:	58414d5f 	stmdapl	r1, {r0, r1, r2, r3, r4, r6, r8, sl, fp, lr}^
     d08:	30205f5f 	eorcc	r5, r0, pc, asr pc
     d0c:	66666678 			; <UNDEFINED> instruction: 0x66666678
     d10:	66666666 	strbtvs	r6, [r6], -r6, ror #12
     d14:	5f005566 	svcpl	0x00005566
     d18:	6c6c754e 	cfstr64vs	mvdx7, [ip], #-312	; 0xfffffec8
     d1c:	656c6261 	strbvs	r6, [ip, #-609]!	; 0xfffffd9f
     d20:	58450020 	stmdapl	r5, {r5}^
     d24:	32314954 	eorscc	r4, r1, #84, 18	; 0x150000
     d28:	32314450 	eorscc	r4, r1, #80, 8	; 0x50000000
     d2c:	58452820 	stmdapl	r5, {r5, fp, sp}^
     d30:	475f4954 			; <UNDEFINED> instruction: 0x475f4954
     d34:	5f4f4950 	svcpl	0x004f4950
     d38:	6970614d 	ldmdbvs	r0!, {r0, r2, r3, r6, r8, sp, lr}^
     d3c:	745f676e 	ldrbvc	r6, [pc], #-1902	; d44 <_Min_Stack_Size+0x944>
     d40:	58457b29 	stmdapl	r5, {r0, r3, r5, r8, r9, fp, ip, sp, lr}^
     d44:	32314954 	eorscc	r4, r1, #84, 18	; 0x150000
     d48:	4950472c 	ldmdbmi	r0, {r2, r3, r5, r8, r9, sl, lr}^
     d4c:	472c444f 	strmi	r4, [ip, -pc, asr #8]!
     d50:	5f4f4950 	svcpl	0x004f4950
     d54:	5f4e4950 	svcpl	0x004e4950
     d58:	452c3231 	strmi	r3, [ip, #-561]!	; 0xfffffdcf
     d5c:	31495458 	cmpcc	r9, r8, asr r4
     d60:	52495f32 	subpl	r5, r9, #50, 30	; 0xc8
     d64:	5f007d51 	svcpl	0x00007d51
     d68:	4e454552 	mcrmi	5, 2, r4, cr5, cr2, {2}
     d6c:	48435f54 	stmdami	r3, {r2, r4, r6, r8, r9, sl, fp, ip, lr}^
     d70:	5f4b4345 	svcpl	0x004b4345
     d74:	76284d54 			; <UNDEFINED> instruction: 0x76284d54
     d78:	20297261 	eorcs	r7, r9, r1, ror #4
     d7c:	4545525f 	strbmi	r5, [r5, #-607]	; 0xfffffda1
     d80:	435f544e 	cmpmi	pc, #1308622848	; 0x4e000000
     d84:	4b434548 	blmi	10d22ac <_Min_Stack_Size+0x10d1eac>
     d88:	72617628 	rsbvc	r7, r1, #40, 12	; 0x2800000
     d8c:	6c5f202c 	mrrcvs	0, 2, r2, pc, cr12	; <UNPREDICTABLE>
     d90:	6c61636f 	stclvs	3, cr6, [r1], #-444	; 0xfffffe44
     d94:	656d6974 	strbvs	r6, [sp, #-2420]!	; 0xfffff68c
     d98:	6675625f 			; <UNDEFINED> instruction: 0x6675625f
     d9c:	7473202c 	ldrbtvc	r2, [r3], #-44	; 0xffffffd4
     da0:	74637572 	strbtvc	r7, [r3], #-1394	; 0xfffffa8e
     da4:	745f5f20 	ldrbvc	r5, [pc], #-3872	; dac <_Min_Stack_Size+0x9ac>
     da8:	2c2a206d 	stccs	0, cr2, [sl], #-436	; 0xfffffe4c
     dac:	7a697320 	bvc	1a5da34 <_Min_Stack_Size+0x1a5d634>
     db0:	20666f65 	rsbcs	r6, r6, r5, ror #30
     db4:	7628282a 	strtvc	r2, [r8], -sl, lsr #16
     db8:	2d297261 	sfmcs	f7, 4, [r9, #-388]!	; 0xfffffe7c
     dbc:	6f6c5f3e 	svcvs	0x006c5f3e
     dc0:	746c6163 	strbtvc	r6, [ip], #-355	; 0xfffffe9d
     dc4:	5f656d69 	svcpl	0x00656d69
     dc8:	29667562 	stmdbcs	r6!, {r1, r5, r6, r8, sl, ip, sp, lr}^
     dcc:	0029202c 	eoreq	r2, r9, ip, lsr #32
     dd0:	53555f5f 	cmppl	r5, #380	; 0x17c
     dd4:	43415246 	movtmi	r5, #4678	; 0x1246
     dd8:	414d5f54 	cmpmi	sp, r4, asr pc
     ddc:	205f5f58 	subscs	r5, pc, r8, asr pc	; <UNPREDICTABLE>
     de0:	46465830 			; <UNDEFINED> instruction: 0x46465830
     de4:	55382d50 	ldrpl	r2, [r8, #-3408]!	; 0xfffff2b0
     de8:	45005248 	strmi	r5, [r0, #-584]	; 0xfffffdb8
     dec:	31495458 	cmpcc	r9, r8, asr r4
     df0:	30312030 	eorscc	r2, r1, r0, lsr r0
     df4:	54584500 	ldrbpl	r4, [r8], #-1280	; 0xfffffb00
     df8:	50475f49 	subpl	r5, r7, r9, asr #30
     dfc:	4d5f4f49 	ldclmi	15, cr4, [pc, #-292]	; ce0 <_Min_Stack_Size+0x8e0>
     e00:	6e697061 	cdpvs	0, 6, cr7, cr9, cr1, {3}
     e04:	00745f67 	rsbseq	r5, r4, r7, ror #30
     e08:	656e5f5f 	strbvs	r5, [lr, #-3935]!	; 0xfffff0a1
     e0c:	775f6465 	ldrbvc	r6, [pc, -r5, ror #8]
     e10:	72616863 	rsbvc	r6, r1, #6488064	; 0x630000
     e14:	5f00745f 	svcpl	0x0000745f
     e18:	544c465f 	strbpl	r4, [ip], #-1631	; 0xfffff9a1
     e1c:	4d5f3233 	lfmmi	f3, 2, [pc, #-204]	; d58 <_Min_Stack_Size+0x958>
     e20:	455f4e49 	ldrbmi	r4, [pc, #-3657]	; ffffffdf <_estack+0xdfffd7df>
     e24:	5f5f5058 	svcpl	0x005f5058
     e28:	312d2820 			; <UNDEFINED> instruction: 0x312d2820
     e2c:	00293532 	eoreq	r3, r9, r2, lsr r5
     e30:	7465675f 	strbtvc	r6, [r5], #-1887	; 0xfffff8a1
     e34:	65746164 	ldrbvs	r6, [r4, #-356]!	; 0xfffffe9c
     e38:	7272655f 	rsbsvc	r6, r2, #398458880	; 0x17c00000
     e3c:	756d5f00 	strbvc	r5, [sp, #-3840]!	; 0xfffff100
     e40:	4900746c 	stmdbmi	r0, {r2, r3, r5, r6, sl, ip, sp, lr}
     e44:	3631544e 	ldrtcc	r5, [r1], -lr, asr #8
     e48:	58414d5f 	stmdapl	r1, {r0, r1, r2, r3, r4, r6, r8, sl, fp, lr}^
     e4c:	5f5f2820 	svcpl	0x005f2820
     e50:	31544e49 	cmpcc	r4, r9, asr #28
     e54:	414d5f36 	cmpmi	sp, r6, lsr pc
     e58:	295f5f58 	ldmdbcs	pc, {r3, r4, r6, r8, r9, sl, fp, ip, lr}^	; <UNPREDICTABLE>
     e5c:	555f5f00 	ldrbpl	r5, [pc, #-3840]	; ffffff64 <_estack+0xdfffd764>
     e60:	4152464c 	cmpmi	r2, ip, asr #12
     e64:	465f5443 	ldrbmi	r5, [pc], -r3, asr #8
     e68:	5f544942 	svcpl	0x00544942
     e6c:	3233205f 	eorscc	r2, r3, #95	; 0x5f
     e70:	54584500 	ldrbpl	r4, [r8], #-1280	; 0xfffffb00
     e74:	20323149 	eorscs	r3, r2, r9, asr #2
     e78:	5f003231 	svcpl	0x00003231
     e7c:	544c465f 	strbpl	r4, [ip], #-1631	; 0xfffff9a1
     e80:	4d5f3436 	cfldrdmi	mvd3, [pc, #-216]	; db0 <_Min_Stack_Size+0x9b0>
     e84:	315f4e49 	cmpcc	pc, r9, asr #28
     e88:	58455f30 	stmdapl	r5, {r4, r5, r8, r9, sl, fp, ip, lr}^
     e8c:	205f5f50 	subscs	r5, pc, r0, asr pc	; <UNPREDICTABLE>
     e90:	30332d28 	eorscc	r2, r3, r8, lsr #26
     e94:	5f002937 	svcpl	0x00002937
     e98:	7a69735f 	bvc	1a5dc1c <_Min_Stack_Size+0x1a5d81c>
     e9c:	20745f65 	rsbscs	r5, r4, r5, ror #30
     ea0:	625f5f00 	subsvs	r5, pc, #0, 30
     ea4:	646e756f 	strbtvs	r7, [lr], #-1391	; 0xfffffa91
     ea8:	00206465 	eoreq	r6, r0, r5, ror #8
     eac:	6e695f5f 	mcrvs	15, 3, r5, cr9, cr15, {2}
     eb0:	61665f74 	smcvs	26100	; 0x65f4
     eb4:	32337473 	eorscc	r7, r3, #1929379840	; 0x73000000
     eb8:	645f745f 	ldrbvs	r7, [pc], #-1119	; ec0 <_Min_Stack_Size+0xac0>
     ebc:	6e696665 	cdpvs	6, 6, cr6, cr9, cr5, {3}
     ec0:	31206465 			; <UNDEFINED> instruction: 0x31206465
     ec4:	495f5f00 	ldmdbmi	pc, {r8, r9, sl, fp, ip, lr}^	; <UNPREDICTABLE>
     ec8:	465f544e 	ldrbmi	r5, [pc], -lr, asr #8
     ecc:	36545341 	ldrbcc	r5, [r4], -r1, asr #6
     ed0:	49575f34 	ldmdbmi	r7, {r2, r4, r5, r8, r9, sl, fp, ip, lr}^
     ed4:	5f485444 	svcpl	0x00485444
     ed8:	3436205f 	ldrtcc	r2, [r6], #-95	; 0xffffffa1
     edc:	465f5f00 	ldrbmi	r5, [pc], -r0, lsl #30
     ee0:	3233544c 	eorscc	r5, r3, #76, 8	; 0x4c000000
     ee4:	58414d5f 	stmdapl	r1, {r0, r1, r2, r3, r4, r6, r8, sl, fp, lr}^
     ee8:	5f30315f 	svcpl	0x0030315f
     eec:	5f505845 	svcpl	0x00505845
     ef0:	3833205f 	ldmdacc	r3!, {r0, r1, r2, r3, r4, r6, sp}
     ef4:	5f5f5f00 	svcpl	0x005f5f00
     ef8:	5f746e69 	svcpl	0x00746e69
     efc:	61686377 	smcvs	34359	; 0x8637
     f00:	5f745f72 	svcpl	0x00745f72
     f04:	47002068 	strmi	r2, [r0, -r8, rrx]
     f08:	5f4f4950 	svcpl	0x004f4950
     f0c:	5f4e4950 	svcpl	0x004e4950
     f10:	28282031 	stmdacs	r8!, {r0, r4, r5, sp}
     f14:	746e6975 	strbtvc	r6, [lr], #-2421	; 0xfffff68b
     f18:	745f3631 	ldrbvc	r3, [pc], #-1585	; f20 <_Min_Stack_Size+0xb20>
     f1c:	30783029 	rsbscc	r3, r8, r9, lsr #32
     f20:	29323030 	ldmdbcs	r2!, {r4, r5, ip, sp}
     f24:	72754300 	rsbsvc	r4, r5, #0, 6
     f28:	4f726f73 	svcmi	0x00726f73
     f2c:	7830204e 	ldmdavc	r0!, {r1, r2, r3, r6, sp}
     f30:	49004530 	stmdbmi	r0, {r4, r5, r8, sl, lr}
     f34:	3631544e 	ldrtcc	r5, [r1], -lr, asr #8
     f38:	7828435f 	stmdavc	r8!, {r0, r1, r2, r3, r4, r6, r8, r9, lr}
     f3c:	5f5f2029 	svcpl	0x005f2029
     f40:	31544e49 	cmpcc	r4, r9, asr #28
     f44:	28435f36 	stmdacs	r3, {r1, r2, r4, r5, r8, r9, sl, fp, ip, lr}^
     f48:	5f002978 	svcpl	0x00002978
     f4c:	4e494f50 	mcrmi	15, 2, r4, cr9, cr0, {2}
     f50:	5f524554 	svcpl	0x00524554
     f54:	20544e49 	subscs	r4, r4, r9, asr #28
     f58:	676e6f6c 	strbvs	r6, [lr, -ip, ror #30]!
     f5c:	535f5f00 	cmppl	pc, #0, 30
     f60:	43415246 	movtmi	r5, #4678	; 0x1246
     f64:	50455f54 	subpl	r5, r5, r4, asr pc
     f68:	4f4c4953 	svcmi	0x004c4953
     f6c:	205f5f4e 	subscs	r5, pc, lr, asr #30
     f70:	50317830 	eorspl	r7, r1, r0, lsr r8
     f74:	5248372d 	subpl	r3, r8, #11796480	; 0xb40000
     f78:	435f5f00 	cmpmi	pc, #0, 30
     f7c:	41434e4f 	cmpmi	r3, pc, asr #28
     f80:	78283154 	stmdavc	r8!, {r2, r4, r6, r8, ip, sp}
     f84:	2029792c 	eorcs	r7, r9, ip, lsr #18
     f88:	23232078 			; <UNDEFINED> instruction: 0x23232078
     f8c:	44007920 	strmi	r7, [r0], #-2336	; 0xfffff6e0
     f90:	50472030 	subpl	r2, r7, r0, lsr r0
     f94:	505f4f49 	subspl	r4, pc, r9, asr #30
     f98:	305f4e49 	subscc	r4, pc, r9, asr #28
     f9c:	5f545f00 	svcpl	0x00545f00
     fa0:	455a4953 	ldrbmi	r4, [sl, #-2387]	; 0xfffff6ad
     fa4:	5f5f0020 	svcpl	0x005f0020
     fa8:	5f4c4244 	svcpl	0x004c4244
     fac:	5f4e494d 	svcpl	0x004e494d
     fb0:	455f3031 	ldrbmi	r3, [pc, #-49]	; f87 <_Min_Stack_Size+0xb87>
     fb4:	5f5f5058 	svcpl	0x005f5058
     fb8:	332d2820 			; <UNDEFINED> instruction: 0x332d2820
     fbc:	00293730 	eoreq	r3, r9, r0, lsr r7
     fc0:	53555f5f 	cmppl	r5, #380	; 0x17c
     fc4:	42465f51 	submi	r5, r6, #324	; 0x144
     fc8:	5f5f5449 	svcpl	0x005f5449
     fcc:	00323320 	eorseq	r3, r2, r0, lsr #6
     fd0:	524f5f5f 	subpl	r5, pc, #380	; 0x17c
     fd4:	5f524544 	svcpl	0x00524544
     fd8:	5f474942 	svcpl	0x00474942
     fdc:	49444e45 	stmdbmi	r4, {r0, r2, r6, r9, sl, fp, lr}^
     fe0:	5f5f4e41 	svcpl	0x005f4e41
     fe4:	32333420 	eorscc	r3, r3, #32, 8	; 0x20000000
     fe8:	58450031 	stmdapl	r5, {r0, r4, r5}^
     fec:	34314954 	ldrtcc	r4, [r1], #-2388	; 0xfffff6ac
     ff0:	00343120 	eorseq	r3, r4, r0, lsr #2
     ff4:	51535f5f 	cmppl	r3, pc, asr pc
     ff8:	4942465f 	stmdbmi	r2, {r0, r1, r2, r3, r4, r6, r9, sl, lr}^
     ffc:	205f5f54 	subscs	r5, pc, r4, asr pc	; <UNPREDICTABLE>
    1000:	45003133 	strmi	r3, [r0, #-307]	; 0xfffffecd
    1004:	31495458 	cmpcc	r9, r8, asr r4
    1008:	31425035 	cmpcc	r2, r5, lsr r0
    100c:	45282035 	strmi	r2, [r8, #-53]!	; 0xffffffcb
    1010:	5f495458 	svcpl	0x00495458
    1014:	4f495047 	svcmi	0x00495047
    1018:	70614d5f 	rsbvc	r4, r1, pc, asr sp
    101c:	5f676e69 	svcpl	0x00676e69
    1020:	457b2974 	ldrbmi	r2, [fp, #-2420]!	; 0xfffff68c
    1024:	31495458 	cmpcc	r9, r8, asr r4
    1028:	50472c35 	subpl	r2, r7, r5, lsr ip
    102c:	2c424f49 	mcrrcs	15, 4, r4, r2, cr9
    1030:	4f495047 	svcmi	0x00495047
    1034:	4e49505f 	mcrmi	0, 2, r5, cr9, cr15, {2}
    1038:	2c35315f 	ldfcss	f3, [r5], #-380	; 0xfffffe84
    103c:	49545845 	ldmdbmi	r4, {r0, r2, r6, fp, ip, lr}^
    1040:	495f3531 	ldmdbmi	pc, {r0, r4, r5, r8, sl, ip, sp}^	; <UNPREDICTABLE>
    1044:	007d5152 	rsbseq	r5, sp, r2, asr r1
    1048:	4f495047 	svcmi	0x00495047
    104c:	4550535f 	ldrbmi	r5, [r0, #-863]	; 0xfffffca1
    1050:	315f4445 	cmpcc	pc, r5, asr #8
    1054:	5a484d30 	bpl	121451c <_Min_Stack_Size+0x121411c>
    1058:	30783020 	rsbscc	r3, r8, r0, lsr #32
    105c:	30303030 	eorscc	r3, r0, r0, lsr r0
    1060:	75313030 	ldrvc	r3, [r1, #-48]!	; 0xffffffd0
    1064:	54584500 	ldrbpl	r4, [r8], #-1280	; 0xfffffb00
    1068:	43503649 	cmpmi	r0, #76546048	; 0x4900000
    106c:	45282036 	strmi	r2, [r8, #-54]!	; 0xffffffca
    1070:	5f495458 	svcpl	0x00495458
    1074:	4f495047 	svcmi	0x00495047
    1078:	70614d5f 	rsbvc	r4, r1, pc, asr sp
    107c:	5f676e69 	svcpl	0x00676e69
    1080:	457b2974 	ldrbmi	r2, [fp, #-2420]!	; 0xfffff68c
    1084:	36495458 			; <UNDEFINED> instruction: 0x36495458
    1088:	4950472c 	ldmdbmi	r0, {r2, r3, r5, r8, r9, sl, lr}^
    108c:	472c434f 	strmi	r4, [ip, -pc, asr #6]!
    1090:	5f4f4950 	svcpl	0x004f4950
    1094:	5f4e4950 	svcpl	0x004e4950
    1098:	58452c36 	stmdapl	r5, {r1, r2, r4, r5, sl, fp, sp}^
    109c:	5f364954 	svcpl	0x00364954
    10a0:	7d515249 	lfmvc	f5, 2, [r1, #-292]	; 0xfffffedc
    10a4:	544e4900 	strbpl	r4, [lr], #-2304	; 0xfffff700
    10a8:	494d5f38 	stmdbmi	sp, {r3, r4, r5, r8, r9, sl, fp, ip, lr}^
    10ac:	2d28204e 	stccs	0, cr2, [r8, #-312]!	; 0xfffffec8
    10b0:	4e495f5f 	mcrmi	15, 2, r5, cr9, cr15, {2}
    10b4:	4d5f3854 	ldclmi	8, cr3, [pc, #-336]	; f6c <_Min_Stack_Size+0xb6c>
    10b8:	5f5f5841 	svcpl	0x005f5841
    10bc:	31202d20 			; <UNDEFINED> instruction: 0x31202d20
    10c0:	555f0029 	ldrbpl	r0, [pc, #-41]	; 109f <_Min_Stack_Size+0xc9f>
    10c4:	31544e49 	cmpcc	r4, r9, asr #28
    10c8:	5f545f36 	svcpl	0x00545f36
    10cc:	4c434544 	cfstr64mi	mvdx4, [r3], {68}	; 0x44
    10d0:	44455241 	strbmi	r5, [r5], #-577	; 0xfffffdbf
    10d4:	5f5f0020 	svcpl	0x005f0020
    10d8:	72702850 	rsbsvc	r2, r0, #80, 16	; 0x500000
    10dc:	736f746f 	cmnvc	pc, #1862270976	; 0x6f000000
    10e0:	72702029 	rsbsvc	r2, r0, #41	; 0x29
    10e4:	736f746f 	cmnvc	pc, #1862270976	; 0x6f000000
    10e8:	555f5f00 	ldrbpl	r5, [pc, #-3840]	; 1f0 <_Min_Heap_Size-0x10>
    10ec:	465f5148 	ldrbmi	r5, [pc], -r8, asr #2
    10f0:	5f544942 	svcpl	0x00544942
    10f4:	3631205f 			; <UNDEFINED> instruction: 0x3631205f
    10f8:	49504700 	ldmdbmi	r0, {r8, r9, sl, lr}^
    10fc:	49505f4f 	ldmdbmi	r0, {r0, r1, r2, r3, r6, r8, r9, sl, fp, ip, lr}^
    1100:	20385f4e 	eorscs	r5, r8, lr, asr #30
    1104:	69752828 	ldmdbvs	r5!, {r3, r5, fp, sp}^
    1108:	3631746e 	ldrtcc	r7, [r1], -lr, ror #8
    110c:	3029745f 	eorcc	r7, r9, pc, asr r4
    1110:	30313078 	eorscc	r3, r1, r8, ror r0
    1114:	49002930 	stmdbmi	r0, {r4, r5, r8, fp, sp}
    1118:	4c5f544e 	cfldrdmi	mvd5, [pc], {78}	; 0x4e
    111c:	54534145 	ldrbpl	r4, [r3], #-325	; 0xfffffebb
    1120:	4d5f3436 	cfldrdmi	mvd3, [pc, #-216]	; 1050 <_Min_Stack_Size+0xc50>
    1124:	28205841 	stmdacs	r0!, {r0, r6, fp, ip, lr}
    1128:	4e495f5f 	mcrmi	15, 2, r5, cr9, cr15, {2}
    112c:	454c5f54 	strbmi	r5, [ip, #-3924]	; 0xfffff0ac
    1130:	36545341 	ldrbcc	r5, [r4], -r1, asr #6
    1134:	414d5f34 	cmpmi	sp, r4, lsr pc
    1138:	295f5f58 	ldmdbcs	pc, {r3, r4, r6, r8, r9, sl, fp, ip, lr}^	; <UNPREDICTABLE>
    113c:	465f5f00 	ldrbmi	r5, [pc], -r0, lsl #30
    1140:	3436544c 	ldrtcc	r5, [r6], #-1100	; 0xfffffbb4
    1144:	4e494d5f 	mcrmi	13, 2, r4, cr9, cr15, {2}
    1148:	5058455f 	subspl	r4, r8, pc, asr r5
    114c:	28205f5f 	stmdacs	r0!, {r0, r1, r2, r3, r4, r6, r8, r9, sl, fp, ip, lr}
    1150:	3230312d 	eorscc	r3, r0, #1073741835	; 0x4000000b
    1154:	53002931 	movwpl	r2, #2353	; 0x931
    1158:	5f455a49 	svcpl	0x00455a49
    115c:	2058414d 	subscs	r4, r8, sp, asr #2
    1160:	535f5f28 	cmppl	pc, #40, 30	; 0xa0
    1164:	5f455a49 	svcpl	0x00455a49
    1168:	5f58414d 	svcpl	0x0058414d
    116c:	5f00295f 	svcpl	0x0000295f
    1170:	5254505f 	subspl	r5, r4, #95	; 0x5f
    1174:	46464944 	strbmi	r4, [r6], -r4, asr #18
    1178:	4449575f 	strbmi	r5, [r9], #-1887	; 0xfffff8a1
    117c:	5f5f4854 	svcpl	0x005f4854
    1180:	00323320 	eorseq	r3, r2, r0, lsr #6
    1184:	65775f5f 	ldrbvs	r5, [r7, #-3935]!	; 0xfffff0a1
    1188:	725f6b61 	subsvc	r6, pc, #99328	; 0x18400
    118c:	72656665 	rsbvc	r6, r5, #105906176	; 0x6500000
    1190:	65636e65 	strbvs	r6, [r3, #-3685]!	; 0xfffff19b
    1194:	6d797328 	ldclvs	3, cr7, [r9, #-160]!	; 0xffffff60
    1198:	696c612c 	stmdbvs	ip!, {r2, r3, r5, r8, sp, lr}^
    119c:	20297361 	eorcs	r7, r9, r1, ror #6
    11a0:	73615f5f 	cmnvc	r1, #380	; 0x17c
    11a4:	285f5f6d 	ldmdacs	pc, {r0, r2, r3, r5, r6, r8, r9, sl, fp, ip, lr}^	; <UNPREDICTABLE>
    11a8:	65772e22 	ldrbvs	r2, [r7, #-3618]!	; 0xfffff1de
    11ac:	22206b61 	eorcs	r6, r0, #99328	; 0x18400
    11b0:	6c612320 	stclvs	3, cr2, [r1], #-128	; 0xffffff80
    11b4:	29736169 	ldmdbcs	r3!, {r0, r3, r5, r6, r8, sp, lr}^
    11b8:	5f5f203b 	svcpl	0x005f203b
    11bc:	5f6d7361 	svcpl	0x006d7361
    11c0:	2e22285f 	mcrcs	8, 1, r2, cr2, cr15, {2}
    11c4:	20757165 	rsbscs	r7, r5, r5, ror #2
    11c8:	61232022 			; <UNDEFINED> instruction: 0x61232022
    11cc:	7361696c 	cmnvc	r1, #108, 18	; 0x1b0000
    11d0:	202c2220 	eorcs	r2, ip, r0, lsr #4
    11d4:	73232022 			; <UNDEFINED> instruction: 0x73232022
    11d8:	00296d79 	eoreq	r6, r9, r9, ror sp
    11dc:	314c4156 	cmpcc	ip, r6, asr r1
    11e0:	4c415600 	mcrrmi	6, 0, r5, r1, cr0
    11e4:	41560032 	cmpmi	r6, r2, lsr r0
    11e8:	5600334c 	strpl	r3, [r0], -ip, asr #6
    11ec:	00344c41 	eorseq	r4, r4, r1, asr #24
    11f0:	45445f5f 	strbmi	r5, [r4, #-3935]	; 0xfffff0a1
    11f4:	5f323343 	svcpl	0x00323343
    11f8:	49535045 	ldmdbmi	r3, {r0, r2, r6, ip, lr}^
    11fc:	5f4e4f4c 	svcpl	0x004e4f4c
    1200:	4531205f 	ldrmi	r2, [r1, #-95]!	; 0xffffffa1
    1204:	4644362d 	strbmi	r3, [r4], -sp, lsr #12
    1208:	685f5f00 	ldmdavs	pc, {r8, r9, sl, fp, ip, lr}^	; <UNPREDICTABLE>
    120c:	655f7361 	ldrbvs	r7, [pc, #-865]	; eb3 <_Min_Stack_Size+0xab3>
    1210:	6e657478 	mcrvs	4, 3, r7, cr5, cr8, {3}
    1214:	6e6f6973 			; <UNDEFINED> instruction: 0x6e6f6973
    1218:	685f5f20 	ldmdavs	pc, {r5, r8, r9, sl, fp, ip, lr}^	; <UNPREDICTABLE>
    121c:	665f7361 	ldrbvs	r7, [pc], -r1, ror #6
    1220:	75746165 	ldrbvc	r6, [r4, #-357]!	; 0xfffffe9b
    1224:	44006572 	strmi	r6, [r0], #-1394	; 0xfffffa8e
    1228:	47554245 	ldrbmi	r4, [r5, -r5, asr #4]
    122c:	45003120 	strmi	r3, [r0, #-288]	; 0xfffffee0
    1230:	31495458 	cmpcc	r9, r8, asr r4
    1234:	31425030 	cmpcc	r2, r0, lsr r0
    1238:	45282030 	strmi	r2, [r8, #-48]!	; 0xffffffd0
    123c:	5f495458 	svcpl	0x00495458
    1240:	4f495047 	svcmi	0x00495047
    1244:	70614d5f 	rsbvc	r4, r1, pc, asr sp
    1248:	5f676e69 	svcpl	0x00676e69
    124c:	457b2974 	ldrbmi	r2, [fp, #-2420]!	; 0xfffff68c
    1250:	31495458 	cmpcc	r9, r8, asr r4
    1254:	50472c30 	subpl	r2, r7, r0, lsr ip
    1258:	2c424f49 	mcrrcs	15, 4, r4, r2, cr9
    125c:	4f495047 	svcmi	0x00495047
    1260:	4e49505f 	mcrmi	0, 2, r5, cr9, cr15, {2}
    1264:	2c30315f 	ldfcss	f3, [r0], #-380	; 0xfffffe84
    1268:	49545845 	ldmdbmi	r4, {r0, r2, r6, fp, ip, lr}^
    126c:	495f3031 	ldmdbmi	pc, {r0, r4, r5, ip, sp}^	; <UNPREDICTABLE>
    1270:	007d5152 	rsbseq	r5, sp, r2, asr r1
    1274:	414c5f5f 	cmpmi	ip, pc, asr pc
    1278:	4d554343 	ldclmi	3, cr4, [r5, #-268]	; 0xfffffef4
    127c:	4942495f 	stmdbmi	r2, {r0, r1, r2, r3, r4, r6, r8, fp, lr}^
    1280:	205f5f54 	subscs	r5, pc, r4, asr pc	; <UNPREDICTABLE>
    1284:	45003233 	strmi	r3, [r0, #-563]	; 0xfffffdcd
    1288:	5f495458 	svcpl	0x00495458
    128c:	45534142 	ldrbmi	r4, [r3, #-322]	; 0xfffffebe
    1290:	34783020 	ldrbtcc	r3, [r8], #-32	; 0xffffffe0
    1294:	30313030 	eorscc	r3, r1, r0, lsr r0
    1298:	55303034 	ldrpl	r3, [r0, #-52]!	; 0xffffffcc
    129c:	5f5f004c 	svcpl	0x005f004c
    12a0:	746e6975 	strbtvc	r6, [lr], #-2421	; 0xfffff68b
    12a4:	00745f38 	rsbseq	r5, r4, r8, lsr pc
    12a8:	454e5f5f 	strbmi	r5, [lr, #-3935]	; 0xfffff0a1
    12ac:	42494c57 	submi	r4, r9, #22272	; 0x5700
    12b0:	5f5f485f 	svcpl	0x005f485f
    12b4:	5f003120 	svcpl	0x00003120
    12b8:	544e495f 	strbpl	r4, [lr], #-2399	; 0xfffff6a1
    12bc:	5341465f 	movtpl	r4, #5727	; 0x165f
    12c0:	5f363154 	svcpl	0x00363154
    12c4:	54444957 	strbpl	r4, [r4], #-2391	; 0xfffff6a9
    12c8:	205f5f48 	subscs	r5, pc, r8, asr #30
    12cc:	46003233 			; <UNDEFINED> instruction: 0x46003233
    12d0:	6563726f 	strbvs	r7, [r3, #-623]!	; 0xfffffd91
    12d4:	6c747331 	ldclvs	3, cr7, [r4], #-196	; 0xffffff3c
    12d8:	20656e69 	rsbcs	r6, r5, r9, ror #28
    12dc:	30387830 	eorscc	r7, r8, r0, lsr r8
    12e0:	565f5f00 	ldrbpl	r5, [pc], -r0, lsl #30
    12e4:	465f5046 	ldrbmi	r5, [pc], -r6, asr #32
    12e8:	205f5f50 	subscs	r5, pc, r0, asr pc	; <UNPREDICTABLE>
    12ec:	5f5f0031 	svcpl	0x005f0031
    12f0:	5341454c 	movtpl	r4, #5452	; 0x154c
    12f4:	20323354 	eorscs	r3, r2, r4, asr r3
    12f8:	00226c22 	eoreq	r6, r2, r2, lsr #24
    12fc:	4c4c5f5f 	mcrrmi	15, 5, r5, ip, cr15
    1300:	43415246 	movtmi	r5, #4678	; 0x1246
    1304:	494d5f54 	stmdbmi	sp, {r2, r4, r6, r8, r9, sl, fp, ip, lr}^
    1308:	205f5f4e 	subscs	r5, pc, lr, asr #30
    130c:	2e302d28 	cdpcs	13, 3, cr2, cr0, cr8, {1}
    1310:	524c4c35 	subpl	r4, ip, #13568	; 0x3500
    1314:	352e302d 	strcc	r3, [lr, #-45]!	; 0xffffffd3
    1318:	29524c4c 	ldmdbcs	r2, {r2, r3, r6, sl, fp, lr}^
    131c:	495f5f00 	ldmdbmi	pc, {r8, r9, sl, fp, ip, lr}^	; <UNPREDICTABLE>
    1320:	5450544e 	ldrbpl	r5, [r0], #-1102	; 0xfffffbb2
    1324:	414d5f52 	cmpmi	sp, r2, asr pc
    1328:	205f5f58 	subscs	r5, pc, r8, asr pc	; <UNPREDICTABLE>
    132c:	66377830 			; <UNDEFINED> instruction: 0x66377830
    1330:	66666666 	strbtvs	r6, [r6], -r6, ror #12
    1334:	5f006666 	svcpl	0x00006666
    1338:	656c6966 	strbvs	r6, [ip, #-2406]!	; 0xfffff69a
    133c:	49564e00 	ldmdbmi	r6, {r9, sl, fp, lr}^
    1340:	53495f43 	movtpl	r5, #40771	; 0x9f43
    1344:	20305245 	eorscs	r5, r0, r5, asr #4
    1348:	6f76282a 	svcvs	0x0076282a
    134c:	6974616c 	ldmdbvs	r4!, {r2, r3, r5, r6, r8, sp, lr}^
    1350:	7520656c 	strvc	r6, [r0, #-1388]!	; 0xfffffa94
    1354:	33746e69 	cmncc	r4, #1680	; 0x690
    1358:	2a745f32 	bcs	1d19028 <_Min_Stack_Size+0x1d18c28>
    135c:	564e2829 	strbpl	r2, [lr], -r9, lsr #16
    1360:	425f4349 	subsmi	r4, pc, #603979777	; 0x24000001
    1364:	20455341 	subcs	r5, r5, r1, asr #6
    1368:	7830202b 	ldmdavc	r0!, {r0, r1, r3, r5, sp}
    136c:	5f002930 	svcpl	0x00002930
    1370:	4e49555f 	mcrmi	5, 2, r5, cr9, cr15, {2}
    1374:	41465f54 	cmpmi	r6, r4, asr pc
    1378:	36315453 			; <UNDEFINED> instruction: 0x36315453
    137c:	58414d5f 	stmdapl	r1, {r0, r1, r2, r3, r4, r6, r8, sl, fp, lr}^
    1380:	30205f5f 	eorcc	r5, r0, pc, asr pc
    1384:	66666678 			; <UNDEFINED> instruction: 0x66666678
    1388:	66666666 	strbtvs	r6, [r6], -r6, ror #12
    138c:	49005566 	stmdbmi	r0, {r1, r2, r5, r6, r8, sl, ip, lr}
    1390:	4c5f544e 	cfldrdmi	mvd5, [pc], {78}	; 0x4e
    1394:	54534145 	ldrbpl	r4, [r3], #-325	; 0xfffffebb
    1398:	4d5f3436 	cfldrdmi	mvd3, [pc, #-216]	; 12c8 <_Min_Stack_Size+0xec8>
    139c:	28204e49 	stmdacs	r0!, {r0, r3, r6, r9, sl, fp, lr}
    13a0:	495f5f2d 	ldmdbmi	pc, {r0, r2, r3, r5, r8, r9, sl, fp, ip, lr}^	; <UNPREDICTABLE>
    13a4:	4c5f544e 	cfldrdmi	mvd5, [pc], {78}	; 0x4e
    13a8:	54534145 	ldrbpl	r4, [r3], #-325	; 0xfffffebb
    13ac:	4d5f3436 	cfldrdmi	mvd3, [pc, #-216]	; 12dc <_Min_Stack_Size+0xedc>
    13b0:	5f5f5841 	svcpl	0x005f5841
    13b4:	31202d20 			; <UNDEFINED> instruction: 0x31202d20
    13b8:	6f5f0029 	svcvs	0x005f0029
    13bc:	78655f6e 	stmdavc	r5!, {r1, r2, r3, r5, r6, r8, r9, sl, fp, ip, lr}^
    13c0:	615f7469 	cmpvs	pc, r9, ror #8
    13c4:	00736772 	rsbseq	r6, r3, r2, ror r7
    13c8:	4e475f5f 	mcrmi	15, 2, r5, cr7, cr15, {2}
    13cc:	494c4355 	stmdbmi	ip, {r0, r2, r4, r6, r8, r9, lr}^
    13d0:	425f454b 	subsmi	r4, pc, #314572800	; 0x12c00000
    13d4:	544c4955 	strbpl	r4, [ip], #-2389	; 0xfffff6ab
    13d8:	435f4e49 	cmpmi	pc, #1168	; 0x490
    13dc:	54534e4f 	ldrbpl	r4, [r3], #-3663	; 0xfffff1b1
    13e0:	5f544e41 	svcpl	0x00544e41
    13e4:	00312050 	eorseq	r2, r1, r0, asr r0
    13e8:	4545525f 	strbmi	r5, [r5, #-607]	; 0xfffffda1
    13ec:	435f544e 	cmpmi	pc, #1308622848	; 0x4e000000
    13f0:	4b434548 	blmi	10d2918 <_Min_Stack_Size+0x10d2518>
    13f4:	72617628 	rsbvc	r7, r1, #40, 12	; 0x2800000
    13f8:	6168772c 	cmnvs	r8, ip, lsr #14
    13fc:	79742c74 	ldmdbvc	r4!, {r2, r4, r5, r6, sl, fp, sp}^
    1400:	732c6570 			; <UNDEFINED> instruction: 0x732c6570
    1404:	2c657a69 			; <UNDEFINED> instruction: 0x2c657a69
    1408:	74696e69 	strbtvc	r6, [r9], #-3689	; 0xfffff197
    140c:	6f642029 	svcvs	0x00642029
    1410:	73207b20 			; <UNDEFINED> instruction: 0x73207b20
    1414:	63757274 	cmnvs	r5, #116, 4	; 0x40000007
    1418:	725f2074 	subsvc	r2, pc, #116	; 0x74
    141c:	746e6565 	strbtvc	r6, [lr], #-1381	; 0xfffffa9b
    1420:	725f2a20 	subsvc	r2, pc, #32, 20	; 0x20000
    1424:	28203d20 	stmdacs	r0!, {r5, r8, sl, fp, ip, sp}
    1428:	29726176 	ldmdbcs	r2!, {r1, r2, r4, r5, r6, r8, sp, lr}^
    142c:	6669203b 			; <UNDEFINED> instruction: 0x6669203b
    1430:	725f2820 	subsvc	r2, pc, #32, 16	; 0x200000
    1434:	68773e2d 	ldmdavs	r7!, {r0, r2, r3, r5, r9, sl, fp, ip, sp}^
    1438:	3d207461 	cfstrscc	mvf7, [r0, #-388]!	; 0xfffffe7c
    143c:	554e203d 	strbpl	r2, [lr, #-61]	; 0xffffffc3
    1440:	20294c4c 	eorcs	r4, r9, ip, asr #24
    1444:	725f207b 	subsvc	r2, pc, #123	; 0x7b
    1448:	68773e2d 	ldmdavs	r7!, {r0, r2, r3, r5, r9, sl, fp, ip, sp}^
    144c:	3d207461 	cfstrscc	mvf7, [r0, #-388]!	; 0xfffffe7c
    1450:	79742820 	ldmdbvc	r4!, {r5, fp, sp}^
    1454:	6d296570 	cfstr32vs	mvfx6, [r9, #-448]!	; 0xfffffe40
    1458:	6f6c6c61 	svcvs	0x006c6c61
    145c:	69732863 	ldmdbvs	r3!, {r0, r1, r5, r6, fp, sp}^
    1460:	3b29657a 	blcc	a5aa50 <_Min_Stack_Size+0xa5a650>
    1464:	725f5f20 	subsvc	r5, pc, #32, 30	; 0x80
    1468:	746e6565 	strbtvc	r6, [lr], #-1381	; 0xfffffa9b
    146c:	7373615f 	cmnvc	r3, #-1073741801	; 0xc0000017
    1470:	28747265 	ldmdacs	r4!, {r0, r2, r5, r6, r9, ip, sp, lr}^
    1474:	3e2d725f 	mcrcc	2, 1, r7, cr13, cr15, {2}
    1478:	74616877 	strbtvc	r6, [r1], #-2167	; 0xfffff789
    147c:	69203b29 	stmdbvs	r0!, {r0, r3, r5, r8, r9, fp, ip, sp}
    1480:	3b74696e 	blcc	1d1ba40 <_Min_Stack_Size+0x1d1b640>
    1484:	7d207d20 	stcvc	13, cr7, [r0, #-128]!	; 0xffffff80
    1488:	69687720 	stmdbvs	r8!, {r5, r8, r9, sl, ip, sp, lr}^
    148c:	2820656c 	stmdacs	r0!, {r2, r3, r5, r6, r8, sl, sp, lr}
    1490:	5f002930 	svcpl	0x00002930
    1494:	6e6e6f4e 	cdpvs	15, 6, cr6, cr14, cr14, {2}
    1498:	206c6c75 	rsbcs	r6, ip, r5, ror ip
    149c:	775f5f00 	ldrbvc	r5, [pc, -r0, lsl #30]
    14a0:	5f006863 	svcpl	0x00006863
    14a4:	554e475f 	strbpl	r4, [lr, #-1887]	; 0xfffff8a1
    14a8:	52505f43 	subspl	r5, r0, #268	; 0x10c
    14ac:	51455245 	cmppl	r5, r5, asr #4
    14b0:	6a616d28 	bvs	185c958 <_Min_Stack_Size+0x185c558>
    14b4:	6e696d2c 	cdpvs	13, 6, cr6, cr9, cr12, {1}
    14b8:	28282029 	stmdacs	r8!, {r0, r3, r5, sp}
    14bc:	4e475f5f 	mcrmi	15, 2, r5, cr7, cr15, {2}
    14c0:	5f5f4355 	svcpl	0x005f4355
    14c4:	203c3c20 	eorscs	r3, ip, r0, lsr #24
    14c8:	20293631 	eorcs	r3, r9, r1, lsr r6
    14cc:	5f5f202b 	svcpl	0x005f202b
    14d0:	43554e47 	cmpmi	r5, #1136	; 0x470
    14d4:	4e494d5f 	mcrmi	13, 2, r4, cr9, cr15, {2}
    14d8:	5f5f524f 	svcpl	0x005f524f
    14dc:	203d3e20 	eorscs	r3, sp, r0, lsr #28
    14e0:	616d2828 	cmnvs	sp, r8, lsr #16
    14e4:	3c20296a 			; <UNDEFINED> instruction: 0x3c20296a
    14e8:	3631203c 			; <UNDEFINED> instruction: 0x3631203c
    14ec:	202b2029 	eorcs	r2, fp, r9, lsr #32
    14f0:	6e696d28 	cdpvs	13, 6, cr6, cr9, cr8, {1}
    14f4:	5f002929 	svcpl	0x00002929
    14f8:	43575f54 	cmpmi	r7, #84, 30	; 0x150
    14fc:	20524148 	subscs	r4, r2, r8, asr #2
    1500:	54584500 	ldrbpl	r4, [r8], #-1280	; 0xfffffb00
    1504:	42503649 	subsmi	r3, r0, #76546048	; 0x4900000
    1508:	45282036 	strmi	r2, [r8, #-54]!	; 0xffffffca
    150c:	5f495458 	svcpl	0x00495458
    1510:	4f495047 	svcmi	0x00495047
    1514:	70614d5f 	rsbvc	r4, r1, pc, asr sp
    1518:	5f676e69 	svcpl	0x00676e69
    151c:	457b2974 	ldrbmi	r2, [fp, #-2420]!	; 0xfffff68c
    1520:	36495458 			; <UNDEFINED> instruction: 0x36495458
    1524:	4950472c 	ldmdbmi	r0, {r2, r3, r5, r8, r9, sl, lr}^
    1528:	472c424f 	strmi	r4, [ip, -pc, asr #4]!
    152c:	5f4f4950 	svcpl	0x004f4950
    1530:	5f4e4950 	svcpl	0x004e4950
    1534:	58452c36 	stmdapl	r5, {r1, r2, r4, r5, sl, fp, sp}^
    1538:	5f364954 	svcpl	0x00364954
    153c:	7d515249 	lfmvc	f5, 2, [r1, #-292]	; 0xfffffedc
    1540:	4e495f00 	cdpmi	15, 4, cr5, cr9, cr0, {0}
    1544:	52545054 	subspl	r5, r4, #84	; 0x54
    1548:	445f545f 	ldrbmi	r5, [pc], #-1119	; 1550 <_Min_Stack_Size+0x1150>
    154c:	414c4345 	cmpmi	ip, r5, asr #6
    1550:	20444552 	subcs	r4, r4, r2, asr r5
    1554:	465f5f00 	ldrbmi	r5, [pc], -r0, lsl #30
    1558:	3233544c 	eorscc	r5, r3, #76, 8	; 0x4c000000
    155c:	41485f58 	cmpmi	r8, r8, asr pc
    1560:	4e495f53 	mcrmi	15, 2, r5, cr9, cr3, {2}
    1564:	494e4946 	stmdbmi	lr, {r1, r2, r6, r8, fp, lr}^
    1568:	5f5f5954 	svcpl	0x005f5954
    156c:	49003120 	stmdbmi	r0, {r5, r8, ip, sp}
    1570:	465f544e 	ldrbmi	r5, [pc], -lr, asr #8
    1574:	33545341 	cmpcc	r4, #67108865	; 0x4000001
    1578:	494d5f32 	stmdbmi	sp, {r1, r4, r5, r8, r9, sl, fp, ip, lr}^
    157c:	2d28204e 	stccs	0, cr2, [r8, #-312]!	; 0xfffffec8
    1580:	4e495f5f 	mcrmi	15, 2, r5, cr9, cr15, {2}
    1584:	41465f54 	cmpmi	r6, r4, asr pc
    1588:	32335453 	eorscc	r5, r3, #1392508928	; 0x53000000
    158c:	58414d5f 	stmdapl	r1, {r0, r1, r2, r3, r4, r6, r8, sl, fp, lr}^
    1590:	2d205f5f 	stccs	15, cr5, [r0, #-380]!	; 0xfffffe84
    1594:	00293120 	eoreq	r3, r9, r0, lsr #2
    1598:	5359535f 	cmppl	r9, #2080374785	; 0x7c000001
    159c:	5a49535f 	bpl	1256320 <_Min_Stack_Size+0x1255f20>
    15a0:	5f545f45 	svcpl	0x00545f45
    15a4:	5f002048 	svcpl	0x00002048
    15a8:	4e49555f 	mcrmi	5, 2, r5, cr9, cr15, {2}
    15ac:	454c5f54 	strbmi	r5, [ip, #-3924]	; 0xfffff0ac
    15b0:	38545341 	ldmdacc	r4, {r0, r6, r8, r9, ip, lr}^
    15b4:	5059545f 	subspl	r5, r9, pc, asr r4
    15b8:	205f5f45 	subscs	r5, pc, r5, asr #30
    15bc:	69736e75 	ldmdbvs	r3!, {r0, r2, r4, r5, r6, r9, sl, fp, sp, lr}^
    15c0:	64656e67 	strbtvs	r6, [r5], #-3687	; 0xfffff199
    15c4:	61686320 	cmnvs	r8, r0, lsr #6
    15c8:	5f5f0072 	svcpl	0x005f0072
    15cc:	49465441 	stmdbmi	r6, {r0, r6, sl, ip, lr}^
    15d0:	565f454c 	ldrbpl	r4, [pc], -ip, asr #10
    15d4:	42495349 	submi	r5, r9, #603979777	; 0x24000001
    15d8:	3120454c 			; <UNDEFINED> instruction: 0x3120454c
    15dc:	415f5f00 	cmpmi	pc, r0, lsl #30
    15e0:	4d554343 	ldclmi	3, cr4, [r5, #-268]	; 0xfffffef4
    15e4:	4942465f 	stmdbmi	r2, {r0, r1, r2, r3, r4, r6, r9, sl, lr}^
    15e8:	205f5f54 	subscs	r5, pc, r4, asr pc	; <UNPREDICTABLE>
    15ec:	5f003531 	svcpl	0x00003531
    15f0:	6c72626d 	lfmvs	f6, 2, [r2], #-436	; 0xfffffe4c
    15f4:	735f6e65 	cmpvc	pc, #1616	; 0x650
    15f8:	65746174 	ldrbvs	r6, [r4, #-372]!	; 0xfffffe8c
    15fc:	49504700 	ldmdbmi	r0, {r8, r9, sl, lr}^
    1600:	49505f4f 	ldmdbmi	r0, {r0, r1, r2, r3, r6, r8, r9, sl, fp, ip, lr}^
    1604:	20305f4e 	eorscs	r5, r0, lr, asr #30
    1608:	69752828 	ldmdbvs	r5!, {r3, r5, fp, sp}^
    160c:	3631746e 	ldrtcc	r7, [r1], -lr, ror #8
    1610:	3029745f 	eorcc	r7, r9, pc, asr r4
    1614:	30303078 	eorscc	r3, r0, r8, ror r0
    1618:	5f002931 	svcpl	0x00002931
    161c:	544e495f 	strbpl	r4, [lr], #-2399	; 0xfffff6a1
    1620:	5341465f 	movtpl	r4, #5727	; 0x165f
    1624:	5f343654 	svcpl	0x00343654
    1628:	5f58414d 	svcpl	0x0058414d
    162c:	7830205f 	ldmdavc	r0!, {r0, r1, r2, r3, r4, r6, sp}
    1630:	66666637 			; <UNDEFINED> instruction: 0x66666637
    1634:	66666666 	strbtvs	r6, [r6], -r6, ror #12
    1638:	66666666 	strbtvs	r6, [r6], -r6, ror #12
    163c:	66666666 	strbtvs	r6, [r6], -r6, ror #12
    1640:	5f004c4c 	svcpl	0x00004c4c
    1644:	544c465f 	strbpl	r4, [ip], #-1631	; 0xfffff9a1
    1648:	5f583233 	svcpl	0x00583233
    164c:	49434544 	stmdbmi	r3, {r2, r6, r8, sl, lr}^
    1650:	5f4c414d 	svcpl	0x004c414d
    1654:	5f474944 	svcpl	0x00474944
    1658:	3731205f 			; <UNDEFINED> instruction: 0x3731205f
    165c:	65725f00 	ldrbvs	r5, [r2, #-3840]!	; 0xfffff100
    1660:	746c7573 	strbtvc	r7, [ip], #-1395	; 0xfffffa8d
    1664:	5f006b5f 	svcpl	0x00006b5f
    1668:	544c465f 	strbpl	r4, [ip], #-1631	; 0xfffff9a1
    166c:	5f583233 	svcpl	0x00583233
    1670:	5f534148 	svcpl	0x00534148
    1674:	45495551 	strbmi	r5, [r9, #-1361]	; 0xfffffaaf
    1678:	414e5f54 	cmpmi	lr, r4, asr pc
    167c:	205f5f4e 	subscs	r5, pc, lr, asr #30
    1680:	5f5f0031 	svcpl	0x005f0031
    1684:	6c6c756e 	cfstr64vs	mvdx7, [ip], #-440	; 0xfffffe48
    1688:	6e65735f 	mcrvs	3, 3, r7, cr5, cr15, {2}
    168c:	656e6974 	strbvs	r6, [lr, #-2420]!	; 0xfffff68c
    1690:	5f5f206c 	svcpl	0x005f206c
    1694:	72747461 	rsbsvc	r7, r4, #1627389952	; 0x61000000
    1698:	74756269 	ldrbtvc	r6, [r5], #-617	; 0xfffffd97
    169c:	285f5f65 	ldmdacs	pc, {r0, r2, r5, r6, r8, r9, sl, fp, ip, lr}^	; <UNPREDICTABLE>
    16a0:	735f5f28 	cmpvc	pc, #40, 30	; 0xa0
    16a4:	69746e65 	ldmdbvs	r4!, {r0, r2, r5, r6, r9, sl, fp, sp, lr}^
    16a8:	5f6c656e 	svcpl	0x006c656e
    16ac:	0029295f 	eoreq	r2, r9, pc, asr r9
    16b0:	4c465f5f 	mcrrmi	15, 5, r5, r6, cr15
    16b4:	58323354 	ldmdapl	r2!, {r2, r4, r6, r8, r9, ip, sp}
    16b8:	5350455f 	cmppl	r0, #398458880	; 0x17c00000
    16bc:	4e4f4c49 	cdpmi	12, 4, cr4, cr15, cr9, {2}
    16c0:	32205f5f 	eorcc	r5, r0, #380	; 0x17c
    16c4:	3032322e 	eorscc	r3, r2, lr, lsr #4
    16c8:	30363434 	eorscc	r3, r6, r4, lsr r4
    16cc:	35323934 	ldrcc	r3, [r2, #-2356]!	; 0xfffff6cc
    16d0:	33313330 	teqcc	r1, #48, 6	; 0xc0000000
    16d4:	312d6531 			; <UNDEFINED> instruction: 0x312d6531
    16d8:	32334636 	eorscc	r4, r3, #56623104	; 0x3600000
    16dc:	5f5f0078 	svcpl	0x005f0078
    16e0:	746e695f 	strbtvc	r6, [lr], #-2399	; 0xfffff6a1
    16e4:	61656c5f 	cmnvs	r5, pc, asr ip
    16e8:	36317473 			; <UNDEFINED> instruction: 0x36317473
    16ec:	645f745f 	ldrbvs	r7, [pc], #-1119	; 16f4 <_Min_Stack_Size+0x12f4>
    16f0:	6e696665 	cdpvs	6, 6, cr6, cr9, cr5, {3}
    16f4:	31206465 			; <UNDEFINED> instruction: 0x31206465
    16f8:	415f5f00 	cmpmi	pc, r0, lsl #30
    16fc:	415f4d52 	cmpmi	pc, r2, asr sp	; <UNPREDICTABLE>
    1700:	5f484352 	svcpl	0x00484352
    1704:	5f5f4d37 	svcpl	0x005f4d37
    1708:	5f003120 	svcpl	0x00003120
    170c:	4345445f 	movtmi	r4, #21599	; 0x545f
    1710:	5f383231 	svcpl	0x00383231
    1714:	5f4e494d 	svcpl	0x004e494d
    1718:	5f505845 	svcpl	0x00505845
    171c:	2d28205f 	stccs	0, cr2, [r8, #-380]!	; 0xfffffe84
    1720:	32343136 	eorscc	r3, r4, #-2147483635	; 0x8000000d
    1724:	4c5f0029 	mrrcmi	0, 2, r0, pc, cr9	; <UNPREDICTABLE>
    1728:	5f4c4244 	svcpl	0x004c4244
    172c:	445f5145 	ldrbmi	r5, [pc], #-325	; 1734 <_Min_Stack_Size+0x1334>
    1730:	31204c42 			; <UNDEFINED> instruction: 0x31204c42
    1734:	4f4e5f00 	svcmi	0x004e5f00
    1738:	494c4e49 	stmdbmi	ip, {r0, r3, r6, r9, sl, fp, lr}^
    173c:	5f20454e 	svcpl	0x0020454e
    1740:	7474615f 	ldrbtvc	r6, [r4], #-351	; 0xfffffea1
    1744:	75626972 	strbvc	r6, [r2, #-2418]!	; 0xfffff68e
    1748:	5f5f6574 	svcpl	0x005f6574
    174c:	5f282820 	svcpl	0x00282820
    1750:	696f6e5f 	stmdbvs	pc!, {r0, r1, r2, r3, r4, r6, r9, sl, fp, sp, lr}^	; <UNPREDICTABLE>
    1754:	6e696c6e 	cdpvs	12, 6, cr6, cr9, cr14, {3}
    1758:	295f5f65 	ldmdbcs	pc, {r0, r2, r5, r6, r8, r9, sl, fp, ip, lr}^	; <UNPREDICTABLE>
    175c:	5f5f0029 	svcpl	0x005f0029
    1760:	657a6973 	ldrbvs	r6, [sl, #-2419]!	; 0xfffff68d
    1764:	5f5f745f 	svcpl	0x005f745f
    1768:	43520020 	cmpmi	r2, #32
    176c:	50475f43 	subpl	r5, r7, r3, asr #30
    1770:	5f414f49 	svcpl	0x00414f49
    1774:	5f4b4c43 	svcpl	0x004b4c43
    1778:	29284e45 	stmdbcs	r8!, {r0, r2, r6, r9, sl, fp, lr}
    177c:	43522820 	cmpmi	r2, #32, 16	; 0x200000
    1780:	413e2d43 	teqmi	lr, r3, asr #26
    1784:	45324250 	ldrmi	r4, [r2, #-592]!	; 0xfffffdb0
    1788:	7c20524e 	sfmvc	f5, 4, [r0], #-312	; 0xfffffec8
    178c:	3c31203d 	ldccc	0, cr2, [r1], #-244	; 0xffffff0c
    1790:	0029323c 	eoreq	r3, r9, ip, lsr r2
    1794:	49555f5f 	ldmdbmi	r5, {r0, r1, r2, r3, r4, r6, r8, r9, sl, fp, ip, lr}^
    1798:	414d544e 	cmpmi	sp, lr, asr #8
    179c:	28435f58 	stmdacs	r3, {r3, r4, r6, r8, r9, sl, fp, ip, lr}^
    17a0:	63202963 			; <UNDEFINED> instruction: 0x63202963
    17a4:	20232320 	eorcs	r2, r3, r0, lsr #6
    17a8:	004c4c55 	subeq	r4, ip, r5, asr ip
    17ac:	49535f5f 	ldmdbmi	r3, {r0, r1, r2, r3, r4, r6, r8, r9, sl, fp, ip, lr}^
    17b0:	464f455a 			; <UNDEFINED> instruction: 0x464f455a
    17b4:	494f505f 	stmdbmi	pc, {r0, r1, r2, r3, r4, r6, ip, lr}^	; <UNPREDICTABLE>
    17b8:	5245544e 	subpl	r5, r5, #1308622848	; 0x4e000000
    17bc:	34205f5f 	strtcc	r5, [r0], #-3935	; 0xfffff0a1
    17c0:	495f5f00 	ldmdbmi	pc, {r8, r9, sl, fp, ip, lr}^	; <UNPREDICTABLE>
    17c4:	4c5f544e 	cfldrdmi	mvd5, [pc], {78}	; 0x4e
    17c8:	54534145 	ldrbpl	r4, [r3], #-325	; 0xfffffebb
    17cc:	59545f38 	ldmdbpl	r4, {r3, r4, r5, r8, r9, sl, fp, ip, lr}^
    17d0:	5f5f4550 	svcpl	0x005f4550
    17d4:	67697320 	strbvs	r7, [r9, -r0, lsr #6]!
    17d8:	2064656e 	rsbcs	r6, r4, lr, ror #10
    17dc:	72616863 	rsbvc	r6, r1, #6488064	; 0x630000
    17e0:	6f6c5f00 	svcvs	0x006c5f00
    17e4:	746c6163 	strbtvc	r6, [ip], #-355	; 0xfffffe9d
    17e8:	5f656d69 	svcpl	0x00656d69
    17ec:	00667562 	rsbeq	r7, r6, r2, ror #10
    17f0:	66696853 			; <UNDEFINED> instruction: 0x66696853
    17f4:	67695274 			; <UNDEFINED> instruction: 0x67695274
    17f8:	30207468 	eorcc	r7, r0, r8, ror #8
    17fc:	00433178 	subeq	r3, r3, r8, ror r1
    1800:	43475f5f 	movtmi	r5, #32607	; 0x7f5f
    1804:	54415f43 	strbpl	r5, [r1], #-3907	; 0xfffff0bd
    1808:	43494d4f 	movtmi	r4, #40271	; 0x9d4f
    180c:	4f4f425f 	svcmi	0x004f425f
    1810:	4f4c5f4c 	svcmi	0x004c5f4c
    1814:	465f4b43 	ldrbmi	r4, [pc], -r3, asr #22
    1818:	20454552 	subcs	r4, r5, r2, asr r5
    181c:	58450032 	stmdapl	r5, {r1, r4, r5}^
    1820:	20394954 	eorscs	r4, r9, r4, asr r9
    1824:	5f5f0039 	svcpl	0x005f0039
    1828:	5f4d5241 	svcpl	0x004d5241
    182c:	4e4f454e 	cdpmi	5, 4, cr4, cr15, cr14, {2}
    1830:	55005f5f 	strpl	r5, [r0, #-3935]	; 0xfffff0a1
    1834:	50544e49 	subspl	r4, r4, r9, asr #28
    1838:	4d5f5254 	lfmmi	f5, 2, [pc, #-336]	; 16f0 <_Min_Stack_Size+0x12f0>
    183c:	28205841 	stmdacs	r0!, {r0, r6, fp, ip, lr}
    1840:	49555f5f 	ldmdbmi	r5, {r0, r1, r2, r3, r4, r6, r8, r9, sl, fp, ip, lr}^
    1844:	5450544e 	ldrbpl	r5, [r0], #-1102	; 0xfffffbb2
    1848:	414d5f52 	cmpmi	sp, r2, asr pc
    184c:	295f5f58 	ldmdbcs	pc, {r3, r4, r6, r8, r9, sl, fp, ip, lr}^	; <UNPREDICTABLE>
    1850:	465f5f00 	ldrbmi	r5, [pc], -r0, lsl #30
    1854:	3233544c 	eorscc	r5, r3, #76, 8	; 0x4c000000
    1858:	58414d5f 	stmdapl	r1, {r0, r1, r2, r3, r4, r6, r8, sl, fp, lr}^
    185c:	5058455f 	subspl	r4, r8, pc, asr r5
    1860:	31205f5f 			; <UNDEFINED> instruction: 0x31205f5f
    1864:	5f003832 	svcpl	0x00003832
    1868:	4341535f 	movtmi	r5, #4959	; 0x135f
    186c:	5f4d5543 	svcpl	0x004d5543
    1870:	54494249 	strbpl	r4, [r9], #-585	; 0xfffffdb7
    1874:	38205f5f 	stmdacc	r0!, {r0, r1, r2, r3, r4, r6, r8, r9, sl, fp, ip, lr}
    1878:	69616d00 	stmdbvs	r1!, {r8, sl, fp, sp, lr}^
    187c:	5f5f006e 	svcpl	0x005f006e
    1880:	4d554854 	ldclmi	8, cr4, [r5, #-336]	; 0xfffffeb0
    1884:	4e495f42 	cdpmi	15, 4, cr5, cr9, cr2, {2}
    1888:	57524554 			; <UNDEFINED> instruction: 0x57524554
    188c:	5f4b524f 	svcpl	0x004b524f
    1890:	0031205f 	eorseq	r2, r1, pc, asr r0
    1894:	4c555f5f 	mrrcmi	15, 5, r5, r5, cr15	; <UNPREDICTABLE>
    1898:	4152464c 	cmpmi	r2, ip, asr #12
    189c:	4d5f5443 	cfldrdmi	mvd5, [pc, #-268]	; 1798 <_Min_Stack_Size+0x1398>
    18a0:	5f5f5841 	svcpl	0x005f5841
    18a4:	46583020 	ldrbmi	r3, [r8], -r0, lsr #32
    18a8:	46464646 	strbmi	r4, [r6], -r6, asr #12
    18ac:	46464646 	strbmi	r4, [r6], -r6, asr #12
    18b0:	46464646 	strbmi	r4, [r6], -r6, asr #12
    18b4:	50464646 	subpl	r4, r6, r6, asr #12
    18b8:	5534362d 	ldrpl	r3, [r4, #-1581]!	; 0xfffff9d3
    18bc:	00524c4c 	subseq	r4, r2, ip, asr #24
    18c0:	4f495047 	svcmi	0x00495047
    18c4:	28282042 	stmdacs	r8!, {r1, r6, sp}
    18c8:	4f495047 	svcmi	0x00495047
    18cc:	7079545f 	rsbsvc	r5, r9, pc, asr r4
    18d0:	66654465 	strbtvs	r4, [r5], -r5, ror #8
    18d4:	47292a20 	strmi	r2, [r9, -r0, lsr #20]!
    18d8:	424f4950 	submi	r4, pc, #80, 18	; 0x140000
    18dc:	5341425f 	movtpl	r4, #4703	; 0x125f
    18e0:	5f002945 	svcpl	0x00002945
    18e4:	79746e66 	ldmdbvc	r4!, {r1, r2, r5, r6, r9, sl, fp, sp, lr}^
    18e8:	00736570 	rsbseq	r6, r3, r0, ror r5
    18ec:	5f44434c 	svcpl	0x0044434c
    18f0:	5f444d43 	svcpl	0x00444d43
    18f4:	54524f50 	ldrbpl	r4, [r2], #-3920	; 0xfffff0b0
    18f8:	49504720 	ldmdbmi	r0, {r5, r8, r9, sl, lr}^
    18fc:	5f00424f 	svcpl	0x0000424f
    1900:	6e695f5f 	mcrvs	15, 3, r5, cr9, cr15, {2}
    1904:	74705f74 	ldrbtvc	r5, [r0], #-3956	; 0xfffff08c
    1908:	66696472 			; <UNDEFINED> instruction: 0x66696472
    190c:	5f745f66 	svcpl	0x00745f66
    1910:	5f002068 	svcpl	0x00002068
    1914:	455a4953 	ldrbmi	r4, [sl, #-2387]	; 0xfffff6ad
    1918:	445f545f 	ldrbmi	r5, [pc], #-1119	; 1920 <_Min_Stack_Size+0x1520>
    191c:	414c4345 	cmpmi	ip, r5, asr #6
    1920:	20444552 	subcs	r4, r4, r2, asr r5
    1924:	20344400 	eorscs	r4, r4, r0, lsl #8
    1928:	4f495047 	svcmi	0x00495047
    192c:	4e49505f 	mcrmi	0, 2, r5, cr9, cr15, {2}
    1930:	5f00345f 	svcpl	0x0000345f
    1934:	4148435f 	cmpmi	r8, pc, asr r3
    1938:	5f323352 	svcpl	0x00323352
    193c:	45505954 	ldrbmi	r5, [r0, #-2388]	; 0xfffff6ac
    1940:	6c205f5f 	stcvs	15, cr5, [r0], #-380	; 0xfffffe84
    1944:	20676e6f 	rsbcs	r6, r7, pc, ror #28
    1948:	69736e75 	ldmdbvs	r3!, {r0, r2, r4, r5, r6, r9, sl, fp, sp, lr}^
    194c:	64656e67 	strbtvs	r6, [r5], #-3687	; 0xfffff199
    1950:	746e6920 	strbtvc	r6, [lr], #-2336	; 0xfffff6e0
    1954:	415f5f00 	cmpmi	pc, r0, lsl #30
    1958:	465f4d52 			; <UNDEFINED> instruction: 0x465f4d52
    195c:	55544145 	ldrbpl	r4, [r4, #-325]	; 0xfffffebb
    1960:	465f4552 			; <UNDEFINED> instruction: 0x465f4552
    1964:	5f363150 	svcpl	0x00363150
    1968:	54434556 	strbpl	r4, [r3], #-1366	; 0xfffffaaa
    196c:	415f524f 	cmpmi	pc, pc, asr #4
    1970:	48544952 	ldmdami	r4, {r1, r4, r6, r8, fp, lr}^
    1974:	4954454d 	ldmdbmi	r4, {r0, r2, r3, r6, r8, sl, lr}^
    1978:	505f0043 	subspl	r0, pc, r3, asr #32
    197c:	5849534f 	stmdapl	r9, {r0, r1, r2, r3, r6, r8, r9, ip, lr}^
    1980:	535f435f 	cmppl	pc, #2080374785	; 0x7c000001
    1984:	4352554f 	cmpmi	r2, #331350016	; 0x13c00000
    1988:	30322045 	eorscc	r2, r2, r5, asr #32
    198c:	39303830 	ldmdbcc	r0!, {r4, r5, fp, ip, sp}
    1990:	5f5f004c 	svcpl	0x005f004c
    1994:	535f4343 	cmppl	pc, #201326593	; 0xc000001
    1998:	4f505055 	svcmi	0x00505055
    199c:	5f535452 	svcpl	0x00535452
    19a0:	414e5944 	cmpmi	lr, r4, asr #18
    19a4:	5f43494d 	svcpl	0x0043494d
    19a8:	41525241 	cmpmi	r2, r1, asr #4
    19ac:	4e495f59 	mcrmi	15, 2, r5, cr9, cr9, {2}
    19b0:	31205449 			; <UNDEFINED> instruction: 0x31205449
    19b4:	434e4900 	movtmi	r4, #59648	; 0xe900
    19b8:	4d54535f 	ldclmi	3, cr5, [r4, #-380]	; 0xfffffe84
    19bc:	465f3233 			; <UNDEFINED> instruction: 0x465f3233
    19c0:	43333031 	teqmi	r3, #49	; 0x31
    19c4:	58455f36 	stmdapl	r5, {r1, r2, r4, r5, r8, r9, sl, fp, ip, lr}^
    19c8:	445f4954 	ldrbmi	r4, [pc], #-2388	; 19d0 <_Min_Stack_Size+0x15d0>
    19cc:	45564952 	ldrbmi	r4, [r6, #-2386]	; 0xfffff6ae
    19d0:	5f485f52 	svcpl	0x00485f52
    19d4:	5f5f0020 	svcpl	0x005f0020
    19d8:	544e4955 	strbpl	r4, [lr], #-2389	; 0xfffff6ab
    19dc:	5341465f 	movtpl	r4, #5727	; 0x165f
    19e0:	5f323354 	svcpl	0x00323354
    19e4:	5f58414d 	svcpl	0x0058414d
    19e8:	7830205f 	ldmdavc	r0!, {r0, r1, r2, r3, r4, r6, sp}
    19ec:	66666666 	strbtvs	r6, [r6], -r6, ror #12
    19f0:	66666666 	strbtvs	r6, [r6], -r6, ror #12
    19f4:	5f5f0055 	svcpl	0x005f0055
    19f8:	6d5f6d74 	ldclvs	13, cr6, [pc, #-464]	; 1830 <_Min_Stack_Size+0x1430>
    19fc:	5f006e6f 	svcpl	0x00006e6f
    1a00:	544c465f 	strbpl	r4, [ip], #-1631	; 0xfffff9a1
    1a04:	58414d5f 	stmdapl	r1, {r0, r1, r2, r3, r4, r6, r8, sl, fp, lr}^
    1a08:	5058455f 	subspl	r4, r8, pc, asr r5
    1a0c:	31205f5f 			; <UNDEFINED> instruction: 0x31205f5f
    1a10:	5f003832 	svcpl	0x00003832
    1a14:	4e454552 	mcrmi	5, 2, r4, cr5, cr2, {2}
    1a18:	4d455f54 	stclmi	15, cr5, [r5, #-336]	; 0xfffffeb0
    1a1c:	45475245 	strbmi	r5, [r7, #-581]	; 0xfffffdbb
    1a20:	5f59434e 	svcpl	0x0059434e
    1a24:	455a4953 	ldrbmi	r4, [sl, #-2387]	; 0xfffff6ad
    1a28:	00353220 	eorseq	r3, r5, r0, lsr #4
    1a2c:	32425041 	subcc	r5, r2, #65	; 0x41
    1a30:	00524e45 	subseq	r4, r2, r5, asr #28
    1a34:	74735f5f 	ldrbtvc	r5, [r3], #-3935	; 0xfffff0a1
    1a38:	6f6d6672 	svcvs	0x006d6672
    1a3c:	6b696c6e 	blvs	1a5cbfc <_Min_Stack_Size+0x1a5c7fc>
    1a40:	6d662865 	stclvs	8, cr2, [r6, #-404]!	; 0xfffffe6c
    1a44:	67726174 			; <UNDEFINED> instruction: 0x67726174
    1a48:	7269662c 	rsbvc	r6, r9, #44, 12	; 0x2c00000
    1a4c:	61767473 	cmnvs	r6, r3, ror r4
    1a50:	67726172 			; <UNDEFINED> instruction: 0x67726172
    1a54:	5f5f2029 	svcpl	0x005f2029
    1a58:	72747461 	rsbsvc	r7, r4, #1627389952	; 0x61000000
    1a5c:	74756269 	ldrbtvc	r6, [r5], #-617	; 0xfffffd97
    1a60:	285f5f65 	ldmdacs	pc, {r0, r2, r5, r6, r8, r9, sl, fp, ip, lr}^	; <UNPREDICTABLE>
    1a64:	665f5f28 	ldrbvs	r5, [pc], -r8, lsr #30
    1a68:	616d726f 	cmnvs	sp, pc, ror #4
    1a6c:	205f5f74 	subscs	r5, pc, r4, ror pc	; <UNPREDICTABLE>
    1a70:	735f5f28 	cmpvc	pc, #40, 30	; 0xa0
    1a74:	6d667274 	sfmvs	f7, 2, [r6, #-464]!	; 0xfffffe30
    1a78:	5f5f6e6f 	svcpl	0x005f6e6f
    1a7c:	6d66202c 	stclvs	0, cr2, [r6, #-176]!	; 0xffffff50
    1a80:	67726174 			; <UNDEFINED> instruction: 0x67726174
    1a84:	6966202c 	stmdbvs	r6!, {r2, r3, r5, sp}^
    1a88:	76747372 			; <UNDEFINED> instruction: 0x76747372
    1a8c:	72617261 	rsbvc	r7, r1, #268435462	; 0x10000006
    1a90:	29292967 	stmdbcs	r9!, {r0, r1, r2, r5, r6, r8, fp, sp}
    1a94:	445f5f00 	ldrbmi	r5, [pc], #-3840	; 1a9c <_Min_Stack_Size+0x169c>
    1a98:	32314345 	eorscc	r4, r1, #335544321	; 0x14000001
    1a9c:	414d5f38 	cmpmi	sp, r8, lsr pc
    1aa0:	445f544e 	ldrbmi	r5, [pc], #-1102	; 1aa8 <_Min_Stack_Size+0x16a8>
    1aa4:	5f5f4749 	svcpl	0x005f4749
    1aa8:	00343320 	eorseq	r3, r4, r0, lsr #6
    1aac:	5f544e49 	svcpl	0x00544e49
    1ab0:	54534146 	ldrbpl	r4, [r3], #-326	; 0xfffffeba
    1ab4:	494d5f38 	stmdbmi	sp, {r3, r4, r5, r8, r9, sl, fp, ip, lr}^
    1ab8:	2d28204e 	stccs	0, cr2, [r8, #-312]!	; 0xfffffec8
    1abc:	4e495f5f 	mcrmi	15, 2, r5, cr9, cr15, {2}
    1ac0:	41465f54 	cmpmi	r6, r4, asr pc
    1ac4:	5f385453 	svcpl	0x00385453
    1ac8:	5f58414d 	svcpl	0x0058414d
    1acc:	202d205f 	eorcs	r2, sp, pc, asr r0
    1ad0:	5f002931 	svcpl	0x00002931
    1ad4:	44414552 	strbmi	r4, [r1], #-1362	; 0xfffffaae
    1ad8:	4952575f 	ldmdbmi	r2, {r0, r1, r2, r3, r4, r6, r8, r9, sl, ip, lr}^
    1adc:	425f4554 	subsmi	r4, pc, #84, 10	; 0x15000000
    1ae0:	49534655 	ldmdbmi	r3, {r0, r2, r4, r6, r9, sl, lr}^
    1ae4:	545f455a 	ldrbpl	r4, [pc], #-1370	; 1aec <_Min_Stack_Size+0x16ec>
    1ae8:	20455059 	subcs	r5, r5, r9, asr r0
    1aec:	00746e69 	rsbseq	r6, r4, r9, ror #28
    1af0:	49535f5f 	ldmdbmi	r3, {r0, r1, r2, r3, r4, r6, r8, r9, sl, fp, ip, lr}^
    1af4:	464f455a 			; <UNDEFINED> instruction: 0x464f455a
    1af8:	554f445f 	strbpl	r4, [pc, #-1119]	; 16a1 <_Min_Stack_Size+0x12a1>
    1afc:	5f454c42 	svcpl	0x00454c42
    1b00:	0038205f 	eorseq	r2, r8, pc, asr r0
    1b04:	4e495f5f 	mcrmi	15, 2, r5, cr9, cr15, {2}
    1b08:	454c5f54 	strbmi	r5, [ip, #-3924]	; 0xfffff0ac
    1b0c:	33545341 	cmpcc	r4, #67108865	; 0x4000001
    1b10:	49575f32 	ldmdbmi	r7, {r1, r4, r5, r8, r9, sl, fp, ip, lr}^
    1b14:	5f485444 	svcpl	0x00485444
    1b18:	3233205f 	eorscc	r2, r3, #95	; 0x5f
    1b1c:	4c435f00 	mcrrmi	15, 0, r5, r3, cr0
    1b20:	5f4b434f 	svcpl	0x004b434f
    1b24:	75205f54 	strvc	r5, [r0, #-3924]!	; 0xfffff0ac
    1b28:	6769736e 	strbvs	r7, [r9, -lr, ror #6]!
    1b2c:	2064656e 	rsbcs	r6, r4, lr, ror #10
    1b30:	676e6f6c 	strbvs	r6, [lr, -ip, ror #30]!
    1b34:	465f5f00 	ldrbmi	r5, [pc], -r0, lsl #30
    1b38:	3233544c 	eorscc	r5, r3, #76, 8	; 0x4c000000
    1b3c:	494d5f58 	stmdbmi	sp, {r3, r4, r6, r8, r9, sl, fp, ip, lr}^
    1b40:	58455f4e 	stmdapl	r5, {r1, r2, r3, r6, r8, r9, sl, fp, ip, lr}^
    1b44:	205f5f50 	subscs	r5, pc, r0, asr pc	; <UNPREDICTABLE>
    1b48:	30312d28 	eorscc	r2, r1, r8, lsr #26
    1b4c:	00293132 	eoreq	r3, r9, r2, lsr r1
    1b50:	41465f5f 	cmpmi	r6, pc, asr pc
    1b54:	36315453 			; <UNDEFINED> instruction: 0x36315453
    1b58:	58450020 	stmdapl	r5, {r5}^
    1b5c:	50374954 	eorspl	r4, r7, r4, asr r9
    1b60:	28203743 	stmdacs	r0!, {r0, r1, r6, r8, r9, sl, ip, sp}
    1b64:	49545845 	ldmdbmi	r4, {r0, r2, r6, fp, ip, lr}^
    1b68:	4950475f 	ldmdbmi	r0, {r0, r1, r2, r3, r4, r6, r8, r9, sl, lr}^
    1b6c:	614d5f4f 	cmpvs	sp, pc, asr #30
    1b70:	676e6970 			; <UNDEFINED> instruction: 0x676e6970
    1b74:	7b29745f 	blvc	a5ecf8 <_Min_Stack_Size+0xa5e8f8>
    1b78:	49545845 	ldmdbmi	r4, {r0, r2, r6, fp, ip, lr}^
    1b7c:	50472c37 	subpl	r2, r7, r7, lsr ip
    1b80:	2c434f49 	mcrrcs	15, 4, r4, r3, cr9
    1b84:	4f495047 	svcmi	0x00495047
    1b88:	4e49505f 	mcrmi	0, 2, r5, cr9, cr15, {2}
    1b8c:	452c375f 	strmi	r3, [ip, #-1887]!	; 0xfffff8a1
    1b90:	37495458 	smlsldcc	r5, r9, r8, r4
    1b94:	5152495f 	cmppl	r2, pc, asr r9
    1b98:	6d5f007d 	ldclvs	0, cr0, [pc, #-500]	; 19ac <_Min_Stack_Size+0x15ac>
    1b9c:	5f637369 	svcpl	0x00637369
    1ba0:	6e656572 	mcrvs	5, 3, r6, cr5, cr2, {3}
    1ba4:	525f0074 	subspl	r0, pc, #116	; 0x74
    1ba8:	544e4545 	strbpl	r4, [lr], #-1349	; 0xfffffabb
    1bac:	4e41525f 	mcrmi	2, 2, r5, cr1, cr15, {2}
    1bb0:	5f383444 	svcpl	0x00383444
    1bb4:	44454553 	strbmi	r4, [r5], #-1363	; 0xfffffaad
    1bb8:	72747028 	rsbsvc	r7, r4, #40	; 0x28
    1bbc:	28282029 	stmdacs	r8!, {r0, r3, r5, sp}
    1bc0:	29727470 	ldmdbcs	r2!, {r4, r5, r6, sl, ip, sp, lr}^
    1bc4:	725f3e2d 	subsvc	r3, pc, #720	; 0x2d0
    1bc8:	3e2d3834 	mcrcc	8, 1, r3, cr13, cr4, {1}
    1bcc:	6565735f 	strbvs	r7, [r5, #-863]!	; 0xfffffca1
    1bd0:	5f002964 	svcpl	0x00002964
    1bd4:	52414c5f 	subpl	r4, r1, #24320	; 0x5f00
    1bd8:	49464547 	stmdbmi	r6, {r0, r1, r2, r6, r8, sl, lr}^
    1bdc:	565f454c 	ldrbpl	r4, [pc], -ip, asr #10
    1be0:	42495349 	submi	r5, r9, #603979777	; 0x24000001
    1be4:	3020454c 	eorcc	r4, r0, ip, asr #10
    1be8:	445f5f00 	ldrbmi	r5, [pc], #-3840	; 1bf0 <_Min_Stack_Size+0x17f0>
    1bec:	34364345 	ldrtcc	r4, [r6], #-837	; 0xfffffcbb
    1bf0:	58414d5f 	stmdapl	r1, {r0, r1, r2, r3, r4, r6, r8, sl, fp, lr}^
    1bf4:	39205f5f 	stmdbcc	r0!, {r0, r1, r2, r3, r4, r6, r8, r9, sl, fp, ip, lr}
    1bf8:	3939392e 	ldmdbcc	r9!, {r1, r2, r3, r5, r8, fp, ip, sp}
    1bfc:	39393939 	ldmdbcc	r9!, {r0, r3, r4, r5, r8, fp, ip, sp}
    1c00:	39393939 	ldmdbcc	r9!, {r0, r3, r4, r5, r8, fp, ip, sp}
    1c04:	39393939 	ldmdbcc	r9!, {r0, r3, r4, r5, r8, fp, ip, sp}
    1c08:	34383345 	ldrtcc	r3, [r8], #-837	; 0xfffffcbb
    1c0c:	5f004444 	svcpl	0x00004444
    1c10:	746e695f 	strbtvc	r6, [lr], #-2399	; 0xfffff6a1
    1c14:	7361665f 	cmnvc	r1, #99614720	; 0x5f00000
    1c18:	745f3874 	ldrbvc	r3, [pc], #-2164	; 1c20 <_Min_Stack_Size+0x1820>
    1c1c:	6665645f 			; <UNDEFINED> instruction: 0x6665645f
    1c20:	64656e69 	strbtvs	r6, [r5], #-3689	; 0xfffff197
    1c24:	5f003120 	svcpl	0x00003120
    1c28:	57454e5f 	smlsldpl	r4, r5, pc, lr	; <UNPREDICTABLE>
    1c2c:	5f42494c 	svcpl	0x0042494c
    1c30:	0033205f 	eorseq	r2, r3, pc, asr r0
    1c34:	4545525f 	strbmi	r5, [r5, #-607]	; 0xfffffda1
    1c38:	495f544e 	ldmdbmi	pc, {r1, r2, r3, r6, sl, ip, lr}^	; <UNPREDICTABLE>
    1c3c:	2854494e 	ldmdacs	r4, {r1, r2, r3, r6, r8, fp, lr}^
    1c40:	29726176 	ldmdbcs	r2!, {r1, r2, r4, r5, r6, r8, sp, lr}^
    1c44:	30207b20 	eorcc	r7, r0, r0, lsr #22
    1c48:	5f28202c 	svcpl	0x0028202c
    1c4c:	4c49465f 	mcrrmi	6, 5, r4, r9, cr15
    1c50:	292a2045 	stmdbcs	sl!, {r0, r2, r6, sp}
    1c54:	735f5f26 	cmpvc	pc, #38, 30	; 0x98
    1c58:	61665f66 	cmnvs	r6, r6, ror #30
    1c5c:	735f656b 	cmpvc	pc, #448790528	; 0x1ac00000
    1c60:	6e696474 	mcrvs	4, 3, r6, cr9, cr4, {3}
    1c64:	5f28202c 	svcpl	0x0028202c
    1c68:	4c49465f 	mcrrmi	6, 5, r4, r9, cr15
    1c6c:	292a2045 	stmdbcs	sl!, {r0, r2, r6, sp}
    1c70:	735f5f26 	cmpvc	pc, #38, 30	; 0x98
    1c74:	61665f66 	cmnvs	r6, r6, ror #30
    1c78:	735f656b 	cmpvc	pc, #448790528	; 0x1ac00000
    1c7c:	756f6474 	strbvc	r6, [pc, #-1140]!	; 1810 <_Min_Stack_Size+0x1410>
    1c80:	28202c74 	stmdacs	r0!, {r2, r4, r5, r6, sl, fp, sp}
    1c84:	49465f5f 	stmdbmi	r6, {r0, r1, r2, r3, r4, r6, r8, r9, sl, fp, ip, lr}^
    1c88:	2a20454c 	bcs	8131c0 <_Min_Stack_Size+0x812dc0>
    1c8c:	5f5f2629 	svcpl	0x005f2629
    1c90:	665f6673 			; <UNDEFINED> instruction: 0x665f6673
    1c94:	5f656b61 	svcpl	0x00656b61
    1c98:	65647473 	strbvs	r7, [r4, #-1139]!	; 0xfffffb8d
    1c9c:	202c7272 	eorcs	r7, ip, r2, ror r2
    1ca0:	5f202c30 	svcpl	0x00202c30
    1ca4:	4c4c554e 	cfstr64mi	mvdx5, [ip], {78}	; 0x4e
    1ca8:	2c30202c 	ldccs	0, cr2, [r0], #-176	; 0xffffff50
    1cac:	202c3020 	eorcs	r3, ip, r0, lsr #32
    1cb0:	4c554e5f 	mrrcmi	14, 5, r4, r5, cr15
    1cb4:	5f202c4c 	svcpl	0x00202c4c
    1cb8:	4c4c554e 	cfstr64mi	mvdx5, [ip], {78}	; 0x4e
    1cbc:	4e5f202c 	cdpmi	0, 5, cr2, cr15, cr12, {1}
    1cc0:	2c4c4c55 	mcrrcs	12, 5, r4, ip, cr5
    1cc4:	202c3020 	eorcs	r3, ip, r0, lsr #32
    1cc8:	5f202c30 	svcpl	0x00202c30
    1ccc:	4c4c554e 	cfstr64mi	mvdx5, [ip], {78}	; 0x4e
    1cd0:	4e5f202c 	cdpmi	0, 5, cr2, cr15, cr12, {1}
    1cd4:	2c4c4c55 	mcrrcs	12, 5, r4, ip, cr5
    1cd8:	554e5f20 	strbpl	r5, [lr, #-3872]	; 0xfffff0e0
    1cdc:	202c4c4c 	eorcs	r4, ip, ip, asr #24
    1ce0:	4c554e5f 	mrrcmi	14, 5, r4, r5, cr15
    1ce4:	5f202c4c 	svcpl	0x00202c4c
    1ce8:	4c4c554e 	cfstr64mi	mvdx5, [ip], {78}	; 0x4e
    1cec:	525f202c 	subspl	r2, pc, #44	; 0x2c
    1cf0:	544e4545 	strbpl	r4, [lr], #-1349	; 0xfffffabb
    1cf4:	494e495f 	stmdbmi	lr, {r0, r1, r2, r3, r4, r6, r8, fp, lr}^
    1cf8:	54415f54 	strbpl	r5, [r1], #-3924	; 0xfffff0ac
    1cfc:	54495845 	strbpl	r5, [r9], #-2117	; 0xfffff7bb
    1d00:	4e5f7b20 	vnmlsmi.f64	d23, d15, d16
    1d04:	2c4c4c55 	mcrrcs	12, 5, r4, ip, cr5
    1d08:	202c3020 	eorcs	r3, ip, r0, lsr #32
    1d0c:	4c554e5f 	mrrcmi	14, 5, r4, r5, cr15
    1d10:	202c7d4c 	eorcs	r7, ip, ip, asr #26
    1d14:	4c554e5f 	mrrcmi	14, 5, r4, r5, cr15
    1d18:	5f202c4c 	svcpl	0x00202c4c
    1d1c:	4c4c554e 	cfstr64mi	mvdx5, [ip], {78}	; 0x4e
    1d20:	4e5f202c 	cdpmi	0, 5, cr2, cr15, cr12, {1}
    1d24:	204c4c55 	subcs	r4, ip, r5, asr ip
    1d28:	434c007d 	movtmi	r0, #49277	; 0xc07d
    1d2c:	41445f44 	cmpmi	r4, r4, asr #30
    1d30:	505f4154 	subspl	r4, pc, r4, asr r1	; <UNPREDICTABLE>
    1d34:	2054524f 	subscs	r5, r4, pc, asr #4
    1d38:	4f495047 	svcmi	0x00495047
    1d3c:	58450041 	stmdapl	r5, {r0, r6}^
    1d40:	535f5449 	cmppl	pc, #1224736768	; 0x49000000
    1d44:	45434355 	strbmi	r4, [r3, #-853]	; 0xfffffcab
    1d48:	30205353 	eorcc	r5, r0, r3, asr r3
    1d4c:	54584500 	ldrbpl	r4, [r8], #-1280	; 0xfffffb00
    1d50:	495f3649 	ldmdbmi	pc, {r0, r3, r6, r9, sl, ip, sp}^	; <UNPREDICTABLE>
    1d54:	32205152 	eorcc	r5, r0, #-2147483628	; 0x80000014
    1d58:	5f5f0033 	svcpl	0x005f0033
    1d5c:	5f415455 	svcpl	0x00415455
    1d60:	54494246 	strbpl	r4, [r9], #-582	; 0xfffffdba
    1d64:	36205f5f 	qsaxcc	r5, r0, pc	; <UNPREDICTABLE>
    1d68:	5f5f0034 	svcpl	0x005f0034
    1d6c:	4e4d5341 	cdpmi	3, 4, cr5, cr13, cr1, {2}
    1d70:	28454d41 	stmdacs	r5, {r0, r6, r8, sl, fp, lr}^
    1d74:	6d616e63 	stclvs	14, cr6, [r1, #-396]!	; 0xfffffe74
    1d78:	5f202965 	svcpl	0x00202965
    1d7c:	5453585f 	ldrbpl	r5, [r3], #-2143	; 0xfffff7a1
    1d80:	474e4952 	smlsldmi	r4, lr, r2, r9
    1d84:	5f5f2820 	svcpl	0x005f2820
    1d88:	52455355 	subpl	r5, r5, #1409286145	; 0x54000001
    1d8c:	42414c5f 	submi	r4, r1, #24320	; 0x5f00
    1d90:	505f4c45 	subspl	r4, pc, r5, asr #24
    1d94:	49464552 	stmdbmi	r6, {r1, r4, r6, r8, sl, lr}^
    1d98:	295f5f58 	ldmdbcs	pc, {r3, r4, r6, r8, r9, sl, fp, ip, lr}^	; <UNPREDICTABLE>
    1d9c:	616e6320 	cmnvs	lr, r0, lsr #6
    1da0:	5f00656d 	svcpl	0x0000656d
    1da4:	544c465f 	strbpl	r4, [ip], #-1631	; 0xfffff9a1
    1da8:	4345445f 	movtmi	r4, #21599	; 0x545f
    1dac:	4c414d49 	mcrrmi	13, 4, r4, r1, cr9
    1db0:	4749445f 	smlsldmi	r4, r9, pc, r4	; <UNPREDICTABLE>
    1db4:	39205f5f 	stmdbcc	r0!, {r0, r1, r2, r3, r4, r6, r8, r9, sl, fp, ip, lr}
    1db8:	49504700 	ldmdbmi	r0, {r8, r9, sl, lr}^
    1dbc:	49505f4f 	ldmdbmi	r0, {r0, r1, r2, r3, r6, r8, r9, sl, fp, ip, lr}^
    1dc0:	4f4c5f4e 	svcmi	0x004c5f4e
    1dc4:	00302057 	eorseq	r2, r0, r7, asr r0
    1dc8:	4e495f5f 	mcrmi	15, 2, r5, cr9, cr15, {2}
    1dcc:	454c5f54 	strbmi	r5, [ip, #-3924]	; 0xfffff0ac
    1dd0:	33545341 	cmpcc	r4, #67108865	; 0x4000001
    1dd4:	414d5f32 	cmpmi	sp, r2, lsr pc
    1dd8:	205f5f58 	subscs	r5, pc, r8, asr pc	; <UNPREDICTABLE>
    1ddc:	66377830 			; <UNDEFINED> instruction: 0x66377830
    1de0:	66666666 	strbtvs	r6, [r6], -r6, ror #12
    1de4:	004c6666 	subeq	r6, ip, r6, ror #12
    1de8:	4f495047 	svcmi	0x00495047
    1dec:	4e49505f 	mcrmi	0, 2, r5, cr9, cr15, {2}
    1df0:	2032315f 	eorscs	r3, r2, pc, asr r1
    1df4:	69752828 	ldmdbvs	r5!, {r3, r5, fp, sp}^
    1df8:	3631746e 	ldrtcc	r7, [r1], -lr, ror #8
    1dfc:	3029745f 	eorcc	r7, r9, pc, asr r4
    1e00:	30303178 	eorscc	r3, r0, r8, ror r1
    1e04:	45002930 	strmi	r2, [r0, #-2352]	; 0xfffff6d0
    1e08:	5f495458 	svcpl	0x00495458
    1e0c:	67697254 			; <UNDEFINED> instruction: 0x67697254
    1e10:	5f726567 	svcpl	0x00726567
    1e14:	4c4c4146 	stfmie	f4, [ip], {70}	; 0x46
    1e18:	20474e49 	subcs	r4, r7, r9, asr #28
    1e1c:	5f5f0031 	svcpl	0x005f0031
    1e20:	665f6673 			; <UNDEFINED> instruction: 0x665f6673
    1e24:	5f656b61 	svcpl	0x00656b61
    1e28:	69647473 	stmdbvs	r4!, {r0, r1, r4, r5, r6, sl, ip, sp, lr}^
    1e2c:	5845006e 	stmdapl	r5, {r1, r2, r3, r5, r6}^
    1e30:	50354954 	eorspl	r4, r5, r4, asr r9
    1e34:	28203541 	stmdacs	r0!, {r0, r6, r8, sl, ip, sp}
    1e38:	49545845 	ldmdbmi	r4, {r0, r2, r6, fp, ip, lr}^
    1e3c:	4950475f 	ldmdbmi	r0, {r0, r1, r2, r3, r4, r6, r8, r9, sl, lr}^
    1e40:	614d5f4f 	cmpvs	sp, pc, asr #30
    1e44:	676e6970 			; <UNDEFINED> instruction: 0x676e6970
    1e48:	7b29745f 	blvc	a5efcc <_Min_Stack_Size+0xa5ebcc>
    1e4c:	49545845 	ldmdbmi	r4, {r0, r2, r6, fp, ip, lr}^
    1e50:	50472c35 	subpl	r2, r7, r5, lsr ip
    1e54:	2c414f49 	mcrrcs	15, 4, r4, r1, cr9
    1e58:	4f495047 	svcmi	0x00495047
    1e5c:	4e49505f 	mcrmi	0, 2, r5, cr9, cr15, {2}
    1e60:	452c355f 	strmi	r3, [ip, #-1375]!	; 0xfffffaa1
    1e64:	35495458 	strbcc	r5, [r9, #-1112]	; 0xfffffba8
    1e68:	5152495f 	cmppl	r2, pc, asr r9
    1e6c:	5f5f007d 	svcpl	0x005f007d
    1e70:	5f727470 	svcpl	0x00727470
    1e74:	6f762074 	svcvs	0x00762074
    1e78:	2a206469 	bcs	81b024 <_Min_Stack_Size+0x81ac24>
    1e7c:	475f5f00 	ldrbmi	r5, [pc, -r0, lsl #30]
    1e80:	5f43554e 	svcpl	0x0043554e
    1e84:	43445453 	movtmi	r5, #17491	; 0x4453
    1e88:	4c4e495f 	mcrrmi	9, 5, r4, lr, cr15	; <UNPREDICTABLE>
    1e8c:	5f454e49 	svcpl	0x00454e49
    1e90:	0031205f 	eorseq	r2, r1, pc, asr r0
    1e94:	52535049 	subspl	r5, r3, #73	; 0x49
    1e98:	5253495f 	subspl	r4, r3, #1556480	; 0x17c000
    1e9c:	4d554e5f 	ldclmi	14, cr4, [r5, #-380]	; 0xfffffe84
    1ea0:	48435700 	stmdami	r3, {r8, r9, sl, ip, lr}^
    1ea4:	4d5f5241 	lfmmi	f5, 2, [pc, #-260]	; 1da8 <_Min_Stack_Size+0x19a8>
    1ea8:	28204e49 	stmdacs	r0!, {r0, r3, r6, r9, sl, fp, lr}
    1eac:	43575f5f 	cmpmi	r7, #380	; 0x17c
    1eb0:	5f524148 	svcpl	0x00524148
    1eb4:	5f4e494d 	svcpl	0x004e494d
    1eb8:	5f00295f 	svcpl	0x0000295f
    1ebc:	4152465f 	cmpmi	r2, pc, asr r6
    1ec0:	465f5443 	ldrbmi	r5, [pc], -r3, asr #8
    1ec4:	5f544942 	svcpl	0x00544942
    1ec8:	3531205f 	ldrcc	r2, [r1, #-95]!	; 0xffffffa1
    1ecc:	4c5f5f00 	mrrcmi	15, 0, r5, pc, cr0	; <UNPREDICTABLE>
    1ed0:	4343414c 	movtmi	r4, #12620	; 0x314c
    1ed4:	455f4d55 	ldrbmi	r4, [pc, #-3413]	; 1187 <_Min_Stack_Size+0xd87>
    1ed8:	4c495350 	mcrrmi	3, 5, r5, r9, cr0
    1edc:	5f5f4e4f 	svcpl	0x005f4e4f
    1ee0:	31783020 	cmncc	r8, r0, lsr #32
    1ee4:	31332d50 	teqcc	r3, r0, asr sp
    1ee8:	004b4c4c 	subeq	r4, fp, ip, asr #24
    1eec:	4e475f5f 	mcrmi	15, 2, r5, cr7, cr15, {2}
    1ef0:	505f4355 	subspl	r4, pc, r5, asr r3	; <UNPREDICTABLE>
    1ef4:	48435441 	stmdami	r3, {r0, r6, sl, ip, lr}^
    1ef8:	4556454c 	ldrbmi	r4, [r6, #-1356]	; 0xfffffab4
    1efc:	205f5f4c 	subscs	r5, pc, ip, asr #30
    1f00:	5f5f0031 	svcpl	0x005f0031
    1f04:	5f434347 	svcpl	0x00434347
    1f08:	4d4f5441 	cfstrdmi	mvd5, [pc, #-260]	; 1e0c <_Min_Stack_Size+0x1a0c>
    1f0c:	435f4349 	cmpmi	pc, #603979777	; 0x24000001
    1f10:	33524148 	cmpcc	r2, #72, 2
    1f14:	5f545f32 	svcpl	0x00545f32
    1f18:	4b434f4c 	blmi	10d5c50 <_Min_Stack_Size+0x10d5850>
    1f1c:	4552465f 	ldrbmi	r4, [r2, #-1631]	; 0xfffff9a1
    1f20:	00322045 	eorseq	r2, r2, r5, asr #32
    1f24:	6c615f5f 	stclvs	15, cr5, [r1], #-380	; 0xfffffe84
    1f28:	5f636f6c 	svcpl	0x00636f6c
    1f2c:	67696c61 	strbvs	r6, [r9, -r1, ror #24]!
    1f30:	2978286e 	ldmdbcs	r8!, {r1, r2, r3, r5, r6, fp, sp}^
    1f34:	615f5f20 	cmpvs	pc, r0, lsr #30
    1f38:	69727474 	ldmdbvs	r2!, {r2, r4, r5, r6, sl, ip, sp, lr}^
    1f3c:	65747562 	ldrbvs	r7, [r4, #-1378]!	; 0xfffffa9e
    1f40:	28285f5f 	stmdacs	r8!, {r0, r1, r2, r3, r4, r6, r8, r9, sl, fp, ip, lr}
    1f44:	6c615f5f 	stclvs	15, cr5, [r1], #-380	; 0xfffffe84
    1f48:	5f636f6c 	svcpl	0x00636f6c
    1f4c:	67696c61 	strbvs	r6, [r9, -r1, ror #24]!
    1f50:	285f5f6e 	ldmdacs	pc, {r1, r2, r3, r5, r6, r8, r9, sl, fp, ip, lr}^	; <UNPREDICTABLE>
    1f54:	29292978 	stmdbcs	r9!, {r3, r4, r5, r6, r8, fp, sp}
    1f58:	555f5f00 	ldrbpl	r5, [pc, #-3840]	; 1060 <_Min_Stack_Size+0xc60>
    1f5c:	5f544e49 	svcpl	0x00544e49
    1f60:	5341454c 	movtpl	r4, #5452	; 0x154c
    1f64:	5f363154 	svcpl	0x00363154
    1f68:	5f58414d 	svcpl	0x0058414d
    1f6c:	7830205f 	ldmdavc	r0!, {r0, r1, r2, r3, r4, r6, sp}
    1f70:	66666666 	strbtvs	r6, [r6], -r6, ror #12
    1f74:	49564e00 	ldmdbmi	r6, {r9, sl, fp, lr}^
    1f78:	52495f43 	subpl	r5, r9, #268	; 0x10c
    1f7c:	455f3751 	ldrbmi	r3, [pc, #-1873]	; 1833 <_Min_Stack_Size+0x1433>
    1f80:	31495458 	cmpcc	r9, r8, asr r4
    1f84:	7369445f 	cmnvc	r9, #1593835520	; 0x5f000000
    1f88:	656c6261 	strbvs	r6, [ip, #-609]!	; 0xfffffd9f
    1f8c:	564e2820 	strbpl	r2, [lr], -r0, lsr #16
    1f90:	495f4349 	ldmdbmi	pc, {r0, r3, r6, r8, r9, lr}^	; <UNPREDICTABLE>
    1f94:	30524543 	subscc	r4, r2, r3, asr #10
    1f98:	203d7c20 	eorscs	r7, sp, r0, lsr #24
    1f9c:	3c3c3128 	ldfccs	f3, [ip], #-160	; 0xffffff60
    1fa0:	00292937 	eoreq	r2, r9, r7, lsr r9
    1fa4:	49545845 	ldmdbmi	r4, {r0, r2, r6, fp, ip, lr}^
    1fa8:	33445033 	movtcc	r5, #16435	; 0x4033
    1fac:	58452820 	stmdapl	r5, {r5, fp, sp}^
    1fb0:	475f4954 			; <UNDEFINED> instruction: 0x475f4954
    1fb4:	5f4f4950 	svcpl	0x004f4950
    1fb8:	6970614d 	ldmdbvs	r0!, {r0, r2, r3, r6, r8, sp, lr}^
    1fbc:	745f676e 	ldrbvc	r6, [pc], #-1902	; 1fc4 <_Min_Stack_Size+0x1bc4>
    1fc0:	58457b29 	stmdapl	r5, {r0, r3, r5, r8, r9, fp, ip, sp, lr}^
    1fc4:	2c334954 			; <UNDEFINED> instruction: 0x2c334954
    1fc8:	4f495047 	svcmi	0x00495047
    1fcc:	50472c44 	subpl	r2, r7, r4, asr #24
    1fd0:	505f4f49 	subspl	r4, pc, r9, asr #30
    1fd4:	335f4e49 	cmpcc	pc, #1168	; 0x490
    1fd8:	5458452c 	ldrbpl	r4, [r8], #-1324	; 0xfffffad4
    1fdc:	495f3349 	ldmdbmi	pc, {r0, r3, r6, r8, r9, ip, sp}^	; <UNPREDICTABLE>
    1fe0:	007d5152 	rsbseq	r5, sp, r2, asr r1
    1fe4:	414c5f5f 	cmpmi	ip, pc, asr pc
    1fe8:	4d554343 	ldclmi	3, cr4, [r5, #-268]	; 0xfffffef4
    1fec:	4942465f 	stmdbmi	r2, {r0, r1, r2, r3, r4, r6, r9, sl, lr}^
    1ff0:	205f5f54 	subscs	r5, pc, r4, asr pc	; <UNPREDICTABLE>
    1ff4:	5f003133 	svcpl	0x00003133
    1ff8:	6572705f 	ldrbvs	r7, [r2, #-95]!	; 0xffffffa1
    1ffc:	74636964 	strbtvc	r6, [r3], #-2404	; 0xfffff69c
    2000:	7572745f 	ldrbvc	r7, [r2, #-1119]!	; 0xfffffba1
    2004:	78652865 	stmdavc	r5!, {r0, r2, r5, r6, fp, sp}^
    2008:	5f202970 	svcpl	0x00202970
    200c:	6975625f 	ldmdbvs	r5!, {r0, r1, r2, r3, r4, r6, r9, sp, lr}^
    2010:	6e69746c 	cdpvs	4, 6, cr7, cr9, cr12, {3}
    2014:	7078655f 	rsbsvc	r6, r8, pc, asr r5
    2018:	28746365 	ldmdacs	r4!, {r0, r2, r5, r6, r8, r9, sp, lr}^
    201c:	70786528 	rsbsvc	r6, r8, r8, lsr #10
    2020:	31202c29 			; <UNDEFINED> instruction: 0x31202c29
    2024:	58450029 	stmdapl	r5, {r0, r3, r5}^
    2028:	31314954 	teqcc	r1, r4, asr r9
    202c:	31314350 	teqcc	r1, r0, asr r3
    2030:	58452820 	stmdapl	r5, {r5, fp, sp}^
    2034:	475f4954 			; <UNDEFINED> instruction: 0x475f4954
    2038:	5f4f4950 	svcpl	0x004f4950
    203c:	6970614d 	ldmdbvs	r0!, {r0, r2, r3, r6, r8, sp, lr}^
    2040:	745f676e 	ldrbvc	r6, [pc], #-1902	; 2048 <_Min_Stack_Size+0x1c48>
    2044:	58457b29 	stmdapl	r5, {r0, r3, r5, r8, r9, fp, ip, sp, lr}^
    2048:	31314954 	teqcc	r1, r4, asr r9
    204c:	4950472c 	ldmdbmi	r0, {r2, r3, r5, r8, r9, sl, lr}^
    2050:	472c434f 	strmi	r4, [ip, -pc, asr #6]!
    2054:	5f4f4950 	svcpl	0x004f4950
    2058:	5f4e4950 	svcpl	0x004e4950
    205c:	452c3131 	strmi	r3, [ip, #-305]!	; 0xfffffecf
    2060:	31495458 	cmpcc	r9, r8, asr r4
    2064:	52495f31 	subpl	r5, r9, #49, 30	; 0xc4
    2068:	5f007d51 	svcpl	0x00007d51
    206c:	544c465f 	strbpl	r4, [ip], #-1631	; 0xfffff9a1
    2070:	4d5f3436 	cfldrdmi	mvd3, [pc, #-216]	; 1fa0 <_Min_Stack_Size+0x1ba0>
    2074:	315f5841 	cmpcc	pc, r1, asr #16
    2078:	58455f30 	stmdapl	r5, {r4, r5, r8, r9, sl, fp, ip, lr}^
    207c:	205f5f50 	subscs	r5, pc, r0, asr pc	; <UNPREDICTABLE>
    2080:	00383033 	eorseq	r3, r8, r3, lsr r0
    2084:	49535f5f 	ldmdbmi	r3, {r0, r1, r2, r3, r4, r6, r8, r9, sl, fp, ip, lr}^
    2088:	464f455a 			; <UNDEFINED> instruction: 0x464f455a
    208c:	4e4f4c5f 	mcrmi	12, 2, r4, cr15, cr15, {2}
    2090:	205f5f47 	subscs	r5, pc, r7, asr #30
    2094:	5f5f0034 	svcpl	0x005f0034
    2098:	72747461 	rsbsvc	r7, r4, #1627389952	; 0x61000000
    209c:	74756269 	ldrbtvc	r6, [r5], #-617	; 0xfffffd97
    20a0:	6f665f65 	svcvs	0x00665f65
    20a4:	74616d72 	strbtvc	r6, [r1], #-3442	; 0xfffff28e
    20a8:	7274735f 	rsbsvc	r7, r4, #2080374785	; 0x7c000001
    20ac:	6e6f6d66 	cdpvs	13, 6, cr6, cr15, cr6, {3}
    20b0:	61285f5f 			; <UNDEFINED> instruction: 0x61285f5f
    20b4:	2029622c 	eorcs	r6, r9, ip, lsr #4
    20b8:	53425f00 	movtpl	r5, #12032	; 0x2f00
    20bc:	49535f44 	ldmdbmi	r3, {r2, r6, r8, r9, sl, fp, ip, lr}^
    20c0:	545f455a 	ldrbpl	r4, [pc], #-1370	; 20c8 <_Min_Stack_Size+0x1cc8>
    20c4:	4645445f 			; <UNDEFINED> instruction: 0x4645445f
    20c8:	44454e49 	strbmi	r4, [r5], #-3657	; 0xfffff1b7
    20cc:	5f00205f 	svcpl	0x0000205f
    20d0:	4e49555f 	mcrmi	5, 2, r5, cr9, cr15, {2}
    20d4:	41465f54 	cmpmi	r6, r4, asr pc
    20d8:	32335453 	eorscc	r5, r3, #1392508928	; 0x53000000
    20dc:	5059545f 	subspl	r5, r9, pc, asr r4
    20e0:	205f5f45 	subscs	r5, pc, r5, asr #30
    20e4:	69736e75 	ldmdbvs	r3!, {r0, r2, r4, r5, r6, r9, sl, fp, sp, lr}^
    20e8:	64656e67 	strbtvs	r6, [r5], #-3687	; 0xfffff199
    20ec:	746e6920 	strbtvc	r6, [lr], #-2336	; 0xfffff6e0
    20f0:	5f5f5f00 	svcpl	0x005f5f00
    20f4:	5f746e69 	svcpl	0x00746e69
    20f8:	657a6973 	ldrbvs	r6, [sl, #-2419]!	; 0xfffff68d
    20fc:	685f745f 	ldmdavs	pc, {r0, r1, r2, r3, r4, r6, sl, ip, sp, lr}^	; <UNPREDICTABLE>
    2100:	5f5f0020 	svcpl	0x005f0020
    2104:	43445453 	movtmi	r5, #17491	; 0x4453
    2108:	4654555f 			; <UNDEFINED> instruction: 0x4654555f
    210c:	5f32335f 	svcpl	0x0032335f
    2110:	0031205f 	eorseq	r2, r1, pc, asr r0
    2114:	49535f5f 	ldmdbmi	r3, {r0, r1, r2, r3, r4, r6, r8, r9, sl, fp, ip, lr}^
    2118:	464f455a 			; <UNDEFINED> instruction: 0x464f455a
    211c:	4f4c465f 	svcmi	0x004c465f
    2120:	5f5f5441 	svcpl	0x005f5441
    2124:	5f003420 	svcpl	0x00003420
    2128:	544c465f 	strbpl	r4, [ip], #-1631	; 0xfffff9a1
    212c:	5f583233 	svcpl	0x00583233
    2130:	4f4e4544 	svcmi	0x004e4544
    2134:	4d5f4d52 	ldclmi	13, cr4, [pc, #-328]	; 1ff4 <_Min_Stack_Size+0x1bf4>
    2138:	5f5f4e49 	svcpl	0x005f4e49
    213c:	392e3420 	stmdbcc	lr!, {r5, sl, ip, sp}
    2140:	35363034 	ldrcc	r3, [r6, #-52]!	; 0xffffffcc
    2144:	38353436 	ldmdacc	r5!, {r1, r2, r4, r5, sl, ip, sp}
    2148:	34323134 	ldrtcc	r3, [r2], #-308	; 0xfffffecc
    214c:	65343536 	ldrvs	r3, [r4, #-1334]!	; 0xfffffaca
    2150:	3432332d 	ldrtcc	r3, [r2], #-813	; 0xfffffcd3
    2154:	78323346 	ldmdavc	r2!, {r1, r2, r6, r8, r9, ip, sp}
    2158:	475f5f00 	ldrbmi	r5, [pc, -r0, lsl #30]
    215c:	4c43554e 	cfstr64mi	mvdx5, [r3], {78}	; 0x4e
    2160:	5f454b49 	svcpl	0x00454b49
    2164:	4854414d 	ldmdami	r4, {r0, r2, r3, r6, r8, lr}^
    2168:	4955425f 	ldmdbmi	r5, {r0, r1, r2, r3, r4, r6, r9, lr}^
    216c:	4e49544c 	cdpmi	4, 4, cr5, cr9, cr12, {2}
    2170:	4c45525f 	sfmmi	f5, 2, [r5], {95}	; 0x5f
    2174:	2053504f 	subscs	r5, r3, pc, asr #32
    2178:	465f5f00 	ldrbmi	r5, [pc], -r0, lsl #30
    217c:	4d5f544c 	cfldrdmi	mvd5, [pc, #-304]	; 2054 <_Min_Stack_Size+0x1c54>
    2180:	315f5841 	cmpcc	pc, r1, asr #16
    2184:	58455f30 	stmdapl	r5, {r4, r5, r8, r9, sl, fp, ip, lr}^
    2188:	205f5f50 	subscs	r5, pc, r0, asr pc	; <UNPREDICTABLE>
    218c:	5f003833 	svcpl	0x00003833
    2190:	544d505f 	strbpl	r5, [sp], #-95	; 0xffffffa1
    2194:	67726128 	ldrbvs	r6, [r2, -r8, lsr #2]!
    2198:	61202973 			; <UNDEFINED> instruction: 0x61202973
    219c:	00736772 	rsbseq	r6, r3, r2, ror r7
    21a0:	45445f5f 	strbmi	r5, [r4, #-3935]	; 0xfffff0a1
    21a4:	38323143 	ldmdacc	r2!, {r0, r1, r6, r8, ip, sp}
    21a8:	58414d5f 	stmdapl	r1, {r0, r1, r2, r3, r4, r6, r8, sl, fp, lr}^
    21ac:	39205f5f 	stmdbcc	r0!, {r0, r1, r2, r3, r4, r6, r8, r9, sl, fp, ip, lr}
    21b0:	3939392e 	ldmdbcc	r9!, {r1, r2, r3, r5, r8, fp, ip, sp}
    21b4:	39393939 	ldmdbcc	r9!, {r0, r3, r4, r5, r8, fp, ip, sp}
    21b8:	39393939 	ldmdbcc	r9!, {r0, r3, r4, r5, r8, fp, ip, sp}
    21bc:	39393939 	ldmdbcc	r9!, {r0, r3, r4, r5, r8, fp, ip, sp}
    21c0:	39393939 	ldmdbcc	r9!, {r0, r3, r4, r5, r8, fp, ip, sp}
    21c4:	39393939 	ldmdbcc	r9!, {r0, r3, r4, r5, r8, fp, ip, sp}
    21c8:	39393939 	ldmdbcc	r9!, {r0, r3, r4, r5, r8, fp, ip, sp}
    21cc:	39393939 	ldmdbcc	r9!, {r0, r3, r4, r5, r8, fp, ip, sp}
    21d0:	36453939 			; <UNDEFINED> instruction: 0x36453939
    21d4:	44343431 	ldrtmi	r3, [r4], #-1073	; 0xfffffbcf
    21d8:	5f5f004c 	svcpl	0x005f004c
    21dc:	43415246 	movtmi	r5, #4678	; 0x1246
    21e0:	414d5f54 	cmpmi	sp, r4, asr pc
    21e4:	205f5f58 	subscs	r5, pc, r8, asr pc	; <UNPREDICTABLE>
    21e8:	46375830 			; <UNDEFINED> instruction: 0x46375830
    21ec:	2d504646 	ldclcs	6, cr4, [r0, #-280]	; 0xfffffee8
    21f0:	00523531 	subseq	r3, r2, r1, lsr r5
    21f4:	43475f5f 	movtmi	r5, #32607	; 0x7f5f
    21f8:	45495f43 	strbmi	r5, [r9, #-3907]	; 0xfffff0bd
    21fc:	35355f43 	ldrcc	r5, [r5, #-3907]!	; 0xfffff0bd
    2200:	00302039 	eorseq	r2, r0, r9, lsr r0
    2204:	4349564e 	movtmi	r5, #38478	; 0x964e
    2208:	5152495f 	cmppl	r2, pc, asr r9
    220c:	58455f36 	stmdapl	r5, {r1, r2, r4, r5, r8, r9, sl, fp, ip, lr}^
    2210:	5f304954 	svcpl	0x00304954
    2214:	61736944 	cmnvs	r3, r4, asr #18
    2218:	20656c62 	rsbcs	r6, r5, r2, ror #24
    221c:	49564e28 	ldmdbmi	r6, {r3, r5, r9, sl, fp, lr}^
    2220:	43495f43 	movtmi	r5, #40771	; 0x9f43
    2224:	20305245 	eorscs	r5, r0, r5, asr #4
    2228:	28203d7c 	stmdacs	r0!, {r2, r3, r4, r5, r6, r8, sl, fp, ip, sp}
    222c:	363c3c31 			; <UNDEFINED> instruction: 0x363c3c31
    2230:	49002929 	stmdbmi	r0, {r0, r3, r5, r8, fp, sp}
    2234:	4372636e 	cmnmi	r2, #-1207959551	; 0xb8000001
    2238:	6f737275 	svcvs	0x00737275
    223c:	78302072 	ldmdavc	r0!, {r1, r4, r5, r6, sp}
    2240:	5f003630 	svcpl	0x00003630
    2244:	544e495f 	strbpl	r4, [lr], #-2399	; 0xfffff6a1
    2248:	5341465f 	movtpl	r4, #5727	; 0x165f
    224c:	5f323354 	svcpl	0x00323354
    2250:	5f58414d 	svcpl	0x0058414d
    2254:	7830205f 	ldmdavc	r0!, {r0, r1, r2, r3, r4, r6, sp}
    2258:	66666637 			; <UNDEFINED> instruction: 0x66666637
    225c:	66666666 	strbtvs	r6, [r6], -r6, ror #12
    2260:	415f5f00 	cmpmi	pc, r0, lsl #30
    2264:	494d4f54 	stmdbmi	sp, {r2, r4, r6, r8, r9, sl, fp, lr}^
    2268:	45535f43 	ldrbmi	r5, [r3, #-3907]	; 0xfffff0bd
    226c:	53435f51 	movtpl	r5, #16209	; 0x3f51
    2270:	00352054 	eorseq	r2, r5, r4, asr r0
    2274:	4145525f 	cmpmi	r5, pc, asr r2
    2278:	52575f44 	subspl	r5, r7, #68, 30	; 0x110
    227c:	5f455449 	svcpl	0x00455449
    2280:	55544552 	ldrbpl	r4, [r4, #-1362]	; 0xfffffaae
    2284:	545f4e52 	ldrbpl	r4, [pc], #-3666	; 228c <_Min_Stack_Size+0x1e8c>
    2288:	20455059 	subcs	r5, r5, r9, asr r0
    228c:	00746e69 	rsbseq	r6, r4, r9, ror #28
    2290:	4349564e 	movtmi	r5, #38478	; 0x964e
    2294:	5152495f 	cmppl	r2, pc, asr r9
    2298:	455f3034 	ldrbmi	r3, [pc, #-52]	; 226c <_Min_Stack_Size+0x1e6c>
    229c:	31495458 	cmpcc	r9, r8, asr r4
    22a0:	35315f30 	ldrcc	r5, [r1, #-3888]!	; 0xfffff0d0
    22a4:	7369445f 	cmnvc	r9, #1593835520	; 0x5f000000
    22a8:	656c6261 	strbvs	r6, [ip, #-609]!	; 0xfffffd9f
    22ac:	564e2820 	strbpl	r2, [lr], -r0, lsr #16
    22b0:	495f4349 	ldmdbmi	pc, {r0, r3, r6, r8, r9, lr}^	; <UNPREDICTABLE>
    22b4:	31524543 	cmpcc	r2, r3, asr #10
    22b8:	203d7c20 	eorscs	r7, sp, r0, lsr #24
    22bc:	3c3c3128 	ldfccs	f3, [ip], #-160	; 0xffffff60
    22c0:	00292938 	eoreq	r2, r9, r8, lsr r9
    22c4:	43414d5f 	movtmi	r4, #7519	; 0x1d5f
    22c8:	44545348 	ldrbmi	r5, [r4], #-840	; 0xfffffcb8
    22cc:	5f42494c 	svcpl	0x0042494c
    22d0:	00205f48 	eoreq	r5, r0, r8, asr #30
    22d4:	736e755f 	cmnvc	lr, #398458880	; 0x17c00000
    22d8:	69636570 	stmdbvs	r3!, {r4, r5, r6, r8, sl, sp, lr}^
    22dc:	64656966 	strbtvs	r6, [r5], #-2406	; 0xfffff69a
    22e0:	636f6c5f 	cmnvs	pc, #24320	; 0x5f00
    22e4:	5f656c61 	svcpl	0x00656c61
    22e8:	6f666e69 	svcvs	0x00666e69
    22ec:	6e5f5f00 	cdpvs	15, 5, cr5, cr15, cr0, {0}
    22f0:	5f646565 	svcpl	0x00646565
    22f4:	746e6977 	strbtvc	r6, [lr], #-2423	; 0xfffff689
    22f8:	5f00745f 	svcpl	0x0000745f
    22fc:	6d79735f 	ldclvs	3, cr7, [r9, #-380]!	; 0xfffffe84
    2300:	6665645f 			; <UNDEFINED> instruction: 0x6665645f
    2304:	746c7561 	strbtvc	r7, [ip], #-1377	; 0xfffffa9f
    2308:	6d797328 	ldclvs	3, cr7, [r9, #-160]!	; 0xffffff60
    230c:	706d692c 	rsbvc	r6, sp, ip, lsr #18
    2310:	65762c6c 	ldrbvs	r2, [r6, #-3180]!	; 0xfffff394
    2314:	29646972 	stmdbcs	r4!, {r1, r4, r5, r6, r8, fp, sp, lr}^
    2318:	615f5f20 	cmpvs	pc, r0, lsr #30
    231c:	5f5f6d73 	svcpl	0x005f6d73
    2320:	732e2228 			; <UNDEFINED> instruction: 0x732e2228
    2324:	65766d79 	ldrbvs	r6, [r6, #-3449]!	; 0xfffff287
    2328:	20222072 	eorcs	r2, r2, r2, ror r0
    232c:	706d6923 	rsbvc	r6, sp, r3, lsr #18
    2330:	2c22206c 	stccs	0, cr2, [r2], #-432	; 0xfffffe50
    2334:	23202220 			; <UNDEFINED> instruction: 0x23202220
    2338:	206d7973 	rsbcs	r7, sp, r3, ror r9
    233c:	22404022 	subcs	r4, r0, #34	; 0x22
    2340:	65762320 	ldrbvs	r2, [r6, #-800]!	; 0xfffffce0
    2344:	29646972 	stmdbcs	r4!, {r1, r4, r5, r6, r8, fp, sp, lr}^
    2348:	544e4900 	strbpl	r4, [lr], #-2304	; 0xfffff700
    234c:	5341465f 	movtpl	r4, #5727	; 0x165f
    2350:	4d5f3854 	ldclmi	8, cr3, [pc, #-336]	; 2208 <_Min_Stack_Size+0x1e08>
    2354:	28205841 	stmdacs	r0!, {r0, r6, fp, ip, lr}
    2358:	4e495f5f 	mcrmi	15, 2, r5, cr9, cr15, {2}
    235c:	41465f54 	cmpmi	r6, r4, asr pc
    2360:	5f385453 	svcpl	0x00385453
    2364:	5f58414d 	svcpl	0x0058414d
    2368:	5f00295f 	svcpl	0x0000295f
    236c:	4e49555f 	mcrmi	5, 2, r5, cr9, cr15, {2}
    2370:	5f363154 	svcpl	0x00363154
    2374:	5f58414d 	svcpl	0x0058414d
    2378:	7830205f 	ldmdavc	r0!, {r0, r1, r2, r3, r4, r6, sp}
    237c:	66666666 	strbtvs	r6, [r6], -r6, ror #12
    2380:	545f5f00 	ldrbpl	r5, [pc], #-3840	; 2388 <_Min_Stack_Size+0x1f88>
    2384:	42465f51 	submi	r5, r6, #324	; 0x144
    2388:	5f5f5449 	svcpl	0x005f5449
    238c:	37323120 	ldrcc	r3, [r2, -r0, lsr #2]!
    2390:	49464100 	stmdbmi	r6, {r8, lr}^
    2394:	2828204f 	stmdacs	r8!, {r0, r1, r2, r3, r6, sp}
    2398:	4f494641 	svcmi	0x00494641
    239c:	7079545f 	rsbsvc	r5, r9, pc, asr r4
    23a0:	66656465 	strbtvs	r6, [r5], -r5, ror #8
    23a4:	41292a20 			; <UNDEFINED> instruction: 0x41292a20
    23a8:	5f4f4946 	svcpl	0x004f4946
    23ac:	45534142 	ldrbmi	r4, [r3, #-322]	; 0xfffffebe
    23b0:	5f5f0029 	svcpl	0x005f0029
    23b4:	31434544 	cmpcc	r3, r4, asr #10
    23b8:	535f3832 	cmppl	pc, #3276800	; 0x320000
    23bc:	4f4e4255 	svcmi	0x004e4255
    23c0:	4c414d52 	mcrrmi	13, 5, r4, r1, cr2
    23c4:	4e494d5f 	mcrmi	13, 2, r4, cr9, cr15, {2}
    23c8:	30205f5f 	eorcc	r5, r0, pc, asr pc
    23cc:	3030302e 	eorscc	r3, r0, lr, lsr #32
    23d0:	30303030 	eorscc	r3, r0, r0, lsr r0
    23d4:	30303030 	eorscc	r3, r0, r0, lsr r0
    23d8:	30303030 	eorscc	r3, r0, r0, lsr r0
    23dc:	30303030 	eorscc	r3, r0, r0, lsr r0
    23e0:	30303030 	eorscc	r3, r0, r0, lsr r0
    23e4:	30303030 	eorscc	r3, r0, r0, lsr r0
    23e8:	30303030 	eorscc	r3, r0, r0, lsr r0
    23ec:	2d453130 	stfcse	f3, [r5, #-192]	; 0xffffff40
    23f0:	33343136 	teqcc	r4, #-2147483635	; 0x8000000d
    23f4:	5f004c44 	svcpl	0x00004c44
    23f8:	45564148 	ldrbmi	r4, [r6, #-328]	; 0xfffffeb8
    23fc:	4e4f4c5f 	mcrmi	12, 2, r4, cr15, cr15, {2}
    2400:	4f445f47 	svcmi	0x00445f47
    2404:	454c4255 	strbmi	r4, [ip, #-597]	; 0xfffffdab
    2408:	5f003120 	svcpl	0x00003120
    240c:	746e695f 	strbtvc	r6, [lr], #-2399	; 0xfffff6a1
    2410:	7361665f 	cmnvc	r1, #99614720	; 0x5f00000
    2414:	5f343674 	svcpl	0x00343674
    2418:	65645f74 	strbvs	r5, [r4, #-3956]!	; 0xfffff08c
    241c:	656e6966 	strbvs	r6, [lr, #-2406]!	; 0xfffff69a
    2420:	00312064 	eorseq	r2, r1, r4, rrx
    2424:	4545525f 	strbmi	r5, [r5, #-607]	; 0xfffffda1
    2428:	4d5f544e 	cfldrdmi	mvd5, [pc, #-312]	; 22f8 <_Min_Stack_Size+0x1ef8>
    242c:	4f545242 	svcmi	0x00545242
    2430:	535f4357 	cmppl	pc, #1543503873	; 0x5c000001
    2434:	45544154 	ldrbmi	r4, [r4, #-340]	; 0xfffffeac
    2438:	72747028 	rsbsvc	r7, r4, #40	; 0x28
    243c:	28282029 	stmdacs	r8!, {r0, r3, r5, sp}
    2440:	29727470 	ldmdbcs	r2!, {r4, r5, r6, sl, ip, sp, lr}^
    2444:	6d5f3e2d 	ldclvs	14, cr3, [pc, #-180]	; 2398 <_Min_Stack_Size+0x1f98>
    2448:	2d637369 	stclcs	3, cr7, [r3, #-420]!	; 0xfffffe5c
    244c:	626d5f3e 	rsbvs	r5, sp, #62, 30	; 0xf8
    2450:	776f7472 			; <UNDEFINED> instruction: 0x776f7472
    2454:	74735f63 	ldrbtvc	r5, [r3], #-3939	; 0xfffff09d
    2458:	29657461 	stmdbcs	r5!, {r0, r5, r6, sl, ip, sp, lr}^
    245c:	49564e00 	ldmdbmi	r6, {r9, sl, fp, lr}^
    2460:	52495f43 	subpl	r5, r9, #268	; 0x10c
    2464:	5f303151 	svcpl	0x00303151
    2468:	49545845 	ldmdbmi	r4, {r0, r2, r6, fp, ip, lr}^
    246c:	6e455f34 	mcrvs	15, 2, r5, cr5, cr4, {1}
    2470:	656c6261 	strbvs	r6, [ip, #-609]!	; 0xfffffd9f
    2474:	564e2820 	strbpl	r2, [lr], -r0, lsr #16
    2478:	495f4349 	ldmdbmi	pc, {r0, r3, r6, r8, r9, lr}^	; <UNPREDICTABLE>
    247c:	30524553 	subscc	r4, r2, r3, asr r5
    2480:	203d7c20 	eorscs	r7, sp, r0, lsr #24
    2484:	3c3c3128 	ldfccs	f3, [ip], #-160	; 0xffffff60
    2488:	29293031 	stmdbcs	r9!, {r0, r4, r5, ip, sp}
    248c:	49504700 	ldmdbmi	r0, {r8, r9, sl, lr}^
    2490:	50535f4f 	subspl	r5, r3, pc, asr #30
    2494:	5f444545 	svcpl	0x00444545
    2498:	484d3035 	stmdami	sp, {r0, r2, r4, r5, ip, sp}^
    249c:	7830205a 	ldmdavc	r0!, {r1, r3, r4, r6, sp}
    24a0:	30303030 	eorscc	r3, r0, r0, lsr r0
    24a4:	33303030 	teqcc	r0, #48	; 0x30
    24a8:	5f5f0075 	svcpl	0x005f0075
    24ac:	455a4953 	ldrbmi	r4, [sl, #-2387]	; 0xfffff6ad
    24b0:	535f464f 	cmppl	pc, #82837504	; 0x4f00000
    24b4:	54524f48 	ldrbpl	r4, [r2], #-3912	; 0xfffff0b8
    24b8:	32205f5f 	eorcc	r5, r0, #380	; 0x17c
    24bc:	555f5f00 	ldrbpl	r5, [pc, #-3840]	; 15c4 <_Min_Stack_Size+0x11c4>
    24c0:	43414c4c 	movtmi	r4, #7244	; 0x1c4c
    24c4:	5f4d5543 	svcpl	0x004d5543
    24c8:	54494246 	strbpl	r4, [r9], #-582	; 0xfffffdba
    24cc:	33205f5f 			; <UNDEFINED> instruction: 0x33205f5f
    24d0:	5f5f0032 	svcpl	0x005f0032
    24d4:	4f434544 	svcmi	0x00434544
    24d8:	2854534e 	ldmdacs	r4, {r1, r2, r3, r6, r8, r9, ip, lr}^
    24dc:	65707974 	ldrbvs	r7, [r0, #-2420]!	; 0xfffff68c
    24e0:	7261762c 	rsbvc	r7, r1, #44, 12	; 0x2c00000
    24e4:	28282029 	stmdacs	r8!, {r0, r3, r5, sp}
    24e8:	65707974 	ldrbvs	r7, [r0, #-2420]!	; 0xfffff68c
    24ec:	5f5f2829 	svcpl	0x005f2829
    24f0:	746e6975 	strbtvc	r6, [lr], #-2421	; 0xfffff68b
    24f4:	5f727470 	svcpl	0x00727470
    24f8:	63282974 			; <UNDEFINED> instruction: 0x63282974
    24fc:	74736e6f 	ldrbtvc	r6, [r3], #-3695	; 0xfffff191
    2500:	696f7620 	stmdbvs	pc!, {r5, r9, sl, ip, sp, lr}^	; <UNPREDICTABLE>
    2504:	292a2064 	stmdbcs	sl!, {r2, r5, r6, sp}
    2508:	72617628 	rsbvc	r7, r1, #40, 12	; 0x2800000
    250c:	5f002929 	svcpl	0x00002929
    2510:	5f535953 	svcpl	0x00535953
    2514:	54414546 	strbpl	r4, [r1], #-1350	; 0xfffffaba
    2518:	53455255 	movtpl	r5, #21077	; 0x5255
    251c:	0020485f 	eoreq	r4, r0, pc, asr r8
    2520:	544e4955 	strbpl	r4, [lr], #-2389	; 0xfffff6ab
    2524:	41454c5f 	cmpmi	r5, pc, asr ip
    2528:	34365453 	ldrtcc	r5, [r6], #-1107	; 0xfffffbad
    252c:	58414d5f 	stmdapl	r1, {r0, r1, r2, r3, r4, r6, r8, sl, fp, lr}^
    2530:	5f5f2820 	svcpl	0x005f2820
    2534:	544e4955 	strbpl	r4, [lr], #-2389	; 0xfffff6ab
    2538:	41454c5f 	cmpmi	r5, pc, asr ip
    253c:	34365453 	ldrtcc	r5, [r6], #-1107	; 0xfffffbad
    2540:	58414d5f 	stmdapl	r1, {r0, r1, r2, r3, r4, r6, r8, sl, fp, lr}^
    2544:	00295f5f 	eoreq	r5, r9, pc, asr pc
    2548:	636e695f 	cmnvs	lr, #1556480	; 0x17c000
    254c:	6e695f00 	cdpvs	15, 6, cr5, cr9, cr0, {0}
    2550:	50470064 	subpl	r0, r7, r4, rrx
    2554:	505f4f49 	subspl	r4, pc, r9, asr #30
    2558:	335f4e49 	cmpcc	pc, #1168	; 0x490
    255c:	75282820 	strvc	r2, [r8, #-2080]!	; 0xfffff7e0
    2560:	31746e69 	cmncc	r4, r9, ror #28
    2564:	29745f36 	ldmdbcs	r4!, {r1, r2, r4, r5, r8, r9, sl, fp, ip, lr}^
    2568:	30307830 	eorscc	r7, r0, r0, lsr r8
    256c:	00293830 	eoreq	r3, r9, r0, lsr r8
    2570:	49535f5f 	ldmdbmi	r3, {r0, r1, r2, r3, r4, r6, r8, r9, sl, fp, ip, lr}^
    2574:	464f455a 			; <UNDEFINED> instruction: 0x464f455a
    2578:	4e4f4c5f 	mcrmi	12, 2, r4, cr15, cr15, {2}
    257c:	4f445f47 	svcmi	0x00445f47
    2580:	454c4255 	strbmi	r4, [ip, #-597]	; 0xfffffdab
    2584:	38205f5f 	stmdacc	r0!, {r0, r1, r2, r3, r4, r6, r8, r9, sl, fp, ip, lr}
    2588:	54584500 	ldrbpl	r4, [r8], #-1280	; 0xfffffb00
    258c:	41503249 	cmpmi	r0, r9, asr #4
    2590:	45282032 	strmi	r2, [r8, #-50]!	; 0xffffffce
    2594:	5f495458 	svcpl	0x00495458
    2598:	4f495047 	svcmi	0x00495047
    259c:	70614d5f 	rsbvc	r4, r1, pc, asr sp
    25a0:	5f676e69 	svcpl	0x00676e69
    25a4:	457b2974 	ldrbmi	r2, [fp, #-2420]!	; 0xfffff68c
    25a8:	32495458 	subcc	r5, r9, #88, 8	; 0x58000000
    25ac:	4950472c 	ldmdbmi	r0, {r2, r3, r5, r8, r9, sl, lr}^
    25b0:	472c414f 	strmi	r4, [ip, -pc, asr #2]!
    25b4:	5f4f4950 	svcpl	0x004f4950
    25b8:	5f4e4950 	svcpl	0x004e4950
    25bc:	58452c32 	stmdapl	r5, {r1, r4, r5, sl, fp, sp}^
    25c0:	5f324954 	svcpl	0x00324954
    25c4:	7d515249 	lfmvc	f5, 2, [r1, #-292]	; 0xfffffedc
    25c8:	505f5f00 	subspl	r5, pc, r0, lsl #30
    25cc:	4d474152 	stfmie	f4, [r7, #-328]	; 0xfffffeb8
    25d0:	45525f41 	ldrbmi	r5, [r2, #-3905]	; 0xfffff0bf
    25d4:	49464544 	stmdbmi	r6, {r2, r6, r8, sl, lr}^
    25d8:	455f454e 	ldrbmi	r4, [pc, #-1358]	; 2092 <_Min_Stack_Size+0x1c92>
    25dc:	414e5458 	cmpmi	lr, r8, asr r4
    25e0:	3120454d 			; <UNDEFINED> instruction: 0x3120454d
    25e4:	575f5f00 	ldrbpl	r5, [pc, -r0, lsl #30]
    25e8:	52414843 	subpl	r4, r1, #4390912	; 0x430000
    25ec:	5059545f 	subspl	r5, r9, pc, asr r4
    25f0:	205f5f45 	subscs	r5, pc, r5, asr #30
    25f4:	69736e75 	ldmdbvs	r3!, {r0, r2, r4, r5, r6, r9, sl, fp, sp, lr}^
    25f8:	64656e67 	strbtvs	r6, [r5], #-3687	; 0xfffff199
    25fc:	746e6920 	strbtvc	r6, [lr], #-2336	; 0xfffff6e0
    2600:	45525f00 	ldrbmi	r5, [r2, #-3840]	; 0xfffff100
    2604:	5f544e45 	svcpl	0x00544e45
    2608:	4e474953 			; <UNDEFINED> instruction: 0x4e474953
    260c:	284d4147 	stmdacs	sp, {r0, r1, r2, r6, r8, lr}^
    2610:	29727470 	ldmdbcs	r2!, {r4, r5, r6, sl, ip, sp, lr}^
    2614:	70282820 	eorvc	r2, r8, r0, lsr #16
    2618:	2d297274 	sfmcs	f7, 4, [r9, #-464]!	; 0xfffffe30
    261c:	61675f3e 	cmnvs	r7, lr, lsr pc
    2620:	5f616d6d 	svcpl	0x00616d6d
    2624:	6e676973 			; <UNDEFINED> instruction: 0x6e676973
    2628:	296d6167 	stmdbcs	sp!, {r0, r1, r2, r5, r6, r8, sp, lr}^
    262c:	54584500 	ldrbpl	r4, [r8], #-1280	; 0xfffffb00
    2630:	50313149 	eorspl	r3, r1, r9, asr #2
    2634:	20313142 	eorscs	r3, r1, r2, asr #2
    2638:	54584528 	ldrbpl	r4, [r8], #-1320	; 0xfffffad8
    263c:	50475f49 	subpl	r5, r7, r9, asr #30
    2640:	4d5f4f49 	ldclmi	15, cr4, [pc, #-292]	; 2524 <_Min_Stack_Size+0x2124>
    2644:	6e697061 	cdpvs	0, 6, cr7, cr9, cr1, {3}
    2648:	29745f67 	ldmdbcs	r4!, {r0, r1, r2, r5, r6, r8, r9, sl, fp, ip, lr}^
    264c:	5458457b 	ldrbpl	r4, [r8], #-1403	; 0xfffffa85
    2650:	2c313149 	ldfcss	f3, [r1], #-292	; 0xfffffedc
    2654:	4f495047 	svcmi	0x00495047
    2658:	50472c42 	subpl	r2, r7, r2, asr #24
    265c:	505f4f49 	subspl	r4, pc, r9, asr #30
    2660:	315f4e49 	cmpcc	pc, r9, asr #28
    2664:	58452c31 	stmdapl	r5, {r0, r4, r5, sl, fp, sp}^
    2668:	31314954 	teqcc	r1, r4, asr r9
    266c:	5152495f 	cmppl	r2, pc, asr r9
    2670:	5f5f007d 	svcpl	0x005f007d
    2674:	5f415355 	svcpl	0x00415355
    2678:	54494249 	strbpl	r4, [r9], #-585	; 0xfffffdb7
    267c:	31205f5f 			; <UNDEFINED> instruction: 0x31205f5f
    2680:	58450036 	stmdapl	r5, {r1, r2, r4, r5}^
    2684:	5f314954 	svcpl	0x00314954
    2688:	20515249 	subscs	r5, r1, r9, asr #4
    268c:	5f5f0037 	svcpl	0x005f0037
    2690:	5f434347 	svcpl	0x00434347
    2694:	45564148 	ldrbmi	r4, [r6, #-328]	; 0xfffffeb8
    2698:	4e59535f 	mrcmi	3, 2, r5, cr9, cr15, {2}
    269c:	4f435f43 	svcmi	0x00435f43
    26a0:	5241504d 	subpl	r5, r1, #77	; 0x4d
    26a4:	4e415f45 	cdpmi	15, 4, cr5, cr1, cr5, {2}
    26a8:	57535f44 	ldrbpl	r5, [r3, -r4, asr #30]
    26ac:	325f5041 	subscc	r5, pc, #65	; 0x41
    26b0:	49003120 	stmdbmi	r0, {r5, r8, ip, sp}
    26b4:	414d544e 	cmpmi	sp, lr, asr #8
    26b8:	28435f58 	stmdacs	r3, {r3, r4, r6, r8, r9, sl, fp, ip, lr}^
    26bc:	5f202978 	svcpl	0x00202978
    26c0:	544e495f 	strbpl	r4, [lr], #-2399	; 0xfffff6a1
    26c4:	5f58414d 	svcpl	0x0058414d
    26c8:	29782843 	ldmdbcs	r8!, {r0, r1, r6, fp, sp}^
    26cc:	6e5f5f00 	cdpvs	15, 5, cr5, cr15, cr0, {0}
    26d0:	5f646565 	svcpl	0x00646565
    26d4:	61686377 	smcvs	34359	; 0x8637
    26d8:	20745f72 	rsbscs	r5, r4, r2, ror pc
    26dc:	685f5f00 	ldmdavs	pc, {r8, r9, sl, fp, ip, lr}^	; <UNPREDICTABLE>
    26e0:	65646469 	strbvs	r6, [r4, #-1129]!	; 0xfffffb97
    26e4:	5f5f206e 	svcpl	0x005f206e
    26e8:	72747461 	rsbsvc	r7, r4, #1627389952	; 0x61000000
    26ec:	74756269 	ldrbtvc	r6, [r5], #-617	; 0xfffffd97
    26f0:	285f5f65 	ldmdacs	pc, {r0, r2, r5, r6, r8, r9, sl, fp, ip, lr}^	; <UNPREDICTABLE>
    26f4:	765f5f28 	ldrbvc	r5, [pc], -r8, lsr #30
    26f8:	62697369 	rsbvs	r7, r9, #-1543503871	; 0xa4000001
    26fc:	74696c69 	strbtvc	r6, [r9], #-3177	; 0xfffff397
    2700:	285f5f79 	ldmdacs	pc, {r0, r3, r4, r5, r6, r8, r9, sl, fp, ip, lr}^	; <UNPREDICTABLE>
    2704:	64696822 	strbtvs	r6, [r9], #-2082	; 0xfffff7de
    2708:	226e6564 	rsbcs	r6, lr, #100, 10	; 0x19000000
    270c:	00292929 	eoreq	r2, r9, r9, lsr #18
    2710:	5f544e49 	svcpl	0x00544e49
    2714:	5341454c 	movtpl	r4, #5452	; 0x154c
    2718:	5f323354 	svcpl	0x00323354
    271c:	2058414d 	subscs	r4, r8, sp, asr #2
    2720:	495f5f28 	ldmdbmi	pc, {r3, r5, r8, r9, sl, fp, ip, lr}^	; <UNPREDICTABLE>
    2724:	4c5f544e 	cfldrdmi	mvd5, [pc], {78}	; 0x4e
    2728:	54534145 	ldrbpl	r4, [r3], #-325	; 0xfffffebb
    272c:	4d5f3233 	lfmmi	f3, 2, [pc, #-204]	; 2668 <_Min_Stack_Size+0x2268>
    2730:	5f5f5841 	svcpl	0x005f5841
    2734:	665f0029 	ldrbvs	r0, [pc], -r9, lsr #32
    2738:	5f00736e 	svcpl	0x0000736e
    273c:	5246535f 	subpl	r5, r6, #2080374785	; 0x7c000001
    2740:	5f544341 	svcpl	0x00544341
    2744:	5f58414d 	svcpl	0x0058414d
    2748:	5830205f 	ldmdapl	r0!, {r0, r1, r2, r3, r4, r6, sp}
    274c:	2d504637 	ldclcs	6, cr4, [r0, #-220]	; 0xffffff24
    2750:	00524837 	subseq	r4, r2, r7, lsr r8
    2754:	49555f5f 	ldmdbmi	r5, {r0, r1, r2, r3, r4, r6, r8, r9, sl, fp, ip, lr}^
    2758:	465f544e 	ldrbmi	r5, [pc], -lr, asr #8
    275c:	36545341 	ldrbcc	r5, [r4], -r1, asr #6
    2760:	59545f34 	ldmdbpl	r4, {r2, r4, r5, r8, r9, sl, fp, ip, lr}^
    2764:	5f5f4550 	svcpl	0x005f4550
    2768:	6e6f6c20 	cdpvs	12, 6, cr6, cr15, cr0, {1}
    276c:	6f6c2067 	svcvs	0x006c2067
    2770:	7520676e 	strvc	r6, [r0, #-1902]!	; 0xfffff892
    2774:	6769736e 	strbvs	r7, [r9, -lr, ror #6]!
    2778:	2064656e 	rsbcs	r6, r4, lr, ror #10
    277c:	00746e69 	rsbseq	r6, r4, r9, ror #28
    2780:	49545845 	ldmdbmi	r4, {r0, r2, r6, fp, ip, lr}^
    2784:	43503231 	cmpmi	r0, #268435459	; 0x10000003
    2788:	28203231 	stmdacs	r0!, {r0, r4, r5, r9, ip, sp}
    278c:	49545845 	ldmdbmi	r4, {r0, r2, r6, fp, ip, lr}^
    2790:	4950475f 	ldmdbmi	r0, {r0, r1, r2, r3, r4, r6, r8, r9, sl, lr}^
    2794:	614d5f4f 	cmpvs	sp, pc, asr #30
    2798:	676e6970 			; <UNDEFINED> instruction: 0x676e6970
    279c:	7b29745f 	blvc	a5f920 <_Min_Stack_Size+0xa5f520>
    27a0:	49545845 	ldmdbmi	r4, {r0, r2, r6, fp, ip, lr}^
    27a4:	472c3231 			; <UNDEFINED> instruction: 0x472c3231
    27a8:	434f4950 	movtmi	r4, #63824	; 0xf950
    27ac:	4950472c 	ldmdbmi	r0, {r2, r3, r5, r8, r9, sl, lr}^
    27b0:	49505f4f 	ldmdbmi	r0, {r0, r1, r2, r3, r6, r8, r9, sl, fp, ip, lr}^
    27b4:	32315f4e 	eorscc	r5, r1, #312	; 0x138
    27b8:	5458452c 	ldrbpl	r4, [r8], #-1324	; 0xfffffad4
    27bc:	5f323149 	svcpl	0x00323149
    27c0:	7d515249 	lfmvc	f5, 2, [r1, #-292]	; 0xfffffedc
    27c4:	49575f00 	ldmdbmi	r7, {r8, r9, sl, fp, ip, lr}^
    27c8:	545f544e 	ldrbpl	r5, [pc], #-1102	; 27d0 <_Min_Stack_Size+0x23d0>
    27cc:	4e490020 	cdpmi	0, 4, cr0, cr9, cr0, {1}
    27d0:	454c5f54 	strbmi	r5, [ip, #-3924]	; 0xfffff0ac
    27d4:	38545341 	ldmdacc	r4, {r0, r6, r8, r9, ip, lr}^
    27d8:	58414d5f 	stmdapl	r1, {r0, r1, r2, r3, r4, r6, r8, sl, fp, lr}^
    27dc:	5f5f2820 	svcpl	0x005f2820
    27e0:	5f544e49 	svcpl	0x00544e49
    27e4:	5341454c 	movtpl	r4, #5452	; 0x154c
    27e8:	4d5f3854 	ldclmi	8, cr3, [pc, #-336]	; 26a0 <_Min_Stack_Size+0x22a0>
    27ec:	5f5f5841 	svcpl	0x005f5841
    27f0:	5f5f0029 	svcpl	0x005f0029
    27f4:	6b636f6c 	blvs	18de5ac <_Min_Stack_Size+0x18de1ac>
    27f8:	6f6c635f 	svcvs	0x006c635f
    27fc:	6c286573 	cfstr32vs	mvfx6, [r8], #-460	; 0xfffffe34
    2800:	296b636f 	stmdbcs	fp!, {r0, r1, r2, r3, r5, r6, r8, r9, sp, lr}^
    2804:	76282820 	strtvc	r2, [r8], -r0, lsr #16
    2808:	2964696f 	stmdbcs	r4!, {r0, r1, r2, r3, r5, r6, r8, fp, sp, lr}^
    280c:	00293020 	eoreq	r3, r9, r0, lsr #32
    2810:	4c465f5f 	mcrrmi	15, 5, r5, r6, cr15
    2814:	494d5f54 	stmdbmi	sp, {r2, r4, r6, r8, r9, sl, fp, ip, lr}^
    2818:	205f5f4e 	subscs	r5, pc, lr, asr #30
    281c:	37312e31 			; <UNDEFINED> instruction: 0x37312e31
    2820:	34393435 	ldrtcc	r3, [r9], #-1077	; 0xfffffbcb
    2824:	38303533 	ldmdacc	r0!, {r0, r1, r4, r5, r8, sl, ip, sp}
    2828:	38323232 	ldmdacc	r2!, {r1, r4, r5, r9, ip, sp}
    282c:	2d653537 	cfstr64cs	mvdx3, [r5, #-220]!	; 0xffffff24
    2830:	00463833 	subeq	r3, r6, r3, lsr r8
    2834:	656e5f5f 	strbvs	r5, [lr, #-3935]!	; 0xfffff0a1
    2838:	735f6465 	cmpvc	pc, #1694498816	; 0x65000000
    283c:	5f657a69 	svcpl	0x00657a69
    2840:	5f002074 	svcpl	0x00002074
    2844:	5f41485f 	svcpl	0x0041485f
    2848:	54494246 	strbpl	r4, [r9], #-582	; 0xfffffdba
    284c:	37205f5f 			; <UNDEFINED> instruction: 0x37205f5f
    2850:	45525f00 	ldrbmi	r5, [r2, #-3840]	; 0xfffff100
    2854:	5f544e45 	svcpl	0x00544e45
    2858:	454c424d 	strbmi	r4, [ip, #-589]	; 0xfffffdb3
    285c:	54535f4e 	ldrbpl	r5, [r3], #-3918	; 0xfffff0b2
    2860:	28455441 	stmdacs	r5, {r0, r6, sl, ip, lr}^
    2864:	29727470 	ldmdbcs	r2!, {r4, r5, r6, sl, ip, sp, lr}^
    2868:	70282820 	eorvc	r2, r8, r0, lsr #16
    286c:	2d297274 	sfmcs	f7, 4, [r9, #-464]!	; 0xfffffe30
    2870:	696d5f3e 	stmdbvs	sp!, {r1, r2, r3, r4, r5, r8, r9, sl, fp, ip, lr}^
    2874:	3e2d6373 	mcrcc	3, 1, r6, cr13, cr3, {3}
    2878:	6c626d5f 	stclvs	13, cr6, [r2], #-380	; 0xfffffe84
    287c:	735f6e65 	cmpvc	pc, #1616	; 0x650
    2880:	65746174 	ldrbvs	r6, [r4, #-372]!	; 0xfffffe8c
    2884:	5f5f0029 	svcpl	0x005f0029
    2888:	41524655 	cmpmi	r2, r5, asr r6
    288c:	4d5f5443 	cfldrdmi	mvd5, [pc, #-268]	; 2788 <_Min_Stack_Size+0x2388>
    2890:	5f5f4e49 	svcpl	0x005f4e49
    2894:	302e3020 	eorcc	r3, lr, r0, lsr #32
    2898:	53005255 	movwpl	r5, #597	; 0x255
    289c:	415f4749 	cmpmi	pc, r9, asr #14
    28a0:	494d4f54 	stmdbmi	sp, {r2, r4, r6, r8, r9, sl, fp, lr}^
    28a4:	414d5f43 	cmpmi	sp, r3, asr #30
    28a8:	5f282058 	svcpl	0x00282058
    28ac:	4454535f 	ldrbmi	r5, [r4], #-863	; 0xfffffca1
    28b0:	5f544e49 	svcpl	0x00544e49
    28b4:	28505845 	ldmdacs	r0, {r0, r2, r6, fp, ip, lr}^
    28b8:	5f544e49 	svcpl	0x00544e49
    28bc:	2958414d 	ldmdbcs	r8, {r0, r2, r3, r6, r8, lr}^
    28c0:	5f5f0029 	svcpl	0x005f0029
    28c4:	6e696f6e 	cdpvs	15, 6, cr6, cr9, cr14, {3}
    28c8:	656e696c 	strbvs	r6, [lr, #-2412]!	; 0xfffff694
    28cc:	615f5f20 	cmpvs	pc, r0, lsr #30
    28d0:	69727474 	ldmdbvs	r2!, {r2, r4, r5, r6, sl, ip, sp, lr}^
    28d4:	65747562 	ldrbvs	r7, [r4, #-1378]!	; 0xfffffa9e
    28d8:	28205f5f 	stmdacs	r0!, {r0, r1, r2, r3, r4, r6, r8, r9, sl, fp, ip, lr}
    28dc:	6e5f5f28 	cdpvs	15, 5, cr5, cr15, cr8, {1}
    28e0:	6c6e696f 			; <UNDEFINED> instruction: 0x6c6e696f
    28e4:	5f656e69 	svcpl	0x00656e69
    28e8:	0029295f 	eoreq	r2, r9, pc, asr r9
    28ec:	4f495047 	svcmi	0x00495047
    28f0:	4e49505f 	mcrmi	0, 2, r5, cr9, cr15, {2}
    28f4:	53414d5f 	movtpl	r4, #7519	; 0x1d5f
    28f8:	7830204b 	ldmdavc	r0!, {r0, r1, r3, r6, sp}
    28fc:	30303030 	eorscc	r3, r0, r0, lsr r0
    2900:	46464646 	strbmi	r4, [r6], -r6, asr #12
    2904:	49550075 	ldmdbmi	r5, {r0, r2, r4, r5, r6}^
    2908:	3436544e 	ldrtcc	r5, [r6], #-1102	; 0xfffffbb2
    290c:	58414d5f 	stmdapl	r1, {r0, r1, r2, r3, r4, r6, r8, sl, fp, lr}^
    2910:	5f5f2820 	svcpl	0x005f2820
    2914:	544e4955 	strbpl	r4, [lr], #-2389	; 0xfffff6ab
    2918:	4d5f3436 	cfldrdmi	mvd3, [pc, #-216]	; 2848 <_Min_Stack_Size+0x2448>
    291c:	5f5f5841 	svcpl	0x005f5841
    2920:	5f5f0029 	svcpl	0x005f0029
    2924:	33434544 	movtcc	r4, #13636	; 0x3544
    2928:	494d5f32 	stmdbmi	sp, {r1, r4, r5, r8, r9, sl, fp, ip, lr}^
    292c:	58455f4e 	stmdapl	r5, {r1, r2, r3, r6, r8, r9, sl, fp, ip, lr}^
    2930:	205f5f50 	subscs	r5, pc, r0, asr pc	; <UNPREDICTABLE>
    2934:	34392d28 	ldrtcc	r2, [r9], #-3368	; 0xfffff2d8
    2938:	58450029 	stmdapl	r5, {r0, r3, r5}^
    293c:	33314954 	teqcc	r1, #84, 18	; 0x150000
    2940:	5152495f 	cmppl	r2, pc, asr r9
    2944:	00303420 	eorseq	r3, r0, r0, lsr #8
    2948:	53555f5f 	cmppl	r5, #380	; 0x17c
    294c:	43415246 	movtmi	r5, #4678	; 0x1246
    2950:	42495f54 	submi	r5, r9, #84, 30	; 0x150
    2954:	5f5f5449 	svcpl	0x005f5449
    2958:	5f003020 	svcpl	0x00003020
    295c:	544e495f 	strbpl	r4, [lr], #-2399	; 0xfffff6a1
    2960:	435f3233 	cmpmi	pc, #805306371	; 0x30000003
    2964:	20296328 	eorcs	r6, r9, r8, lsr #6
    2968:	23232063 			; <UNDEFINED> instruction: 0x23232063
    296c:	5f004c20 	svcpl	0x00004c20
    2970:	6e69755f 	mcrvs	5, 3, r7, cr9, cr15, {2}
    2974:	5f363174 	svcpl	0x00363174
    2978:	525f0074 	subspl	r0, pc, #116	; 0x74
    297c:	544e4545 	strbpl	r4, [lr], #-1349	; 0xfffffabb
    2980:	4749535f 	smlsldmi	r5, r9, pc, r3	; <UNPREDICTABLE>
    2984:	5f4c414e 	svcpl	0x004c414e
    2988:	28465542 	stmdacs	r6, {r1, r6, r8, sl, ip, lr}^
    298c:	29727470 	ldmdbcs	r2!, {r4, r5, r6, sl, ip, sp, lr}^
    2990:	70282820 	eorvc	r2, r8, r0, lsr #16
    2994:	2d297274 	sfmcs	f7, 4, [r9, #-464]!	; 0xfffffe30
    2998:	69735f3e 	ldmdbvs	r3!, {r1, r2, r3, r4, r5, r8, r9, sl, fp, ip, lr}^
    299c:	6c616e67 	stclvs	14, cr6, [r1], #-412	; 0xfffffe64
    29a0:	6675625f 			; <UNDEFINED> instruction: 0x6675625f
    29a4:	58450029 	stmdapl	r5, {r0, r3, r5}^
    29a8:	50324954 	eorspl	r4, r2, r4, asr r9
    29ac:	28203243 	stmdacs	r0!, {r0, r1, r6, r9, ip, sp}
    29b0:	49545845 	ldmdbmi	r4, {r0, r2, r6, fp, ip, lr}^
    29b4:	4950475f 	ldmdbmi	r0, {r0, r1, r2, r3, r4, r6, r8, r9, sl, lr}^
    29b8:	614d5f4f 	cmpvs	sp, pc, asr #30
    29bc:	676e6970 			; <UNDEFINED> instruction: 0x676e6970
    29c0:	7b29745f 	blvc	a5fb44 <_Min_Stack_Size+0xa5f744>
    29c4:	49545845 	ldmdbmi	r4, {r0, r2, r6, fp, ip, lr}^
    29c8:	50472c32 	subpl	r2, r7, r2, lsr ip
    29cc:	2c434f49 	mcrrcs	15, 4, r4, r3, cr9
    29d0:	4f495047 	svcmi	0x00495047
    29d4:	4e49505f 	mcrmi	0, 2, r5, cr9, cr15, {2}
    29d8:	452c325f 	strmi	r3, [ip, #-607]!	; 0xfffffda1
    29dc:	32495458 	subcc	r5, r9, #88, 8	; 0x58000000
    29e0:	5152495f 	cmppl	r2, pc, asr r9
    29e4:	5f5f007d 	svcpl	0x005f007d
    29e8:	52465355 	subpl	r5, r6, #1409286145	; 0x54000001
    29ec:	5f544341 	svcpl	0x00544341
    29f0:	5f4e494d 	svcpl	0x004e494d
    29f4:	2e30205f 	mrccs	0, 1, r2, cr0, cr15, {2}
    29f8:	52485530 	subpl	r5, r8, #48, 10	; 0xc000000
    29fc:	755f5f00 	ldrbvc	r5, [pc, #-3840]	; 1b04 <_Min_Stack_Size+0x1704>
    2a00:	20646573 	rsbcs	r6, r4, r3, ror r5
    2a04:	74615f5f 	strbtvc	r5, [r1], #-3935	; 0xfffff0a1
    2a08:	62697274 	rsbvs	r7, r9, #116, 4	; 0x40000007
    2a0c:	5f657475 	svcpl	0x00657475
    2a10:	5f28285f 	svcpl	0x0028285f
    2a14:	6573755f 	ldrbvs	r7, [r3, #-1375]!	; 0xfffffaa1
    2a18:	295f5f64 	ldmdbcs	pc, {r2, r5, r6, r8, r9, sl, fp, ip, lr}^	; <UNPREDICTABLE>
    2a1c:	5f5f0029 	svcpl	0x005f0029
    2a20:	656e6567 	strbvs	r6, [lr, #-1383]!	; 0xfffffa99
    2a24:	28636972 	stmdacs	r3!, {r1, r4, r5, r6, r8, fp, sp, lr}^
    2a28:	72707865 	rsbsvc	r7, r0, #6619136	; 0x650000
    2a2c:	792c742c 	stmdbvc	ip!, {r2, r3, r5, sl, ip, sp, lr}
    2a30:	6e2c7365 	cdpvs	3, 2, cr7, cr12, cr5, {3}
    2a34:	5f20296f 	svcpl	0x0020296f
    2a38:	656e6547 	strbvs	r6, [lr, #-1351]!	; 0xfffffab9
    2a3c:	28636972 	stmdacs	r3!, {r1, r4, r5, r6, r8, fp, sp, lr}^
    2a40:	72707865 	rsbsvc	r7, r0, #6619136	; 0x650000
    2a44:	3a74202c 	bcc	1d0aafc <_Min_Stack_Size+0x1d0a6fc>
    2a48:	73657920 	cmnvc	r5, #32, 18	; 0x80000
    2a4c:	6564202c 	strbvs	r2, [r4, #-44]!	; 0xffffffd4
    2a50:	6c756166 	ldfvse	f6, [r5], #-408	; 0xfffffe68
    2a54:	6e203a74 			; <UNDEFINED> instruction: 0x6e203a74
    2a58:	5f00296f 	svcpl	0x0000296f
    2a5c:	4d52415f 	ldfmie	f4, [r2, #-380]	; 0xfffffe84
    2a60:	4f454e5f 	svcmi	0x00454e5f
    2a64:	525f004e 	subspl	r0, pc, #78	; 0x4e
    2a68:	544e4545 	strbpl	r4, [lr], #-1349	; 0xfffffabb
    2a6c:	454d455f 	strbmi	r4, [sp, #-1375]	; 0xfffffaa1
    2a70:	4e454752 	mcrmi	7, 2, r4, cr5, cr2, {2}
    2a74:	70285943 	eorvc	r5, r8, r3, asr #18
    2a78:	20297274 	eorcs	r7, r9, r4, ror r2
    2a7c:	74702828 	ldrbtvc	r2, [r0], #-2088	; 0xfffff7d8
    2a80:	3e2d2972 			; <UNDEFINED> instruction: 0x3e2d2972
    2a84:	656d655f 	strbvs	r6, [sp, #-1375]!	; 0xfffffaa1
    2a88:	6e656772 	mcrvs	7, 3, r6, cr5, cr2, {3}
    2a8c:	00297963 	eoreq	r7, r9, r3, ror #18
    2a90:	4e475f5f 	mcrmi	15, 2, r5, cr7, cr15, {2}
    2a94:	494c4355 	stmdbmi	ip, {r0, r2, r4, r6, r8, r9, lr}^
    2a98:	435f454b 	cmpmi	pc, #314572800	; 0x12c00000
    2a9c:	5f524f54 	svcpl	0x00524f54
    2aa0:	54434553 	strbpl	r4, [r3], #-1363	; 0xfffffaad
    2aa4:	5f4e4f49 	svcpl	0x004e4f49
    2aa8:	444e4148 	strbmi	r4, [lr], #-328	; 0xfffffeb8
    2aac:	474e494c 	strbmi	r4, [lr, -ip, asr #18]
    2ab0:	5f003120 	svcpl	0x00003120
    2ab4:	4e49555f 	mcrmi	5, 2, r5, cr9, cr15, {2}
    2ab8:	4d5f3854 	ldclmi	8, cr3, [pc, #-336]	; 2970 <_Min_Stack_Size+0x2570>
    2abc:	5f5f5841 	svcpl	0x005f5841
    2ac0:	66783020 	ldrbtvs	r3, [r8], -r0, lsr #32
    2ac4:	5f5f0066 	svcpl	0x005f0066
    2ac8:	746e695f 	strbtvc	r6, [lr], #-2399	; 0xfffff6a1
    2acc:	745f3631 	ldrbvc	r3, [pc], #-1585	; 2ad4 <_Min_Stack_Size+0x26d4>
    2ad0:	6665645f 			; <UNDEFINED> instruction: 0x6665645f
    2ad4:	64656e69 	strbtvs	r6, [r5], #-3689	; 0xfffff197
    2ad8:	5f003120 	svcpl	0x00003120
    2adc:	4e454552 	mcrmi	5, 2, r4, cr5, cr2, {2}
    2ae0:	695f2054 	ldmdbvs	pc, {r2, r4, r6, sp}^	; <UNPREDICTABLE>
    2ae4:	7275706d 	rsbsvc	r7, r5, #109	; 0x6d
    2ae8:	74705f65 	ldrbtvc	r5, [r0], #-3941	; 0xfffff09b
    2aec:	5f5f0072 	svcpl	0x005f0072
    2af0:	4c42444c 	cfstrdmi	mvd4, [r2], {76}	; 0x4c
    2af4:	58414d5f 	stmdapl	r1, {r0, r1, r2, r3, r4, r6, r8, sl, fp, lr}^
    2af8:	5058455f 	subspl	r4, r8, pc, asr r5
    2afc:	31205f5f 			; <UNDEFINED> instruction: 0x31205f5f
    2b00:	00343230 	eorseq	r3, r4, r0, lsr r2
    2b04:	49545845 	ldmdbmi	r4, {r0, r2, r6, fp, ip, lr}^
    2b08:	6e69505f 	mcrvs	0, 3, r5, cr9, cr15, {2}
    2b0c:	666e6f43 	strbtvs	r6, [lr], -r3, asr #30
    2b10:	745f6769 	ldrbvc	r6, [pc], #-1897	; 2b18 <_Min_Stack_Size+0x2718>
    2b14:	655f5f00 	ldrbvs	r5, [pc, #-3840]	; 1c1c <_Min_Stack_Size+0x181c>
    2b18:	726f7078 	rsbvc	r7, pc, #120	; 0x78
    2b1c:	20646574 	rsbcs	r6, r4, r4, ror r5
    2b20:	74615f5f 	strbtvc	r5, [r1], #-3935	; 0xfffff0a1
    2b24:	62697274 	rsbvs	r7, r9, #116, 4	; 0x40000007
    2b28:	5f657475 	svcpl	0x00657475
    2b2c:	5f28285f 	svcpl	0x0028285f
    2b30:	7369765f 	cmnvc	r9, #99614720	; 0x5f00000
    2b34:	6c696269 	sfmvs	f6, 2, [r9], #-420	; 0xfffffe5c
    2b38:	5f797469 	svcpl	0x00797469
    2b3c:	6422285f 	strtvs	r2, [r2], #-2143	; 0xfffff7a1
    2b40:	75616665 	strbvc	r6, [r1, #-1637]!	; 0xfffff99b
    2b44:	2922746c 	stmdbcs	r2!, {r2, r3, r5, r6, sl, ip, sp, lr}
    2b48:	5f002929 	svcpl	0x00002929
    2b4c:	4c42445f 	cfstrdmi	mvd4, [r2], {95}	; 0x5f
    2b50:	5341485f 	movtpl	r4, #6239	; 0x185f
    2b54:	4e45445f 	mcrmi	4, 2, r4, cr5, cr15, {2}
    2b58:	5f4d524f 	svcpl	0x004d524f
    2b5c:	0031205f 	eorseq	r2, r1, pc, asr r0
    2b60:	4f495047 	svcmi	0x00495047
    2b64:	4e49505f 	mcrmi	0, 2, r5, cr9, cr15, {2}
    2b68:	2033315f 	eorscs	r3, r3, pc, asr r1
    2b6c:	69752828 	ldmdbvs	r5!, {r3, r5, fp, sp}^
    2b70:	3631746e 	ldrtcc	r7, [r1], -lr, ror #8
    2b74:	3029745f 	eorcc	r7, r9, pc, asr r4
    2b78:	30303278 	eorscc	r3, r0, r8, ror r2
    2b7c:	5f002930 	svcpl	0x00002930
    2b80:	5f43435f 	svcpl	0x0043435f
    2b84:	50505553 	subspl	r5, r0, r3, asr r5
    2b88:	5354524f 	cmppl	r4, #-268435452	; 0xf0000004
    2b8c:	495f5f5f 	ldmdbmi	pc, {r0, r1, r2, r3, r4, r6, r8, r9, sl, fp, ip, lr}^	; <UNPREDICTABLE>
    2b90:	4e494c4e 	cdpmi	12, 4, cr4, cr9, cr14, {2}
    2b94:	00312045 	eorseq	r2, r1, r5, asr #32
    2b98:	5f424d5f 	svcpl	0x00424d5f
    2b9c:	5f4e454c 	svcpl	0x004e454c
    2ba0:	2058414d 	subscs	r4, r8, sp, asr #2
    2ba4:	6e5f0031 	mrcvs	0, 2, r0, cr15, cr1, {1}
    2ba8:	73626f69 	cmnvc	r2, #420	; 0x1a4
    2bac:	544e4900 	strbpl	r4, [lr], #-2304	; 0xfffff700
    2bb0:	4d5f3233 	lfmmi	f3, 2, [pc, #-204]	; 2aec <_Min_Stack_Size+0x26ec>
    2bb4:	28205841 	stmdacs	r0!, {r0, r6, fp, ip, lr}
    2bb8:	4e495f5f 	mcrmi	15, 2, r5, cr9, cr15, {2}
    2bbc:	5f323354 	svcpl	0x00323354
    2bc0:	5f58414d 	svcpl	0x0058414d
    2bc4:	5f00295f 	svcpl	0x0000295f
    2bc8:	5858475f 	ldmdapl	r8, {r0, r1, r2, r3, r4, r6, r8, r9, sl, lr}^
    2bcc:	4942415f 	stmdbmi	r2, {r0, r1, r2, r3, r4, r6, r8, lr}^
    2bd0:	5245565f 	subpl	r5, r5, #99614720	; 0x5f00000
    2bd4:	4e4f4953 			; <UNDEFINED> instruction: 0x4e4f4953
    2bd8:	31303120 	teqcc	r0, r0, lsr #2
    2bdc:	5f5f0031 	svcpl	0x005f0031
    2be0:	465f4144 	ldrbmi	r4, [pc], -r4, asr #2
    2be4:	5f544942 	svcpl	0x00544942
    2be8:	3133205f 	teqcc	r3, pc, asr r0
    2bec:	49564e00 	ldmdbmi	r6, {r9, sl, fp, lr}^
    2bf0:	52495f43 	subpl	r5, r9, #268	; 0x10c
    2bf4:	455f3751 	ldrbmi	r3, [pc, #-1873]	; 24ab <_Min_Stack_Size+0x20ab>
    2bf8:	31495458 	cmpcc	r9, r8, asr r4
    2bfc:	616e455f 	cmnvs	lr, pc, asr r5
    2c00:	20656c62 	rsbcs	r6, r5, r2, ror #24
    2c04:	49564e28 	ldmdbmi	r6, {r3, r5, r9, sl, fp, lr}^
    2c08:	53495f43 	movtpl	r5, #40771	; 0x9f43
    2c0c:	20305245 	eorscs	r5, r0, r5, asr #4
    2c10:	28203d7c 	stmdacs	r0!, {r2, r3, r4, r5, r6, r8, sl, fp, ip, sp}
    2c14:	373c3c31 			; <UNDEFINED> instruction: 0x373c3c31
    2c18:	5f002929 	svcpl	0x00002929
    2c1c:	544e495f 	strbpl	r4, [lr], #-2399	; 0xfffff6a1
    2c20:	41454c5f 	cmpmi	r5, pc, asr ip
    2c24:	36315453 			; <UNDEFINED> instruction: 0x36315453
    2c28:	58414d5f 	stmdapl	r1, {r0, r1, r2, r3, r4, r6, r8, sl, fp, lr}^
    2c2c:	30205f5f 	eorcc	r5, r0, pc, asr pc
    2c30:	66663778 			; <UNDEFINED> instruction: 0x66663778
    2c34:	5f5f0066 	svcpl	0x005f0066
    2c38:	5f544c46 	svcpl	0x00544c46
    2c3c:	4f4e4544 	svcmi	0x004e4544
    2c40:	4d5f4d52 	ldclmi	13, cr4, [pc, #-328]	; 2b00 <_Min_Stack_Size+0x2700>
    2c44:	5f5f4e49 	svcpl	0x005f4e49
    2c48:	342e3120 	strtcc	r3, [lr], #-288	; 0xfffffee0
    2c4c:	39323130 	ldmdbcc	r2!, {r4, r5, r8, ip, sp}
    2c50:	34363438 	ldrtcc	r3, [r6], #-1080	; 0xfffffbc8
    2c54:	38343233 	ldmdacc	r4!, {r0, r1, r4, r5, r9, ip, sp}
    2c58:	65313731 	ldrvs	r3, [r1, #-1841]!	; 0xfffff8cf
    2c5c:	4635342d 	ldrtmi	r3, [r5], -sp, lsr #8
    2c60:	4c5f5f00 	mrrcmi	15, 0, r5, pc, cr0	; <UNPREDICTABLE>
    2c64:	5f4c4244 	svcpl	0x004c4244
    2c68:	5f58414d 	svcpl	0x0058414d
    2c6c:	2e31205f 	mrccs	0, 1, r2, cr1, cr15, {2}
    2c70:	36373937 			; <UNDEFINED> instruction: 0x36373937
    2c74:	33313339 	teqcc	r1, #-469762048	; 0xe4000000
    2c78:	32363834 	eorscc	r3, r6, #52, 16	; 0x340000
    2c7c:	37353133 			; <UNDEFINED> instruction: 0x37353133
    2c80:	30332b65 	eorscc	r2, r3, r5, ror #22
    2c84:	55004c38 	strpl	r4, [r0, #-3128]	; 0xfffff3c8
    2c88:	5f544e49 	svcpl	0x00544e49
    2c8c:	54534146 	ldrbpl	r4, [r3], #-326	; 0xfffffeba
    2c90:	4d5f3631 	ldclmi	6, cr3, [pc, #-196]	; 2bd4 <_Min_Stack_Size+0x27d4>
    2c94:	28205841 	stmdacs	r0!, {r0, r6, fp, ip, lr}
    2c98:	49555f5f 	ldmdbmi	r5, {r0, r1, r2, r3, r4, r6, r8, r9, sl, fp, ip, lr}^
    2c9c:	465f544e 	ldrbmi	r5, [pc], -lr, asr #8
    2ca0:	31545341 	cmpcc	r4, r1, asr #6
    2ca4:	414d5f36 	cmpmi	sp, r6, lsr pc
    2ca8:	295f5f58 	ldmdbcs	pc, {r3, r4, r6, r8, r9, sl, fp, ip, lr}^	; <UNPREDICTABLE>
    2cac:	54584500 	ldrbpl	r4, [r8], #-1280	; 0xfffffb00
    2cb0:	50343149 	eorspl	r3, r4, r9, asr #2
    2cb4:	20343142 	eorscs	r3, r4, r2, asr #2
    2cb8:	54584528 	ldrbpl	r4, [r8], #-1320	; 0xfffffad8
    2cbc:	50475f49 	subpl	r5, r7, r9, asr #30
    2cc0:	4d5f4f49 	ldclmi	15, cr4, [pc, #-292]	; 2ba4 <_Min_Stack_Size+0x27a4>
    2cc4:	6e697061 	cdpvs	0, 6, cr7, cr9, cr1, {3}
    2cc8:	29745f67 	ldmdbcs	r4!, {r0, r1, r2, r5, r6, r8, r9, sl, fp, ip, lr}^
    2ccc:	5458457b 	ldrbpl	r4, [r8], #-1403	; 0xfffffa85
    2cd0:	2c343149 	ldfcss	f3, [r4], #-292	; 0xfffffedc
    2cd4:	4f495047 	svcmi	0x00495047
    2cd8:	50472c42 	subpl	r2, r7, r2, asr #24
    2cdc:	505f4f49 	subspl	r4, pc, r9, asr #30
    2ce0:	315f4e49 	cmpcc	pc, r9, asr #28
    2ce4:	58452c34 	stmdapl	r5, {r2, r4, r5, sl, fp, sp}^
    2ce8:	34314954 	ldrtcc	r4, [r1], #-2388	; 0xfffff6ac
    2cec:	5152495f 	cmppl	r2, pc, asr r9
    2cf0:	6f5f007d 	svcvs	0x005f007d
    2cf4:	78655f6e 	stmdavc	r5!, {r1, r2, r3, r5, r6, r8, r9, sl, fp, ip, lr}^
    2cf8:	615f7469 	cmpvs	pc, r9, ror #8
    2cfc:	5f736772 	svcpl	0x00736772
    2d00:	00727470 	rsbseq	r7, r2, r0, ror r4
    2d04:	49545845 	ldmdbmi	r4, {r0, r2, r6, fp, ip, lr}^
    2d08:	30415030 	subcc	r5, r1, r0, lsr r0
    2d0c:	58452820 	stmdapl	r5, {r5, fp, sp}^
    2d10:	475f4954 			; <UNDEFINED> instruction: 0x475f4954
    2d14:	5f4f4950 	svcpl	0x004f4950
    2d18:	6970614d 	ldmdbvs	r0!, {r0, r2, r3, r6, r8, sp, lr}^
    2d1c:	745f676e 	ldrbvc	r6, [pc], #-1902	; 2d24 <_Min_Stack_Size+0x2924>
    2d20:	58457b29 	stmdapl	r5, {r0, r3, r5, r8, r9, fp, ip, sp, lr}^
    2d24:	2c304954 			; <UNDEFINED> instruction: 0x2c304954
    2d28:	4f495047 	svcmi	0x00495047
    2d2c:	50472c41 	subpl	r2, r7, r1, asr #24
    2d30:	505f4f49 	subspl	r4, pc, r9, asr #30
    2d34:	305f4e49 	subscc	r4, pc, r9, asr #28
    2d38:	5458452c 	ldrbpl	r4, [r8], #-1324	; 0xfffffad4
    2d3c:	495f3049 	ldmdbmi	pc, {r0, r3, r6, ip, sp}^	; <UNPREDICTABLE>
    2d40:	007d5152 	rsbseq	r5, sp, r2, asr r1
    2d44:	444e455f 	strbmi	r4, [lr], #-1375	; 0xfffffaa1
    2d48:	4454535f 	ldrbmi	r5, [r4], #-863	; 0xfffffca1
    2d4c:	0020435f 	eoreq	r4, r0, pc, asr r3
    2d50:	48545f5f 	ldmdami	r4, {r0, r1, r2, r3, r4, r6, r8, r9, sl, fp, ip, lr}^
    2d54:	20574f52 	subscs	r4, r7, r2, asr pc
    2d58:	685f5f00 	ldmdavs	pc, {r8, r9, sl, fp, ip, lr}^	; <UNPREDICTABLE>
    2d5c:	695f7361 	ldmdbvs	pc, {r0, r5, r6, r8, r9, ip, sp, lr}^	; <UNPREDICTABLE>
    2d60:	756c636e 	strbvc	r6, [ip, #-878]!	; 0xfffffc92
    2d64:	6e5f6564 	cdpvs	5, 5, cr6, cr15, cr4, {3}
    2d68:	28747865 	ldmdacs	r4!, {r0, r2, r5, r6, fp, ip, sp, lr}^
    2d6c:	29525453 	ldmdbcs	r2, {r0, r1, r4, r6, sl, ip, lr}^
    2d70:	685f5f20 	ldmdavs	pc, {r5, r8, r9, sl, fp, ip, lr}^	; <UNPREDICTABLE>
    2d74:	695f7361 	ldmdbvs	pc, {r0, r5, r6, r8, r9, ip, sp, lr}^	; <UNPREDICTABLE>
    2d78:	756c636e 	strbvc	r6, [ip, #-878]!	; 0xfffffc92
    2d7c:	6e5f6564 	cdpvs	5, 5, cr6, cr15, cr4, {3}
    2d80:	5f747865 	svcpl	0x00747865
    2d84:	5453285f 	ldrbpl	r2, [r3], #-2143	; 0xfffff7a1
    2d88:	55002952 	strpl	r2, [r0, #-2386]	; 0xfffff6ae
    2d8c:	5f544e49 	svcpl	0x00544e49
    2d90:	5341454c 	movtpl	r4, #5452	; 0x154c
    2d94:	5f363154 	svcpl	0x00363154
    2d98:	2058414d 	subscs	r4, r8, sp, asr #2
    2d9c:	555f5f28 	ldrbpl	r5, [pc, #-3880]	; 1e7c <_Min_Stack_Size+0x1a7c>
    2da0:	5f544e49 	svcpl	0x00544e49
    2da4:	5341454c 	movtpl	r4, #5452	; 0x154c
    2da8:	5f363154 	svcpl	0x00363154
    2dac:	5f58414d 	svcpl	0x0058414d
    2db0:	5f00295f 	svcpl	0x0000295f
    2db4:	4e49555f 	mcrmi	5, 2, r5, cr9, cr15, {2}
    2db8:	5f323354 	svcpl	0x00323354
    2dbc:	29632843 	stmdbcs	r3!, {r0, r1, r6, fp, sp}^
    2dc0:	23206320 			; <UNDEFINED> instruction: 0x23206320
    2dc4:	4c552023 	mrrcmi	0, 2, r2, r5, cr3
    2dc8:	54584500 	ldrbpl	r4, [r8], #-1280	; 0xfffffb00
    2dcc:	50333149 	eorspl	r3, r3, r9, asr #2
    2dd0:	20333143 	eorscs	r3, r3, r3, asr #2
    2dd4:	54584528 	ldrbpl	r4, [r8], #-1320	; 0xfffffad8
    2dd8:	50475f49 	subpl	r5, r7, r9, asr #30
    2ddc:	4d5f4f49 	ldclmi	15, cr4, [pc, #-292]	; 2cc0 <_Min_Stack_Size+0x28c0>
    2de0:	6e697061 	cdpvs	0, 6, cr7, cr9, cr1, {3}
    2de4:	29745f67 	ldmdbcs	r4!, {r0, r1, r2, r5, r6, r8, r9, sl, fp, ip, lr}^
    2de8:	5458457b 	ldrbpl	r4, [r8], #-1403	; 0xfffffa85
    2dec:	2c333149 	ldfcss	f3, [r3], #-292	; 0xfffffedc
    2df0:	4f495047 	svcmi	0x00495047
    2df4:	50472c43 	subpl	r2, r7, r3, asr #24
    2df8:	505f4f49 	subspl	r4, pc, r9, asr #30
    2dfc:	315f4e49 	cmpcc	pc, r9, asr #28
    2e00:	58452c33 	stmdapl	r5, {r0, r1, r4, r5, sl, fp, sp}^
    2e04:	33314954 	teqcc	r1, #84, 18	; 0x150000
    2e08:	5152495f 	cmppl	r2, pc, asr r9
    2e0c:	5845007d 	stmdapl	r5, {r0, r2, r3, r4, r5, r6}^
    2e10:	50344954 	eorspl	r4, r4, r4, asr r9
    2e14:	28203444 	stmdacs	r0!, {r2, r6, sl, ip, sp}
    2e18:	49545845 	ldmdbmi	r4, {r0, r2, r6, fp, ip, lr}^
    2e1c:	4950475f 	ldmdbmi	r0, {r0, r1, r2, r3, r4, r6, r8, r9, sl, lr}^
    2e20:	614d5f4f 	cmpvs	sp, pc, asr #30
    2e24:	676e6970 			; <UNDEFINED> instruction: 0x676e6970
    2e28:	7b29745f 	blvc	a5ffac <_Min_Stack_Size+0xa5fbac>
    2e2c:	49545845 	ldmdbmi	r4, {r0, r2, r6, fp, ip, lr}^
    2e30:	50472c34 	subpl	r2, r7, r4, lsr ip
    2e34:	2c444f49 	mcrrcs	15, 4, r4, r4, cr9
    2e38:	4f495047 	svcmi	0x00495047
    2e3c:	4e49505f 	mcrmi	0, 2, r5, cr9, cr15, {2}
    2e40:	452c345f 	strmi	r3, [ip, #-1119]!	; 0xfffffba1
    2e44:	34495458 	strbcc	r5, [r9], #-1112	; 0xfffffba8
    2e48:	5152495f 	cmppl	r2, pc, asr r9
    2e4c:	525f007d 	subspl	r0, pc, #125	; 0x7d
    2e50:	544e4545 	strbpl	r4, [lr], #-1349	; 0xfffffabb
    2e54:	54424d5f 	strbpl	r4, [r2], #-3423	; 0xfffff2a1
    2e58:	5f43574f 	svcpl	0x0043574f
    2e5c:	54415453 	strbpl	r5, [r1], #-1107	; 0xfffffbad
    2e60:	74702845 	ldrbtvc	r2, [r0], #-2117	; 0xfffff7bb
    2e64:	28202972 	stmdacs	r0!, {r1, r4, r5, r6, r8, fp, sp}
    2e68:	72747028 	rsbsvc	r7, r4, #40	; 0x28
    2e6c:	5f3e2d29 	svcpl	0x003e2d29
    2e70:	6373696d 	cmnvs	r3, #1785856	; 0x1b4000
    2e74:	6d5f3e2d 	ldclvs	14, cr3, [pc, #-180]	; 2dc8 <_Min_Stack_Size+0x29c8>
    2e78:	776f7462 	strbvc	r7, [pc, -r2, ror #8]!
    2e7c:	74735f63 	ldrbtvc	r5, [r3], #-3939	; 0xfffff09d
    2e80:	29657461 	stmdbcs	r5!, {r0, r5, r6, sl, ip, sp, lr}^
    2e84:	754e5f00 	strbvc	r5, [lr, #-3840]	; 0xfffff100
    2e88:	755f6c6c 	ldrbvc	r6, [pc, #-3180]	; 2224 <_Min_Stack_Size+0x1e24>
    2e8c:	6570736e 	ldrbvs	r7, [r0, #-878]!	; 0xfffffc92
    2e90:	69666963 	stmdbvs	r6!, {r0, r1, r5, r6, r8, fp, sp, lr}^
    2e94:	00206465 	eoreq	r6, r0, r5, ror #8
    2e98:	4c465f5f 	mcrrmi	15, 5, r5, r6, cr15
    2e9c:	50455f54 	subpl	r5, r5, r4, asr pc
    2ea0:	4f4c4953 	svcmi	0x004c4953
    2ea4:	205f5f4e 	subscs	r5, pc, lr, asr #30
    2ea8:	39312e31 	ldmdbcc	r1!, {r0, r4, r5, r9, sl, fp, sp}
    2eac:	32393032 	eorscc	r3, r9, #50	; 0x32
    2eb0:	35353938 	ldrcc	r3, [r5, #-2360]!	; 0xfffff6c8
    2eb4:	31383730 	teqcc	r8, r0, lsr r7
    2eb8:	2d653532 	cfstr64cs	mvdx3, [r5, #-200]!	; 0xffffff38
    2ebc:	45004637 	strmi	r4, [r0, #-1591]	; 0xfffff9c9
    2ec0:	31495458 	cmpcc	r9, r8, asr r4
    2ec4:	31435034 	cmpcc	r3, r4, lsr r0
    2ec8:	45282034 	strmi	r2, [r8, #-52]!	; 0xffffffcc
    2ecc:	5f495458 	svcpl	0x00495458
    2ed0:	4f495047 	svcmi	0x00495047
    2ed4:	70614d5f 	rsbvc	r4, r1, pc, asr sp
    2ed8:	5f676e69 	svcpl	0x00676e69
    2edc:	457b2974 	ldrbmi	r2, [fp, #-2420]!	; 0xfffff68c
    2ee0:	31495458 	cmpcc	r9, r8, asr r4
    2ee4:	50472c34 	subpl	r2, r7, r4, lsr ip
    2ee8:	2c434f49 	mcrrcs	15, 4, r4, r3, cr9
    2eec:	4f495047 	svcmi	0x00495047
    2ef0:	4e49505f 	mcrmi	0, 2, r5, cr9, cr15, {2}
    2ef4:	2c34315f 	ldfcss	f3, [r4], #-380	; 0xfffffe84
    2ef8:	49545845 	ldmdbmi	r4, {r0, r2, r6, fp, ip, lr}^
    2efc:	495f3431 	ldmdbmi	pc, {r0, r4, r5, sl, ip, sp}^	; <UNPREDICTABLE>
    2f00:	007d5152 	rsbseq	r5, sp, r2, asr r1
    2f04:	53585f5f 	cmppl	r8, #380	; 0x17c
    2f08:	4e495254 	mcrmi	2, 2, r5, cr9, cr4, {2}
    2f0c:	29782847 	ldmdbcs	r8!, {r0, r1, r2, r6, fp, sp}^
    2f10:	535f5f20 	cmppl	pc, #32, 30	; 0x80
    2f14:	4e495254 	mcrmi	2, 2, r5, cr9, cr4, {2}
    2f18:	29782847 	ldmdbcs	r8!, {r0, r1, r2, r6, fp, sp}^
    2f1c:	615f5f00 	cmpvs	pc, r0, lsl #30
    2f20:	69727474 	ldmdbvs	r2!, {r2, r4, r5, r6, sl, ip, sp, lr}^
    2f24:	65747562 	ldrbvs	r7, [r4, #-1378]!	; 0xfffffa9e
    2f28:	7275705f 	rsbsvc	r7, r5, #95	; 0x5f
    2f2c:	205f5f65 	subscs	r5, pc, r5, ror #30
    2f30:	475f5f00 	ldrbmi	r5, [pc, -r0, lsl #30]
    2f34:	415f4343 	cmpmi	pc, r3, asr #6
    2f38:	494d4f54 	stmdbmi	sp, {r2, r4, r6, r8, r9, sl, fp, lr}^
    2f3c:	48535f43 	ldmdami	r3, {r0, r1, r6, r8, r9, sl, fp, ip, lr}^
    2f40:	5f54524f 	svcpl	0x0054524f
    2f44:	4b434f4c 	blmi	10d6c7c <_Min_Stack_Size+0x10d687c>
    2f48:	4552465f 	ldrbmi	r4, [r2, #-1631]	; 0xfffff9a1
    2f4c:	00322045 	eorseq	r2, r2, r5, asr #32
    2f50:	54505f5f 	ldrbpl	r5, [r0], #-3935	; 0xfffff0a1
    2f54:	46494452 			; <UNDEFINED> instruction: 0x46494452
    2f58:	59545f46 	ldmdbpl	r4, {r1, r2, r6, r8, r9, sl, fp, ip, lr}^
    2f5c:	5f5f4550 	svcpl	0x005f4550
    2f60:	746e6920 	strbtvc	r6, [lr], #-2336	; 0xfffff6e0
    2f64:	49504700 	ldmdbmi	r0, {r8, r9, sl, lr}^
    2f68:	4f4d5f4f 	svcmi	0x004d5f4f
    2f6c:	495f4544 	ldmdbmi	pc, {r2, r6, r8, sl, lr}^	; <UNPREDICTABLE>
    2f70:	5455504e 	ldrbpl	r5, [r5], #-78	; 0xffffffb2
    2f74:	4f4c465f 	svcmi	0x004c465f
    2f78:	4e495441 	cdpmi	4, 4, cr5, cr9, cr1, {2}
    2f7c:	78302047 	ldmdavc	r0!, {r0, r1, r2, r6, sp}
    2f80:	30303030 	eorscc	r3, r0, r0, lsr r0
    2f84:	31303030 	teqcc	r0, r0, lsr r0
    2f88:	52490075 	subpl	r0, r9, #117	; 0x75
    2f8c:	6c465f51 	mcrrvs	15, 5, r5, r6, cr1
    2f90:	5f006761 	svcpl	0x00006761
    2f94:	554e475f 	strbpl	r4, [lr, #-1887]	; 0xfffff8a1
    2f98:	4b494c43 	blmi	12560ac <_Min_Stack_Size+0x1255cac>
    2f9c:	55425f45 	strbpl	r5, [r2, #-3909]	; 0xfffff0bb
    2fa0:	49544c49 	ldmdbmi	r4, {r0, r3, r6, sl, fp, lr}^
    2fa4:	41565f4e 	cmpmi	r6, lr, asr #30
    2fa8:	47524152 			; <UNDEFINED> instruction: 0x47524152
    2fac:	00312053 	eorseq	r2, r1, r3, asr r0
    2fb0:	41555f5f 	cmpmi	r5, pc, asr pc
    2fb4:	4d554343 	ldclmi	3, cr4, [r5, #-268]	; 0xfffffef4
    2fb8:	5350455f 	cmppl	r0, #398458880	; 0x17c00000
    2fbc:	4e4f4c49 	cdpmi	12, 4, cr4, cr15, cr9, {2}
    2fc0:	30205f5f 	eorcc	r5, r0, pc, asr pc
    2fc4:	2d503178 	ldfcse	f3, [r0, #-480]	; 0xfffffe20
    2fc8:	4b553631 	blmi	1550894 <_Min_Stack_Size+0x1550494>
    2fcc:	54584500 	ldrbpl	r4, [r8], #-1280	; 0xfffffb00
    2fd0:	50303149 	eorspl	r3, r0, r9, asr #2
    2fd4:	20303141 	eorscs	r3, r0, r1, asr #2
    2fd8:	54584528 	ldrbpl	r4, [r8], #-1320	; 0xfffffad8
    2fdc:	50475f49 	subpl	r5, r7, r9, asr #30
    2fe0:	4d5f4f49 	ldclmi	15, cr4, [pc, #-292]	; 2ec4 <_Min_Stack_Size+0x2ac4>
    2fe4:	6e697061 	cdpvs	0, 6, cr7, cr9, cr1, {3}
    2fe8:	29745f67 	ldmdbcs	r4!, {r0, r1, r2, r5, r6, r8, r9, sl, fp, ip, lr}^
    2fec:	5458457b 	ldrbpl	r4, [r8], #-1403	; 0xfffffa85
    2ff0:	2c303149 	ldfcss	f3, [r0], #-292	; 0xfffffedc
    2ff4:	4f495047 	svcmi	0x00495047
    2ff8:	50472c41 	subpl	r2, r7, r1, asr #24
    2ffc:	505f4f49 	subspl	r4, pc, r9, asr #30
    3000:	315f4e49 	cmpcc	pc, r9, asr #28
    3004:	58452c30 	stmdapl	r5, {r4, r5, sl, fp, sp}^
    3008:	30314954 	eorscc	r4, r1, r4, asr r9
    300c:	5152495f 	cmppl	r2, pc, asr r9
    3010:	5f5f007d 	svcpl	0x005f007d
    3014:	544e4955 	strbpl	r4, [lr], #-2389	; 0xfffff6ab
    3018:	59545f38 	ldmdbpl	r4, {r3, r4, r5, r8, r9, sl, fp, ip, lr}^
    301c:	5f5f4550 	svcpl	0x005f4550
    3020:	736e7520 	cmnvc	lr, #32, 10	; 0x8000000
    3024:	656e6769 	strbvs	r6, [lr, #-1897]!	; 0xfffff897
    3028:	68632064 	stmdavs	r3!, {r2, r5, r6, sp}^
    302c:	44007261 	strmi	r7, [r0], #-609	; 0xfffffd9f
    3030:	50472032 	subpl	r2, r7, r2, lsr r0
    3034:	505f4f49 	subspl	r4, pc, r9, asr #30
    3038:	325f4e49 	subscc	r4, pc, #1168	; 0x490
    303c:	544e4900 	strbpl	r4, [lr], #-2304	; 0xfffff700
    3040:	41454c5f 	cmpmi	r5, pc, asr ip
    3044:	32335453 	eorscc	r5, r3, #1392508928	; 0x53000000
    3048:	4e494d5f 	mcrmi	13, 2, r4, cr9, cr15, {2}
    304c:	5f2d2820 	svcpl	0x002d2820
    3050:	544e495f 	strbpl	r4, [lr], #-2399	; 0xfffff6a1
    3054:	41454c5f 	cmpmi	r5, pc, asr ip
    3058:	32335453 	eorscc	r5, r3, #1392508928	; 0x53000000
    305c:	58414d5f 	stmdapl	r1, {r0, r1, r2, r3, r4, r6, r8, sl, fp, lr}^
    3060:	2d205f5f 	stccs	15, cr5, [r0, #-380]!	; 0xfffffe84
    3064:	00293120 	eoreq	r3, r9, r0, lsr #2
    3068:	49545845 	ldmdbmi	r4, {r0, r2, r6, fp, ip, lr}^
    306c:	41503231 	cmpmi	r0, r1, lsr r2
    3070:	28203231 	stmdacs	r0!, {r0, r4, r5, r9, ip, sp}
    3074:	49545845 	ldmdbmi	r4, {r0, r2, r6, fp, ip, lr}^
    3078:	4950475f 	ldmdbmi	r0, {r0, r1, r2, r3, r4, r6, r8, r9, sl, lr}^
    307c:	614d5f4f 	cmpvs	sp, pc, asr #30
    3080:	676e6970 			; <UNDEFINED> instruction: 0x676e6970
    3084:	7b29745f 	blvc	a60208 <_Min_Stack_Size+0xa5fe08>
    3088:	49545845 	ldmdbmi	r4, {r0, r2, r6, fp, ip, lr}^
    308c:	472c3231 			; <UNDEFINED> instruction: 0x472c3231
    3090:	414f4950 	cmpmi	pc, r0, asr r9	; <UNPREDICTABLE>
    3094:	4950472c 	ldmdbmi	r0, {r2, r3, r5, r8, r9, sl, lr}^
    3098:	49505f4f 	ldmdbmi	r0, {r0, r1, r2, r3, r6, r8, r9, sl, fp, ip, lr}^
    309c:	32315f4e 	eorscc	r5, r1, #312	; 0x138
    30a0:	5458452c 	ldrbpl	r4, [r8], #-1324	; 0xfffffad4
    30a4:	5f323149 	svcpl	0x00323149
    30a8:	7d515249 	lfmvc	f5, 2, [r1, #-292]	; 0xfffffedc
    30ac:	2f2e2e00 	svccs	0x002e2e00
    30b0:	2f637253 	svccs	0x00637253
    30b4:	6e69616d 	powvsez	f6, f1, #5.0
    30b8:	5200632e 	andpl	r6, r0, #-1207959552	; 0xb8000000
    30bc:	425f4343 	subsmi	r4, pc, #201326593	; 0xc000001
    30c0:	20455341 	subcs	r5, r5, r1, asr #6
    30c4:	30347830 	eorscc	r7, r4, r0, lsr r8
    30c8:	30313230 	eorscc	r3, r1, r0, lsr r2
    30cc:	4c553030 	mrrcmi	0, 3, r3, r5, cr0
    30d0:	465f5f00 	ldrbmi	r5, [pc], -r0, lsl #30
    30d4:	49445342 	stmdbmi	r4, {r1, r6, r8, r9, ip, lr}^
    30d8:	29732844 	ldmdbcs	r3!, {r2, r6, fp, sp}^
    30dc:	72747320 	rsbsvc	r7, r4, #32, 6	; 0x80000000
    30e0:	20746375 	rsbscs	r6, r4, r5, ror r3
    30e4:	61685f5f 	cmnvs	r8, pc, asr pc
    30e8:	5f006b63 	svcpl	0x00006b63
    30ec:	4153555f 	cmpmi	r3, pc, asr r5
    30f0:	4d554343 	ldclmi	3, cr4, [r5, #-268]	; 0xfffffef4
    30f4:	4942465f 	stmdbmi	r2, {r0, r1, r2, r3, r4, r6, r9, sl, lr}^
    30f8:	205f5f54 	subscs	r5, pc, r4, asr pc	; <UNPREDICTABLE>
    30fc:	455f0038 	ldrbmi	r0, [pc, #-56]	; 30cc <_Min_Stack_Size+0x2ccc>
    3100:	4144494c 	cmpmi	r4, ip, asr #18
    3104:	5f454c42 	svcpl	0x00454c42
    3108:	494c4e49 	stmdbmi	ip, {r0, r3, r6, r9, sl, fp, lr}^
    310c:	7320454e 			; <UNDEFINED> instruction: 0x7320454e
    3110:	69746174 	ldmdbvs	r4!, {r2, r4, r5, r6, r8, sp, lr}^
    3114:	5f5f2063 	svcpl	0x005f2063
    3118:	696c6e69 	stmdbvs	ip!, {r0, r3, r5, r6, r9, sl, fp, sp, lr}^
    311c:	5f5f656e 	svcpl	0x005f656e
    3120:	4e5f5f00 	cdpmi	15, 5, cr5, cr15, cr0, {0}
    3124:	414c4c55 	cmpmi	ip, r5, asr ip
    3128:	494c4942 	stmdbmi	ip, {r1, r6, r8, fp, lr}^
    312c:	505f5954 	subspl	r5, pc, r4, asr r9	; <UNPREDICTABLE>
    3130:	4d474152 	stfmie	f4, [r7, #-328]	; 0xfffffeb8
    3134:	4f505f41 	svcmi	0x00505f41
    3138:	5f002050 	svcpl	0x00002050
    313c:	53494d5f 	movtpl	r4, #40287	; 0x9d5f
    3140:	49565f43 	ldmdbmi	r6, {r0, r1, r6, r8, r9, sl, fp, ip, lr}^
    3144:	4c424953 	mcrrmi	9, 5, r4, r2, cr3	; <UNPREDICTABLE>
    3148:	00312045 	eorseq	r2, r1, r5, asr #32
    314c:	52434442 	subpl	r4, r3, #1107296256	; 0x42000000
    3150:	54584500 	ldrbpl	r4, [r8], #-1280	; 0xfffffb00
    3154:	43503149 	cmpmi	r0, #1073741842	; 0x40000012
    3158:	45282031 	strmi	r2, [r8, #-49]!	; 0xffffffcf
    315c:	5f495458 	svcpl	0x00495458
    3160:	4f495047 	svcmi	0x00495047
    3164:	70614d5f 	rsbvc	r4, r1, pc, asr sp
    3168:	5f676e69 	svcpl	0x00676e69
    316c:	457b2974 	ldrbmi	r2, [fp, #-2420]!	; 0xfffff68c
    3170:	31495458 	cmpcc	r9, r8, asr r4
    3174:	4950472c 	ldmdbmi	r0, {r2, r3, r5, r8, r9, sl, lr}^
    3178:	472c434f 	strmi	r4, [ip, -pc, asr #6]!
    317c:	5f4f4950 	svcpl	0x004f4950
    3180:	5f4e4950 	svcpl	0x004e4950
    3184:	58452c31 	stmdapl	r5, {r0, r4, r5, sl, fp, sp}^
    3188:	5f314954 	svcpl	0x00314954
    318c:	7d515249 	lfmvc	f5, 2, [r1, #-292]	; 0xfffffedc
    3190:	414c4600 	cmpmi	ip, r0, lsl #12
    3194:	4d5f4853 	ldclmi	8, cr4, [pc, #-332]	; 3050 <_Min_Stack_Size+0x2c50>
    3198:	726f6d65 	rsbvc	r6, pc, #6464	; 0x1940
    319c:	41425f79 	hvcmi	9721	; 0x25f9
    31a0:	30204553 	eorcc	r4, r0, r3, asr r5
    31a4:	30383078 	eorscc	r3, r8, r8, ror r0
    31a8:	30303030 	eorscc	r3, r0, r0, lsr r0
    31ac:	004c5530 	subeq	r5, ip, r0, lsr r5
    31b0:	4c465f5f 	mcrrmi	15, 5, r5, r6, cr15
    31b4:	5f323354 	svcpl	0x00323354
    31b8:	5f534148 	svcpl	0x00534148
    31bc:	45495551 	strbmi	r5, [r9, #-1361]	; 0xfffffaaf
    31c0:	414e5f54 	cmpmi	lr, r4, asr pc
    31c4:	205f5f4e 	subscs	r5, pc, lr, asr #30
    31c8:	5f5f0031 	svcpl	0x005f0031
    31cc:	4f53424f 	svcmi	0x0053424f
    31d0:	4554454c 	ldrbmi	r4, [r4, #-1356]	; 0xfffffab4
    31d4:	54414d5f 	strbpl	r4, [r1], #-3423	; 0xfffff2a1
    31d8:	5f5f2048 	svcpl	0x005f2048
    31dc:	4f53424f 	svcmi	0x0053424f
    31e0:	4554454c 	ldrbmi	r4, [r4, #-1356]	; 0xfffffab4
    31e4:	54414d5f 	strbpl	r4, [r1], #-3423	; 0xfffff2a1
    31e8:	45445f48 	strbmi	r5, [r4, #-3912]	; 0xfffff0b8
    31ec:	4c554146 	ldfmie	f4, [r5], {70}	; 0x46
    31f0:	58450054 	stmdapl	r5, {r2, r4, r6}^
    31f4:	545f4954 	ldrbpl	r4, [pc], #-2388	; 31fc <_Min_Stack_Size+0x2dfc>
    31f8:	67676972 			; <UNDEFINED> instruction: 0x67676972
    31fc:	525f7265 	subspl	r7, pc, #1342177286	; 0x50000006
    3200:	4e495349 	cdpmi	3, 4, cr5, cr9, cr9, {2}
    3204:	00302047 	eorseq	r2, r0, r7, asr #32
    3208:	5f44504b 	svcpl	0x0044504b
    320c:	4e5f3855 	mrcmi	8, 2, r3, cr15, cr5, {2}
    3210:	505f544f 	subspl	r5, pc, pc, asr #8
    3214:	53534552 	cmppl	r3, #343932928	; 0x14800000
    3218:	30204445 	eorcc	r4, r0, r5, asr #8
    321c:	00666678 	rsbeq	r6, r6, r8, ror r6
    3220:	444c5f5f 	strbmi	r5, [ip], #-3935	; 0xfffff0a1
    3224:	485f4c42 	ldmdami	pc, {r1, r6, sl, fp, lr}^	; <UNPREDICTABLE>
    3228:	495f5341 	ldmdbmi	pc, {r0, r6, r8, r9, ip, lr}^	; <UNPREDICTABLE>
    322c:	4e49464e 	cdpmi	6, 4, cr4, cr9, cr14, {2}
    3230:	5f595449 	svcpl	0x00595449
    3234:	0031205f 	eorseq	r2, r1, pc, asr r0
    3238:	49545845 	ldmdbmi	r4, {r0, r2, r6, fp, ip, lr}^
    323c:	35425035 	strbcc	r5, [r2, #-53]	; 0xffffffcb
    3240:	58452820 	stmdapl	r5, {r5, fp, sp}^
    3244:	475f4954 			; <UNDEFINED> instruction: 0x475f4954
    3248:	5f4f4950 	svcpl	0x004f4950
    324c:	6970614d 	ldmdbvs	r0!, {r0, r2, r3, r6, r8, sp, lr}^
    3250:	745f676e 	ldrbvc	r6, [pc], #-1902	; 3258 <_Min_Stack_Size+0x2e58>
    3254:	58457b29 	stmdapl	r5, {r0, r3, r5, r8, r9, fp, ip, sp, lr}^
    3258:	2c354954 			; <UNDEFINED> instruction: 0x2c354954
    325c:	4f495047 	svcmi	0x00495047
    3260:	50472c42 	subpl	r2, r7, r2, asr #24
    3264:	505f4f49 	subspl	r4, pc, r9, asr #30
    3268:	355f4e49 	ldrbcc	r4, [pc, #-3657]	; 2427 <_Min_Stack_Size+0x2027>
    326c:	5458452c 	ldrbpl	r4, [r8], #-1324	; 0xfffffad4
    3270:	495f3549 	ldmdbmi	pc, {r0, r3, r6, r8, sl, ip, sp}^	; <UNPREDICTABLE>
    3274:	007d5152 	rsbseq	r5, sp, r2, asr r1
    3278:	544e4955 	strbpl	r4, [lr], #-2389	; 0xfffff6ab
    327c:	5341465f 	movtpl	r4, #5727	; 0x165f
    3280:	5f343654 	svcpl	0x00343654
    3284:	2058414d 	subscs	r4, r8, sp, asr #2
    3288:	555f5f28 	ldrbpl	r5, [pc, #-3880]	; 2368 <_Min_Stack_Size+0x1f68>
    328c:	5f544e49 	svcpl	0x00544e49
    3290:	54534146 	ldrbpl	r4, [r3], #-326	; 0xfffffeba
    3294:	4d5f3436 	cfldrdmi	mvd3, [pc, #-216]	; 31c4 <_Min_Stack_Size+0x2dc4>
    3298:	5f5f5841 	svcpl	0x005f5841
    329c:	5f5f0029 	svcpl	0x005f0029
    32a0:	33434544 	movtcc	r4, #13636	; 0x3544
    32a4:	414d5f32 	cmpmi	sp, r2, lsr pc
    32a8:	205f5f58 	subscs	r5, pc, r8, asr pc	; <UNPREDICTABLE>
    32ac:	39392e39 	ldmdbcc	r9!, {r0, r3, r4, r5, r9, sl, fp, sp}
    32b0:	39393939 	ldmdbcc	r9!, {r0, r3, r4, r5, r8, fp, ip, sp}
    32b4:	44363945 	ldrtmi	r3, [r6], #-2373	; 0xfffff6bb
    32b8:	58450046 	stmdapl	r5, {r1, r2, r6}^
    32bc:	20304954 	eorscs	r4, r0, r4, asr r9
    32c0:	58450030 	stmdapl	r5, {r4, r5}^
    32c4:	5f334954 	svcpl	0x00334954
    32c8:	20515249 	subscs	r5, r1, r9, asr #4
    32cc:	5f5f0039 	svcpl	0x005f0039
    32d0:	33544c46 	cmpcc	r4, #17920	; 0x4600
    32d4:	4d5f5832 	ldclmi	8, cr5, [pc, #-200]	; 3214 <_Min_Stack_Size+0x2e14>
    32d8:	315f5841 	cmpcc	pc, r1, asr #16
    32dc:	58455f30 	stmdapl	r5, {r4, r5, r8, r9, sl, fp, ip, lr}^
    32e0:	205f5f50 	subscs	r5, pc, r0, asr pc	; <UNPREDICTABLE>
    32e4:	00383033 	eorseq	r3, r8, r3, lsr r0
    32e8:	52415f5f 	subpl	r5, r1, #380	; 0x17c
    32ec:	52415f4d 	subpl	r5, r1, #308	; 0x134
    32f0:	455f4843 	ldrbmi	r4, [pc, #-2115]	; 2ab5 <_Min_Stack_Size+0x26b5>
    32f4:	495f5458 	ldmdbmi	pc, {r3, r4, r6, sl, ip, lr}^	; <UNPREDICTABLE>
    32f8:	5f564944 	svcpl	0x00564944
    32fc:	0031205f 	eorseq	r2, r1, pc, asr r0
    3300:	52415f5f 	subpl	r5, r1, #380	; 0x17c
    3304:	43505f4d 	cmpmi	r0, #308	; 0x134
    3308:	00312053 	eorseq	r2, r1, r3, asr r0
    330c:	5f434e49 	svcpl	0x00434e49
    3310:	4f525245 	svcmi	0x00525245
    3314:	41545352 	cmpmi	r4, r2, asr r3
    3318:	5f534554 	svcpl	0x00534554
    331c:	00205f48 	eoreq	r5, r0, r8, asr #30
    3320:	75705f5f 	ldrbvc	r5, [r0, #-3935]!	; 0xfffff0a1
    3324:	5f206572 	svcpl	0x00206572
    3328:	7474615f 	ldrbtvc	r6, [r4], #-351	; 0xfffffea1
    332c:	75626972 	strbvc	r6, [r2, #-2418]!	; 0xfffff68e
    3330:	5f5f6574 	svcpl	0x005f6574
    3334:	5f5f2828 	svcpl	0x005f2828
    3338:	65727570 	ldrbvs	r7, [r2, #-1392]!	; 0xfffffa90
    333c:	29295f5f 	stmdbcs	r9!, {r0, r1, r2, r3, r4, r6, r8, r9, sl, fp, ip, lr}
    3340:	555f5f00 	ldrbpl	r5, [pc, #-3840]	; 2448 <_Min_Stack_Size+0x2048>
    3344:	495f5151 	ldmdbmi	pc, {r0, r4, r6, r8, ip, lr}^	; <UNPREDICTABLE>
    3348:	5f544942 	svcpl	0x00544942
    334c:	0030205f 	eorseq	r2, r0, pc, asr r0
    3350:	47203644 	strmi	r3, [r0, -r4, asr #12]!
    3354:	5f4f4950 	svcpl	0x004f4950
    3358:	5f4e4950 	svcpl	0x004e4950
    335c:	5f5f0036 	svcpl	0x005f0036
    3360:	5f474953 	svcpl	0x00474953
    3364:	4d4f5441 	cfstrdmi	mvd5, [pc, #-260]	; 3268 <_Min_Stack_Size+0x2e68>
    3368:	4d5f4349 	ldclmi	3, cr4, [pc, #-292]	; 324c <_Min_Stack_Size+0x2e4c>
    336c:	5f5f4e49 	svcpl	0x005f4e49
    3370:	5f2d2820 	svcpl	0x002d2820
    3374:	4749535f 	smlsldmi	r5, r9, pc, r3	; <UNPREDICTABLE>
    3378:	4f54415f 	svcmi	0x0054415f
    337c:	5f43494d 	svcpl	0x0043494d
    3380:	5f58414d 	svcpl	0x0058414d
    3384:	202d205f 	eorcs	r2, sp, pc, asr r0
    3388:	45002931 	strmi	r2, [r0, #-2353]	; 0xfffff6cf
    338c:	35495458 	strbcc	r5, [r9, #-1112]	; 0xfffffba8
    3390:	5f003520 	svcpl	0x00003520
    3394:	4341555f 	movtmi	r5, #5471	; 0x155f
    3398:	5f4d5543 	svcpl	0x004d5543
    339c:	5f4e494d 	svcpl	0x004e494d
    33a0:	2e30205f 	mrccs	0, 1, r2, cr0, cr15, {2}
    33a4:	004b5530 	subeq	r5, fp, r0, lsr r5
    33a8:	49545845 	ldmdbmi	r4, {r0, r2, r6, fp, ip, lr}^
    33ac:	45282820 	strmi	r2, [r8, #-2080]!	; 0xfffff7e0
    33b0:	5f495458 	svcpl	0x00495458
    33b4:	65707954 	ldrbvs	r7, [r0, #-2388]!	; 0xfffff6ac
    33b8:	20666564 	rsbcs	r6, r6, r4, ror #10
    33bc:	5845292a 	stmdapl	r5, {r1, r3, r5, r8, fp, sp}^
    33c0:	425f4954 	subsmi	r4, pc, #84, 18	; 0x150000
    33c4:	29455341 	stmdbcs	r5, {r0, r6, r8, r9, ip, lr}^
    33c8:	54584500 	ldrbpl	r4, [r8], #-1280	; 0xfffffb00
    33cc:	42503149 	subsmi	r3, r0, #1073741842	; 0x40000012
    33d0:	45282031 	strmi	r2, [r8, #-49]!	; 0xffffffcf
    33d4:	5f495458 	svcpl	0x00495458
    33d8:	4f495047 	svcmi	0x00495047
    33dc:	70614d5f 	rsbvc	r4, r1, pc, asr sp
    33e0:	5f676e69 	svcpl	0x00676e69
    33e4:	457b2974 	ldrbmi	r2, [fp, #-2420]!	; 0xfffff68c
    33e8:	31495458 	cmpcc	r9, r8, asr r4
    33ec:	4950472c 	ldmdbmi	r0, {r2, r3, r5, r8, r9, sl, lr}^
    33f0:	472c424f 	strmi	r4, [ip, -pc, asr #4]!
    33f4:	5f4f4950 	svcpl	0x004f4950
    33f8:	5f4e4950 	svcpl	0x004e4950
    33fc:	58452c31 	stmdapl	r5, {r0, r4, r5, sl, fp, sp}^
    3400:	5f314954 	svcpl	0x00314954
    3404:	7d515249 	lfmvc	f5, 2, [r1, #-292]	; 0xfffffedc
    3408:	53425f00 	movtpl	r5, #12032	; 0x2f00
    340c:	43575f44 	cmpmi	r7, #68, 30	; 0x110
    3410:	5f524148 	svcpl	0x00524148
    3414:	00205f54 	eoreq	r5, r0, r4, asr pc
    3418:	4545525f 	strbmi	r5, [r5, #-607]	; 0xfffffda1
    341c:	4d5f544e 	cfldrdmi	mvd5, [pc, #-312]	; 32ec <_Min_Stack_Size+0x2eec>
    3420:	35505f50 	ldrbcc	r5, [r0, #-3920]	; 0xfffff0b0
    3424:	74702853 	ldrbtvc	r2, [r0], #-2131	; 0xfffff7ad
    3428:	28202972 	stmdacs	r0!, {r1, r4, r5, r6, r8, fp, sp}
    342c:	72747028 	rsbsvc	r7, r4, #40	; 0x28
    3430:	5f3e2d29 	svcpl	0x003e2d29
    3434:	3e2d706d 	cdpcc	0, 2, cr7, cr13, cr13, {3}
    3438:	7335705f 	teqvc	r5, #95	; 0x5f
    343c:	49530029 	ldmdbmi	r3, {r0, r3, r5}^
    3440:	54415f47 	strbpl	r5, [r1], #-3911	; 0xfffff0b9
    3444:	43494d4f 	movtmi	r4, #40271	; 0x9d4f
    3448:	4e494d5f 	mcrmi	13, 2, r4, cr9, cr15, {2}
    344c:	5f2d2820 	svcpl	0x002d2820
    3450:	4454535f 	ldrbmi	r5, [r4], #-863	; 0xfffffca1
    3454:	5f544e49 	svcpl	0x00544e49
    3458:	28505845 	ldmdacs	r0, {r0, r2, r6, fp, ip, lr}^
    345c:	5f544e49 	svcpl	0x00544e49
    3460:	2958414d 	ldmdbcs	r8, {r0, r2, r3, r6, r8, lr}^
    3464:	31202d20 			; <UNDEFINED> instruction: 0x31202d20
    3468:	635f0029 	cmpvs	pc, #41	; 0x29
    346c:	696b6f6f 	stmdbvs	fp!, {r0, r1, r2, r3, r5, r6, r8, r9, sl, fp, sp, lr}^
    3470:	495f0065 	ldmdbmi	pc, {r0, r2, r5, r6}^	; <UNPREDICTABLE>
    3474:	3631544e 	ldrtcc	r5, [r1], -lr, asr #8
    3478:	445f545f 	ldrbmi	r5, [pc], #-1119	; 3480 <_Min_Stack_Size+0x3080>
    347c:	414c4345 	cmpmi	ip, r5, asr #6
    3480:	20444552 	subcs	r4, r4, r2, asr r5
    3484:	35705f00 	ldrbcc	r5, [r0, #-3840]!	; 0xfffff100
    3488:	50470073 	subpl	r0, r7, r3, ror r0
    348c:	20444f49 	subcs	r4, r4, r9, asr #30
    3490:	50472828 	subpl	r2, r7, r8, lsr #16
    3494:	545f4f49 	ldrbpl	r4, [pc], #-3913	; 349c <_Min_Stack_Size+0x309c>
    3498:	44657079 	strbtmi	r7, [r5], #-121	; 0xffffff87
    349c:	2a206665 	bcs	81ce38 <_Min_Stack_Size+0x81ca38>
    34a0:	49504729 	ldmdbmi	r0, {r0, r3, r5, r8, r9, sl, lr}^
    34a4:	425f444f 	subsmi	r4, pc, #1325400064	; 0x4f000000
    34a8:	29455341 	stmdbcs	r5, {r0, r6, r8, r9, ip, lr}^
    34ac:	49504700 	ldmdbmi	r0, {r8, r9, sl, lr}^
    34b0:	4f4d5f4f 	svcmi	0x004d5f4f
    34b4:	4f5f4544 	svcmi	0x005f4544
    34b8:	55505455 	ldrbpl	r5, [r0, #-1109]	; 0xfffffbab
    34bc:	55505f54 	ldrbpl	r5, [r0, #-3924]	; 0xfffff0ac
    34c0:	55504853 	ldrbpl	r4, [r0, #-2131]	; 0xfffff7ad
    34c4:	30204c4c 	eorcc	r4, r0, ip, asr #24
    34c8:	30303078 	eorscc	r3, r0, r8, ror r0
    34cc:	30303030 	eorscc	r3, r0, r0, lsr r0
    34d0:	5f007534 	svcpl	0x00007534
    34d4:	4946735f 	stmdbmi	r6, {r0, r1, r2, r3, r4, r6, r8, r9, ip, sp, lr}^
    34d8:	665f454c 	ldrbvs	r4, [pc], -ip, asr #10
    34dc:	00656b61 	rsbeq	r6, r5, r1, ror #22
    34e0:	4554415f 	ldrbmi	r4, [r4, #-351]	; 0xfffffea1
    34e4:	5f544958 	svcpl	0x00544958
    34e8:	54494e49 	strbpl	r4, [r9], #-3657	; 0xfffff1b7
    34ec:	4e5f7b20 	vnmlsmi.f64	d23, d15, d16
    34f0:	2c4c4c55 	mcrrcs	12, 5, r4, ip, cr5
    34f4:	202c3020 	eorcs	r3, ip, r0, lsr #32
    34f8:	554e5f7b 	strbpl	r5, [lr, #-3963]	; 0xfffff085
    34fc:	2c7d4c4c 	ldclcs	12, cr4, [sp], #-304	; 0xfffffed0
    3500:	554e5f20 	strbpl	r5, [lr, #-3872]	; 0xfffff0e0
    3504:	007d4c4c 	rsbseq	r4, sp, ip, asr #24
    3508:	7364775f 	cmnvc	r4, #24903680	; 0x17c0000
    350c:	495f5f00 	ldmdbmi	pc, {r8, r9, sl, fp, ip, lr}^	; <UNPREDICTABLE>
    3510:	4c5f544e 	cfldrdmi	mvd5, [pc], {78}	; 0x4e
    3514:	54534145 	ldrbpl	r4, [r3], #-325	; 0xfffffebb
    3518:	575f3631 	smmlarpl	pc, r1, r6, r3	; <UNPREDICTABLE>
    351c:	48544449 	ldmdami	r4, {r0, r3, r6, sl, lr}^
    3520:	31205f5f 			; <UNDEFINED> instruction: 0x31205f5f
    3524:	5f5f0036 	svcpl	0x005f0036
    3528:	5f434544 	svcpl	0x00434544
    352c:	4c415645 	mcrrmi	6, 4, r5, r1, cr5
    3530:	54454d5f 	strbpl	r4, [r5], #-3423	; 0xfffff2a1
    3534:	5f444f48 	svcpl	0x00444f48
    3538:	0032205f 	eorseq	r2, r2, pc, asr r0
    353c:	4545525f 	strbmi	r5, [r5, #-607]	; 0xfffffda1
    3540:	435f544e 	cmpmi	pc, #1308622848	; 0x4e000000
    3544:	4b434548 	blmi	10d4a6c <_Min_Stack_Size+0x10d466c>
    3548:	4749535f 	smlsldmi	r5, r9, pc, r3	; <UNPREDICTABLE>
    354c:	5f4c414e 	svcpl	0x004c414e
    3550:	28465542 	stmdacs	r6, {r1, r6, r8, sl, ip, lr}^
    3554:	29726176 	ldmdbcs	r2!, {r1, r2, r4, r5, r6, r8, sp, lr}^
    3558:	45525f20 	ldrbmi	r5, [r2, #-3872]	; 0xfffff0e0
    355c:	5f544e45 	svcpl	0x00544e45
    3560:	43454843 	movtmi	r4, #22595	; 0x5843
    3564:	6176284b 	cmnvs	r6, fp, asr #16
    3568:	5f202c72 	svcpl	0x00202c72
    356c:	6e676973 			; <UNDEFINED> instruction: 0x6e676973
    3570:	625f6c61 	subsvs	r6, pc, #24832	; 0x6100
    3574:	202c6675 	eorcs	r6, ip, r5, ror r6
    3578:	72616863 	rsbvc	r6, r1, #6488064	; 0x630000
    357c:	202c2a20 	eorcs	r2, ip, r0, lsr #20
    3580:	4545525f 	strbmi	r5, [r5, #-607]	; 0xfffffda1
    3584:	535f544e 	cmppl	pc, #1308622848	; 0x4e000000
    3588:	414e4749 	cmpmi	lr, r9, asr #14
    358c:	49535f4c 	ldmdbmi	r3, {r2, r3, r6, r8, r9, sl, fp, ip, lr}^
    3590:	202c455a 	eorcs	r4, ip, sl, asr r5
    3594:	3a430029 	bcc	10c3640 <_Min_Stack_Size+0x10c3240>
    3598:	6573552f 	ldrbvs	r5, [r3, #-1327]!	; 0xfffffad1
    359c:	412f7372 			; <UNDEFINED> instruction: 0x412f7372
    35a0:	6c616462 	cfstrdvs	mvd6, [r1], #-392	; 0xfffffe78
    35a4:	2f68616c 	svccs	0x0068616c
    35a8:	334d5453 	movtcc	r5, #54355	; 0xd453
    35ac:	62754332 	rsbsvs	r4, r5, #-939524096	; 0xc8000000
    35b0:	45444965 	strbmi	r4, [r4, #-2405]	; 0xfffff69b
    35b4:	726f772f 	rsbvc	r7, pc, #12320768	; 0xbc0000
    35b8:	6170736b 	cmnvs	r0, fp, ror #6
    35bc:	315f6563 	cmpcc	pc, r3, ror #10
    35c0:	302e342e 	eorcc	r3, lr, lr, lsr #8
    35c4:	6972442f 	ldmdbvs	r2!, {r0, r1, r2, r3, r5, sl, lr}^
    35c8:	73726576 	cmnvc	r2, #494927872	; 0x1d800000
    35cc:	58455f32 	stmdapl	r5, {r1, r4, r5, r8, r9, sl, fp, ip, lr}^
    35d0:	442f4954 	strtmi	r4, [pc], #-2388	; 35d8 <_Min_Stack_Size+0x31d8>
    35d4:	67756265 	ldrbvs	r6, [r5, -r5, ror #4]!
    35d8:	454e5f00 	strbmi	r5, [lr, #-3840]	; 0xfffff100
    35dc:	42494c57 	submi	r4, r9, #22272	; 0x5700
    35e0:	5245565f 	subpl	r5, r5, #99614720	; 0x5f00000
    35e4:	4e4f4953 			; <UNDEFINED> instruction: 0x4e4f4953
    35e8:	2e332220 	cdpcs	2, 3, cr2, cr3, cr0, {1}
    35ec:	22302e30 	eorscs	r2, r0, #48, 28	; 0x300
    35f0:	4e495500 	cdpmi	5, 4, cr5, cr9, cr0, {0}
    35f4:	5f323354 	svcpl	0x00323354
    35f8:	2058414d 	subscs	r4, r8, sp, asr #2
    35fc:	555f5f28 	ldrbpl	r5, [pc, #-3880]	; 26dc <_Min_Stack_Size+0x22dc>
    3600:	33544e49 	cmpcc	r4, #1168	; 0x490
    3604:	414d5f32 	cmpmi	sp, r2, lsr pc
    3608:	295f5f58 	ldmdbcs	pc, {r3, r4, r6, r8, r9, sl, fp, ip, lr}^	; <UNPREDICTABLE>
    360c:	69735f00 	ldmdbvs	r3!, {r8, r9, sl, fp, ip, lr}^
    3610:	75665f67 	strbvc	r5, [r6, #-3943]!	; 0xfffff099
    3614:	5f00636e 	svcpl	0x0000636e
    3618:	4345445f 	movtmi	r4, #21599	; 0x545f
    361c:	535f3436 	cmppl	pc, #905969664	; 0x36000000
    3620:	4f4e4255 	svcmi	0x004e4255
    3624:	4c414d52 	mcrrmi	13, 5, r4, r1, cr2
    3628:	4e494d5f 	mcrmi	13, 2, r4, cr9, cr15, {2}
    362c:	30205f5f 	eorcc	r5, r0, pc, asr pc
    3630:	3030302e 	eorscc	r3, r0, lr, lsr #32
    3634:	30303030 	eorscc	r3, r0, r0, lsr r0
    3638:	30303030 	eorscc	r3, r0, r0, lsr r0
    363c:	31303030 	teqcc	r0, r0, lsr r0
    3640:	38332d45 	ldmdacc	r3!, {r0, r2, r6, r8, sl, fp, sp}
    3644:	00444433 	subeq	r4, r4, r3, lsr r4
    3648:	53555f5f 	cmppl	r5, #380	; 0x17c
    364c:	43415246 	movtmi	r5, #4678	; 0x1246
    3650:	50455f54 	subpl	r5, r5, r4, asr pc
    3654:	4f4c4953 	svcmi	0x004c4953
    3658:	205f5f4e 	subscs	r5, pc, lr, asr #30
    365c:	50317830 	eorspl	r7, r1, r0, lsr r8
    3660:	4855382d 	ldmdami	r5, {r0, r2, r3, r5, fp, ip, sp}^
    3664:	554e0052 	strbpl	r0, [lr, #-82]	; 0xffffffae
    3668:	28204c4c 	stmdacs	r0!, {r2, r3, r6, sl, fp, lr}
    366c:	696f7628 	stmdbvs	pc!, {r3, r5, r9, sl, ip, sp, lr}^	; <UNPREDICTABLE>
    3670:	292a2064 	stmdbcs	sl!, {r2, r5, r6, sp}
    3674:	5f002930 	svcpl	0x00002930
    3678:	4e454552 	mcrmi	5, 2, r4, cr5, cr2, {2}
    367c:	48435f54 	stmdami	r3, {r2, r4, r6, r8, r9, sl, fp, ip, lr}^
    3680:	5f4b4345 	svcpl	0x004b4345
    3684:	7628504d 	strtvc	r5, [r8], -sp, asr #32
    3688:	20297261 	eorcs	r7, r9, r1, ror #4
    368c:	4545525f 	strbmi	r5, [r5, #-607]	; 0xfffffda1
    3690:	435f544e 	cmpmi	pc, #1308622848	; 0x4e000000
    3694:	4b434548 	blmi	10d4bbc <_Min_Stack_Size+0x10d47bc>
    3698:	72617628 	rsbvc	r7, r1, #40, 12	; 0x2800000
    369c:	6d5f202c 	ldclvs	0, cr2, [pc, #-176]	; 35f4 <_Min_Stack_Size+0x31f4>
    36a0:	73202c70 			; <UNDEFINED> instruction: 0x73202c70
    36a4:	63757274 	cmnvs	r5, #116, 4	; 0x40000007
    36a8:	6d5f2074 	ldclvs	0, cr2, [pc, #-464]	; 34e0 <_Min_Stack_Size+0x30e0>
    36ac:	63657270 	cmnvs	r5, #112, 4
    36b0:	202c2a20 	eorcs	r2, ip, r0, lsr #20
    36b4:	657a6973 	ldrbvs	r6, [sl, #-2419]!	; 0xfffff68d
    36b8:	2a20666f 	bcs	81d07c <_Min_Stack_Size+0x81cc7c>
    36bc:	61762828 	cmnvs	r6, r8, lsr #16
    36c0:	3e2d2972 			; <UNDEFINED> instruction: 0x3e2d2972
    36c4:	29706d5f 	ldmdbcs	r0!, {r0, r1, r2, r3, r4, r6, r8, sl, fp, sp, lr}^
    36c8:	525f202c 	subspl	r2, pc, #44	; 0x2c
    36cc:	544e4545 	strbpl	r4, [lr], #-1349	; 0xfffffabb
    36d0:	494e495f 	stmdbmi	lr, {r0, r1, r2, r3, r4, r6, r8, fp, lr}^
    36d4:	504d5f54 	subpl	r5, sp, r4, asr pc
    36d8:	72617628 	rsbvc	r7, r1, #40, 12	; 0x2800000
    36dc:	5f002929 	svcpl	0x00002929
    36e0:	7373615f 	cmnvc	r3, #-1073741801	; 0xc0000017
    36e4:	73747265 	cmnvc	r4, #1342177286	; 0x50000006
    36e8:	6378655f 	cmnvs	r8, #398458880	; 0x17c00000
    36ec:	6973756c 	ldmdbvs	r3!, {r2, r3, r5, r6, r8, sl, ip, sp, lr}^
    36f0:	2e286576 	mcrcs	5, 1, r6, cr8, cr6, {3}
    36f4:	20292e2e 	eorcs	r2, r9, lr, lsr #28
    36f8:	6f6c5f5f 	svcvs	0x006c5f5f
    36fc:	615f6b63 	cmpvs	pc, r3, ror #22
    3700:	746f6e6e 	strbtvc	r6, [pc], #-3694	; 3708 <_Min_Stack_Size+0x3308>
    3704:	28657461 	stmdacs	r5!, {r0, r5, r6, sl, ip, sp, lr}^
    3708:	65737361 	ldrbvs	r7, [r3, #-865]!	; 0xfffffc9f
    370c:	655f7472 	ldrbvs	r7, [pc, #-1138]	; 32a2 <_Min_Stack_Size+0x2ea2>
    3710:	756c6378 	strbvc	r6, [ip, #-888]!	; 0xfffffc88
    3714:	65766973 	ldrbvs	r6, [r6, #-2419]!	; 0xfffff68d
    3718:	636f6c5f 	cmnvs	pc, #24320	; 0x5f00
    371c:	5f5f286b 	svcpl	0x005f286b
    3720:	415f4156 	cmpmi	pc, r6, asr r1	; <UNPREDICTABLE>
    3724:	5f534752 	svcpl	0x00534752
    3728:	0029295f 	eoreq	r2, r9, pc, asr r9
    372c:	52474643 	subpl	r4, r7, #70254592	; 0x4300000
    3730:	5f5f5f00 	svcpl	0x005f5f00
    3734:	5f746e69 	svcpl	0x00746e69
    3738:	7361656c 	cmnvc	r1, #108, 10	; 0x1b000000
    373c:	5f323374 	svcpl	0x00323374
    3740:	65645f74 	strbvs	r5, [r4, #-3956]!	; 0xfffff08c
    3744:	656e6966 	strbvs	r6, [lr, #-2406]!	; 0xfffff69a
    3748:	00312064 	eorseq	r2, r1, r4, rrx
    374c:	4c4c5f5f 	mcrrmi	15, 5, r5, ip, cr15
    3750:	55434341 	strbpl	r4, [r3, #-833]	; 0xfffffcbf
    3754:	414d5f4d 	cmpmi	sp, sp, asr #30
    3758:	205f5f58 	subscs	r5, pc, r8, asr pc	; <UNPREDICTABLE>
    375c:	46375830 			; <UNDEFINED> instruction: 0x46375830
    3760:	46464646 	strbmi	r4, [r6], -r6, asr #12
    3764:	46464646 	strbmi	r4, [r6], -r6, asr #12
    3768:	46464646 	strbmi	r4, [r6], -r6, asr #12
    376c:	2d504646 	ldclcs	6, cr4, [r0, #-280]	; 0xfffffee8
    3770:	4c4c3133 	stfmie	f3, [ip], {51}	; 0x33
    3774:	6f5f004b 	svcvs	0x005f004b
    3778:	65736666 	ldrbvs	r6, [r3, #-1638]!	; 0xfffff99a
    377c:	425f0074 	subsmi	r0, pc, #116	; 0x74
    3780:	505f4453 	subspl	r4, pc, r3, asr r4	; <UNPREDICTABLE>
    3784:	49445254 	stmdbmi	r4, {r2, r4, r6, r9, ip, lr}^
    3788:	545f4646 	ldrbpl	r4, [pc], #-1606	; 3790 <_Min_Stack_Size+0x3390>
    378c:	5f00205f 	svcpl	0x0000205f
    3790:	62747663 	rsbsvs	r7, r4, #103809024	; 0x6300000
    3794:	5f006675 	svcpl	0x00006675
    3798:	4553555f 	ldrbmi	r5, [r3, #-1375]	; 0xfffffaa1
    379c:	414c5f52 	cmpmi	ip, r2, asr pc
    37a0:	5f4c4542 	svcpl	0x004c4542
    37a4:	46455250 			; <UNDEFINED> instruction: 0x46455250
    37a8:	5f5f5849 	svcpl	0x005f5849
    37ac:	5f5f0020 	svcpl	0x005f0020
    37b0:	544e4955 	strbpl	r4, [lr], #-2389	; 0xfffff6ab
    37b4:	4d5f3436 	cfldrdmi	mvd3, [pc, #-216]	; 36e4 <_Min_Stack_Size+0x32e4>
    37b8:	5f5f5841 	svcpl	0x005f5841
    37bc:	66783020 	ldrbtvs	r3, [r8], -r0, lsr #32
    37c0:	66666666 	strbtvs	r6, [r6], -r6, ror #12
    37c4:	66666666 	strbtvs	r6, [r6], -r6, ror #12
    37c8:	66666666 	strbtvs	r6, [r6], -r6, ror #12
    37cc:	55666666 	strbpl	r6, [r6, #-1638]!	; 0xfffff99a
    37d0:	5f004c4c 	svcpl	0x00004c4c
    37d4:	4e454552 	mcrmi	5, 2, r4, cr5, cr2, {2}
    37d8:	54535f54 	ldrbpl	r5, [r3], #-3924	; 0xfffff0ac
    37dc:	4b4f5452 	blmi	13d892c <_Min_Stack_Size+0x13d852c>
    37e0:	53414c5f 	movtpl	r4, #7263	; 0x1c5f
    37e4:	74702854 	ldrbtvc	r2, [r0], #-2132	; 0xfffff7ac
    37e8:	28202972 	stmdacs	r0!, {r1, r4, r5, r6, r8, fp, sp}
    37ec:	72747028 	rsbsvc	r7, r4, #40	; 0x28
    37f0:	5f3e2d29 	svcpl	0x003e2d29
    37f4:	6373696d 	cmnvs	r3, #1785856	; 0x1b4000
    37f8:	735f3e2d 	cmpvc	pc, #720	; 0x2d0
    37fc:	6f747274 	svcvs	0x00747274
    3800:	616c5f6b 	cmnvs	ip, fp, ror #30
    3804:	00297473 	eoreq	r7, r9, r3, ror r4
    3808:	626f695f 	rsbvs	r6, pc, #1556480	; 0x17c000
    380c:	525f0073 	subspl	r0, pc, #115	; 0x73
    3810:	544e4545 	strbpl	r4, [lr], #-1349	; 0xfffffabb
    3814:	494e495f 	stmdbmi	lr, {r0, r1, r2, r3, r4, r6, r8, fp, lr}^
    3818:	494d5f54 	stmdbmi	sp, {r2, r4, r6, r8, r9, sl, fp, ip, lr}^
    381c:	76284353 			; <UNDEFINED> instruction: 0x76284353
    3820:	20297261 	eorcs	r7, r9, r1, ror #4
    3824:	7b206f64 	blvc	81f5bc <_Min_Stack_Size+0x81f1bc>
    3828:	72747320 	rsbsvc	r7, r4, #32, 6	; 0x80000000
    382c:	20746375 	rsbscs	r6, r4, r5, ror r3
    3830:	6565725f 	strbvs	r7, [r5, #-607]!	; 0xfffffda1
    3834:	2a20746e 	bcs	8209f4 <_Min_Stack_Size+0x8205f4>
    3838:	3d20725f 	sfmcc	f7, 4, [r0, #-380]!	; 0xfffffe84
    383c:	61762820 	cmnvs	r6, r0, lsr #16
    3840:	203b2972 	eorscs	r2, fp, r2, ror r9
    3844:	3e2d725f 	mcrcc	2, 1, r7, cr13, cr15, {2}
    3848:	73696d5f 	cmnvc	r9, #6080	; 0x17c0
    384c:	5f3e2d63 	svcpl	0x003e2d63
    3850:	74727473 	ldrbtvc	r7, [r2], #-1139	; 0xfffffb8d
    3854:	6c5f6b6f 	mrrcvs	11, 6, r6, pc, cr15	; <UNPREDICTABLE>
    3858:	20747361 	rsbscs	r7, r4, r1, ror #6
    385c:	4e5f203d 	mrcmi	0, 2, r2, cr15, cr13, {1}
    3860:	3b4c4c55 	blcc	13169bc <_Min_Stack_Size+0x13165bc>
    3864:	2d725f20 	ldclcs	15, cr5, [r2, #-128]!	; 0xffffff80
    3868:	696d5f3e 	stmdbvs	sp!, {r1, r2, r3, r4, r5, r8, r9, sl, fp, ip, lr}^
    386c:	3e2d6373 	mcrcc	3, 1, r6, cr13, cr3, {3}
    3870:	6c626d5f 	stclvs	13, cr6, [r2], #-380	; 0xfffffe84
    3874:	735f6e65 	cmpvc	pc, #1616	; 0x650
    3878:	65746174 	ldrbvs	r6, [r4, #-372]!	; 0xfffffe8c
    387c:	635f5f2e 	cmpvs	pc, #46, 30	; 0xb8
    3880:	746e756f 	strbtvc	r7, [lr], #-1391	; 0xfffffa91
    3884:	30203d20 	eorcc	r3, r0, r0, lsr #26
    3888:	725f203b 	subsvc	r2, pc, #59	; 0x3b
    388c:	6d5f3e2d 	ldclvs	14, cr3, [pc, #-180]	; 37e0 <_Min_Stack_Size+0x33e0>
    3890:	2d637369 	stclcs	3, cr7, [r3, #-420]!	; 0xfffffe5c
    3894:	626d5f3e 	rsbvs	r5, sp, #62, 30	; 0xf8
    3898:	5f6e656c 	svcpl	0x006e656c
    389c:	74617473 	strbtvc	r7, [r1], #-1139	; 0xfffffb8d
    38a0:	5f5f2e65 	svcpl	0x005f2e65
    38a4:	756c6176 	strbvc	r6, [ip, #-374]!	; 0xfffffe8a
    38a8:	5f5f2e65 	svcpl	0x005f2e65
    38ac:	20686377 	rsbcs	r6, r8, r7, ror r3
    38b0:	3b30203d 	blcc	c0b9ac <_Min_Stack_Size+0xc0b5ac>
    38b4:	2d725f20 	ldclcs	15, cr5, [r2, #-128]!	; 0xffffff80
    38b8:	696d5f3e 	stmdbvs	sp!, {r1, r2, r3, r4, r5, r8, r9, sl, fp, ip, lr}^
    38bc:	3e2d6373 	mcrcc	3, 1, r6, cr13, cr3, {3}
    38c0:	7463775f 	strbtvc	r7, [r3], #-1887	; 0xfffff8a1
    38c4:	5f626d6f 	svcpl	0x00626d6f
    38c8:	74617473 	strbtvc	r7, [r1], #-1139	; 0xfffffb8d
    38cc:	5f5f2e65 	svcpl	0x005f2e65
    38d0:	6e756f63 	cdpvs	15, 7, cr6, cr5, cr3, {3}
    38d4:	203d2074 	eorscs	r2, sp, r4, ror r0
    38d8:	5f203b30 	svcpl	0x00203b30
    38dc:	5f3e2d72 	svcpl	0x003e2d72
    38e0:	6373696d 	cmnvs	r3, #1785856	; 0x1b4000
    38e4:	775f3e2d 	ldrbvc	r3, [pc, -sp, lsr #28]
    38e8:	6d6f7463 	cfstrdvs	mvd7, [pc, #-396]!	; 3764 <_Min_Stack_Size+0x3364>
    38ec:	74735f62 	ldrbtvc	r5, [r3], #-3938	; 0xfffff09e
    38f0:	2e657461 	cdpcs	4, 6, cr7, cr5, cr1, {3}
    38f4:	61765f5f 	cmnvs	r6, pc, asr pc
    38f8:	2e65756c 	cdpcs	5, 6, cr7, cr5, cr12, {3}
    38fc:	63775f5f 	cmnvs	r7, #380	; 0x17c
    3900:	203d2068 	eorscs	r2, sp, r8, rrx
    3904:	5f203b30 	svcpl	0x00203b30
    3908:	5f3e2d72 	svcpl	0x003e2d72
    390c:	6373696d 	cmnvs	r3, #1785856	; 0x1b4000
    3910:	6d5f3e2d 	ldclvs	14, cr3, [pc, #-180]	; 3864 <_Min_Stack_Size+0x3464>
    3914:	776f7462 	strbvc	r7, [pc, -r2, ror #8]!
    3918:	74735f63 	ldrbtvc	r5, [r3], #-3939	; 0xfffff09d
    391c:	2e657461 	cdpcs	4, 6, cr7, cr5, cr1, {3}
    3920:	6f635f5f 	svcvs	0x00635f5f
    3924:	20746e75 	rsbscs	r6, r4, r5, ror lr
    3928:	3b30203d 	blcc	c0ba24 <_Min_Stack_Size+0xc0b624>
    392c:	2d725f20 	ldclcs	15, cr5, [r2, #-128]!	; 0xffffff80
    3930:	696d5f3e 	stmdbvs	sp!, {r1, r2, r3, r4, r5, r8, r9, sl, fp, ip, lr}^
    3934:	3e2d6373 	mcrcc	3, 1, r6, cr13, cr3, {3}
    3938:	74626d5f 	strbtvc	r6, [r2], #-3423	; 0xfffff2a1
    393c:	5f63776f 	svcpl	0x0063776f
    3940:	74617473 	strbtvc	r7, [r1], #-1139	; 0xfffffb8d
    3944:	5f5f2e65 	svcpl	0x005f2e65
    3948:	756c6176 	strbvc	r6, [ip, #-374]!	; 0xfffffe8a
    394c:	5f5f2e65 	svcpl	0x005f2e65
    3950:	20686377 	rsbcs	r6, r8, r7, ror r3
    3954:	3b30203d 	blcc	c0ba50 <_Min_Stack_Size+0xc0b650>
    3958:	2d725f20 	ldclcs	15, cr5, [r2, #-128]!	; 0xffffff80
    395c:	696d5f3e 	stmdbvs	sp!, {r1, r2, r3, r4, r5, r8, r9, sl, fp, ip, lr}^
    3960:	3e2d6373 	mcrcc	3, 1, r6, cr13, cr3, {3}
    3964:	72626d5f 	rsbvc	r6, r2, #6080	; 0x17c0
    3968:	5f6e656c 	svcpl	0x006e656c
    396c:	74617473 	strbtvc	r7, [r1], #-1139	; 0xfffffb8d
    3970:	5f5f2e65 	svcpl	0x005f2e65
    3974:	6e756f63 	cdpvs	15, 7, cr6, cr5, cr3, {3}
    3978:	203d2074 	eorscs	r2, sp, r4, ror r0
    397c:	5f203b30 	svcpl	0x00203b30
    3980:	5f3e2d72 	svcpl	0x003e2d72
    3984:	6373696d 	cmnvs	r3, #1785856	; 0x1b4000
    3988:	6d5f3e2d 	ldclvs	14, cr3, [pc, #-180]	; 38dc <_Min_Stack_Size+0x34dc>
    398c:	656c7262 	strbvs	r7, [ip, #-610]!	; 0xfffffd9e
    3990:	74735f6e 	ldrbtvc	r5, [r3], #-3950	; 0xfffff092
    3994:	2e657461 	cdpcs	4, 6, cr7, cr5, cr1, {3}
    3998:	61765f5f 	cmnvs	r6, pc, asr pc
    399c:	2e65756c 	cdpcs	5, 6, cr7, cr5, cr12, {3}
    39a0:	63775f5f 	cmnvs	r7, #380	; 0x17c
    39a4:	203d2068 	eorscs	r2, sp, r8, rrx
    39a8:	5f203b30 	svcpl	0x00203b30
    39ac:	5f3e2d72 	svcpl	0x003e2d72
    39b0:	6373696d 	cmnvs	r3, #1785856	; 0x1b4000
    39b4:	6d5f3e2d 	ldclvs	14, cr3, [pc, #-180]	; 3908 <_Min_Stack_Size+0x3508>
    39b8:	6f747262 	svcvs	0x00747262
    39bc:	735f6377 	cmpvc	pc, #-603979775	; 0xdc000001
    39c0:	65746174 	ldrbvs	r6, [r4, #-372]!	; 0xfffffe8c
    39c4:	635f5f2e 	cmpvs	pc, #46, 30	; 0xb8
    39c8:	746e756f 	strbtvc	r7, [lr], #-1391	; 0xfffffa91
    39cc:	30203d20 	eorcc	r3, r0, r0, lsr #26
    39d0:	725f203b 	subsvc	r2, pc, #59	; 0x3b
    39d4:	6d5f3e2d 	ldclvs	14, cr3, [pc, #-180]	; 3928 <_Min_Stack_Size+0x3528>
    39d8:	2d637369 	stclcs	3, cr7, [r3, #-420]!	; 0xfffffe5c
    39dc:	626d5f3e 	rsbvs	r5, sp, #62, 30	; 0xf8
    39e0:	776f7472 			; <UNDEFINED> instruction: 0x776f7472
    39e4:	74735f63 	ldrbtvc	r5, [r3], #-3939	; 0xfffff09d
    39e8:	2e657461 	cdpcs	4, 6, cr7, cr5, cr1, {3}
    39ec:	61765f5f 	cmnvs	r6, pc, asr pc
    39f0:	2e65756c 	cdpcs	5, 6, cr7, cr5, cr12, {3}
    39f4:	63775f5f 	cmnvs	r7, #380	; 0x17c
    39f8:	203d2068 	eorscs	r2, sp, r8, rrx
    39fc:	5f203b30 	svcpl	0x00203b30
    3a00:	5f3e2d72 	svcpl	0x003e2d72
    3a04:	6373696d 	cmnvs	r3, #1785856	; 0x1b4000
    3a08:	6d5f3e2d 	ldclvs	14, cr3, [pc, #-180]	; 395c <_Min_Stack_Size+0x355c>
    3a0c:	74727362 	ldrbtvc	r7, [r2], #-866	; 0xfffffc9e
    3a10:	7363776f 	cmnvc	r3, #29097984	; 0x1bc0000
    3a14:	6174735f 	cmnvs	r4, pc, asr r3
    3a18:	5f2e6574 	svcpl	0x002e6574
    3a1c:	756f635f 	strbvc	r6, [pc, #-863]!	; 36c5 <_Min_Stack_Size+0x32c5>
    3a20:	3d20746e 	cfstrscc	mvf7, [r0, #-440]!	; 0xfffffe48
    3a24:	203b3020 	eorscs	r3, fp, r0, lsr #32
    3a28:	3e2d725f 	mcrcc	2, 1, r7, cr13, cr15, {2}
    3a2c:	73696d5f 	cmnvc	r9, #6080	; 0x17c0
    3a30:	5f3e2d63 	svcpl	0x003e2d63
    3a34:	7273626d 	rsbsvc	r6, r3, #-805306362	; 0xd0000006
    3a38:	63776f74 	cmnvs	r7, #116, 30	; 0x1d0
    3a3c:	74735f73 	ldrbtvc	r5, [r3], #-3955	; 0xfffff08d
    3a40:	2e657461 	cdpcs	4, 6, cr7, cr5, cr1, {3}
    3a44:	61765f5f 	cmnvs	r6, pc, asr pc
    3a48:	2e65756c 	cdpcs	5, 6, cr7, cr5, cr12, {3}
    3a4c:	63775f5f 	cmnvs	r7, #380	; 0x17c
    3a50:	203d2068 	eorscs	r2, sp, r8, rrx
    3a54:	5f203b30 	svcpl	0x00203b30
    3a58:	5f3e2d72 	svcpl	0x003e2d72
    3a5c:	6373696d 	cmnvs	r3, #1785856	; 0x1b4000
    3a60:	775f3e2d 	ldrbvc	r3, [pc, -sp, lsr #28]
    3a64:	6f747263 	svcvs	0x00747263
    3a68:	735f626d 	cmpvc	pc, #-805306362	; 0xd0000006
    3a6c:	65746174 	ldrbvs	r6, [r4, #-372]!	; 0xfffffe8c
    3a70:	635f5f2e 	cmpvs	pc, #46, 30	; 0xb8
    3a74:	746e756f 	strbtvc	r7, [lr], #-1391	; 0xfffffa91
    3a78:	30203d20 	eorcc	r3, r0, r0, lsr #26
    3a7c:	725f203b 	subsvc	r2, pc, #59	; 0x3b
    3a80:	6d5f3e2d 	ldclvs	14, cr3, [pc, #-180]	; 39d4 <_Min_Stack_Size+0x35d4>
    3a84:	2d637369 	stclcs	3, cr7, [r3, #-420]!	; 0xfffffe5c
    3a88:	63775f3e 	cmnvs	r7, #62, 30	; 0xf8
    3a8c:	6d6f7472 	cfstrdvs	mvd7, [pc, #-456]!	; 38cc <_Min_Stack_Size+0x34cc>
    3a90:	74735f62 	ldrbtvc	r5, [r3], #-3938	; 0xfffff09e
    3a94:	2e657461 	cdpcs	4, 6, cr7, cr5, cr1, {3}
    3a98:	61765f5f 	cmnvs	r6, pc, asr pc
    3a9c:	2e65756c 	cdpcs	5, 6, cr7, cr5, cr12, {3}
    3aa0:	63775f5f 	cmnvs	r7, #380	; 0x17c
    3aa4:	203d2068 	eorscs	r2, sp, r8, rrx
    3aa8:	5f203b30 	svcpl	0x00203b30
    3aac:	5f3e2d72 	svcpl	0x003e2d72
    3ab0:	6373696d 	cmnvs	r3, #1785856	; 0x1b4000
    3ab4:	775f3e2d 	ldrbvc	r3, [pc, -sp, lsr #28]
    3ab8:	74727363 	ldrbtvc	r7, [r2], #-867	; 0xfffffc9d
    3abc:	73626d6f 	cmnvc	r2, #7104	; 0x1bc0
    3ac0:	6174735f 	cmnvs	r4, pc, asr r3
    3ac4:	5f2e6574 	svcpl	0x002e6574
    3ac8:	756f635f 	strbvc	r6, [pc, #-863]!	; 3771 <_Min_Stack_Size+0x3371>
    3acc:	3d20746e 	cfstrscc	mvf7, [r0, #-440]!	; 0xfffffe48
    3ad0:	203b3020 	eorscs	r3, fp, r0, lsr #32
    3ad4:	3e2d725f 	mcrcc	2, 1, r7, cr13, cr15, {2}
    3ad8:	73696d5f 	cmnvc	r9, #6080	; 0x17c0
    3adc:	5f3e2d63 	svcpl	0x003e2d63
    3ae0:	72736377 	rsbsvc	r6, r3, #-603979775	; 0xdc000001
    3ae4:	626d6f74 	rsbvs	r6, sp, #116, 30	; 0x1d0
    3ae8:	74735f73 	ldrbtvc	r5, [r3], #-3955	; 0xfffff08d
    3aec:	2e657461 	cdpcs	4, 6, cr7, cr5, cr1, {3}
    3af0:	61765f5f 	cmnvs	r6, pc, asr pc
    3af4:	2e65756c 	cdpcs	5, 6, cr7, cr5, cr12, {3}
    3af8:	63775f5f 	cmnvs	r7, #380	; 0x17c
    3afc:	203d2068 	eorscs	r2, sp, r8, rrx
    3b00:	5f203b30 	svcpl	0x00203b30
    3b04:	5f3e2d72 	svcpl	0x003e2d72
    3b08:	6373696d 	cmnvs	r3, #1785856	; 0x1b4000
    3b0c:	6c5f3e2d 	mrrcvs	14, 2, r3, pc, cr13	; <UNPREDICTABLE>
    3b10:	5f613436 	svcpl	0x00613436
    3b14:	5b667562 	blpl	19a10a4 <_Min_Stack_Size+0x19a0ca4>
    3b18:	3d205d30 	stccc	13, cr5, [r0, #-192]!	; 0xffffff40
    3b1c:	305c2720 	subscc	r2, ip, r0, lsr #14
    3b20:	5f203b27 	svcpl	0x00203b27
    3b24:	5f3e2d72 	svcpl	0x003e2d72
    3b28:	6373696d 	cmnvs	r3, #1785856	; 0x1b4000
    3b2c:	675f3e2d 	ldrbvs	r3, [pc, -sp, lsr #28]
    3b30:	61647465 	cmnvs	r4, r5, ror #8
    3b34:	655f6574 	ldrbvs	r6, [pc, #-1396]	; 35c8 <_Min_Stack_Size+0x31c8>
    3b38:	3d207272 	sfmcc	f7, 4, [r0, #-456]!	; 0xfffffe38
    3b3c:	203b3020 	eorscs	r3, fp, r0, lsr #32
    3b40:	6877207d 	ldmdavs	r7!, {r0, r2, r3, r4, r5, r6, sp}^
    3b44:	20656c69 	rsbcs	r6, r5, r9, ror #24
    3b48:	00293028 	eoreq	r3, r9, r8, lsr #32
    3b4c:	4654415f 			; <UNDEFINED> instruction: 0x4654415f
    3b50:	5f454c49 	svcpl	0x00454c49
    3b54:	52554f53 	subspl	r4, r5, #332	; 0x14c
    3b58:	49004543 	stmdbmi	r0, {r0, r1, r6, r8, sl, lr}
    3b5c:	465f544e 	ldrbmi	r5, [pc], -lr, asr #8
    3b60:	31545341 	cmpcc	r4, r1, asr #6
    3b64:	494d5f36 	stmdbmi	sp, {r1, r2, r4, r5, r8, r9, sl, fp, ip, lr}^
    3b68:	2d28204e 	stccs	0, cr2, [r8, #-312]!	; 0xfffffec8
    3b6c:	4e495f5f 	mcrmi	15, 2, r5, cr9, cr15, {2}
    3b70:	41465f54 	cmpmi	r6, r4, asr pc
    3b74:	36315453 			; <UNDEFINED> instruction: 0x36315453
    3b78:	58414d5f 	stmdapl	r1, {r0, r1, r2, r3, r4, r6, r8, sl, fp, lr}^
    3b7c:	2d205f5f 	stccs	15, cr5, [r0, #-380]!	; 0xfffffe84
    3b80:	00293120 	eoreq	r3, r9, r0, lsr #2
    3b84:	54535f5f 	ldrbpl	r5, [r3], #-3935	; 0xfffff0a1
    3b88:	565f4344 	ldrbpl	r4, [pc], -r4, asr #6
    3b8c:	49535245 	ldmdbmi	r3, {r0, r2, r6, r9, ip, lr}^
    3b90:	5f5f4e4f 	svcpl	0x005f4e4f
    3b94:	31303220 	teqcc	r0, r0, lsr #4
    3b98:	4c323131 	ldfmis	f3, [r2], #-196	; 0xffffff3c
    3b9c:	6d5f5f00 	ldclvs	15, cr5, [pc, #-0]	; 3ba4 <_Min_Stack_Size+0x37a4>
    3ba0:	6f6c6c61 	svcvs	0x006c6c61
    3ba4:	696c5f63 	stmdbvs	ip!, {r0, r1, r5, r6, r8, r9, sl, fp, ip, lr}^
    3ba8:	5f20656b 	svcpl	0x0020656b
    3bac:	7474615f 	ldrbtvc	r6, [r4], #-351	; 0xfffffea1
    3bb0:	75626972 	strbvc	r6, [r2, #-2418]!	; 0xfffff68e
    3bb4:	5f5f6574 	svcpl	0x005f6574
    3bb8:	5f5f2828 	svcpl	0x005f2828
    3bbc:	6c6c616d 	stfvse	f6, [ip], #-436	; 0xfffffe4c
    3bc0:	5f5f636f 	svcpl	0x005f636f
    3bc4:	5f002929 	svcpl	0x00002929
    3bc8:	7972745f 	ldmdbvc	r2!, {r0, r1, r2, r3, r4, r6, sl, ip, sp, lr}^
    3bcc:	6b636f6c 	blvs	18df984 <_Min_Stack_Size+0x18df584>
    3bd0:	68735f73 	ldmdavs	r3!, {r0, r1, r4, r5, r6, r8, r9, sl, fp, ip, lr}^
    3bd4:	64657261 	strbtvs	r7, [r5], #-609	; 0xfffffd9f
    3bd8:	2e2e2e28 	cdpcs	14, 2, cr2, cr14, cr8, {1}
    3bdc:	5f5f2029 	svcpl	0x005f2029
    3be0:	6b636f6c 	blvs	18df998 <_Min_Stack_Size+0x18df598>
    3be4:	6e6e615f 	mcrvs	1, 3, r6, cr14, cr15, {2}
    3be8:	7461746f 	strbtvc	r7, [r1], #-1135	; 0xfffffb91
    3bec:	68732865 	ldmdavs	r3!, {r0, r2, r5, r6, fp, sp}^
    3bf0:	64657261 	strbtvs	r7, [r5], #-609	; 0xfffffd9f
    3bf4:	7972745f 	ldmdbvc	r2!, {r0, r1, r2, r3, r4, r6, sl, ip, sp, lr}^
    3bf8:	6b636f6c 	blvs	18df9b0 <_Min_Stack_Size+0x18df5b0>
    3bfc:	6e75665f 	mrcvs	6, 3, r6, cr5, cr15, {2}
    3c00:	6f697463 	svcvs	0x00697463
    3c04:	5f5f286e 	svcpl	0x005f286e
    3c08:	415f4156 	cmpmi	pc, r6, asr r1	; <UNPREDICTABLE>
    3c0c:	5f534752 	svcpl	0x00534752
    3c10:	0029295f 	eoreq	r2, r9, pc, asr r9
    3c14:	4e495f5f 	mcrmi	15, 2, r5, cr9, cr15, {2}
    3c18:	454c5f54 	strbmi	r5, [ip, #-3924]	; 0xfffff0ac
    3c1c:	38545341 	ldmdacc	r4, {r0, r6, r8, r9, ip, lr}^
    3c20:	58414d5f 	stmdapl	r1, {r0, r1, r2, r3, r4, r6, r8, sl, fp, lr}^
    3c24:	30205f5f 	eorcc	r5, r0, pc, asr pc
    3c28:	00663778 	rsbeq	r3, r6, r8, ror r7
    3c2c:	49545845 	ldmdbmi	r4, {r0, r2, r6, fp, ip, lr}^
    3c30:	5152495f 	cmppl	r2, pc, asr r9
    3c34:	616e455f 	cmnvs	lr, pc, asr r5
    3c38:	20656c62 	rsbcs	r6, r5, r2, ror #24
    3c3c:	5f5f0031 	svcpl	0x005f0031
    3c40:	5f434347 	svcpl	0x00434347
    3c44:	4d4f5441 	cfstrdmi	mvd5, [pc, #-260]	; 3b48 <_Min_Stack_Size+0x3748>
    3c48:	505f4349 	subspl	r4, pc, r9, asr #6
    3c4c:	544e494f 	strbpl	r4, [lr], #-2383	; 0xfffff6b1
    3c50:	4c5f5245 	lfmmi	f5, 2, [pc], {69}	; 0x45
    3c54:	5f4b434f 	svcpl	0x004b434f
    3c58:	45455246 	strbmi	r5, [r5, #-582]	; 0xfffffdba
    3c5c:	5f003220 	svcpl	0x00003220
    3c60:	4d52415f 	ldfmie	f4, [r2, #-380]	; 0xfffffe84
    3c64:	4145465f 	cmpmi	r5, pc, asr r6
    3c68:	45525554 	ldrbmi	r5, [r2, #-1364]	; 0xfffffaac
    3c6c:	4942515f 	stmdbmi	r2, {r0, r1, r2, r3, r4, r6, r8, ip, lr}^
    3c70:	00312054 	eorseq	r2, r1, r4, asr r0
    3c74:	52415f5f 	subpl	r5, r1, #380	; 0x17c
    3c78:	45465f4d 	strbmi	r5, [r6, #-3917]	; 0xfffff0b3
    3c7c:	52555441 	subspl	r5, r5, #1090519040	; 0x41000000
    3c80:	4c435f45 	mcrrmi	15, 4, r5, r3, cr5
    3c84:	0031205a 	eorseq	r2, r1, sl, asr r0
    3c88:	43435f5f 	movtmi	r5, #16223	; 0x3f5f
    3c8c:	5055535f 	subspl	r5, r5, pc, asr r3
    3c90:	54524f50 	ldrbpl	r4, [r2], #-3920	; 0xfffff0b0
    3c94:	41575f53 	cmpmi	r7, r3, asr pc
    3c98:	4e494e52 	mcrmi	14, 2, r4, cr9, cr2, {2}
    3c9c:	00312047 	eorseq	r2, r1, r7, asr #32
    3ca0:	54415f5f 	strbpl	r5, [r1], #-3935	; 0xfffff0a1
    3ca4:	43494d4f 	movtmi	r4, #40271	; 0x9d4f
    3ca8:	5143415f 	cmppl	r3, pc, asr r1
    3cac:	45524955 	ldrbmi	r4, [r2, #-2389]	; 0xfffff6ab
    3cb0:	47003220 	strmi	r3, [r0, -r0, lsr #4]
    3cb4:	434f4950 	movtmi	r4, #63824	; 0xf950
    3cb8:	47282820 	strmi	r2, [r8, -r0, lsr #16]!
    3cbc:	5f4f4950 	svcpl	0x004f4950
    3cc0:	65707954 	ldrbvs	r7, [r0, #-2388]!	; 0xfffff6ac
    3cc4:	20666544 	rsbcs	r6, r6, r4, asr #10
    3cc8:	5047292a 	subpl	r2, r7, sl, lsr #18
    3ccc:	5f434f49 	svcpl	0x00434f49
    3cd0:	45534142 	ldrbmi	r4, [r3, #-322]	; 0xfffffebe
    3cd4:	5f5f0029 	svcpl	0x005f0029
    3cd8:	6b636f6c 	blvs	18dfa90 <_Min_Stack_Size+0x18df690>
    3cdc:	68735f73 	ldmdavs	r3!, {r0, r1, r4, r5, r6, r8, r9, sl, fp, ip, lr}^
    3ce0:	64657261 	strbtvs	r7, [r5], #-609	; 0xfffffd9f
    3ce4:	2e2e2e28 	cdpcs	14, 2, cr2, cr14, cr8, {1}
    3ce8:	5f5f2029 	svcpl	0x005f2029
    3cec:	6b636f6c 	blvs	18dfaa4 <_Min_Stack_Size+0x18df6a4>
    3cf0:	6e6e615f 	mcrvs	1, 3, r6, cr14, cr15, {2}
    3cf4:	7461746f 	strbtvc	r7, [r1], #-1135	; 0xfffffb91
    3cf8:	68732865 	ldmdavs	r3!, {r0, r2, r5, r6, fp, sp}^
    3cfc:	64657261 	strbtvs	r7, [r5], #-609	; 0xfffffd9f
    3d00:	636f6c5f 	cmnvs	pc, #24320	; 0x5f00
    3d04:	75665f6b 	strbvc	r5, [r6, #-3947]!	; 0xfffff095
    3d08:	6974636e 	ldmdbvs	r4!, {r1, r2, r3, r5, r6, r8, r9, sp, lr}^
    3d0c:	5f286e6f 	svcpl	0x00286e6f
    3d10:	5f41565f 	svcpl	0x0041565f
    3d14:	53475241 	movtpl	r5, #29249	; 0x7241
    3d18:	29295f5f 	stmdbcs	r9!, {r0, r1, r2, r3, r4, r6, r8, r9, sl, fp, ip, lr}
    3d1c:	495f5f00 	ldmdbmi	pc, {r8, r9, sl, fp, ip, lr}^	; <UNPREDICTABLE>
    3d20:	3631544e 	ldrtcc	r5, [r1], -lr, asr #8
    3d24:	22682220 	rsbcs	r2, r8, #32, 4
    3d28:	736e7500 	cmnvc	lr, #0, 10
    3d2c:	656e6769 	strbvs	r6, [lr, #-1897]!	; 0xfffff897
    3d30:	69732064 	ldmdbvs	r3!, {r2, r5, r6, sp}^
    3d34:	64656e67 	strbtvs	r6, [r5], #-3687	; 0xfffff199
    3d38:	4e495f00 	cdpmi	15, 4, cr5, cr9, cr0, {0}
    3d3c:	52545054 	subspl	r5, r4, #84	; 0x54
    3d40:	5f51455f 	svcpl	0x0051455f
    3d44:	20544e49 	subscs	r4, r4, r9, asr #28
    3d48:	415f5f00 	cmpmi	pc, r0, lsl #30
    3d4c:	535f4d52 	cmppl	pc, #5248	; 0x1480
    3d50:	4f455a49 	svcmi	0x00455a49
    3d54:	43575f46 	cmpmi	r7, #280	; 0x118
    3d58:	5f524148 	svcpl	0x00524148
    3d5c:	00342054 	eorseq	r2, r4, r4, asr r0
    3d60:	4c465f5f 	mcrrmi	15, 5, r5, r6, cr15
    3d64:	58323354 	ldmdapl	r2!, {r2, r4, r6, r8, r9, ip, sp}
    3d68:	58414d5f 	stmdapl	r1, {r0, r1, r2, r3, r4, r6, r8, sl, fp, lr}^
    3d6c:	5058455f 	subspl	r4, r8, pc, asr r5
    3d70:	31205f5f 			; <UNDEFINED> instruction: 0x31205f5f
    3d74:	00343230 	eorseq	r3, r4, r0, lsr r2
    3d78:	61685f5f 	cmnvs	r8, pc, asr pc
    3d7c:	6e695f73 	mcrvs	15, 3, r5, cr9, cr3, {3}
    3d80:	64756c63 	ldrbtvs	r6, [r5], #-3171	; 0xfffff39d
    3d84:	54532865 	ldrbpl	r2, [r3], #-2149	; 0xfffff79b
    3d88:	5f202952 	svcpl	0x00202952
    3d8c:	7361685f 	cmnvc	r1, #6225920	; 0x5f0000
    3d90:	636e695f 	cmnvs	lr, #1556480	; 0x17c000
    3d94:	6564756c 	strbvs	r7, [r4, #-1388]!	; 0xfffffa94
    3d98:	53285f5f 			; <UNDEFINED> instruction: 0x53285f5f
    3d9c:	00295254 	eoreq	r5, r9, r4, asr r2
    3da0:	4f495047 	svcmi	0x00495047
    3da4:	444f4d5f 	strbmi	r4, [pc], #-3423	; 3dac <_Min_Stack_Size+0x39ac>
    3da8:	6e415f45 	cdpvs	15, 4, cr5, cr1, cr5, {2}
    3dac:	676f6c61 	strbvs	r6, [pc, -r1, ror #24]!
    3db0:	30783020 	rsbscc	r3, r8, r0, lsr #32
    3db4:	30303030 	eorscc	r3, r0, r0, lsr r0
    3db8:	75303030 	ldrvc	r3, [r0, #-48]!	; 0xffffffd0
    3dbc:	49564e00 	ldmdbmi	r6, {r9, sl, fp, lr}^
    3dc0:	41425f43 	cmpmi	r2, r3, asr #30
    3dc4:	28204553 	stmdacs	r0!, {r0, r1, r4, r6, r8, sl, lr}
    3dc8:	30457830 	subcc	r7, r5, r0, lsr r8
    3dcc:	31453030 	cmpcc	r5, r0, lsr r0
    3dd0:	4c553030 	mrrcmi	0, 3, r3, r5, cr0
    3dd4:	5f5f0029 	svcpl	0x005f0029
    3dd8:	544e4955 	strbpl	r4, [lr], #-2389	; 0xfffff6ab
    3ddc:	41454c5f 	cmpmi	r5, pc, asr ip
    3de0:	32335453 	eorscc	r5, r3, #1392508928	; 0x53000000
    3de4:	58414d5f 	stmdapl	r1, {r0, r1, r2, r3, r4, r6, r8, sl, fp, lr}^
    3de8:	30205f5f 	eorcc	r5, r0, pc, asr pc
    3dec:	66666678 			; <UNDEFINED> instruction: 0x66666678
    3df0:	66666666 	strbtvs	r6, [r6], -r6, ror #12
    3df4:	004c5566 	subeq	r5, ip, r6, ror #10
    3df8:	42445f5f 	submi	r5, r4, #380	; 0x17c
    3dfc:	50455f4c 	subpl	r5, r5, ip, asr #30
    3e00:	4f4c4953 	svcmi	0x004c4953
    3e04:	205f5f4e 	subscs	r5, pc, lr, asr #30
    3e08:	6f642828 	svcvs	0x00642828
    3e0c:	656c6275 	strbvs	r6, [ip, #-629]!	; 0xfffffd8b
    3e10:	322e3229 	eorcc	r3, lr, #-1879048190	; 0x90000002
    3e14:	34343032 	ldrtcc	r3, [r4], #-50	; 0xffffffce
    3e18:	39343036 	ldmdbcc	r4!, {r1, r2, r4, r5, ip, sp}
    3e1c:	33303532 	teqcc	r0, #209715200	; 0xc800000
    3e20:	65313331 	ldrvs	r3, [r1, #-817]!	; 0xfffffccf
    3e24:	4c36312d 	ldfmis	f3, [r6], #-180	; 0xffffff4c
    3e28:	5f5f0029 	svcpl	0x005f0029
    3e2c:	6b636f6c 	blvs	18dfbe4 <_Min_Stack_Size+0x18df7e4>
    3e30:	7163615f 	cmnvc	r3, pc, asr r1
    3e34:	65726975 	ldrbvs	r6, [r2, #-2421]!	; 0xfffff68b
    3e38:	636f6c28 	cmnvs	pc, #40, 24	; 0x2800
    3e3c:	2820296b 	stmdacs	r0!, {r0, r1, r3, r5, r6, r8, fp, sp}
    3e40:	696f7628 	stmdbvs	pc!, {r3, r5, r9, sl, ip, sp, lr}^	; <UNPREDICTABLE>
    3e44:	30202964 	eorcc	r2, r0, r4, ror #18
    3e48:	5f5f0029 	svcpl	0x005f0029
    3e4c:	4152464c 	cmpmi	r2, ip, asr #12
    3e50:	4d5f5443 	cfldrdmi	mvd5, [pc, #-268]	; 3d4c <_Min_Stack_Size+0x394c>
    3e54:	5f5f4e49 	svcpl	0x005f4e49
    3e58:	302d2820 	eorcc	r2, sp, r0, lsr #16
    3e5c:	524c352e 	subpl	r3, ip, #192937984	; 0xb800000
    3e60:	352e302d 	strcc	r3, [lr, #-45]!	; 0xffffffd3
    3e64:	0029524c 	eoreq	r5, r9, ip, asr #4
    3e68:	4545525f 	strbmi	r5, [r5, #-607]	; 0xfffffda1
    3e6c:	575f544e 	ldrbpl	r5, [pc, -lr, asr #8]
    3e70:	54525343 	ldrbpl	r5, [r2], #-835	; 0xfffffcbd
    3e74:	53424d4f 	movtpl	r4, #11599	; 0x2d4f
    3e78:	4154535f 	cmpmi	r4, pc, asr r3
    3e7c:	70284554 	eorvc	r4, r8, r4, asr r5
    3e80:	20297274 	eorcs	r7, r9, r4, ror r2
    3e84:	74702828 	ldrbtvc	r2, [r0], #-2088	; 0xfffff7d8
    3e88:	3e2d2972 			; <UNDEFINED> instruction: 0x3e2d2972
    3e8c:	73696d5f 	cmnvc	r9, #6080	; 0x17c0
    3e90:	5f3e2d63 	svcpl	0x003e2d63
    3e94:	72736377 	rsbsvc	r6, r3, #-603979775	; 0xdc000001
    3e98:	626d6f74 	rsbvs	r6, sp, #116, 30	; 0x1d0
    3e9c:	74735f73 	ldrbtvc	r5, [r3], #-3955	; 0xfffff08d
    3ea0:	29657461 	stmdbcs	r5!, {r0, r5, r6, sl, ip, sp, lr}^
    3ea4:	495f5f00 	ldmdbmi	pc, {r8, r9, sl, fp, ip, lr}^	; <UNPREDICTABLE>
    3ea8:	4c5f544e 	cfldrdmi	mvd5, [pc], {78}	; 0x4e
    3eac:	54534145 	ldrbpl	r4, [r3], #-325	; 0xfffffebb
    3eb0:	575f3436 	smmlarpl	pc, r6, r4, r3	; <UNPREDICTABLE>
    3eb4:	48544449 	ldmdami	r4, {r0, r3, r6, sl, lr}^
    3eb8:	36205f5f 	qsaxcc	r5, r0, pc	; <UNPREDICTABLE>
    3ebc:	5f5f0034 	svcpl	0x005f0034
    3ec0:	5f544c46 	svcpl	0x00544c46
    3ec4:	5f534148 	svcpl	0x00534148
    3ec8:	49464e49 	stmdbmi	r6, {r0, r3, r6, r9, sl, fp, lr}^
    3ecc:	5954494e 	ldmdbpl	r4, {r1, r2, r3, r6, r8, fp, lr}^
    3ed0:	31205f5f 			; <UNDEFINED> instruction: 0x31205f5f
    3ed4:	45525f00 	ldrbmi	r5, [r2, #-3840]	; 0xfffff100
    3ed8:	5f544e45 	svcpl	0x00544e45
    3edc:	424f4c47 	submi	r4, pc, #18176	; 0x4700
    3ee0:	415f4c41 	cmpmi	pc, r1, asr #24
    3ee4:	49584554 	ldmdbmi	r8, {r2, r4, r6, r8, sl, lr}^
    3ee8:	00312054 	eorseq	r2, r1, r4, asr r0
    3eec:	43415f5f 	movtmi	r5, #8031	; 0x1f5f
    3ef0:	5f4d5543 	svcpl	0x004d5543
    3ef4:	5f58414d 	svcpl	0x0058414d
    3ef8:	5830205f 	ldmdapl	r0!, {r0, r1, r2, r3, r4, r6, sp}
    3efc:	46464637 			; <UNDEFINED> instruction: 0x46464637
    3f00:	46464646 	strbmi	r4, [r6], -r6, asr #12
    3f04:	35312d50 	ldrcc	r2, [r1, #-3408]!	; 0xfffff2b0
    3f08:	5047004b 	subpl	r0, r7, fp, asr #32
    3f0c:	20414f49 	subcs	r4, r1, r9, asr #30
    3f10:	50472828 	subpl	r2, r7, r8, lsr #16
    3f14:	545f4f49 	ldrbpl	r4, [pc], #-3913	; 3f1c <_Min_Stack_Size+0x3b1c>
    3f18:	44657079 	strbtmi	r7, [r5], #-121	; 0xffffff87
    3f1c:	2a206665 	bcs	81d8b8 <_Min_Stack_Size+0x81d4b8>
    3f20:	49504729 	ldmdbmi	r0, {r0, r3, r5, r8, r9, sl, lr}^
    3f24:	425f414f 	subsmi	r4, pc, #-1073741805	; 0xc0000013
    3f28:	29455341 	stmdbcs	r5, {r0, r6, r8, r9, ip, lr}^
    3f2c:	495f5f00 	ldmdbmi	pc, {r8, r9, sl, fp, ip, lr}^	; <UNPREDICTABLE>
    3f30:	5f38544e 	svcpl	0x0038544e
    3f34:	5f58414d 	svcpl	0x0058414d
    3f38:	7830205f 	ldmdavc	r0!, {r0, r1, r2, r3, r4, r6, sp}
    3f3c:	45006637 	strmi	r6, [r0, #-1591]	; 0xfffff9c9
    3f40:	31495458 	cmpcc	r9, r8, asr r4
    3f44:	31425032 	cmpcc	r2, r2, lsr r0
    3f48:	45282032 	strmi	r2, [r8, #-50]!	; 0xffffffce
    3f4c:	5f495458 	svcpl	0x00495458
    3f50:	4f495047 	svcmi	0x00495047
    3f54:	70614d5f 	rsbvc	r4, r1, pc, asr sp
    3f58:	5f676e69 	svcpl	0x00676e69
    3f5c:	457b2974 	ldrbmi	r2, [fp, #-2420]!	; 0xfffff68c
    3f60:	31495458 	cmpcc	r9, r8, asr r4
    3f64:	50472c32 	subpl	r2, r7, r2, lsr ip
    3f68:	2c424f49 	mcrrcs	15, 4, r4, r2, cr9
    3f6c:	4f495047 	svcmi	0x00495047
    3f70:	4e49505f 	mcrmi	0, 2, r5, cr9, cr15, {2}
    3f74:	2c32315f 	ldfcss	f3, [r2], #-380	; 0xfffffe84
    3f78:	49545845 	ldmdbmi	r4, {r0, r2, r6, fp, ip, lr}^
    3f7c:	495f3231 	ldmdbmi	pc, {r0, r4, r5, r9, ip, sp}^	; <UNPREDICTABLE>
    3f80:	007d5152 	rsbseq	r5, sp, r2, asr r1
    3f84:	43475f5f 	movtmi	r5, #32607	; 0x7f5f
    3f88:	41485f43 	cmpmi	r8, r3, asr #30
    3f8c:	445f4556 	ldrbmi	r4, [pc], #-1366	; 3f94 <_Min_Stack_Size+0x3b94>
    3f90:	46524157 			; <UNDEFINED> instruction: 0x46524157
    3f94:	46435f32 			; <UNDEFINED> instruction: 0x46435f32
    3f98:	53415f49 	movtpl	r5, #8009	; 0x1f49
    3f9c:	0031204d 	eorseq	r2, r1, sp, asr #32
    3fa0:	695f5f5f 	ldmdbvs	pc, {r0, r1, r2, r3, r4, r6, r8, r9, sl, fp, ip, lr}^	; <UNPREDICTABLE>
    3fa4:	5f38746e 	svcpl	0x0038746e
    3fa8:	65645f74 	strbvs	r5, [r4, #-3956]!	; 0xfffff08c
    3fac:	656e6966 	strbvs	r6, [lr, #-2406]!	; 0xfffff69a
    3fb0:	00312064 	eorseq	r2, r1, r4, rrx
    3fb4:	46535f5f 	usaxmi	r5, r3, pc	; <UNPREDICTABLE>
    3fb8:	54434152 	strbpl	r4, [r3], #-338	; 0xfffffeae
    3fbc:	4e494d5f 	mcrmi	13, 2, r4, cr9, cr15, {2}
    3fc0:	28205f5f 	stmdacs	r0!, {r0, r1, r2, r3, r4, r6, r8, r9, sl, fp, ip, lr}
    3fc4:	352e302d 	strcc	r3, [lr, #-45]!	; 0xffffffd3
    3fc8:	302d5248 	eorcc	r5, sp, r8, asr #4
    3fcc:	5248352e 	subpl	r3, r8, #192937984	; 0xb800000
    3fd0:	5f5f0029 	svcpl	0x005f0029
    3fd4:	495f4153 	ldmdbmi	pc, {r0, r1, r4, r6, r8, lr}^	; <UNPREDICTABLE>
    3fd8:	5f544942 	svcpl	0x00544942
    3fdc:	3631205f 			; <UNDEFINED> instruction: 0x3631205f
    3fe0:	6f5f5f00 	svcvs	0x005f5f00
    3fe4:	65736666 	ldrbvs	r6, [r3, #-1638]!	; 0xfffff99a
    3fe8:	28666f74 	stmdacs	r6!, {r2, r4, r5, r6, r8, r9, sl, fp, sp, lr}^
    3fec:	65707974 	ldrbvs	r7, [r0, #-2420]!	; 0xfffff68c
    3ff0:	6569662c 	strbvs	r6, [r9, #-1580]!	; 0xfffff9d4
    3ff4:	2029646c 	eorcs	r6, r9, ip, ror #8
    3ff8:	7366666f 	cmnvc	r6, #116391936	; 0x6f00000
    3ffc:	666f7465 	strbtvs	r7, [pc], -r5, ror #8
    4000:	70797428 	rsbsvc	r7, r9, r8, lsr #8
    4004:	66202c65 	strtvs	r2, [r0], -r5, ror #24
    4008:	646c6569 	strbtvs	r6, [ip], #-1385	; 0xfffffa97
    400c:	5f5f0029 	svcpl	0x005f0029
    4010:	5f434347 	svcpl	0x00434347
    4014:	5f434549 	svcpl	0x00434549
    4018:	5f393535 	svcpl	0x00393535
    401c:	504d4f43 	subpl	r4, sp, r3, asr #30
    4020:	2058454c 	subscs	r4, r8, ip, asr #10
    4024:	65500030 	ldrbvs	r0, [r0, #-48]	; 0xffffffd0
    4028:	68706972 	ldmdavs	r0!, {r1, r4, r5, r6, r8, fp, sp, lr}^
    402c:	6c617265 	sfmvs	f7, 2, [r1], #-404	; 0xfffffe6c
    4030:	41425f73 	hvcmi	9715	; 0x25f3
    4034:	30204553 	eorcc	r4, r0, r3, asr r5
    4038:	30303478 	eorscc	r3, r0, r8, ror r4
    403c:	30303030 	eorscc	r3, r0, r0, lsr r0
    4040:	004c5530 	subeq	r5, ip, r0, lsr r5
    4044:	6f6e5f5f 	svcvs	0x006e5f5f
    4048:	6c756e6e 	ldclvs	14, cr6, [r5], #-440	; 0xfffffe48
    404c:	6c615f6c 	stclvs	15, cr5, [r1], #-432	; 0xfffffe50
    4050:	5f5f206c 	svcpl	0x005f206c
    4054:	72747461 	rsbsvc	r7, r4, #1627389952	; 0x61000000
    4058:	74756269 	ldrbtvc	r6, [r5], #-617	; 0xfffffd97
    405c:	285f5f65 	ldmdacs	pc, {r0, r2, r5, r6, r8, r9, sl, fp, ip, lr}^	; <UNPREDICTABLE>
    4060:	6e5f5f28 	cdpvs	15, 5, cr5, cr15, cr8, {1}
    4064:	756e6e6f 	strbvc	r6, [lr, #-3695]!	; 0xfffff191
    4068:	5f5f6c6c 	svcpl	0x005f6c6c
    406c:	5f002929 	svcpl	0x00002929
    4070:	554e475f 	strbpl	r4, [lr, #-1887]	; 0xfffff8a1
    4074:	205f5f43 	subscs	r5, pc, r3, asr #30
    4078:	5f5f0037 	svcpl	0x005f0037
    407c:	5f4d5241 	svcpl	0x004d5241
    4080:	36315046 	ldrtcc	r5, [r1], -r6, asr #32
    4084:	524f465f 	subpl	r4, pc, #99614720	; 0x5f00000
    4088:	5f54414d 	svcpl	0x0054414d
    408c:	45454549 	strbmi	r4, [r5, #-1353]	; 0xfffffab7
    4090:	555f5f00 	ldrbpl	r5, [pc, #-3840]	; 3198 <_Min_Stack_Size+0x2d98>
    4094:	31544e49 	cmpcc	r4, r9, asr #28
    4098:	59545f36 	ldmdbpl	r4, {r1, r2, r4, r5, r8, r9, sl, fp, ip, lr}^
    409c:	5f5f4550 	svcpl	0x005f4550
    40a0:	6f687320 	svcvs	0x00687320
    40a4:	75207472 	strvc	r7, [r0, #-1138]!	; 0xfffffb8e
    40a8:	6769736e 	strbvs	r7, [r9, -lr, ror #6]!
    40ac:	2064656e 	rsbcs	r6, r4, lr, ror #10
    40b0:	00746e69 	rsbseq	r6, r4, r9, ror #28
    40b4:	534f505f 	movtpl	r5, #61535	; 0xf05f
    40b8:	535f5849 	cmppl	pc, #4784128	; 0x490000
    40bc:	4352554f 	cmpmi	r2, #331350016	; 0x13c00000
    40c0:	41520045 	cmpmi	r2, r5, asr #32
    40c4:	4d5f444e 	cfldrdmi	mvd4, [pc, #-312]	; 3f94 <_Min_Stack_Size+0x3b94>
    40c8:	5f205841 	svcpl	0x00205841
    40cc:	4e41525f 	mcrmi	2, 2, r5, cr1, cr15, {2}
    40d0:	414d5f44 	cmpmi	sp, r4, asr #30
    40d4:	5f5f0058 	svcpl	0x005f0058
    40d8:	746e6975 	strbtvc	r6, [lr], #-2421	; 0xfffff68b
    40dc:	745f3233 	ldrbvc	r3, [pc], #-563	; 40e4 <_Min_Stack_Size+0x3ce4>
    40e0:	54584500 	ldrbpl	r4, [r8], #-1280	; 0xfffffb00
    40e4:	41503849 	cmpmi	r0, r9, asr #16
    40e8:	45282038 	strmi	r2, [r8, #-56]!	; 0xffffffc8
    40ec:	5f495458 	svcpl	0x00495458
    40f0:	4f495047 	svcmi	0x00495047
    40f4:	70614d5f 	rsbvc	r4, r1, pc, asr sp
    40f8:	5f676e69 	svcpl	0x00676e69
    40fc:	457b2974 	ldrbmi	r2, [fp, #-2420]!	; 0xfffff68c
    4100:	38495458 	stmdacc	r9, {r3, r4, r6, sl, ip, lr}^
    4104:	4950472c 	ldmdbmi	r0, {r2, r3, r5, r8, r9, sl, lr}^
    4108:	472c414f 	strmi	r4, [ip, -pc, asr #2]!
    410c:	5f4f4950 	svcpl	0x004f4950
    4110:	5f4e4950 	svcpl	0x004e4950
    4114:	58452c38 	stmdapl	r5, {r3, r4, r5, sl, fp, sp}^
    4118:	5f384954 	svcpl	0x00384954
    411c:	7d515249 	lfmvc	f5, 2, [r1, #-292]	; 0xfffffedc
    4120:	535f5f00 	cmppl	pc, #0, 30
    4124:	4654464f 	ldrbmi	r4, [r4], -pc, asr #12
    4128:	205f5f50 	subscs	r5, pc, r0, asr pc	; <UNPREDICTABLE>
    412c:	525f0031 	subspl	r0, pc, #49	; 0x31
    4130:	544e4545 	strbpl	r4, [lr], #-1349	; 0xfffffabb
    4134:	284d545f 	stmdacs	sp, {r0, r1, r2, r3, r4, r6, sl, ip, lr}^
    4138:	29727470 	ldmdbcs	r2!, {r4, r5, r6, sl, ip, sp, lr}^
    413c:	70282820 	eorvc	r2, r8, r0, lsr #16
    4140:	2d297274 	sfmcs	f7, 4, [r9, #-464]!	; 0xfffffe30
    4144:	6f6c5f3e 	svcvs	0x006c5f3e
    4148:	746c6163 	strbtvc	r6, [ip], #-355	; 0xfffffe9d
    414c:	5f656d69 	svcpl	0x00656d69
    4150:	29667562 	stmdbcs	r6!, {r1, r5, r6, r8, sl, ip, sp, lr}^
    4154:	555f5f00 	ldrbpl	r5, [pc, #-3840]	; 325c <_Min_Stack_Size+0x2e5c>
    4158:	33544e49 	cmpcc	r4, #1168	; 0x490
    415c:	414d5f32 	cmpmi	sp, r2, lsr pc
    4160:	205f5f58 	subscs	r5, pc, r8, asr pc	; <UNPREDICTABLE>
    4164:	66667830 			; <UNDEFINED> instruction: 0x66667830
    4168:	66666666 	strbtvs	r6, [r6], -r6, ror #12
    416c:	4c556666 	mrrcmi	6, 6, r6, r5, cr6
    4170:	735f5f00 	cmpvc	pc, #0, 30
    4174:	69646964 	stmdbvs	r4!, {r2, r5, r6, r8, fp, sp, lr}^
    4178:	0074696e 	rsbseq	r6, r4, lr, ror #18
    417c:	45445f5f 	strbmi	r5, [r4, #-3935]	; 0xfffff0a1
    4180:	5f323343 	svcpl	0x00323343
    4184:	5f58414d 	svcpl	0x0058414d
    4188:	5f505845 	svcpl	0x00505845
    418c:	3739205f 			; <UNDEFINED> instruction: 0x3739205f
    4190:	5f545f00 	svcpl	0x00545f00
    4194:	455a4953 	ldrbmi	r4, [sl, #-2387]	; 0xfffff6ad
    4198:	5f00205f 	svcpl	0x0000205f
    419c:	544c465f 	strbpl	r4, [ip], #-1631	; 0xfffff9a1
    41a0:	4156455f 	cmpmi	r6, pc, asr r5
    41a4:	454d5f4c 	strbmi	r5, [sp, #-3916]	; 0xfffff0b4
    41a8:	444f4854 	strbmi	r4, [pc], #-2132	; 41b0 <_Min_Stack_Size+0x3db0>
    41ac:	5f53545f 	svcpl	0x0053545f
    41b0:	36363831 			; <UNDEFINED> instruction: 0x36363831
    41b4:	5f335f31 	svcpl	0x00335f31
    41b8:	0030205f 	eorseq	r2, r0, pc, asr r0
    41bc:	74615f5f 	strbtvc	r5, [r1], #-3935	; 0xfffff0a1
    41c0:	62697274 	rsbvs	r7, r9, #116, 4	; 0x40000007
    41c4:	5f657475 	svcpl	0x00657475
    41c8:	6c6c616d 	stfvse	f6, [ip], #-436	; 0xfffffe4c
    41cc:	5f5f636f 	svcpl	0x005f636f
    41d0:	5f5f0020 	svcpl	0x005f0020
    41d4:	41484353 	cmpmi	r8, r3, asr r3
    41d8:	49575f52 	ldmdbmi	r7, {r1, r4, r6, r8, r9, sl, fp, ip, lr}^
    41dc:	5f485444 	svcpl	0x00485444
    41e0:	0038205f 	eorseq	r2, r8, pc, asr r0
    41e4:	6f6c5f5f 	svcvs	0x006c5f5f
    41e8:	615f6b63 	cmpvs	pc, r3, ror #22
    41ec:	69757163 	ldmdbvs	r5!, {r0, r1, r5, r6, r8, ip, sp, lr}^
    41f0:	725f6572 	subsvc	r6, pc, #478150656	; 0x1c800000
    41f4:	72756365 	rsbsvc	r6, r5, #-1811939327	; 0x94000001
    41f8:	65766973 	ldrbvs	r6, [r6, #-2419]!	; 0xfffff68d
    41fc:	636f6c28 	cmnvs	pc, #40, 24	; 0x2800
    4200:	2820296b 	stmdacs	r0!, {r0, r1, r3, r5, r6, r8, fp, sp}
    4204:	696f7628 	stmdbvs	pc!, {r3, r5, r9, sl, ip, sp, lr}^	; <UNPREDICTABLE>
    4208:	30202964 	eorcc	r2, r0, r4, ror #18
    420c:	5f5f0029 	svcpl	0x005f0029
    4210:	74736572 	ldrbtvc	r6, [r3], #-1394	; 0xfffffa8e
    4214:	74636972 	strbtvc	r6, [r3], #-2418	; 0xfffff68e
    4218:	73657220 	cmnvc	r5, #32, 4
    421c:	63697274 	cmnvs	r9, #116, 4	; 0x40000007
    4220:	5f5f0074 	svcpl	0x005f0074
    4224:	544e4955 	strbpl	r4, [lr], #-2389	; 0xfffff6ab
    4228:	5341465f 	movtpl	r4, #5727	; 0x165f
    422c:	545f3854 	ldrbpl	r3, [pc], #-2132	; 4234 <_Min_Stack_Size+0x3e34>
    4230:	5f455059 	svcpl	0x00455059
    4234:	6e75205f 	mrcvs	0, 3, r2, cr5, cr15, {2}
    4238:	6e676973 			; <UNDEFINED> instruction: 0x6e676973
    423c:	69206465 	stmdbvs	r0!, {r0, r2, r5, r6, sl, sp, lr}
    4240:	5f00746e 	svcpl	0x0000746e
    4244:	414c4c5f 	cmpmi	ip, pc, asr ip
    4248:	4d554343 	ldclmi	3, cr4, [r5, #-268]	; 0xfffffef4
    424c:	4942495f 	stmdbmi	r2, {r0, r1, r2, r3, r4, r6, r8, fp, lr}^
    4250:	205f5f54 	subscs	r5, pc, r4, asr pc	; <UNPREDICTABLE>
    4254:	5f003233 	svcpl	0x00003233
    4258:	4152465f 	cmpmi	r2, pc, asr r6
    425c:	455f5443 	ldrbmi	r5, [pc, #-1091]	; 3e21 <_Min_Stack_Size+0x3a21>
    4260:	4c495350 	mcrrmi	3, 5, r5, r9, cr0
    4264:	5f5f4e4f 	svcpl	0x005f4e4f
    4268:	31783020 	cmncc	r8, r0, lsr #32
    426c:	35312d50 	ldrcc	r2, [r1, #-3408]!	; 0xfffff2b0
    4270:	5f5f0052 	svcpl	0x005f0052
    4274:	75716572 	ldrbvc	r6, [r1, #-1394]!	; 0xfffffa8e
    4278:	73657269 	cmnvc	r5, #-1879048186	; 0x90000006
    427c:	6c6e755f 	cfstr64vs	mvdx7, [lr], #-380	; 0xfffffe84
    4280:	656b636f 	strbvs	r6, [fp, #-879]!	; 0xfffffc91
    4284:	2e2e2864 	cdpcs	8, 2, cr2, cr14, cr4, {3}
    4288:	5f20292e 	svcpl	0x0020292e
    428c:	636f6c5f 	cmnvs	pc, #24320	; 0x5f00
    4290:	6e615f6b 	cdpvs	15, 6, cr5, cr1, cr11, {3}
    4294:	61746f6e 	cmnvs	r4, lr, ror #30
    4298:	6c286574 	cfstr32vs	mvfx6, [r8], #-464	; 0xfffffe30
    429c:	736b636f 	cmnvc	fp, #-1140850687	; 0xbc000001
    42a0:	6378655f 	cmnvs	r8, #398458880	; 0x17c00000
    42a4:	6564756c 	strbvs	r7, [r4, #-1388]!	; 0xfffffa94
    42a8:	5f5f2864 	svcpl	0x005f2864
    42ac:	415f4156 	cmpmi	pc, r6, asr r1	; <UNPREDICTABLE>
    42b0:	5f534752 	svcpl	0x00534752
    42b4:	0029295f 	eoreq	r2, r9, pc, asr r9
    42b8:	38544e49 	ldmdacc	r4, {r0, r3, r6, r9, sl, fp, lr}^
    42bc:	7828435f 	stmdavc	r8!, {r0, r1, r2, r3, r4, r6, r8, r9, lr}
    42c0:	5f5f2029 	svcpl	0x005f2029
    42c4:	38544e49 	ldmdacc	r4, {r0, r3, r6, r9, sl, fp, lr}^
    42c8:	7828435f 	stmdavc	r8!, {r0, r1, r2, r3, r4, r6, r8, r9, lr}
    42cc:	58450029 	stmdapl	r5, {r0, r3, r5}^
    42d0:	35314954 	ldrcc	r4, [r1, #-2388]!	; 0xfffff6ac
    42d4:	35314450 	ldrcc	r4, [r1, #-1104]!	; 0xfffffbb0
    42d8:	58452820 	stmdapl	r5, {r5, fp, sp}^
    42dc:	475f4954 			; <UNDEFINED> instruction: 0x475f4954
    42e0:	5f4f4950 	svcpl	0x004f4950
    42e4:	6970614d 	ldmdbvs	r0!, {r0, r2, r3, r6, r8, sp, lr}^
    42e8:	745f676e 	ldrbvc	r6, [pc], #-1902	; 42f0 <_Min_Stack_Size+0x3ef0>
    42ec:	58457b29 	stmdapl	r5, {r0, r3, r5, r8, r9, fp, ip, sp, lr}^
    42f0:	35314954 	ldrcc	r4, [r1, #-2388]!	; 0xfffff6ac
    42f4:	4950472c 	ldmdbmi	r0, {r2, r3, r5, r8, r9, sl, lr}^
    42f8:	472c444f 	strmi	r4, [ip, -pc, asr #8]!
    42fc:	5f4f4950 	svcpl	0x004f4950
    4300:	5f4e4950 	svcpl	0x004e4950
    4304:	452c3531 	strmi	r3, [ip, #-1329]!	; 0xfffffacf
    4308:	31495458 	cmpcc	r9, r8, asr r4
    430c:	52495f35 	subpl	r5, r9, #53, 30	; 0xd4
    4310:	5f007d51 	svcpl	0x00007d51
    4314:	544e495f 	strbpl	r4, [lr], #-2399	; 0xfffff6a1
    4318:	4d5f3233 	lfmmi	f3, 2, [pc, #-204]	; 4254 <_Min_Stack_Size+0x3e54>
    431c:	5f5f5841 	svcpl	0x005f5841
    4320:	37783020 	ldrbcc	r3, [r8, -r0, lsr #32]!
    4324:	66666666 	strbtvs	r6, [r6], -r6, ror #12
    4328:	4c666666 	stclmi	6, cr6, [r6], #-408	; 0xfffffe68
    432c:	6d5f5f00 	ldclvs	15, cr5, [pc, #-0]	; 4334 <_Min_Stack_Size+0x3f34>
    4330:	735f6e69 	cmpvc	pc, #1680	; 0x690
    4334:	28657a69 	stmdacs	r5!, {r0, r3, r5, r6, r9, fp, ip, sp, lr}^
    4338:	73202978 			; <UNDEFINED> instruction: 0x73202978
    433c:	69746174 	ldmdbvs	r4!, {r2, r4, r5, r6, r8, sp, lr}^
    4340:	78282063 	stmdavc	r8!, {r0, r1, r5, r6, sp}
    4344:	5f5f0029 	svcpl	0x005f0029
    4348:	5f585847 	svcpl	0x00585847
    434c:	45505954 	ldrbmi	r5, [r0, #-2388]	; 0xfffff6ac
    4350:	4f464e49 	svcmi	0x00464e49
    4354:	5551455f 	ldrbpl	r4, [r1, #-1375]	; 0xfffffaa1
    4358:	54494c41 	strbpl	r4, [r9], #-3137	; 0xfffff3bf
    435c:	4e495f59 	mcrmi	15, 2, r5, cr9, cr9, {2}
    4360:	454e494c 	strbmi	r4, [lr, #-2380]	; 0xfffff6b4
    4364:	5f003020 	svcpl	0x00003020
    4368:	4b434f4c 	blmi	10d80a0 <_Min_Stack_Size+0x10d7ca0>
    436c:	4345525f 	movtmi	r5, #21087	; 0x525f
    4370:	49535255 	ldmdbmi	r3, {r0, r2, r4, r6, r9, ip, lr}^
    4374:	545f4556 	ldrbpl	r4, [pc], #-1366	; 437c <_Min_Stack_Size+0x3f7c>
    4378:	425f5f00 	subsmi	r5, pc, #0, 30
    437c:	4e494745 	cdpmi	7, 4, cr4, cr9, cr5, {2}
    4380:	4345445f 	movtmi	r4, #21599	; 0x545f
    4384:	0020534c 	eoreq	r5, r0, ip, asr #6
    4388:	4e495f5f 	mcrmi	15, 2, r5, cr9, cr15, {2}
    438c:	454c5f54 	strbmi	r5, [ip, #-3924]	; 0xfffff0ac
    4390:	36545341 	ldrbcc	r5, [r4], -r1, asr #6
    4394:	414d5f34 	cmpmi	sp, r4, lsr pc
    4398:	205f5f58 	subscs	r5, pc, r8, asr pc	; <UNPREDICTABLE>
    439c:	66377830 			; <UNDEFINED> instruction: 0x66377830
    43a0:	66666666 	strbtvs	r6, [r6], -r6, ror #12
    43a4:	66666666 	strbtvs	r6, [r6], -r6, ror #12
    43a8:	66666666 	strbtvs	r6, [r6], -r6, ror #12
    43ac:	4c4c6666 	mcrrmi	6, 6, r6, ip, cr6
    43b0:	45525f00 	ldrbmi	r5, [r2, #-3840]	; 0xfffff100
    43b4:	5f544e45 	svcpl	0x00544e45
    43b8:	4c52424d 	lfmmi	f4, 2, [r2], {77}	; 0x4d
    43bc:	535f4e45 	cmppl	pc, #1104	; 0x450
    43c0:	45544154 	ldrbmi	r4, [r4, #-340]	; 0xfffffeac
    43c4:	72747028 	rsbsvc	r7, r4, #40	; 0x28
    43c8:	28282029 	stmdacs	r8!, {r0, r3, r5, sp}
    43cc:	29727470 	ldmdbcs	r2!, {r4, r5, r6, sl, ip, sp, lr}^
    43d0:	6d5f3e2d 	ldclvs	14, cr3, [pc, #-180]	; 4324 <_Min_Stack_Size+0x3f24>
    43d4:	2d637369 	stclcs	3, cr7, [r3, #-420]!	; 0xfffffe5c
    43d8:	626d5f3e 	rsbvs	r5, sp, #62, 30	; 0xf8
    43dc:	6e656c72 	mcrvs	12, 3, r6, cr5, cr2, {3}
    43e0:	6174735f 	cmnvs	r4, pc, asr r3
    43e4:	00296574 	eoreq	r6, r9, r4, ror r5
    43e8:	66735f5f 	uhsaxvs	r5, r3, pc	; <UNPREDICTABLE>
    43ec:	6b61665f 	blvs	185dd70 <_Min_Stack_Size+0x185d970>
    43f0:	74735f65 	ldrbtvc	r5, [r3], #-3941	; 0xfffff09b
    43f4:	72726564 	rsbsvc	r6, r2, #100, 10	; 0x19000000
    43f8:	59535f00 	ldmdbpl	r3, {r8, r9, sl, fp, ip, lr}^
    43fc:	535f5f53 	cmppl	pc, #332	; 0x14c
    4400:	4e494454 	mcrmi	4, 2, r4, cr9, cr4, {2}
    4404:	20485f54 	subcs	r5, r8, r4, asr pc
    4408:	6e5f5f00 	cdpvs	15, 5, cr5, cr15, cr0, {0}
    440c:	5f646565 	svcpl	0x00646565
    4410:	4c4c554e 	cfstr64mi	mvdx5, [ip], {78}	; 0x4e
    4414:	50470020 	subpl	r0, r7, r0, lsr #32
    4418:	505f4f49 	subspl	r4, pc, r9, asr #30
    441c:	395f4e49 	ldmdbcc	pc, {r0, r3, r6, r9, sl, fp, lr}^	; <UNPREDICTABLE>
    4420:	75282820 	strvc	r2, [r8, #-2080]!	; 0xfffff7e0
    4424:	31746e69 	cmncc	r4, r9, ror #28
    4428:	29745f36 	ldmdbcs	r4!, {r1, r2, r4, r5, r8, r9, sl, fp, ip, lr}^
    442c:	32307830 	eorscc	r7, r0, #48, 16	; 0x300000
    4430:	00293030 	eoreq	r3, r9, r0, lsr r0
    4434:	4645445f 			; <UNDEFINED> instruction: 0x4645445f
    4438:	544c5541 	strbpl	r5, [ip], #-1345	; 0xfffffabf
    443c:	554f535f 	strbpl	r5, [pc, #-863]	; 40e5 <_Min_Stack_Size+0x3ce5>
    4440:	20454352 	subcs	r4, r5, r2, asr r3
    4444:	564e0031 			; <UNDEFINED> instruction: 0x564e0031
    4448:	495f4349 	ldmdbmi	pc, {r0, r3, r6, r8, r9, lr}^	; <UNPREDICTABLE>
    444c:	32524543 	subscc	r4, r2, #281018368	; 0x10c00000
    4450:	76282a20 	strtvc	r2, [r8], -r0, lsr #20
    4454:	74616c6f 	strbtvc	r6, [r1], #-3183	; 0xfffff391
    4458:	20656c69 	rsbcs	r6, r5, r9, ror #24
    445c:	746e6975 	strbtvc	r6, [lr], #-2421	; 0xfffff68b
    4460:	745f3233 	ldrbvc	r3, [pc], #-563	; 4468 <_Min_Stack_Size+0x4068>
    4464:	4e28292a 	vmulmi.f16	s4, s16, s21	; <UNPREDICTABLE>
    4468:	5f434956 	svcpl	0x00434956
    446c:	45534142 	ldrbmi	r4, [r3, #-322]	; 0xfffffebe
    4470:	30202b20 	eorcc	r2, r0, r0, lsr #22
    4474:	29383878 	ldmdbcs	r8!, {r3, r4, r5, r6, fp, ip, sp}
    4478:	465f5f00 	ldrbmi	r5, [pc], -r0, lsl #30
    447c:	3233544c 	eorscc	r5, r3, #76, 8	; 0x4c000000
    4480:	4e414d5f 	mcrmi	13, 2, r4, cr1, cr15, {2}
    4484:	49445f54 	stmdbmi	r4, {r2, r4, r6, r8, r9, sl, fp, ip, lr}^
    4488:	205f5f47 	subscs	r5, pc, r7, asr #30
    448c:	5f003432 	svcpl	0x00003432
    4490:	6e727265 	cdpvs	2, 7, cr7, cr2, cr5, {3}
    4494:	5f5f006f 	svcpl	0x005f006f
    4498:	53524556 	cmppl	r2, #360710144	; 0x15800000
    449c:	5f4e4f49 	svcpl	0x004e4f49
    44a0:	3722205f 			; <UNDEFINED> instruction: 0x3722205f
    44a4:	312e332e 			; <UNDEFINED> instruction: 0x312e332e
    44a8:	31303220 	teqcc	r0, r0, lsr #4
    44ac:	32363038 	eorscc	r3, r6, #56	; 0x38
    44b0:	72282032 	eorvc	r2, r8, #50	; 0x32
    44b4:	61656c65 	cmnvs	r5, r5, ror #24
    44b8:	20296573 	eorcs	r6, r9, r3, ror r5
    44bc:	4d52415b 	ldfmie	f4, [r2, #-364]	; 0xfffffe94
    44c0:	626d652f 	rsbvs	r6, sp, #197132288	; 0xbc00000
    44c4:	65646465 	strbvs	r6, [r4, #-1125]!	; 0xfffffb9b
    44c8:	2d372d64 	ldccs	13, cr2, [r7, #-400]!	; 0xfffffe70
    44cc:	6e617262 	cdpvs	2, 6, cr7, cr1, cr2, {3}
    44d0:	72206863 	eorvc	r6, r0, #6488064	; 0x630000
    44d4:	73697665 	cmnvc	r9, #105906176	; 0x6500000
    44d8:	206e6f69 	rsbcs	r6, lr, r9, ror #30
    44dc:	39313632 	ldmdbcc	r1!, {r1, r4, r5, r9, sl, ip, sp}
    44e0:	225d3730 	subscs	r3, sp, #48, 14	; 0xc00000
    44e4:	465f5f00 	ldrbmi	r5, [pc], -r0, lsl #30
    44e8:	3233544c 	eorscc	r5, r3, #76, 8	; 0x4c000000
    44ec:	4e45445f 	mcrmi	4, 2, r4, cr5, cr15, {2}
    44f0:	5f4d524f 	svcpl	0x004d524f
    44f4:	5f4e494d 	svcpl	0x004e494d
    44f8:	2e31205f 	mrccs	0, 1, r2, cr1, cr15, {2}
    44fc:	32313034 	eorscc	r3, r1, #52	; 0x34
    4500:	36343839 			; <UNDEFINED> instruction: 0x36343839
    4504:	34323334 	ldrtcc	r3, [r2], #-820	; 0xfffffccc
    4508:	31373138 	teqcc	r7, r8, lsr r1
    450c:	35342d65 	ldrcc	r2, [r4, #-3429]!	; 0xfffff29b
    4510:	00323346 	eorseq	r3, r2, r6, asr #6
    4514:	5f434e49 	svcpl	0x00434e49
    4518:	334d5453 	movtcc	r5, #54355	; 0xd453
    451c:	30314632 	eorscc	r4, r1, r2, lsr r6
    4520:	5f364333 	svcpl	0x00364333
    4524:	00205f48 	eoreq	r5, r0, r8, asr #30
    4528:	7366666f 	cmnvc	r6, #116391936	; 0x6f00000
    452c:	666f7465 	strbtvs	r7, [pc], -r5, ror #8
    4530:	50595428 	subspl	r5, r9, r8, lsr #8
    4534:	454d2c45 	strbmi	r2, [sp, #-3141]	; 0xfffff3bb
    4538:	5245424d 	subpl	r4, r5, #-805306364	; 0xd0000004
    453c:	5f5f2029 	svcpl	0x005f2029
    4540:	6c697562 	cfstr64vs	mvdx7, [r9], #-392	; 0xfffffe78
    4544:	5f6e6974 	svcpl	0x006e6974
    4548:	7366666f 	cmnvc	r6, #116391936	; 0x6f00000
    454c:	666f7465 	strbtvs	r7, [pc], -r5, ror #8
    4550:	59542820 	ldmdbpl	r4, {r5, fp, sp}^
    4554:	202c4550 	eorcs	r4, ip, r0, asr r5
    4558:	424d454d 	submi	r4, sp, #322961408	; 0x13400000
    455c:	00295245 	eoreq	r5, r9, r5, asr #4
    4560:	49555f5f 	ldmdbmi	r5, {r0, r1, r2, r3, r4, r6, r8, r9, sl, fp, ip, lr}^
    4564:	3436544e 	ldrtcc	r5, [r6], #-1102	; 0xfffffbb2
    4568:	6328435f 			; <UNDEFINED> instruction: 0x6328435f
    456c:	20632029 	rsbcs	r2, r3, r9, lsr #32
    4570:	55202323 	strpl	r2, [r0, #-803]!	; 0xfffffcdd
    4574:	5f004c4c 	svcpl	0x00004c4c
    4578:	4e49555f 	mcrmi	5, 2, r5, cr9, cr15, {2}
    457c:	454c5f54 	strbmi	r5, [ip, #-3924]	; 0xfffff0ac
    4580:	36545341 	ldrbcc	r5, [r4], -r1, asr #6
    4584:	59545f34 	ldmdbpl	r4, {r2, r4, r5, r8, r9, sl, fp, ip, lr}^
    4588:	5f5f4550 	svcpl	0x005f4550
    458c:	6e6f6c20 	cdpvs	12, 6, cr6, cr15, cr0, {1}
    4590:	6f6c2067 	svcvs	0x006c2067
    4594:	7520676e 	strvc	r6, [r0, #-1902]!	; 0xfffff892
    4598:	6769736e 	strbvs	r7, [r9, -lr, ror #6]!
    459c:	2064656e 	rsbcs	r6, r4, lr, ror #10
    45a0:	00746e69 	rsbseq	r6, r4, r9, ror #28
    45a4:	53555f5f 	cmppl	r5, #380	; 0x17c
    45a8:	43415246 	movtmi	r5, #4678	; 0x1246
    45ac:	42465f54 	submi	r5, r6, #84, 30	; 0x150
    45b0:	5f5f5449 	svcpl	0x005f5449
    45b4:	5f003820 	svcpl	0x00003820
    45b8:	42444c5f 	submi	r4, r4, #24320	; 0x5f00
    45bc:	50455f4c 	subpl	r5, r5, ip, asr #30
    45c0:	4f4c4953 	svcmi	0x004c4953
    45c4:	205f5f4e 	subscs	r5, pc, lr, asr #30
    45c8:	32322e32 	eorscc	r2, r2, #800	; 0x320
    45cc:	36343430 			; <UNDEFINED> instruction: 0x36343430
    45d0:	32393430 	eorscc	r3, r9, #48, 8	; 0x30000000
    45d4:	31333035 	teqcc	r3, r5, lsr r0
    45d8:	2d653133 	stfcse	f3, [r5, #-204]!	; 0xffffff34
    45dc:	004c3631 	subeq	r3, ip, r1, lsr r6
    45e0:	72756f46 	rsbsvc	r6, r5, #280	; 0x118
    45e4:	7469425f 	strbtvc	r4, [r9], #-607	; 0xfffffda1
    45e8:	65646f4d 	strbvs	r6, [r4, #-3917]!	; 0xfffff0b3
    45ec:	30783020 	rsbscc	r3, r8, r0, lsr #32
    45f0:	5f5f0032 	svcpl	0x005f0032
    45f4:	75716572 	ldrbvc	r6, [r1, #-1394]!	; 0xfffffa8e
    45f8:	73657269 	cmnvc	r5, #-1879048186	; 0x90000006
    45fc:	6168735f 	cmnvs	r8, pc, asr r3
    4600:	28646572 	stmdacs	r4!, {r1, r4, r5, r6, r8, sl, sp, lr}^
    4604:	292e2e2e 	stmdbcs	lr!, {r1, r2, r3, r5, r9, sl, fp, sp}
    4608:	6c5f5f20 	mrrcvs	15, 2, r5, pc, cr0	; <UNPREDICTABLE>
    460c:	5f6b636f 	svcpl	0x006b636f
    4610:	6f6e6e61 	svcvs	0x006e6e61
    4614:	65746174 	ldrbvs	r6, [r4, #-372]!	; 0xfffffe8c
    4618:	61687328 	cmnvs	r8, r8, lsr #6
    461c:	5f646572 	svcpl	0x00646572
    4620:	6b636f6c 	blvs	18e03d8 <_Min_Stack_Size+0x18dffd8>
    4624:	65725f73 	ldrbvs	r5, [r2, #-3955]!	; 0xfffff08d
    4628:	72697571 	rsbvc	r7, r9, #473956352	; 0x1c400000
    462c:	5f286465 	svcpl	0x00286465
    4630:	5f41565f 	svcpl	0x0041565f
    4634:	53475241 	movtpl	r5, #29249	; 0x7241
    4638:	29295f5f 	stmdbcs	r9!, {r0, r1, r2, r3, r4, r6, r8, r9, sl, fp, ip, lr}
    463c:	705f5f00 	subsvc	r5, pc, r0, lsl #30
    4640:	32657275 	rsbcc	r7, r5, #1342177287	; 0x50000007
    4644:	615f5f20 	cmpvs	pc, r0, lsr #30
    4648:	69727474 	ldmdbvs	r2!, {r2, r4, r5, r6, sl, ip, sp, lr}^
    464c:	65747562 	ldrbvs	r7, [r4, #-1378]!	; 0xfffffa9e
    4650:	28285f5f 	stmdacs	r8!, {r0, r1, r2, r3, r4, r6, r8, r9, sl, fp, ip, lr}
    4654:	6f635f5f 	svcvs	0x00635f5f
    4658:	5f74736e 	svcpl	0x0074736e
    465c:	0029295f 	eoreq	r2, r9, pc, asr r9
    4660:	43475f5f 	movtmi	r5, #32607	; 0x7f5f
    4664:	54415f43 	strbpl	r5, [r1], #-3907	; 0xfffff0bd
    4668:	43494d4f 	movtmi	r4, #40271	; 0x9d4f
    466c:	4148435f 	cmpmi	r8, pc, asr r3
    4670:	5f363152 	svcpl	0x00363152
    4674:	4f4c5f54 	svcmi	0x004c5f54
    4678:	465f4b43 	ldrbmi	r4, [pc], -r3, asr #22
    467c:	20454552 	subcs	r4, r5, r2, asr r5
    4680:	5f5f0032 	svcpl	0x005f0032
    4684:	4c4c554e 	cfstr64mi	mvdx5, [ip], {78}	; 0x4e
    4688:	4c494241 	sfmmi	f4, 2, [r9], {65}	; 0x41
    468c:	5f595449 	svcpl	0x00595449
    4690:	47415250 	smlsldmi	r5, r1, r0, r2
    4694:	505f414d 	subspl	r4, pc, sp, asr #2
    4698:	20485355 	subcs	r5, r8, r5, asr r3
    469c:	69735f00 	ldmdbvs	r3!, {r8, r9, sl, fp, ip, lr}^
    46a0:	6c616e67 	stclvs	14, cr6, [r1], #-412	; 0xfffffe64
    46a4:	6675625f 			; <UNDEFINED> instruction: 0x6675625f
    46a8:	4b434c00 	blmi	10d76b0 <_Min_Stack_Size+0x10d72b0>
    46ac:	5f5f0052 	svcpl	0x005f0052
    46b0:	5f4c4244 	svcpl	0x004c4244
    46b4:	5f58414d 	svcpl	0x0058414d
    46b8:	5f505845 	svcpl	0x00505845
    46bc:	3031205f 	eorscc	r2, r1, pc, asr r0
    46c0:	5f003432 	svcpl	0x00003432
    46c4:	5341465f 	movtpl	r4, #5727	; 0x165f
    46c8:	20343654 	eorscs	r3, r4, r4, asr r6
    46cc:	226c6c22 	rsbcs	r6, ip, #8704	; 0x2200
    46d0:	415f5f00 	cmpmi	pc, r0, lsl #30
    46d4:	494d4f54 	stmdbmi	sp, {r2, r4, r6, r8, r9, sl, fp, lr}^
    46d8:	45525f43 	ldrbmi	r5, [r2, #-3907]	; 0xfffff0bd
    46dc:	5341454c 	movtpl	r4, #5452	; 0x154c
    46e0:	00332045 	eorseq	r2, r3, r5, asr #32
    46e4:	69736e75 	ldmdbvs	r3!, {r0, r2, r4, r5, r6, r9, sl, fp, sp, lr}^
    46e8:	64656e67 	strbtvs	r6, [r5], #-3687	; 0xfffff199
    46ec:	00302b20 	eorseq	r2, r0, r0, lsr #22
    46f0:	4c465f5f 	mcrrmi	15, 5, r5, r6, cr15
    46f4:	58323354 	ldmdapl	r2!, {r2, r4, r6, r8, r9, ip, sp}
    46f8:	5341485f 	movtpl	r4, #6239	; 0x185f
    46fc:	4e45445f 	mcrmi	4, 2, r4, cr5, cr15, {2}
    4700:	5f4d524f 	svcpl	0x004d524f
    4704:	0031205f 	eorseq	r2, r1, pc, asr r0
    4708:	4c465f5f 	mcrrmi	15, 5, r5, r6, cr15
    470c:	414d5f54 	cmpmi	sp, r4, asr pc
    4710:	445f544e 	ldrbmi	r5, [pc], #-1102	; 4718 <_Min_Stack_Size+0x4318>
    4714:	5f5f4749 	svcpl	0x005f4749
    4718:	00343220 	eorseq	r3, r4, r0, lsr #4
    471c:	4e41525f 	mcrmi	2, 2, r5, cr1, cr15, {2}
    4720:	5f383444 	svcpl	0x00383444
    4724:	44454553 	strbmi	r4, [r5], #-1363	; 0xfffffaad
    4728:	2820315f 	stmdacs	r0!, {r0, r1, r2, r3, r4, r6, r8, ip, sp}
    472c:	62617830 	rsbvs	r7, r1, #48, 16	; 0x300000
    4730:	00296463 	eoreq	r6, r9, r3, ror #8
    4734:	44555f5f 	ldrbmi	r5, [r5], #-3935	; 0xfffff0a1
    4738:	42495f51 	submi	r5, r9, #324	; 0x144
    473c:	5f5f5449 	svcpl	0x005f5449
    4740:	5f003020 	svcpl	0x00003020
    4744:	424f4c47 	submi	r4, pc, #18176	; 0x4700
    4748:	415f4c41 	cmpmi	pc, r1, asr #24
    474c:	49584554 	ldmdbmi	r8, {r2, r4, r6, r8, sl, lr}^
    4750:	675f2054 			; <UNDEFINED> instruction: 0x675f2054
    4754:	61626f6c 	cmnvs	r2, ip, ror #30
    4758:	74615f6c 	strbtvc	r5, [r1], #-3948	; 0xfffff094
    475c:	74697865 	strbtvc	r7, [r9], #-2149	; 0xfffff79b
    4760:	495f5f00 	ldmdbmi	pc, {r8, r9, sl, fp, ip, lr}^	; <UNPREDICTABLE>
    4764:	4c5f544e 	cfldrdmi	mvd5, [pc], {78}	; 0x4e
    4768:	54534145 	ldrbpl	r4, [r3], #-325	; 0xfffffebb
    476c:	545f3233 	ldrbpl	r3, [pc], #-563	; 4774 <_Min_Stack_Size+0x4374>
    4770:	5f455059 	svcpl	0x00455059
    4774:	6f6c205f 	svcvs	0x006c205f
    4778:	6920676e 	stmdbvs	r0!, {r1, r2, r3, r5, r6, r8, r9, sl, sp, lr}
    477c:	5500746e 	strpl	r7, [r0, #-1134]	; 0xfffffb92
    4780:	4d544e49 	ldclmi	14, cr4, [r4, #-292]	; 0xfffffedc
    4784:	4d5f5841 	ldclmi	8, cr5, [pc, #-260]	; 4688 <_Min_Stack_Size+0x4288>
    4788:	28205841 	stmdacs	r0!, {r0, r6, fp, ip, lr}
    478c:	49555f5f 	ldmdbmi	r5, {r0, r1, r2, r3, r4, r6, r8, r9, sl, fp, ip, lr}^
    4790:	414d544e 	cmpmi	sp, lr, asr #8
    4794:	414d5f58 	cmpmi	sp, r8, asr pc
    4798:	295f5f58 	ldmdbcs	pc, {r3, r4, r6, r8, r9, sl, fp, ip, lr}^	; <UNPREDICTABLE>
    479c:	4c5f5f00 	mrrcmi	15, 0, r5, pc, cr0	; <UNPREDICTABLE>
    47a0:	5f4b434f 	svcpl	0x004b434f
    47a4:	54494e49 	strbpl	r4, [r9], #-3657	; 0xfffff1b7
    47a8:	4345525f 	movtmi	r5, #21087	; 0x525f
    47ac:	49535255 	ldmdbmi	r3, {r0, r2, r4, r6, r9, ip, lr}^
    47b0:	63284556 			; <UNDEFINED> instruction: 0x63284556
    47b4:	7373616c 	cmnvc	r3, #108, 2
    47b8:	636f6c2c 	cmnvs	pc, #44, 24	; 0x2c00
    47bc:	7320296b 			; <UNDEFINED> instruction: 0x7320296b
    47c0:	69746174 	ldmdbvs	r4!, {r2, r4, r5, r6, r8, sp, lr}^
    47c4:	6e692063 	cdpvs	0, 6, cr2, cr9, cr3, {3}
    47c8:	6f6c2074 	svcvs	0x006c2074
    47cc:	3d206b63 	fstmdbxcc	r0!, {d6-d54}	;@ Deprecated
    47d0:	003b3020 	eorseq	r3, fp, r0, lsr #32
    47d4:	5f44434c 	svcpl	0x0044434c
    47d8:	45444f4d 	strbmi	r4, [r4, #-3917]	; 0xfffff0b3
    47dc:	554f4620 	strbpl	r4, [pc, #-1568]	; 41c4 <_Min_Stack_Size+0x3dc4>
    47e0:	49425f52 	stmdbmi	r2, {r1, r4, r6, r8, r9, sl, fp, ip, lr}^
    47e4:	4f4d5f54 	svcmi	0x004d5f54
    47e8:	5f004544 	svcpl	0x00004544
    47ec:	5f43435f 	svcpl	0x0043435f
    47f0:	50505553 	subspl	r5, r0, r3, asr r5
    47f4:	5354524f 	cmppl	r4, #-268435452	; 0xf0000004
    47f8:	465f5f5f 	usaxmi	r5, pc, pc	; <UNPREDICTABLE>
    47fc:	5f434e55 	svcpl	0x00434e55
    4800:	0031205f 	eorseq	r2, r1, pc, asr r0
    4804:	6769425f 			; <UNDEFINED> instruction: 0x6769425f
    4808:	00746e69 	rsbseq	r6, r4, r9, ror #28
    480c:	49545845 	ldmdbmi	r4, {r0, r2, r6, fp, ip, lr}^
    4810:	44503331 	ldrbmi	r3, [r0], #-817	; 0xfffffccf
    4814:	28203331 	stmdacs	r0!, {r0, r4, r5, r8, r9, ip, sp}
    4818:	49545845 	ldmdbmi	r4, {r0, r2, r6, fp, ip, lr}^
    481c:	4950475f 	ldmdbmi	r0, {r0, r1, r2, r3, r4, r6, r8, r9, sl, lr}^
    4820:	614d5f4f 	cmpvs	sp, pc, asr #30
    4824:	676e6970 			; <UNDEFINED> instruction: 0x676e6970
    4828:	7b29745f 	blvc	a619ac <_Min_Stack_Size+0xa615ac>
    482c:	49545845 	ldmdbmi	r4, {r0, r2, r6, fp, ip, lr}^
    4830:	472c3331 			; <UNDEFINED> instruction: 0x472c3331
    4834:	444f4950 	strbmi	r4, [pc], #-2384	; 483c <_Min_Stack_Size+0x443c>
    4838:	4950472c 	ldmdbmi	r0, {r2, r3, r5, r8, r9, sl, lr}^
    483c:	49505f4f 	ldmdbmi	r0, {r0, r1, r2, r3, r6, r8, r9, sl, fp, ip, lr}^
    4840:	33315f4e 	teqcc	r1, #312	; 0x138
    4844:	5458452c 	ldrbpl	r4, [r8], #-1324	; 0xfffffad4
    4848:	5f333149 	svcpl	0x00333149
    484c:	7d515249 	lfmvc	f5, 2, [r1, #-292]	; 0xfffffedc
    4850:	535f5f00 	cmppl	pc, #0, 30
    4854:	5f455a49 	svcpl	0x00455a49
    4858:	205f5f54 	subscs	r5, pc, r4, asr pc	; <UNPREDICTABLE>
    485c:	5f545f00 	svcpl	0x00545f00
    4860:	44525450 	ldrbmi	r5, [r2], #-1104	; 0xfffffbb0
    4864:	5f464649 	svcpl	0x00464649
    4868:	50470020 	subpl	r0, r7, r0, lsr #32
    486c:	4d5f4f49 	ldclmi	15, cr4, [pc, #-292]	; 4750 <_Min_Stack_Size+0x4350>
    4870:	5f45444f 	svcpl	0x0045444f
    4874:	4f5f4641 	svcmi	0x005f4641
    4878:	55505455 	ldrbpl	r5, [r0, #-1109]	; 0xfffffbab
    487c:	504f5f54 	subpl	r5, pc, r4, asr pc	; <UNPREDICTABLE>
    4880:	52444e45 	subpl	r4, r4, #1104	; 0x450
    4884:	204e4941 	subcs	r4, lr, r1, asr #18
    4888:	30307830 	eorscc	r7, r0, r0, lsr r8
    488c:	30303030 	eorscc	r3, r0, r0, lsr r0
    4890:	00753730 	rsbseq	r3, r5, r0, lsr r7
    4894:	4f495047 	svcmi	0x00495047
    4898:	444f4d5f 	strbmi	r4, [pc], #-3423	; 48a0 <_Min_Stack_Size+0x44a0>
    489c:	46415f45 	strbmi	r5, [r1], -r5, asr #30
    48a0:	54554f5f 	ldrbpl	r4, [r5], #-3935	; 0xfffff0a1
    48a4:	5f545550 	svcpl	0x00545550
    48a8:	48535550 	ldmdami	r3, {r4, r6, r8, sl, ip, lr}^
    48ac:	4c4c5550 	cfstr64mi	mvdx5, [ip], {80}	; 0x50
    48b0:	30783020 	rsbscc	r3, r8, r0, lsr #32
    48b4:	30303030 	eorscc	r3, r0, r0, lsr r0
    48b8:	75363030 	ldrvc	r3, [r6, #-48]!	; 0xffffffd0
    48bc:	4c5f5f00 	mrrcmi	15, 0, r5, pc, cr0	; <UNPREDICTABLE>
    48c0:	5f4c4244 	svcpl	0x004c4244
    48c4:	4f4e4544 	svcmi	0x004e4544
    48c8:	4d5f4d52 	ldclmi	13, cr4, [pc, #-328]	; 4788 <_Min_Stack_Size+0x4388>
    48cc:	5f5f4e49 	svcpl	0x005f4e49
    48d0:	392e3420 	stmdbcc	lr!, {r5, sl, ip, sp}
    48d4:	35363034 	ldrcc	r3, [r6, #-52]!	; 0xffffffcc
    48d8:	38353436 	ldmdacc	r5!, {r1, r2, r4, r5, sl, ip, sp}
    48dc:	34323134 	ldrtcc	r3, [r2], #-308	; 0xfffffecc
    48e0:	65343536 	ldrvs	r3, [r4, #-1334]!	; 0xfffffaca
    48e4:	3432332d 	ldrtcc	r3, [r2], #-813	; 0xfffffcd3
    48e8:	5845004c 	stmdapl	r5, {r2, r3, r6}^
    48ec:	5f344954 	svcpl	0x00344954
    48f0:	20515249 	subscs	r5, r1, r9, asr #4
    48f4:	5f003031 	svcpl	0x00003031
    48f8:	544e495f 	strbpl	r4, [lr], #-2399	; 0xfffff6a1
    48fc:	4d5f3436 	cfldrdmi	mvd3, [pc, #-216]	; 482c <_Min_Stack_Size+0x442c>
    4900:	5f5f5841 	svcpl	0x005f5841
    4904:	37783020 	ldrbcc	r3, [r8, -r0, lsr #32]!
    4908:	66666666 	strbtvs	r6, [r6], -r6, ror #12
    490c:	66666666 	strbtvs	r6, [r6], -r6, ror #12
    4910:	66666666 	strbtvs	r6, [r6], -r6, ror #12
    4914:	4c666666 	stclmi	6, cr6, [r6], #-408	; 0xfffffe68
    4918:	5f5f004c 	svcpl	0x005f004c
    491c:	5f4d5241 	svcpl	0x004d5241
    4920:	54414546 	strbpl	r4, [r1], #-1350	; 0xfffffaba
    4924:	5f455255 	svcpl	0x00455255
    4928:	20544153 	subscs	r4, r4, r3, asr r1
    492c:	525f0031 	subspl	r0, pc, #49	; 0x31
    4930:	544e4545 	strbpl	r4, [lr], #-1349	; 0xfffffabb
    4934:	4548435f 	strbmi	r4, [r8, #-863]	; 0xfffffca1
    4938:	455f4b43 	ldrbmi	r4, [pc, #-2883]	; 3dfd <_Min_Stack_Size+0x39fd>
    493c:	4752454d 	ldrbmi	r4, [r2, -sp, asr #10]
    4940:	59434e45 	stmdbpl	r3, {r0, r2, r6, r9, sl, fp, lr}^
    4944:	72617628 	rsbvc	r7, r1, #40, 12	; 0x2800000
    4948:	525f2029 	subspl	r2, pc, #41	; 0x29
    494c:	544e4545 	strbpl	r4, [lr], #-1349	; 0xfffffabb
    4950:	4548435f 	strbmi	r4, [r8, #-863]	; 0xfffffca1
    4954:	76284b43 	strtvc	r4, [r8], -r3, asr #22
    4958:	202c7261 	eorcs	r7, ip, r1, ror #4
    495c:	656d655f 	strbvs	r6, [sp, #-1375]!	; 0xfffffaa1
    4960:	6e656772 	mcrvs	7, 3, r6, cr5, cr2, {3}
    4964:	202c7963 	eorcs	r7, ip, r3, ror #18
    4968:	72616863 	rsbvc	r6, r1, #6488064	; 0x630000
    496c:	202c2a20 	eorcs	r2, ip, r0, lsr #20
    4970:	4545525f 	strbmi	r5, [r5, #-607]	; 0xfffffda1
    4974:	455f544e 	ldrbmi	r5, [pc, #-1102]	; 452e <_Min_Stack_Size+0x412e>
    4978:	4752454d 	ldrbmi	r4, [r2, -sp, asr #10]
    497c:	59434e45 	stmdbpl	r3, {r0, r2, r6, r9, sl, fp, lr}^
    4980:	5a49535f 	bpl	1259704 <_Min_Stack_Size+0x1259304>
    4984:	29202c45 	stmdbcs	r0!, {r0, r2, r6, sl, fp, sp}
    4988:	555f5f00 	ldrbpl	r5, [pc, #-3840]	; 3a90 <_Min_Stack_Size+0x3690>
    498c:	52464c4c 	subpl	r4, r6, #76, 24	; 0x4c00
    4990:	5f544341 	svcpl	0x00544341
    4994:	54494249 	strbpl	r4, [r9], #-585	; 0xfffffdb7
    4998:	30205f5f 	eorcc	r5, r0, pc, asr pc
    499c:	726f4600 	rsbvc	r4, pc, #0, 12
    49a0:	6e326563 	cdpvs	5, 3, cr6, cr2, cr3, {3}
    49a4:	6e696c64 	cdpvs	12, 6, cr6, cr9, cr4, {3}
    49a8:	78302065 	ldmdavc	r0!, {r0, r2, r5, r6, sp}
    49ac:	5f003043 	svcpl	0x00003043
    49b0:	49534e41 	ldmdbmi	r3, {r0, r6, r9, sl, fp, lr}^
    49b4:	4454535f 	ldrbmi	r5, [r4], #-863	; 0xfffffca1
    49b8:	5f464544 	svcpl	0x00464544
    49bc:	49002048 	stmdbmi	r0, {r3, r6, sp}
    49c0:	414d544e 	cmpmi	sp, lr, asr #8
    49c4:	414d5f58 	cmpmi	sp, r8, asr pc
    49c8:	5f282058 	svcpl	0x00282058
    49cc:	544e495f 	strbpl	r4, [lr], #-2399	; 0xfffff6a1
    49d0:	5f58414d 	svcpl	0x0058414d
    49d4:	5f58414d 	svcpl	0x0058414d
    49d8:	5f00295f 	svcpl	0x0000295f
    49dc:	656c635f 	strbvs	r6, [ip, #-863]!	; 0xfffffca1
    49e0:	70756e61 	rsbsvc	r6, r5, r1, ror #28
    49e4:	54584500 	ldrbpl	r4, [r8], #-1280	; 0xfffffb00
    49e8:	696c5f49 	stmdbvs	ip!, {r0, r3, r6, r8, r9, sl, fp, ip, lr}^
    49ec:	754e656e 	strbvc	r6, [lr, #-1390]	; 0xfffffa92
    49f0:	7265626d 	rsbvc	r6, r5, #-805306362	; 0xd0000006
    49f4:	54584500 	ldrbpl	r4, [r8], #-1280	; 0xfffffb00
    49f8:	50333149 	eorspl	r3, r3, r9, asr #2
    49fc:	20333141 	eorscs	r3, r3, r1, asr #2
    4a00:	54584528 	ldrbpl	r4, [r8], #-1320	; 0xfffffad8
    4a04:	50475f49 	subpl	r5, r7, r9, asr #30
    4a08:	4d5f4f49 	ldclmi	15, cr4, [pc, #-292]	; 48ec <_Min_Stack_Size+0x44ec>
    4a0c:	6e697061 	cdpvs	0, 6, cr7, cr9, cr1, {3}
    4a10:	29745f67 	ldmdbcs	r4!, {r0, r1, r2, r5, r6, r8, r9, sl, fp, ip, lr}^
    4a14:	5458457b 	ldrbpl	r4, [r8], #-1403	; 0xfffffa85
    4a18:	2c333149 	ldfcss	f3, [r3], #-292	; 0xfffffedc
    4a1c:	4f495047 	svcmi	0x00495047
    4a20:	50472c41 	subpl	r2, r7, r1, asr #24
    4a24:	505f4f49 	subspl	r4, pc, r9, asr #30
    4a28:	315f4e49 	cmpcc	pc, r9, asr #28
    4a2c:	58452c33 	stmdapl	r5, {r0, r1, r4, r5, sl, fp, sp}^
    4a30:	33314954 	teqcc	r1, #84, 18	; 0x150000
    4a34:	5152495f 	cmppl	r2, pc, asr r9
    4a38:	564e007d 			; <UNDEFINED> instruction: 0x564e007d
    4a3c:	495f4349 	ldmdbmi	pc, {r0, r3, r6, r8, r9, lr}^	; <UNPREDICTABLE>
    4a40:	33325152 	teqcc	r2, #-2147483628	; 0x80000014
    4a44:	5458455f 	ldrbpl	r4, [r8], #-1375	; 0xfffffaa1
    4a48:	395f3549 	ldmdbcc	pc, {r0, r3, r6, r8, sl, ip, sp}^	; <UNPREDICTABLE>
    4a4c:	616e455f 	cmnvs	lr, pc, asr r5
    4a50:	20656c62 	rsbcs	r6, r5, r2, ror #24
    4a54:	49564e28 	ldmdbmi	r6, {r3, r5, r9, sl, fp, lr}^
    4a58:	53495f43 	movtpl	r5, #40771	; 0x9f43
    4a5c:	20305245 	eorscs	r5, r0, r5, asr #4
    4a60:	28203d7c 	stmdacs	r0!, {r2, r3, r4, r5, r6, r8, sl, fp, ip, sp}
    4a64:	323c3c31 	eorscc	r3, ip, #12544	; 0x3100
    4a68:	00292933 	eoreq	r2, r9, r3, lsr r9
    4a6c:	49545845 	ldmdbmi	r4, {r0, r2, r6, fp, ip, lr}^
    4a70:	43503531 	cmpmi	r0, #205520896	; 0xc400000
    4a74:	28203531 	stmdacs	r0!, {r0, r4, r5, r8, sl, ip, sp}
    4a78:	49545845 	ldmdbmi	r4, {r0, r2, r6, fp, ip, lr}^
    4a7c:	4950475f 	ldmdbmi	r0, {r0, r1, r2, r3, r4, r6, r8, r9, sl, lr}^
    4a80:	614d5f4f 	cmpvs	sp, pc, asr #30
    4a84:	676e6970 			; <UNDEFINED> instruction: 0x676e6970
    4a88:	7b29745f 	blvc	a61c0c <_Min_Stack_Size+0xa6180c>
    4a8c:	49545845 	ldmdbmi	r4, {r0, r2, r6, fp, ip, lr}^
    4a90:	472c3531 			; <UNDEFINED> instruction: 0x472c3531
    4a94:	434f4950 	movtmi	r4, #63824	; 0xf950
    4a98:	4950472c 	ldmdbmi	r0, {r2, r3, r5, r8, r9, sl, lr}^
    4a9c:	49505f4f 	ldmdbmi	r0, {r0, r1, r2, r3, r6, r8, r9, sl, fp, ip, lr}^
    4aa0:	35315f4e 	ldrcc	r5, [r1, #-3918]!	; 0xfffff0b2
    4aa4:	5458452c 	ldrbpl	r4, [r8], #-1324	; 0xfffffad4
    4aa8:	5f353149 	svcpl	0x00353149
    4aac:	7d515249 	lfmvc	f5, 2, [r1, #-292]	; 0xfffffedc
    4ab0:	45525f00 	ldrbmi	r5, [r2, #-3840]	; 0xfffff100
    4ab4:	5f544e45 	svcpl	0x00544e45
    4ab8:	54524357 	ldrbpl	r4, [r2], #-855	; 0xfffffca9
    4abc:	5f424d4f 	svcpl	0x00424d4f
    4ac0:	54415453 	strbpl	r5, [r1], #-1107	; 0xfffffbad
    4ac4:	74702845 	ldrbtvc	r2, [r0], #-2117	; 0xfffff7bb
    4ac8:	28202972 	stmdacs	r0!, {r1, r4, r5, r6, r8, fp, sp}
    4acc:	72747028 	rsbsvc	r7, r4, #40	; 0x28
    4ad0:	5f3e2d29 	svcpl	0x003e2d29
    4ad4:	6373696d 	cmnvs	r3, #1785856	; 0x1b4000
    4ad8:	775f3e2d 	ldrbvc	r3, [pc, -sp, lsr #28]
    4adc:	6f747263 	svcvs	0x00747263
    4ae0:	735f626d 	cmpvc	pc, #-805306362	; 0xd0000006
    4ae4:	65746174 	ldrbvs	r6, [r4, #-372]!	; 0xfffffe8c
    4ae8:	5f5f0029 	svcpl	0x005f0029
    4aec:	6f6c6c61 	svcvs	0x006c6c61
    4af0:	69735f63 	ldmdbvs	r3!, {r0, r1, r5, r6, r8, r9, sl, fp, ip, lr}^
    4af4:	7828657a 	stmdavc	r8!, {r1, r3, r4, r5, r6, r8, sl, sp, lr}
    4af8:	5f5f2029 	svcpl	0x005f2029
    4afc:	72747461 	rsbsvc	r7, r4, #1627389952	; 0x61000000
    4b00:	74756269 	ldrbtvc	r6, [r5], #-617	; 0xfffffd97
    4b04:	285f5f65 	ldmdacs	pc, {r0, r2, r5, r6, r8, r9, sl, fp, ip, lr}^	; <UNPREDICTABLE>
    4b08:	615f5f28 	cmpvs	pc, r8, lsr #30
    4b0c:	636f6c6c 	cmnvs	pc, #108, 24	; 0x6c00
    4b10:	7a69735f 	bvc	1a61894 <_Min_Stack_Size+0x1a61494>
    4b14:	285f5f65 	ldmdacs	pc, {r0, r2, r5, r6, r8, r9, sl, fp, ip, lr}^	; <UNPREDICTABLE>
    4b18:	29292978 	stmdbcs	r9!, {r3, r4, r5, r6, r8, fp, sp}
    4b1c:	4c5f5f00 	mrrcmi	15, 0, r5, pc, cr0	; <UNPREDICTABLE>
    4b20:	5f474e4f 	svcpl	0x00474e4f
    4b24:	54444957 	strbpl	r4, [r4], #-2391	; 0xfffff6a9
    4b28:	205f5f48 	subscs	r5, pc, r8, asr #30
    4b2c:	4e003233 	mcrmi	2, 0, r3, cr0, cr3, {1}
    4b30:	5f434956 	svcpl	0x00434956
    4b34:	52454349 	subpl	r4, r5, #603979777	; 0x24000001
    4b38:	282a2030 	stmdacs	sl!, {r4, r5, sp}
    4b3c:	616c6f76 	smcvs	50934	; 0xc6f6
    4b40:	656c6974 	strbvs	r6, [ip, #-2420]!	; 0xfffff68c
    4b44:	6e697520 	cdpvs	5, 6, cr7, cr9, cr0, {1}
    4b48:	5f323374 	svcpl	0x00323374
    4b4c:	28292a74 	stmdacs	r9!, {r2, r4, r5, r6, r9, fp, sp}
    4b50:	4349564e 	movtmi	r5, #38478	; 0x964e
    4b54:	5341425f 	movtpl	r4, #4703	; 0x125f
    4b58:	202b2045 	eorcs	r2, fp, r5, asr #32
    4b5c:	30387830 	eorscc	r7, r8, r0, lsr r8
    4b60:	5f5f0029 	svcpl	0x005f0029
    4b64:	5f544c46 	svcpl	0x00544c46
    4b68:	5f58414d 	svcpl	0x0058414d
    4b6c:	2e33205f 	mrccs	0, 1, r2, cr3, cr15, {2}
    4b70:	38323034 	ldmdacc	r2!, {r2, r4, r5, ip, sp}
    4b74:	36343332 			; <UNDEFINED> instruction: 0x36343332
    4b78:	35383336 	ldrcc	r3, [r8, #-822]!	; 0xfffffcca
    4b7c:	36383832 			; <UNDEFINED> instruction: 0x36383832
    4b80:	38332b65 	ldmdacc	r3!, {r0, r2, r5, r6, r8, r9, fp, sp}
    4b84:	5f5f0046 	svcpl	0x005f0046
    4b88:	43434155 	movtmi	r4, #12629	; 0x3155
    4b8c:	465f4d55 			; <UNDEFINED> instruction: 0x465f4d55
    4b90:	5f544942 	svcpl	0x00544942
    4b94:	3631205f 			; <UNDEFINED> instruction: 0x3631205f
    4b98:	775f5f00 	ldrbvc	r5, [pc, -r0, lsl #30]
    4b9c:	5f6e7261 	svcpl	0x006e7261
    4ba0:	65666572 	strbvs	r6, [r6, #-1394]!	; 0xfffffa8e
    4ba4:	636e6572 	cmnvs	lr, #478150656	; 0x1c800000
    4ba8:	73287365 			; <UNDEFINED> instruction: 0x73287365
    4bac:	6d2c6d79 	stcvs	13, cr6, [ip, #-484]!	; 0xfffffe1c
    4bb0:	20296773 	eorcs	r6, r9, r3, ror r7
    4bb4:	73615f5f 	cmnvc	r1, #380	; 0x17c
    4bb8:	285f5f6d 	ldmdacs	pc, {r0, r2, r3, r5, r6, r8, r9, sl, fp, ip, lr}^	; <UNPREDICTABLE>
    4bbc:	65732e22 	ldrbvs	r2, [r3, #-3618]!	; 0xfffff1de
    4bc0:	6f697463 	svcvs	0x00697463
    4bc4:	672e206e 	strvs	r2, [lr, -lr, rrx]!
    4bc8:	772e756e 	strvc	r7, [lr, -lr, ror #10]!
    4bcc:	696e7261 	stmdbvs	lr!, {r0, r5, r6, r9, ip, sp, lr}^
    4bd0:	222e676e 	eorcs	r6, lr, #28835840	; 0x1b80000
    4bd4:	79732320 	ldmdbvc	r3!, {r5, r8, r9, sp}^
    4bd8:	203b296d 	eorscs	r2, fp, sp, ror #18
    4bdc:	73615f5f 	cmnvc	r1, #380	; 0x17c
    4be0:	285f5f6d 	ldmdacs	pc, {r0, r2, r3, r5, r6, r8, r9, sl, fp, ip, lr}^	; <UNPREDICTABLE>
    4be4:	73612e22 	cmnvc	r1, #544	; 0x220
    4be8:	207a6963 	rsbscs	r6, sl, r3, ror #18
    4bec:	2022225c 	eorcs	r2, r2, ip, asr r2
    4bf0:	2067736d 	rsbcs	r7, r7, sp, ror #6
    4bf4:	22225c22 	eorcs	r5, r2, #8704	; 0x2200
    4bf8:	5f203b29 	svcpl	0x00203b29
    4bfc:	6d73615f 	ldfvse	f6, [r3, #-380]!	; 0xfffffe84
    4c00:	22285f5f 	eorcs	r5, r8, #380	; 0x17c
    4c04:	6572702e 	ldrbvs	r7, [r2, #-46]!	; 0xffffffd2
    4c08:	756f6976 	strbvc	r6, [pc, #-2422]!	; 429a <_Min_Stack_Size+0x3e9a>
    4c0c:	00292273 	eoreq	r2, r9, r3, ror r2
    4c10:	52504e55 	subspl	r4, r0, #1360	; 0x550
    4c14:	4c495649 	mcrrmi	6, 4, r5, r9, cr9
    4c18:	00454749 	subeq	r4, r5, r9, asr #14
    4c1c:	46555f5f 	usaxmi	r5, r5, pc	; <UNPREDICTABLE>
    4c20:	54434152 	strbpl	r4, [r3], #-338	; 0xfffffeae
    4c24:	5350455f 	cmppl	r0, #398458880	; 0x17c00000
    4c28:	4e4f4c49 	cdpmi	12, 4, cr4, cr15, cr9, {2}
    4c2c:	30205f5f 	eorcc	r5, r0, pc, asr pc
    4c30:	2d503178 	ldfcse	f3, [r0, #-480]	; 0xfffffe20
    4c34:	52553631 	subspl	r3, r5, #51380224	; 0x3100000
    4c38:	575f5f00 	ldrbpl	r5, [pc, -r0, lsl #30]
    4c3c:	52414843 	subpl	r4, r1, #4390912	; 0x430000
    4c40:	4e494d5f 	mcrmi	13, 2, r4, cr9, cr15, {2}
    4c44:	30205f5f 	eorcc	r5, r0, pc, asr pc
    4c48:	5f5f0055 	svcpl	0x005f0055
    4c4c:	5f434347 	svcpl	0x00434347
    4c50:	45564148 	ldrbmi	r4, [r6, #-328]	; 0xfffffeb8
    4c54:	4e59535f 	mrcmi	3, 2, r5, cr9, cr15, {2}
    4c58:	4f435f43 	svcmi	0x00435f43
    4c5c:	5241504d 	subpl	r5, r1, #77	; 0x4d
    4c60:	4e415f45 	cdpmi	15, 4, cr5, cr1, cr5, {2}
    4c64:	57535f44 	ldrbpl	r5, [r3, -r4, asr #30]
    4c68:	315f5041 	cmpcc	pc, r1, asr #32
    4c6c:	49003120 	stmdbmi	r0, {r5, r8, ip, sp}
    4c70:	535f434e 	cmppl	pc, #939524097	; 0x38000001
    4c74:	32334d54 	eorscc	r4, r3, #84, 26	; 0x1500
    4c78:	3031465f 	eorscc	r4, r1, pc, asr r6
    4c7c:	5f364333 	svcpl	0x00364333
    4c80:	4f495047 	svcmi	0x00495047
    4c84:	4952445f 	ldmdbmi	r2, {r0, r1, r2, r3, r4, r6, sl, lr}^
    4c88:	5f524556 	svcpl	0x00524556
    4c8c:	00205f48 	eoreq	r5, r0, r8, asr #30
    4c90:	57454e5f 	smlsldpl	r4, r5, pc, lr	; <UNPREDICTABLE>
    4c94:	5f42494c 	svcpl	0x0042494c
    4c98:	53524556 	cmppl	r2, #360710144	; 0x15800000
    4c9c:	5f4e4f49 	svcpl	0x004e4f49
    4ca0:	205f5f48 	subscs	r5, pc, r8, asr #30
    4ca4:	5f5f0031 	svcpl	0x005f0031
    4ca8:	5f434347 	svcpl	0x00434347
    4cac:	4d4f5441 	cfstrdmi	mvd5, [pc, #-260]	; 4bb0 <_Min_Stack_Size+0x47b0>
    4cb0:	4c5f4349 	mrrcmi	3, 4, r4, pc, cr9	; <UNPREDICTABLE>
    4cb4:	5f474e4f 	svcpl	0x00474e4f
    4cb8:	4b434f4c 	blmi	10d89f0 <_Min_Stack_Size+0x10d85f0>
    4cbc:	4552465f 	ldrbmi	r4, [r2, #-1631]	; 0xfffff9a1
    4cc0:	00322045 	eorseq	r2, r2, r5, asr #32
    4cc4:	4c555f5f 	mrrcmi	15, 5, r5, r5, cr15	; <UNPREDICTABLE>
    4cc8:	55434341 	strbpl	r4, [r3, #-833]	; 0xfffffcbf
    4ccc:	494d5f4d 	stmdbmi	sp, {r0, r2, r3, r6, r8, r9, sl, fp, ip, lr}^
    4cd0:	205f5f4e 	subscs	r5, pc, lr, asr #30
    4cd4:	55302e30 	ldrpl	r2, [r0, #-3632]!	; 0xfffff1d0
    4cd8:	5f004b4c 	svcpl	0x00004b4c
    4cdc:	58455441 	stmdapl	r5, {r0, r6, sl, ip, lr}^
    4ce0:	445f5449 	ldrbmi	r5, [pc], #-1097	; 4ce8 <_Min_Stack_Size+0x48e8>
    4ce4:	4d414e59 	stclmi	14, cr4, [r1, #-356]	; 0xfffffe9c
    4ce8:	415f4349 	cmpmi	pc, r9, asr #6
    4cec:	434f4c4c 	movtmi	r4, #64588	; 0xfc4c
    4cf0:	5f003120 	svcpl	0x00003120
    4cf4:	65656e5f 	strbvs	r6, [r5, #-3679]!	; 0xfffff1a1
    4cf8:	69735f64 	ldmdbvs	r3!, {r2, r5, r6, r8, r9, sl, fp, ip, lr}^
    4cfc:	745f657a 	ldrbvc	r6, [pc], #-1402	; 4d04 <_Min_Stack_Size+0x4904>
    4d00:	495f5f00 	ldmdbmi	pc, {r8, r9, sl, fp, ip, lr}^	; <UNPREDICTABLE>
    4d04:	4d5f544e 	cfldrdmi	mvd5, [pc, #-312]	; 4bd4 <_Min_Stack_Size+0x47d4>
    4d08:	5f5f5841 	svcpl	0x005f5841
    4d0c:	37783020 	ldrbcc	r3, [r8, -r0, lsr #32]!
    4d10:	66666666 	strbtvs	r6, [r6], -r6, ror #12
    4d14:	00666666 	rsbeq	r6, r6, r6, ror #12
    4d18:	52415f5f 	subpl	r5, r1, #380	; 0x17c
    4d1c:	52415f4d 	subpl	r5, r1, #308	; 0x134
    4d20:	37204843 	strcc	r4, [r0, -r3, asr #16]!
    4d24:	204e4500 	subcs	r4, lr, r0, lsl #10
    4d28:	4f495047 	svcmi	0x00495047
    4d2c:	4e49505f 	mcrmi	0, 2, r5, cr9, cr15, {2}
    4d30:	5f00315f 	svcpl	0x0000315f
    4d34:	6572706d 	ldrbvs	r7, [r2, #-109]!	; 0xffffff93
    4d38:	50470063 	subpl	r0, r7, r3, rrx
    4d3c:	505f4f49 	subspl	r4, pc, r9, asr #30
    4d40:	325f4e49 	subscc	r4, pc, #1168	; 0x490
    4d44:	75282820 	strvc	r2, [r8, #-2080]!	; 0xfffff7e0
    4d48:	31746e69 	cmncc	r4, r9, ror #28
    4d4c:	29745f36 	ldmdbcs	r4!, {r1, r2, r4, r5, r8, r9, sl, fp, ip, lr}^
    4d50:	30307830 	eorscc	r7, r0, r0, lsr r8
    4d54:	00293430 	eoreq	r3, r9, r0, lsr r4
    4d58:	4c465f5f 	mcrrmi	15, 5, r5, r6, cr15
    4d5c:	41525f54 	cmpmi	r2, r4, asr pc
    4d60:	5f584944 	svcpl	0x00584944
    4d64:	0032205f 	eorseq	r2, r2, pc, asr r0
    4d68:	4c465f5f 	mcrrmi	15, 5, r5, r6, cr15
    4d6c:	5f323354 	svcpl	0x00323354
    4d70:	5f534148 	svcpl	0x00534148
    4d74:	49464e49 	stmdbmi	r6, {r0, r3, r6, r9, sl, fp, lr}^
    4d78:	5954494e 	ldmdbpl	r4, {r1, r2, r3, r6, r8, fp, lr}^
    4d7c:	31205f5f 			; <UNDEFINED> instruction: 0x31205f5f
    4d80:	544e4900 	strbpl	r4, [lr], #-2304	; 0xfffff700
    4d84:	4d5f3436 	cfldrdmi	mvd3, [pc, #-216]	; 4cb4 <_Min_Stack_Size+0x48b4>
    4d88:	28205841 	stmdacs	r0!, {r0, r6, fp, ip, lr}
    4d8c:	4e495f5f 	mcrmi	15, 2, r5, cr9, cr15, {2}
    4d90:	5f343654 	svcpl	0x00343654
    4d94:	5f58414d 	svcpl	0x0058414d
    4d98:	5f00295f 	svcpl	0x0000295f
    4d9c:	43414c5f 	movtmi	r4, #7263	; 0x1c5f
    4da0:	5f4d5543 	svcpl	0x004d5543
    4da4:	49535045 	ldmdbmi	r3, {r0, r2, r6, ip, lr}^
    4da8:	5f4e4f4c 	svcpl	0x004e4f4c
    4dac:	7830205f 	ldmdavc	r0!, {r0, r1, r2, r3, r4, r6, sp}
    4db0:	332d5031 			; <UNDEFINED> instruction: 0x332d5031
    4db4:	004b4c31 	subeq	r4, fp, r1, lsr ip
    4db8:	63775f5f 	cmnvs	r7, #380	; 0x17c
    4dbc:	5f726168 	svcpl	0x00726168
    4dc0:	205f5f74 	subscs	r5, pc, r4, ror pc	; <UNPREDICTABLE>
    4dc4:	4c5f5f00 	mrrcmi	15, 0, r5, pc, cr0	; <UNPREDICTABLE>
    4dc8:	5f4c4244 	svcpl	0x004c4244
    4dcc:	5f534148 	svcpl	0x00534148
    4dd0:	45495551 	strbmi	r5, [r9, #-1361]	; 0xfffffaaf
    4dd4:	414e5f54 	cmpmi	lr, r4, asr pc
    4dd8:	205f5f4e 	subscs	r5, pc, lr, asr #30
    4ddc:	5f5f0031 	svcpl	0x005f0031
    4de0:	6465656e 	strbtvs	r6, [r5], #-1390	; 0xfffffa92
    4de4:	4c554e5f 	mrrcmi	14, 5, r4, r5, cr15
    4de8:	5f5f004c 	svcpl	0x005f004c
    4dec:	474e4f4c 	strbmi	r4, [lr, -ip, asr #30]
    4df0:	4e4f4c5f 	mcrmi	12, 2, r4, cr15, cr15, {2}
    4df4:	49575f47 	ldmdbmi	r7, {r0, r1, r2, r6, r8, r9, sl, fp, ip, lr}^
    4df8:	5f485444 	svcpl	0x00485444
    4dfc:	3436205f 	ldrtcc	r2, [r6], #-95	; 0xffffffa1
    4e00:	54584500 	ldrbpl	r4, [r8], #-1280	; 0xfffffb00
    4e04:	495f3249 	ldmdbmi	pc, {r0, r3, r6, r9, ip, sp}^	; <UNPREDICTABLE>
    4e08:	38205152 	stmdacc	r0!, {r1, r4, r6, r8, ip, lr}
    4e0c:	4e495700 	cdpmi	7, 4, cr5, cr9, cr0, {0}
    4e10:	414d5f54 	cmpmi	sp, r4, asr pc
    4e14:	5f282058 	svcpl	0x00282058
    4e18:	4e49575f 	mcrmi	7, 2, r5, cr9, cr15, {2}
    4e1c:	414d5f54 	cmpmi	sp, r4, asr pc
    4e20:	295f5f58 	ldmdbcs	pc, {r3, r4, r6, r8, r9, sl, fp, ip, lr}^	; <UNPREDICTABLE>
    4e24:	49504700 	ldmdbmi	r0, {r8, r9, sl, lr}^
    4e28:	49505f4f 	ldmdbmi	r0, {r0, r1, r2, r3, r6, r8, r9, sl, fp, ip, lr}^
    4e2c:	30315f4e 	eorscc	r5, r1, lr, asr #30
    4e30:	75282820 	strvc	r2, [r8, #-2080]!	; 0xfffff7e0
    4e34:	31746e69 	cmncc	r4, r9, ror #28
    4e38:	29745f36 	ldmdbcs	r4!, {r1, r2, r4, r5, r8, r9, sl, fp, ip, lr}^
    4e3c:	34307830 	ldrtcc	r7, [r0], #-2096	; 0xfffff7d0
    4e40:	00293030 	eoreq	r3, r9, r0, lsr r0
    4e44:	49555f5f 	ldmdbmi	r5, {r0, r1, r2, r3, r4, r6, r8, r9, sl, fp, ip, lr}^
    4e48:	465f544e 	ldrbmi	r5, [pc], -lr, asr #8
    4e4c:	36545341 	ldrbcc	r5, [r4], -r1, asr #6
    4e50:	414d5f34 	cmpmi	sp, r4, lsr pc
    4e54:	205f5f58 	subscs	r5, pc, r8, asr pc	; <UNPREDICTABLE>
    4e58:	66667830 			; <UNDEFINED> instruction: 0x66667830
    4e5c:	66666666 	strbtvs	r6, [r6], -r6, ror #12
    4e60:	66666666 	strbtvs	r6, [r6], -r6, ror #12
    4e64:	66666666 	strbtvs	r6, [r6], -r6, ror #12
    4e68:	4c556666 	mrrcmi	6, 6, r6, r5, cr6
    4e6c:	5f5f004c 	svcpl	0x005f004c
    4e70:	5f4d5241 	svcpl	0x004d5241
    4e74:	45005046 	strmi	r5, [r0, #-70]	; 0xffffffba
    4e78:	39495458 	stmdbcc	r9, {r3, r4, r6, sl, ip, lr}^
    4e7c:	20394350 	eorscs	r4, r9, r0, asr r3
    4e80:	54584528 	ldrbpl	r4, [r8], #-1320	; 0xfffffad8
    4e84:	50475f49 	subpl	r5, r7, r9, asr #30
    4e88:	4d5f4f49 	ldclmi	15, cr4, [pc, #-292]	; 4d6c <_Min_Stack_Size+0x496c>
    4e8c:	6e697061 	cdpvs	0, 6, cr7, cr9, cr1, {3}
    4e90:	29745f67 	ldmdbcs	r4!, {r0, r1, r2, r5, r6, r8, r9, sl, fp, ip, lr}^
    4e94:	5458457b 	ldrbpl	r4, [r8], #-1403	; 0xfffffa85
    4e98:	472c3949 	strmi	r3, [ip, -r9, asr #18]!
    4e9c:	434f4950 	movtmi	r4, #63824	; 0xf950
    4ea0:	4950472c 	ldmdbmi	r0, {r2, r3, r5, r8, r9, sl, lr}^
    4ea4:	49505f4f 	ldmdbmi	r0, {r0, r1, r2, r3, r6, r8, r9, sl, fp, ip, lr}^
    4ea8:	2c395f4e 	ldccs	15, cr5, [r9], #-312	; 0xfffffec8
    4eac:	49545845 	ldmdbmi	r4, {r0, r2, r6, fp, ip, lr}^
    4eb0:	52495f39 	subpl	r5, r9, #57, 30	; 0xe4
    4eb4:	5f007d51 	svcpl	0x00007d51
    4eb8:	5f41485f 	svcpl	0x0041485f
    4ebc:	54494249 	strbpl	r4, [r9], #-585	; 0xfffffdb7
    4ec0:	38205f5f 	stmdacc	r0!, {r0, r1, r2, r3, r4, r6, r8, r9, sl, fp, ip, lr}
    4ec4:	415f5f00 	cmpmi	pc, r0, lsl #30
    4ec8:	465f4d52 			; <UNDEFINED> instruction: 0x465f4d52
    4ecc:	55544145 	ldrbpl	r4, [r4, #-325]	; 0xfffffebb
    4ed0:	445f4552 	ldrbmi	r4, [pc], #-1362	; 4ed8 <_Min_Stack_Size+0x4ad8>
    4ed4:	5f005053 	svcpl	0x00005053
    4ed8:	544e495f 	strbpl	r4, [lr], #-2399	; 0xfffff6a1
    4edc:	5f525450 	svcpl	0x00525450
    4ee0:	54444957 	strbpl	r4, [r4], #-2391	; 0xfffff6a9
    4ee4:	205f5f48 	subscs	r5, pc, r8, asr #30
    4ee8:	5f003233 	svcpl	0x00003233
    4eec:	4343475f 	movtmi	r4, #14175	; 0x375f
    4ef0:	4f54415f 	svcmi	0x0054415f
    4ef4:	5f43494d 	svcpl	0x0043494d
    4ef8:	4e4f4c4c 	cdpmi	12, 4, cr4, cr15, cr12, {2}
    4efc:	4f4c5f47 	svcmi	0x004c5f47
    4f00:	465f4b43 	ldrbmi	r4, [pc], -r3, asr #22
    4f04:	20454552 	subcs	r4, r5, r2, asr r5
    4f08:	525f0031 	subspl	r0, pc, #49	; 0x31
    4f0c:	544e4545 	strbpl	r4, [lr], #-1349	; 0xfffffabb
    4f10:	4353415f 	cmpmi	r3, #-1073741801	; 0xc0000017
    4f14:	454d4954 	strbmi	r4, [sp, #-2388]	; 0xfffff6ac
    4f18:	4655425f 			; <UNDEFINED> instruction: 0x4655425f
    4f1c:	72747028 	rsbsvc	r7, r4, #40	; 0x28
    4f20:	28282029 	stmdacs	r8!, {r0, r3, r5, sp}
    4f24:	29727470 	ldmdbcs	r2!, {r4, r5, r6, sl, ip, sp, lr}^
    4f28:	615f3e2d 	cmpvs	pc, sp, lsr #28
    4f2c:	69746373 	ldmdbvs	r4!, {r0, r1, r4, r5, r6, r8, r9, sp, lr}^
    4f30:	625f656d 	subsvs	r6, pc, #457179136	; 0x1b400000
    4f34:	00296675 	eoreq	r6, r9, r5, ror r6
    4f38:	49545845 	ldmdbmi	r4, {r0, r2, r6, fp, ip, lr}^
    4f3c:	41503531 	cmpmi	r0, r1, lsr r5
    4f40:	28203531 	stmdacs	r0!, {r0, r4, r5, r8, sl, ip, sp}
    4f44:	49545845 	ldmdbmi	r4, {r0, r2, r6, fp, ip, lr}^
    4f48:	4950475f 	ldmdbmi	r0, {r0, r1, r2, r3, r4, r6, r8, r9, sl, lr}^
    4f4c:	614d5f4f 	cmpvs	sp, pc, asr #30
    4f50:	676e6970 			; <UNDEFINED> instruction: 0x676e6970
    4f54:	7b29745f 	blvc	a620d8 <_Min_Stack_Size+0xa61cd8>
    4f58:	49545845 	ldmdbmi	r4, {r0, r2, r6, fp, ip, lr}^
    4f5c:	472c3531 			; <UNDEFINED> instruction: 0x472c3531
    4f60:	414f4950 	cmpmi	pc, r0, asr r9	; <UNPREDICTABLE>
    4f64:	4950472c 	ldmdbmi	r0, {r2, r3, r5, r8, r9, sl, lr}^
    4f68:	49505f4f 	ldmdbmi	r0, {r0, r1, r2, r3, r6, r8, r9, sl, fp, ip, lr}^
    4f6c:	35315f4e 	ldrcc	r5, [r1, #-3918]!	; 0xfffff0b2
    4f70:	5458452c 	ldrbpl	r4, [r8], #-1324	; 0xfffffad4
    4f74:	5f353149 	svcpl	0x00353149
    4f78:	7d515249 	lfmvc	f5, 2, [r1, #-292]	; 0xfffffedc
    4f7c:	465f5f00 	ldrbmi	r5, [pc], -r0, lsl #30
    4f80:	3233544c 	eorscc	r5, r3, #76, 8	; 0x4c000000
    4f84:	494d5f58 	stmdbmi	sp, {r3, r4, r6, r8, r9, sl, fp, ip, lr}^
    4f88:	205f5f4e 	subscs	r5, pc, lr, asr #30
    4f8c:	32322e32 	eorscc	r2, r2, #800	; 0x320
    4f90:	33373035 	teqcc	r7, #53	; 0x35
    4f94:	35383538 	ldrcc	r3, [r8, #-1336]!	; 0xfffffac8
    4f98:	30323730 	eorscc	r3, r2, r0, lsr r7
    4f9c:	2d653431 	cfstrdcs	mvd3, [r5, #-196]!	; 0xffffff3c
    4fa0:	46383033 			; <UNDEFINED> instruction: 0x46383033
    4fa4:	00783233 	rsbseq	r3, r8, r3, lsr r2
    4fa8:	4545525f 	strbmi	r5, [r5, #-607]	; 0xfffffda1
    4fac:	525f544e 	subspl	r5, pc, #1308622848	; 0x4e000000
    4fb0:	34444e41 	strbcc	r4, [r4], #-3649	; 0xfffff1bf
    4fb4:	554d5f38 	strbpl	r5, [sp, #-3896]	; 0xfffff0c8
    4fb8:	7028544c 	eorvc	r5, r8, ip, asr #8
    4fbc:	20297274 	eorcs	r7, r9, r4, ror r2
    4fc0:	74702828 	ldrbtvc	r2, [r0], #-2088	; 0xfffff7d8
    4fc4:	3e2d2972 			; <UNDEFINED> instruction: 0x3e2d2972
    4fc8:	3834725f 	ldmdacc	r4!, {r0, r1, r2, r3, r4, r6, r9, ip, sp, lr}
    4fcc:	6d5f3e2d 	ldclvs	14, cr3, [pc, #-180]	; 4f20 <_Min_Stack_Size+0x4b20>
    4fd0:	29746c75 	ldmdbcs	r4!, {r0, r2, r4, r5, r6, sl, fp, sp, lr}^
    4fd4:	465f5f00 	ldrbmi	r5, [pc], -r0, lsl #30
    4fd8:	3436544c 	ldrtcc	r5, [r6], #-1100	; 0xfffffbb4
    4fdc:	58414d5f 	stmdapl	r1, {r0, r1, r2, r3, r4, r6, r8, sl, fp, lr}^
    4fe0:	5058455f 	subspl	r4, r8, pc, asr r5
    4fe4:	31205f5f 			; <UNDEFINED> instruction: 0x31205f5f
    4fe8:	00343230 	eorseq	r3, r4, r0, lsr r2
    4fec:	65725f5f 	ldrbvs	r5, [r2, #-3935]!	; 0xfffff0a1
    4ff0:	6e727574 	mrcvs	5, 3, r7, cr2, cr4, {3}
    4ff4:	77745f73 			; <UNDEFINED> instruction: 0x77745f73
    4ff8:	20656369 	rsbcs	r6, r5, r9, ror #6
    4ffc:	74615f5f 	strbtvc	r5, [r1], #-3935	; 0xfffff0a1
    5000:	62697274 	rsbvs	r7, r9, #116, 4	; 0x40000007
    5004:	5f657475 	svcpl	0x00657475
    5008:	5f28285f 	svcpl	0x0028285f
    500c:	7465725f 	strbtvc	r7, [r5], #-607	; 0xfffffda1
    5010:	736e7275 	cmnvc	lr, #1342177287	; 0x50000007
    5014:	6977745f 	ldmdbvs	r7!, {r0, r1, r2, r3, r4, r6, sl, ip, sp, lr}^
    5018:	5f5f6563 	svcpl	0x005f6563
    501c:	5f002929 	svcpl	0x00002929
    5020:	4843575f 	stmdami	r3, {r0, r1, r2, r3, r4, r6, r8, r9, sl, ip, lr}^
    5024:	545f5241 	ldrbpl	r5, [pc], #-577	; 502c <_Min_Stack_Size+0x4c2c>
    5028:	424d0020 	submi	r0, sp, #32
    502c:	5255435f 	subspl	r4, r5, #2080374785	; 0x7c000001
    5030:	58414d5f 	stmdapl	r1, {r0, r1, r2, r3, r4, r6, r8, sl, fp, lr}^
    5034:	6c5f5f20 	mrrcvs	15, 2, r5, pc, cr0	; <UNPREDICTABLE>
    5038:	6c61636f 	stclvs	3, cr6, [r1], #-444	; 0xfffffe44
    503c:	626d5f65 	rsbvs	r5, sp, #404	; 0x194
    5040:	7275635f 	rsbsvc	r6, r5, #2080374785	; 0x7c000001
    5044:	78616d5f 	stmdavc	r1!, {r0, r1, r2, r3, r4, r6, r8, sl, fp, sp, lr}^
    5048:	5f002928 	svcpl	0x00002928
    504c:	544c465f 	strbpl	r4, [ip], #-1631	; 0xfffff9a1
    5050:	4d5f3436 	cfldrdmi	mvd3, [pc, #-216]	; 4f80 <_Min_Stack_Size+0x4b80>
    5054:	5f5f4e49 	svcpl	0x005f4e49
    5058:	322e3220 	eorcc	r3, lr, #32, 4
    505c:	37303532 			; <UNDEFINED> instruction: 0x37303532
    5060:	38353833 	ldmdacc	r5!, {r0, r1, r4, r5, fp, ip, sp}
    5064:	32373035 	eorscc	r3, r7, #53	; 0x35
    5068:	65343130 	ldrvs	r3, [r4, #-304]!	; 0xfffffed0
    506c:	3830332d 	ldmdacc	r0!, {r0, r2, r3, r5, r8, r9, ip, sp}
    5070:	00343646 	eorseq	r3, r4, r6, asr #12
    5074:	695f5f5f 	ldmdbvs	pc, {r0, r1, r2, r3, r4, r6, r8, r9, sl, fp, ip, lr}^	; <UNPREDICTABLE>
    5078:	3233746e 	eorscc	r7, r3, #1845493760	; 0x6e000000
    507c:	645f745f 	ldrbvs	r7, [pc], #-1119	; 5084 <_Min_Stack_Size+0x4c84>
    5080:	6e696665 	cdpvs	6, 6, cr6, cr9, cr5, {3}
    5084:	31206465 			; <UNDEFINED> instruction: 0x31206465
    5088:	61675f00 	cmnvs	r7, r0, lsl #30
    508c:	5f616d6d 	svcpl	0x00616d6d
    5090:	6e676973 			; <UNDEFINED> instruction: 0x6e676973
    5094:	006d6167 	rsbeq	r6, sp, r7, ror #2
    5098:	32425041 	subcc	r5, r2, #65	; 0x41
    509c:	52545352 	subspl	r5, r4, #1207959553	; 0x48000001
    50a0:	465f5f00 	ldrbmi	r5, [pc], -r0, lsl #30
    50a4:	4d5f544c 	cfldrdmi	mvd5, [pc, #-304]	; 4f7c <_Min_Stack_Size+0x4b7c>
    50a8:	455f4e49 	ldrbmi	r4, [pc, #-3657]	; 4267 <_Min_Stack_Size+0x3e67>
    50ac:	5f5f5058 	svcpl	0x005f5058
    50b0:	312d2820 			; <UNDEFINED> instruction: 0x312d2820
    50b4:	00293532 	eoreq	r3, r9, r2, lsr r5
    50b8:	49575f5f 	ldmdbmi	r7, {r0, r1, r2, r3, r4, r6, r8, r9, sl, fp, ip, lr}^
    50bc:	575f544e 	ldrbpl	r5, [pc, -lr, asr #8]
    50c0:	48544449 	ldmdami	r4, {r0, r3, r6, sl, lr}^
    50c4:	33205f5f 			; <UNDEFINED> instruction: 0x33205f5f
    50c8:	5f5f0032 	svcpl	0x005f0032
    50cc:	36544e49 	ldrbcc	r4, [r4], -r9, asr #28
    50d0:	59545f34 	ldmdbpl	r4, {r2, r4, r5, r8, r9, sl, fp, ip, lr}^
    50d4:	5f5f4550 	svcpl	0x005f4550
    50d8:	6e6f6c20 	cdpvs	12, 6, cr6, cr15, cr0, {1}
    50dc:	6f6c2067 	svcvs	0x006c2067
    50e0:	6920676e 	stmdbvs	r0!, {r1, r2, r3, r5, r6, r8, r9, sl, sp, lr}
    50e4:	5f00746e 	svcpl	0x0000746e
    50e8:	6365735f 	cmnvs	r5, #2080374785	; 0x7c000001
    50ec:	6e6f6974 			; <UNDEFINED> instruction: 0x6e6f6974
    50f0:	20297828 	eorcs	r7, r9, r8, lsr #16
    50f4:	74615f5f 	strbtvc	r5, [r1], #-3935	; 0xfffff0a1
    50f8:	62697274 	rsbvs	r7, r9, #116, 4	; 0x40000007
    50fc:	5f657475 	svcpl	0x00657475
    5100:	5f28285f 	svcpl	0x0028285f
    5104:	6365735f 	cmnvs	r5, #2080374785	; 0x7c000001
    5108:	6e6f6974 			; <UNDEFINED> instruction: 0x6e6f6974
    510c:	78285f5f 	stmdavc	r8!, {r0, r1, r2, r3, r4, r6, r8, r9, sl, fp, ip, lr}
    5110:	00292929 	eoreq	r2, r9, r9, lsr #18
    5114:	464c5f5f 			; <UNDEFINED> instruction: 0x464c5f5f
    5118:	54434152 	strbpl	r4, [r3], #-338	; 0xfffffeae
    511c:	4942465f 	stmdbmi	r2, {r0, r1, r2, r3, r4, r6, r9, sl, lr}^
    5120:	205f5f54 	subscs	r5, pc, r4, asr pc	; <UNPREDICTABLE>
    5124:	5f003133 	svcpl	0x00003133
    5128:	4148435f 	cmpmi	r8, pc, asr r3
    512c:	49425f52 	stmdbmi	r2, {r1, r4, r6, r8, r9, sl, fp, ip, lr}^
    5130:	205f5f54 	subscs	r5, pc, r4, asr pc	; <UNPREDICTABLE>
    5134:	58450038 	stmdapl	r5, {r3, r4, r5}^
    5138:	505f4954 	subspl	r4, pc, r4, asr r9	; <UNPREDICTABLE>
    513c:	5f004e49 	svcpl	0x00004e49
    5140:	4453425f 	ldrbmi	r4, [r3], #-607	; 0xfffffda1
    5144:	5349565f 	movtpl	r5, #38495	; 0x965f
    5148:	454c4249 	strbmi	r4, [ip, #-585]	; 0xfffffdb7
    514c:	49003120 	stmdbmi	r0, {r5, r8, ip, sp}
    5150:	4c5f544e 	cfldrdmi	mvd5, [pc], {78}	; 0x4e
    5154:	54534145 	ldrbpl	r4, [r3], #-325	; 0xfffffebb
    5158:	4d5f3631 	ldclmi	6, cr3, [pc, #-196]	; 509c <_Min_Stack_Size+0x4c9c>
    515c:	28204e49 	stmdacs	r0!, {r0, r3, r6, r9, sl, fp, lr}
    5160:	495f5f2d 	ldmdbmi	pc, {r0, r2, r3, r5, r8, r9, sl, fp, ip, lr}^	; <UNPREDICTABLE>
    5164:	4c5f544e 	cfldrdmi	mvd5, [pc], {78}	; 0x4e
    5168:	54534145 	ldrbpl	r4, [r3], #-325	; 0xfffffebb
    516c:	4d5f3631 	ldclmi	6, cr3, [pc, #-196]	; 50b0 <_Min_Stack_Size+0x4cb0>
    5170:	5f5f5841 	svcpl	0x005f5841
    5174:	31202d20 			; <UNDEFINED> instruction: 0x31202d20
    5178:	5f5f0029 	svcpl	0x005f0029
    517c:	73756e75 	cmnvc	r5, #1872	; 0x750
    5180:	5f206465 	svcpl	0x00206465
    5184:	7474615f 	ldrbtvc	r6, [r4], #-351	; 0xfffffea1
    5188:	75626972 	strbvc	r6, [r2, #-2418]!	; 0xfffff68e
    518c:	5f5f6574 	svcpl	0x005f6574
    5190:	5f5f2828 	svcpl	0x005f2828
    5194:	73756e75 	cmnvc	r5, #1872	; 0x750
    5198:	5f5f6465 	svcpl	0x005f6465
    519c:	47002929 	strmi	r2, [r0, -r9, lsr #18]
    51a0:	5f4f4950 	svcpl	0x004f4950
    51a4:	4b434f4c 	blmi	10d8edc <_Min_Stack_Size+0x10d8adc>
    51a8:	204b4f5f 	subcs	r4, fp, pc, asr pc
    51ac:	6f430031 	svcvs	0x00430031
    51b0:	78657472 	stmdavc	r5!, {r1, r4, r5, r6, sl, ip, sp, lr}^
    51b4:	5f334d5f 	svcpl	0x00334d5f
    51b8:	65746e49 	ldrbvs	r6, [r4, #-3657]!	; 0xfffff1b7
    51bc:	6c616e72 	stclvs	14, cr6, [r1], #-456	; 0xfffffe38
    51c0:	7265505f 	rsbvc	r5, r5, #95	; 0x5f
    51c4:	65687069 	strbvs	r7, [r8, #-105]!	; 0xffffff97
    51c8:	736c6172 	cmnvc	ip, #-2147483620	; 0x8000001c
    51cc:	5341425f 	movtpl	r4, #4703	; 0x125f
    51d0:	78302045 	ldmdavc	r0!, {r0, r2, r6, sp}
    51d4:	30303045 	eorscc	r3, r0, r5, asr #32
    51d8:	30303030 	eorscc	r3, r0, r0, lsr r0
    51dc:	5f004c55 	svcpl	0x00004c55
    51e0:	65657266 	strbvs	r7, [r5, #-614]!	; 0xfffffd9a
    51e4:	7473696c 	ldrbtvc	r6, [r3], #-2412	; 0xfffff694
    51e8:	20314400 	eorscs	r4, r1, r0, lsl #8
    51ec:	4f495047 	svcmi	0x00495047
    51f0:	4e49505f 	mcrmi	0, 2, r5, cr9, cr15, {2}
    51f4:	5f00315f 	svcpl	0x0000315f
    51f8:	5246555f 	subpl	r5, r6, #398458880	; 0x17c00000
    51fc:	5f544341 	svcpl	0x00544341
    5200:	5f58414d 	svcpl	0x0058414d
    5204:	5830205f 	ldmdapl	r0!, {r0, r1, r2, r3, r4, r6, sp}
    5208:	46464646 	strbmi	r4, [r6], -r6, asr #12
    520c:	36312d50 			; <UNDEFINED> instruction: 0x36312d50
    5210:	52005255 	andpl	r5, r0, #1342177285	; 0x50000005
    5214:	475f4343 	ldrbmi	r4, [pc, -r3, asr #6]
    5218:	434f4950 	movtmi	r4, #63824	; 0xf950
    521c:	4b4c435f 	blmi	1315fa0 <_Min_Stack_Size+0x1315ba0>
    5220:	284e455f 	stmdacs	lr, {r0, r1, r2, r3, r4, r6, r8, sl, lr}^
    5224:	52282029 	eorpl	r2, r8, #41	; 0x29
    5228:	3e2d4343 	cdpcc	3, 2, cr4, cr13, cr3, {2}
    522c:	32425041 	subcc	r5, r2, #65	; 0x41
    5230:	20524e45 	subscs	r4, r2, r5, asr #28
    5234:	31203d7c 			; <UNDEFINED> instruction: 0x31203d7c
    5238:	29343c3c 	ldmdbcs	r4!, {r2, r3, r4, r5, sl, fp, ip, sp}
    523c:	5f5f5f00 	svcpl	0x005f5f00
    5240:	5f746e69 	svcpl	0x00746e69
    5244:	7361656c 	cmnvc	r1, #108, 10	; 0x1b000000
    5248:	5f343674 	svcpl	0x00343674
    524c:	65645f74 	strbvs	r5, [r4, #-3956]!	; 0xfffff08c
    5250:	656e6966 	strbvs	r6, [lr, #-2406]!	; 0xfffff69a
    5254:	00312064 	eorseq	r2, r1, r4, rrx
    5258:	5f434352 	svcpl	0x00434352
    525c:	4f495047 	svcmi	0x00495047
    5260:	4c435f42 	mcrrmi	15, 4, r5, r3, cr2
    5264:	4e455f4b 	cdpmi	15, 4, cr5, cr5, cr11, {2}
    5268:	28202928 	stmdacs	r0!, {r3, r5, r8, fp, sp}
    526c:	2d434352 	stclcs	3, cr4, [r3, #-328]	; 0xfffffeb8
    5270:	4250413e 	subsmi	r4, r0, #-2147483633	; 0x8000000f
    5274:	524e4532 	subpl	r4, lr, #209715200	; 0xc800000
    5278:	203d7c20 	eorscs	r7, sp, r0, lsr #24
    527c:	333c3c31 	teqcc	ip, #12544	; 0x3100
    5280:	575f0029 	ldrbpl	r0, [pc, -r9, lsr #32]
    5284:	5f544e41 	svcpl	0x00544e41
    5288:	4e454552 	mcrmi	5, 2, r4, cr5, cr2, {2}
    528c:	4d535f54 	ldclmi	15, cr5, [r3, #-336]	; 0xfffffeb0
    5290:	204c4c41 	subcs	r4, ip, r1, asr #24
    5294:	675f0031 	smmlarvs	pc, r1, r0, r0	; <UNPREDICTABLE>
    5298:	0065756c 	rsbeq	r7, r5, ip, ror #10
    529c:	49545845 	ldmdbmi	r4, {r0, r2, r6, fp, ip, lr}^
    52a0:	44503031 	ldrbmi	r3, [r0], #-49	; 0xffffffcf
    52a4:	28203031 	stmdacs	r0!, {r0, r4, r5, ip, sp}
    52a8:	49545845 	ldmdbmi	r4, {r0, r2, r6, fp, ip, lr}^
    52ac:	4950475f 	ldmdbmi	r0, {r0, r1, r2, r3, r4, r6, r8, r9, sl, lr}^
    52b0:	614d5f4f 	cmpvs	sp, pc, asr #30
    52b4:	676e6970 			; <UNDEFINED> instruction: 0x676e6970
    52b8:	7b29745f 	blvc	a6243c <_Min_Stack_Size+0xa6203c>
    52bc:	49545845 	ldmdbmi	r4, {r0, r2, r6, fp, ip, lr}^
    52c0:	472c3031 			; <UNDEFINED> instruction: 0x472c3031
    52c4:	444f4950 	strbmi	r4, [pc], #-2384	; 52cc <_Min_Stack_Size+0x4ecc>
    52c8:	4950472c 	ldmdbmi	r0, {r2, r3, r5, r8, r9, sl, lr}^
    52cc:	49505f4f 	ldmdbmi	r0, {r0, r1, r2, r3, r6, r8, r9, sl, fp, ip, lr}^
    52d0:	30315f4e 	eorscc	r5, r1, lr, asr #30
    52d4:	5458452c 	ldrbpl	r4, [r8], #-1324	; 0xfffffad4
    52d8:	5f303149 	svcpl	0x00303149
    52dc:	7d515249 	lfmvc	f5, 2, [r1, #-292]	; 0xfffffedc
    52e0:	626d5f00 	rsbvs	r5, sp, #0, 30
    52e4:	74617473 	strbtvc	r7, [r1], #-1139	; 0xfffffb8d
    52e8:	00745f65 	rsbseq	r5, r4, r5, ror #30
    52ec:	6769735f 			; <UNDEFINED> instruction: 0x6769735f
    52f0:	5f5f006e 	svcpl	0x005f006e
    52f4:	41524653 	cmpmi	r2, r3, asr r6
    52f8:	495f5443 	ldmdbmi	pc, {r0, r1, r6, sl, ip, lr}^	; <UNPREDICTABLE>
    52fc:	5f544942 	svcpl	0x00544942
    5300:	0030205f 	eorseq	r2, r0, pc, asr r0
    5304:	4654415f 			; <UNDEFINED> instruction: 0x4654415f
    5308:	5f454c49 	svcpl	0x00454c49
    530c:	52554f53 	subspl	r4, r5, #332	; 0x14c
    5310:	31204543 			; <UNDEFINED> instruction: 0x31204543
    5314:	535f5f00 	cmppl	pc, #0, 30
    5318:	4e494454 	mcrmi	4, 2, r4, cr9, cr4, {2}
    531c:	58455f54 	stmdapl	r5, {r2, r4, r6, r8, r9, sl, fp, ip, lr}^
    5320:	29782850 	ldmdbcs	r8!, {r4, r6, fp, sp}^
    5324:	205f5f20 	subscs	r5, pc, r0, lsr #30
    5328:	20782323 	rsbscs	r2, r8, r3, lsr #6
    532c:	5f5f2323 	svcpl	0x005f2323
    5330:	455f5f00 	ldrbmi	r5, [pc, #-3840]	; 4438 <_Min_Stack_Size+0x4038>
    5334:	78285058 	stmdavc	r8!, {r3, r4, r6, ip, lr}
    5338:	5f5f2029 	svcpl	0x005f2029
    533c:	78232320 	stmdavc	r3!, {r5, r8, r9, sp}
    5340:	5f232320 	svcpl	0x00232320
    5344:	5f5f005f 	svcpl	0x005f005f
    5348:	45545942 	ldrbmi	r5, [r4, #-2370]	; 0xfffff6be
    534c:	44524f5f 	ldrbmi	r4, [r2], #-3935	; 0xfffff0a1
    5350:	5f5f5245 	svcpl	0x005f5245
    5354:	4f5f5f20 	svcmi	0x005f5f20
    5358:	52454452 	subpl	r4, r5, #1375731712	; 0x52000000
    535c:	54494c5f 	strbpl	r4, [r9], #-3167	; 0xfffff3a1
    5360:	5f454c54 	svcpl	0x00454c54
    5364:	49444e45 	stmdbmi	r4, {r0, r2, r6, r9, sl, fp, lr}^
    5368:	5f5f4e41 	svcpl	0x005f4e41
    536c:	465f5f00 	ldrbmi	r5, [pc], -r0, lsl #30
    5370:	3233544c 	eorscc	r5, r3, #76, 8	; 0x4c000000
    5374:	5350455f 	cmppl	r0, #398458880	; 0x17c00000
    5378:	4e4f4c49 	cdpmi	12, 4, cr4, cr15, cr9, {2}
    537c:	31205f5f 			; <UNDEFINED> instruction: 0x31205f5f
    5380:	3239312e 	eorscc	r3, r9, #-2147483637	; 0x8000000b
    5384:	38323930 	ldmdacc	r2!, {r4, r5, r8, fp, ip, sp}
    5388:	30353539 	eorscc	r3, r5, r9, lsr r5
    538c:	32313837 	eorscc	r3, r1, #3604480	; 0x370000
    5390:	372d6535 			; <UNDEFINED> instruction: 0x372d6535
    5394:	00323346 	eorseq	r3, r2, r6, asr #6
    5398:	52415f5f 	subpl	r5, r1, #380	; 0x17c
    539c:	454e5f4d 	strbmi	r5, [lr, #-3917]	; 0xfffff0b3
    53a0:	465f4e4f 	ldrbmi	r4, [pc], -pc, asr #28
    53a4:	4e5f0050 	mrcmi	0, 2, r0, cr15, cr0, {2}
    53a8:	5248544f 	subpl	r5, r8, #1325400064	; 0x4f000000
    53ac:	0020574f 	eoreq	r5, r0, pc, asr #14
    53b0:	4349564e 	movtmi	r5, #38478	; 0x964e
    53b4:	4553495f 	ldrbmi	r4, [r3, #-2399]	; 0xfffff6a1
    53b8:	2a203252 	bcs	811d08 <_Min_Stack_Size+0x811908>
    53bc:	6c6f7628 	stclvs	6, cr7, [pc], #-160	; 5324 <_Min_Stack_Size+0x4f24>
    53c0:	6c697461 	cfstrdvs	mvd7, [r9], #-388	; 0xfffffe7c
    53c4:	69752065 	ldmdbvs	r5!, {r0, r2, r5, r6, sp}^
    53c8:	3233746e 	eorscc	r7, r3, #1845493760	; 0x6e000000
    53cc:	292a745f 	stmdbcs	sl!, {r0, r1, r2, r3, r4, r6, sl, ip, sp, lr}
    53d0:	49564e28 	ldmdbmi	r6, {r3, r5, r9, sl, fp, lr}^
    53d4:	41425f43 	cmpmi	r2, r3, asr #30
    53d8:	2b204553 	blcs	81692c <_Min_Stack_Size+0x81652c>
    53dc:	38783020 	ldmdacc	r8!, {r5, ip, sp}^
    53e0:	5f5f0029 	svcpl	0x005f0029
    53e4:	52464c4c 	subpl	r4, r6, #76, 24	; 0x4c00
    53e8:	5f544341 	svcpl	0x00544341
    53ec:	5f58414d 	svcpl	0x0058414d
    53f0:	5830205f 	ldmdapl	r0!, {r0, r1, r2, r3, r4, r6, sp}
    53f4:	46464637 			; <UNDEFINED> instruction: 0x46464637
    53f8:	46464646 	strbmi	r4, [r6], -r6, asr #12
    53fc:	46464646 	strbmi	r4, [r6], -r6, asr #12
    5400:	46464646 	strbmi	r4, [r6], -r6, asr #12
    5404:	33362d50 	teqcc	r6, #80, 26	; 0x1400
    5408:	00524c4c 	subseq	r4, r2, ip, asr #24
    540c:	534e415f 	movtpl	r4, #57695	; 0xe15f
    5410:	43454449 	movtmi	r4, #21577	; 0x5449
    5414:	5f485f4c 	svcpl	0x00485f4c
    5418:	58450020 	stmdapl	r5, {r5}^
    541c:	30314954 	eorscc	r4, r1, r4, asr r9
    5420:	5152495f 	cmppl	r2, pc, asr r9
    5424:	00303420 	eorseq	r3, r0, r0, lsr #8
    5428:	4f505f5f 	svcmi	0x00505f5f
    542c:	5f584953 	svcpl	0x00584953
    5430:	49534956 	ldmdbmi	r3, {r1, r2, r4, r6, r8, fp, lr}^
    5434:	20454c42 	subcs	r4, r5, r2, asr #24
    5438:	38303032 	ldmdacc	r0!, {r1, r4, r5, ip, sp}
    543c:	45003930 	strmi	r3, [r0, #-2352]	; 0xfffff6d0
    5440:	39495458 	stmdbcc	r9, {r3, r4, r6, sl, ip, lr}^
    5444:	20394450 	eorscs	r4, r9, r0, asr r4
    5448:	54584528 	ldrbpl	r4, [r8], #-1320	; 0xfffffad8
    544c:	50475f49 	subpl	r5, r7, r9, asr #30
    5450:	4d5f4f49 	ldclmi	15, cr4, [pc, #-292]	; 5334 <_Min_Stack_Size+0x4f34>
    5454:	6e697061 	cdpvs	0, 6, cr7, cr9, cr1, {3}
    5458:	29745f67 	ldmdbcs	r4!, {r0, r1, r2, r5, r6, r8, r9, sl, fp, ip, lr}^
    545c:	5458457b 	ldrbpl	r4, [r8], #-1403	; 0xfffffa85
    5460:	472c3949 	strmi	r3, [ip, -r9, asr #18]!
    5464:	444f4950 	strbmi	r4, [pc], #-2384	; 546c <_Min_Stack_Size+0x506c>
    5468:	4950472c 	ldmdbmi	r0, {r2, r3, r5, r8, r9, sl, lr}^
    546c:	49505f4f 	ldmdbmi	r0, {r0, r1, r2, r3, r6, r8, r9, sl, fp, ip, lr}^
    5470:	2c395f4e 	ldccs	15, cr5, [r9], #-312	; 0xfffffec8
    5474:	49545845 	ldmdbmi	r4, {r0, r2, r6, fp, ip, lr}^
    5478:	52495f39 	subpl	r5, r9, #57, 30	; 0xe4
    547c:	45007d51 	strmi	r7, [r0, #-3409]	; 0xfffff2af
    5480:	31495458 	cmpcc	r9, r8, asr r4
    5484:	52495f34 	subpl	r5, r9, #52, 30	; 0xd0
    5488:	30342051 	eorscc	r2, r4, r1, asr r0
    548c:	555f5f00 	ldrbpl	r5, [pc, #-3840]	; 4594 <_Min_Stack_Size+0x4194>
    5490:	43415246 	movtmi	r5, #4678	; 0x1246
    5494:	42465f54 	submi	r5, r6, #84, 30	; 0x150
    5498:	5f5f5449 	svcpl	0x005f5449
    549c:	00363120 	eorseq	r3, r6, r0, lsr #2
    54a0:	49545845 	ldmdbmi	r4, {r0, r2, r6, fp, ip, lr}^
    54a4:	5152495f 	cmppl	r2, pc, asr r9
    54a8:	7369445f 	cmnvc	r9, #1593835520	; 0x5f000000
    54ac:	656c6261 	strbvs	r6, [ip, #-609]!	; 0xfffffd9f
    54b0:	5f003020 	svcpl	0x00003020
    54b4:	5144555f 	cmppl	r4, pc, asr r5
    54b8:	4942465f 	stmdbmi	r2, {r0, r1, r2, r3, r4, r6, r9, sl, lr}^
    54bc:	205f5f54 	subscs	r5, pc, r4, asr pc	; <UNPREDICTABLE>
    54c0:	5f003436 	svcpl	0x00003436
    54c4:	554e475f 	strbpl	r4, [lr, #-1887]	; 0xfffff8a1
    54c8:	4b494c43 	blmi	12585dc <_Min_Stack_Size+0x12581dc>
    54cc:	55425f45 	strbpl	r5, [r2, #-3909]	; 0xfffff0bb
    54d0:	49544c49 	ldmdbmi	r4, {r0, r3, r6, sl, fp, lr}^
    54d4:	454d5f4e 	strbmi	r5, [sp, #-3918]	; 0xfffff0b2
    54d8:	5950434d 	ldmdbpl	r0, {r0, r2, r3, r6, r8, r9, lr}^
    54dc:	47003120 	strmi	r3, [r0, -r0, lsr #2]
    54e0:	454f4950 	strbmi	r4, [pc, #-2384]	; 4b98 <_Min_Stack_Size+0x4798>
    54e4:	47282820 	strmi	r2, [r8, -r0, lsr #16]!
    54e8:	5f4f4950 	svcpl	0x004f4950
    54ec:	65707954 	ldrbvs	r7, [r0, #-2388]!	; 0xfffff6ac
    54f0:	20666544 	rsbcs	r6, r6, r4, asr #10
    54f4:	5047292a 	subpl	r2, r7, sl, lsr #18
    54f8:	5f454f49 	svcpl	0x00454f49
    54fc:	45534142 	ldrbmi	r4, [r3, #-322]	; 0xfffffebe
    5500:	5f5f0029 	svcpl	0x005f0029
    5504:	4c42444c 	cfstrdmi	mvd4, [r2], {76}	; 0x4c
    5508:	58414d5f 	stmdapl	r1, {r0, r1, r2, r3, r4, r6, r8, sl, fp, lr}^
    550c:	5f30315f 	svcpl	0x0030315f
    5510:	5f505845 	svcpl	0x00505845
    5514:	3033205f 	eorscc	r2, r3, pc, asr r0
    5518:	5f5f0038 	svcpl	0x005f0038
    551c:	5f4d5241 	svcpl	0x004d5241
    5520:	54414546 	strbpl	r4, [r1], #-1350	; 0xfffffaba
    5524:	5f455255 	svcpl	0x00455255
    5528:	52504f43 	subspl	r4, r0, #268	; 0x10c
    552c:	3120434f 			; <UNDEFINED> instruction: 0x3120434f
    5530:	5f5f0035 	svcpl	0x005f0035
    5534:	665f6673 			; <UNDEFINED> instruction: 0x665f6673
    5538:	5f656b61 	svcpl	0x00656b61
    553c:	6f647473 	svcvs	0x00647473
    5540:	5f007475 	svcpl	0x00007475
    5544:	4c42445f 	cfstrdmi	mvd4, [r2], {95}	; 0x5f
    5548:	4e45445f 	mcrmi	4, 2, r4, cr5, cr15, {2}
    554c:	5f4d524f 	svcpl	0x004d524f
    5550:	5f4e494d 	svcpl	0x004e494d
    5554:	2828205f 	stmdacs	r8!, {r0, r1, r2, r3, r4, r6, sp}
    5558:	62756f64 	rsbsvs	r6, r5, #100, 30	; 0x190
    555c:	3429656c 	strtcc	r6, [r9], #-1388	; 0xfffffa94
    5560:	3034392e 	eorscc	r3, r4, lr, lsr #18
    5564:	34363536 	ldrtcc	r3, [r6], #-1334	; 0xfffffaca
    5568:	31343835 	teqcc	r4, r5, lsr r8
    556c:	35363432 	ldrcc	r3, [r6, #-1074]!	; 0xfffffbce
    5570:	332d6534 			; <UNDEFINED> instruction: 0x332d6534
    5574:	294c3432 	stmdbcs	ip, {r1, r4, r5, sl, ip, sp}^
    5578:	6c665f00 	stclvs	15, cr5, [r6], #-0
    557c:	32736761 	rsbscc	r6, r3, #25427968	; 0x1840000
    5580:	495f5f00 	ldmdbmi	pc, {r8, r9, sl, fp, ip, lr}^	; <UNPREDICTABLE>
    5584:	465f544e 	ldrbmi	r5, [pc], -lr, asr #8
    5588:	33545341 	cmpcc	r4, #67108865	; 0x4000001
    558c:	59545f32 	ldmdbpl	r4, {r1, r4, r5, r8, r9, sl, fp, ip, lr}^
    5590:	5f5f4550 	svcpl	0x005f4550
    5594:	746e6920 	strbtvc	r6, [lr], #-2336	; 0xfffff6e0
    5598:	49555f00 	ldmdbmi	r5, {r8, r9, sl, fp, ip, lr}^
    559c:	3436544e 	ldrtcc	r5, [r6], #-1102	; 0xfffffbb2
    55a0:	445f545f 	ldrbmi	r5, [pc], #-1119	; 55a8 <_Min_Stack_Size+0x51a8>
    55a4:	414c4345 	cmpmi	ip, r5, asr #6
    55a8:	20444552 	subcs	r4, r4, r2, asr r5
    55ac:	4d545300 	ldclmi	3, cr5, [r4, #-0]
    55b0:	31463233 	cmpcc	r6, r3, lsr r2
    55b4:	36433330 			; <UNDEFINED> instruction: 0x36433330
    55b8:	31207854 			; <UNDEFINED> instruction: 0x31207854
    55bc:	6d655f00 	stclvs	15, cr5, [r5, #-0]
    55c0:	65677265 	strbvs	r7, [r7, #-613]!	; 0xfffffd9b
    55c4:	0079636e 	rsbseq	r6, r9, lr, ror #6
    55c8:	49545845 	ldmdbmi	r4, {r0, r2, r6, fp, ip, lr}^
    55cc:	00362036 	eorseq	r2, r6, r6, lsr r0
    55d0:	454e5f5f 	strbmi	r5, [lr, #-3935]	; 0xfffff0a1
    55d4:	42494c57 	submi	r4, r9, #22272	; 0x5700
    55d8:	4e494d5f 	mcrmi	13, 2, r4, cr9, cr15, {2}
    55dc:	5f5f524f 	svcpl	0x005f524f
    55e0:	5f003020 	svcpl	0x00003020
    55e4:	41454c5f 	cmpmi	r5, pc, asr ip
    55e8:	20385453 	eorscs	r5, r8, r3, asr r4
    55ec:	22686822 	rsbcs	r6, r8, #2228224	; 0x220000
    55f0:	54584500 	ldrbpl	r4, [r8], #-1280	; 0xfffffb00
    55f4:	495f3549 	ldmdbmi	pc, {r0, r3, r6, r8, sl, ip, sp}^	; <UNPREDICTABLE>
    55f8:	32205152 	eorcc	r5, r0, #-2147483628	; 0x80000014
    55fc:	535f0033 	cmppl	pc, #51	; 0x33
    5600:	54455a49 	strbpl	r5, [r5], #-2633	; 0xfffff5b7
    5604:	5f00205f 	svcpl	0x0000205f
    5608:	544c465f 	strbpl	r4, [ip], #-1631	; 0xfffff9a1
    560c:	485f3436 	ldmdami	pc, {r1, r2, r4, r5, sl, ip, sp}^	; <UNPREDICTABLE>
    5610:	515f5341 	cmppl	pc, r1, asr #6
    5614:	54454955 	strbpl	r4, [r5], #-2389	; 0xfffff6ab
    5618:	4e414e5f 	mcrmi	14, 2, r4, cr1, cr15, {2}
    561c:	31205f5f 			; <UNDEFINED> instruction: 0x31205f5f
    5620:	4e495500 	cdpmi	5, 4, cr5, cr9, cr0, {0}
    5624:	5f323354 	svcpl	0x00323354
    5628:	29782843 	ldmdbcs	r8!, {r0, r1, r6, fp, sp}^
    562c:	555f5f20 	ldrbpl	r5, [pc, #-3872]	; 4714 <_Min_Stack_Size+0x4314>
    5630:	33544e49 	cmpcc	r4, #1168	; 0x490
    5634:	28435f32 	stmdacs	r3, {r1, r4, r5, r8, r9, sl, fp, ip, lr}^
    5638:	5f002978 	svcpl	0x00002978
    563c:	4153555f 	cmpmi	r3, pc, asr r5
    5640:	4d554343 	ldclmi	3, cr4, [r5, #-268]	; 0xfffffef4
    5644:	4942495f 	stmdbmi	r2, {r0, r1, r2, r3, r4, r6, r8, fp, lr}^
    5648:	205f5f54 	subscs	r5, pc, r4, asr pc	; <UNPREDICTABLE>
    564c:	58450038 	stmdapl	r5, {r3, r4, r5}^
    5650:	50394954 	eorspl	r4, r9, r4, asr r9
    5654:	28203941 	stmdacs	r0!, {r0, r6, r8, fp, ip, sp}
    5658:	49545845 	ldmdbmi	r4, {r0, r2, r6, fp, ip, lr}^
    565c:	4950475f 	ldmdbmi	r0, {r0, r1, r2, r3, r4, r6, r8, r9, sl, lr}^
    5660:	614d5f4f 	cmpvs	sp, pc, asr #30
    5664:	676e6970 			; <UNDEFINED> instruction: 0x676e6970
    5668:	7b29745f 	blvc	a627ec <_Min_Stack_Size+0xa623ec>
    566c:	49545845 	ldmdbmi	r4, {r0, r2, r6, fp, ip, lr}^
    5670:	50472c39 	subpl	r2, r7, r9, lsr ip
    5674:	2c414f49 	mcrrcs	15, 4, r4, r1, cr9
    5678:	4f495047 	svcmi	0x00495047
    567c:	4e49505f 	mcrmi	0, 2, r5, cr9, cr15, {2}
    5680:	452c395f 	strmi	r3, [ip, #-2399]!	; 0xfffff6a1
    5684:	39495458 	stmdbcc	r9, {r3, r4, r6, sl, ip, lr}^
    5688:	5152495f 	cmppl	r2, pc, asr r9
    568c:	5f5f007d 	svcpl	0x005f007d
    5690:	5f414455 	svcpl	0x00414455
    5694:	54494246 	strbpl	r4, [r9], #-582	; 0xfffffdba
    5698:	33205f5f 			; <UNDEFINED> instruction: 0x33205f5f
    569c:	5f5f0032 	svcpl	0x005f0032
    56a0:	36544c46 	ldrbcc	r4, [r4], -r6, asr #24
    56a4:	41485f34 	cmpmi	r8, r4, lsr pc
    56a8:	45445f53 	strbmi	r5, [r4, #-3923]	; 0xfffff0ad
    56ac:	4d524f4e 	ldclmi	15, cr4, [r2, #-312]	; 0xfffffec8
    56b0:	31205f5f 			; <UNDEFINED> instruction: 0x31205f5f
    56b4:	465f5f00 	ldrbmi	r5, [pc], -r0, lsl #30
    56b8:	445f544c 	ldrbmi	r5, [pc], #-1100	; 56c0 <_Min_Stack_Size+0x52c0>
    56bc:	5f5f4749 	svcpl	0x005f4749
    56c0:	5f003620 	svcpl	0x00003620
    56c4:	4e49555f 	mcrmi	5, 2, r5, cr9, cr15, {2}
    56c8:	58414d54 	stmdapl	r1, {r2, r4, r6, r8, sl, fp, lr}^
    56cc:	5059545f 	subspl	r5, r9, pc, asr r4
    56d0:	205f5f45 	subscs	r5, pc, r5, asr #30
    56d4:	676e6f6c 	strbvs	r6, [lr, -ip, ror #30]!
    56d8:	6e6f6c20 	cdpvs	12, 6, cr6, cr15, cr0, {1}
    56dc:	6e752067 	cdpvs	0, 7, cr2, cr5, cr7, {3}
    56e0:	6e676973 			; <UNDEFINED> instruction: 0x6e676973
    56e4:	69206465 	stmdbvs	r0!, {r0, r2, r5, r6, sl, sp, lr}
    56e8:	5f00746e 	svcpl	0x0000746e
    56ec:	41484357 	cmpmi	r8, r7, asr r3
    56f0:	5f545f52 	svcpl	0x00545f52
    56f4:	4c434544 	cfstr64mi	mvdx4, [r3], {68}	; 0x44
    56f8:	44455241 	strbmi	r5, [r5], #-577	; 0xfffffdbf
    56fc:	4e490020 	cdpmi	0, 4, cr0, cr9, cr0, {1}
    5700:	41465f54 	cmpmi	r6, r4, asr pc
    5704:	36315453 			; <UNDEFINED> instruction: 0x36315453
    5708:	58414d5f 	stmdapl	r1, {r0, r1, r2, r3, r4, r6, r8, sl, fp, lr}^
    570c:	5f5f2820 	svcpl	0x005f2820
    5710:	5f544e49 	svcpl	0x00544e49
    5714:	54534146 	ldrbpl	r4, [r3], #-326	; 0xfffffeba
    5718:	4d5f3631 	ldclmi	6, cr3, [pc, #-196]	; 565c <_Min_Stack_Size+0x525c>
    571c:	5f5f5841 	svcpl	0x005f5841
    5720:	535f0029 	cmppl	pc, #41	; 0x29
    5724:	525f5359 	subspl	r5, pc, #1677721601	; 0x64000001
    5728:	544e4545 	strbpl	r4, [lr], #-1349	; 0xfffffabb
    572c:	205f485f 	subscs	r4, pc, pc, asr r8	; <UNPREDICTABLE>
    5730:	465f5f00 	ldrbmi	r5, [pc], -r0, lsl #30
    5734:	455f544c 	ldrbmi	r5, [pc, #-1100]	; 52f0 <_Min_Stack_Size+0x4ef0>
    5738:	5f4c4156 	svcpl	0x004c4156
    573c:	4854454d 	ldmdami	r4, {r0, r2, r3, r6, r8, sl, lr}^
    5740:	5f5f444f 	svcpl	0x005f444f
    5744:	5f003020 	svcpl	0x00003020
    5748:	746e695f 	strbtvc	r6, [lr], #-2399	; 0xfffff6a1
    574c:	7361665f 	cmnvc	r1, #99614720	; 0x5f00000
    5750:	5f363174 	svcpl	0x00363174
    5754:	65645f74 	strbvs	r5, [r4, #-3956]!	; 0xfffff08c
    5758:	656e6966 	strbvs	r6, [lr, #-2406]!	; 0xfffff69a
    575c:	00312064 	eorseq	r2, r1, r4, rrx
    5760:	43535f5f 	cmpmi	r3, #380	; 0x17c
    5764:	5f524148 	svcpl	0x00524148
    5768:	5f58414d 	svcpl	0x0058414d
    576c:	7830205f 	ldmdavc	r0!, {r0, r1, r2, r3, r4, r6, sp}
    5770:	4e006637 	mcrmi	6, 0, r6, cr0, cr7, {1}
    5774:	5f434956 	svcpl	0x00434956
    5778:	34515249 	ldrbcc	r5, [r1], #-585	; 0xfffffdb7
    577c:	58455f30 	stmdapl	r5, {r4, r5, r8, r9, sl, fp, ip, lr}^
    5780:	30314954 	eorscc	r4, r1, r4, asr r9
    5784:	5f35315f 	svcpl	0x0035315f
    5788:	62616e45 	rsbvs	r6, r1, #1104	; 0x450
    578c:	2820656c 	stmdacs	r0!, {r2, r3, r5, r6, r8, sl, sp, lr}
    5790:	4349564e 	movtmi	r5, #38478	; 0x964e
    5794:	4553495f 	ldrbmi	r4, [r3, #-2399]	; 0xfffff6a1
    5798:	7c203152 	stfvcs	f3, [r0], #-328	; 0xfffffeb8
    579c:	3128203d 			; <UNDEFINED> instruction: 0x3128203d
    57a0:	29383c3c 	ldmdbcs	r8!, {r2, r3, r4, r5, sl, fp, ip, sp}
    57a4:	5f5f0029 	svcpl	0x005f0029
    57a8:	5f544e49 	svcpl	0x00544e49
    57ac:	54534146 	ldrbpl	r4, [r3], #-326	; 0xfffffeba
    57b0:	49575f38 	ldmdbmi	r7, {r3, r4, r5, r8, r9, sl, fp, ip, lr}^
    57b4:	5f485444 	svcpl	0x00485444
    57b8:	3233205f 	eorscc	r2, r3, #95	; 0x5f
    57bc:	535f5f00 	cmppl	pc, #0, 30
    57c0:	5f434454 	svcpl	0x00434454
    57c4:	5f465455 	svcpl	0x00465455
    57c8:	5f5f3631 	svcpl	0x005f3631
    57cc:	5f003120 	svcpl	0x00003120
    57d0:	444e4152 	strbmi	r4, [lr], #-338	; 0xfffffeae
    57d4:	4d5f3834 	ldclmi	8, cr3, [pc, #-208]	; 570c <_Min_Stack_Size+0x530c>
    57d8:	5f544c55 	svcpl	0x00544c55
    57dc:	30282032 	eorcc	r2, r8, r2, lsr r0
    57e0:	30303078 	eorscc	r3, r0, r8, ror r0
    57e4:	5f002935 	svcpl	0x00002935
    57e8:	4e454552 	mcrmi	5, 2, r4, cr5, cr2, {2}
    57ec:	48435f54 	stmdami	r3, {r2, r4, r6, r8, r9, sl, fp, ip, lr}^
    57f0:	5f4b4345 	svcpl	0x004b4345
    57f4:	4353494d 	cmpmi	r3, #1261568	; 0x134000
    57f8:	72617628 	rsbvc	r7, r1, #40, 12	; 0x2800000
    57fc:	525f2029 	subspl	r2, pc, #41	; 0x29
    5800:	544e4545 	strbpl	r4, [lr], #-1349	; 0xfffffabb
    5804:	4548435f 	strbmi	r4, [r8, #-863]	; 0xfffffca1
    5808:	76284b43 	strtvc	r4, [r8], -r3, asr #22
    580c:	202c7261 	eorcs	r7, ip, r1, ror #4
    5810:	73696d5f 	cmnvc	r9, #6080	; 0x17c0
    5814:	73202c63 			; <UNDEFINED> instruction: 0x73202c63
    5818:	63757274 	cmnvs	r5, #116, 4	; 0x40000007
    581c:	6d5f2074 	ldclvs	0, cr2, [pc, #-464]	; 5654 <_Min_Stack_Size+0x5254>
    5820:	5f637369 	svcpl	0x00637369
    5824:	6e656572 	mcrvs	5, 3, r6, cr5, cr2, {3}
    5828:	2c2a2074 	stccs	0, cr2, [sl], #-464	; 0xfffffe30
    582c:	7a697320 	bvc	1a624b4 <_Min_Stack_Size+0x1a620b4>
    5830:	20666f65 	rsbcs	r6, r6, r5, ror #30
    5834:	7628282a 	strtvc	r2, [r8], -sl, lsr #16
    5838:	2d297261 	sfmcs	f7, 4, [r9, #-388]!	; 0xfffffe7c
    583c:	696d5f3e 	stmdbvs	sp!, {r1, r2, r3, r4, r5, r8, r9, sl, fp, ip, lr}^
    5840:	2c296373 	stccs	3, cr6, [r9], #-460	; 0xfffffe34
    5844:	45525f20 	ldrbmi	r5, [r2, #-3872]	; 0xfffff0e0
    5848:	5f544e45 	svcpl	0x00544e45
    584c:	54494e49 	strbpl	r4, [r9], #-3657	; 0xfffff1b7
    5850:	53494d5f 	movtpl	r4, #40287	; 0x9d5f
    5854:	61762843 	cmnvs	r6, r3, asr #16
    5858:	00292972 	eoreq	r2, r9, r2, ror r9
    585c:	505f545f 	subspl	r5, pc, pc, asr r4	; <UNPREDICTABLE>
    5860:	49445254 	stmdbmi	r4, {r2, r4, r6, r9, ip, lr}^
    5864:	00204646 	eoreq	r4, r0, r6, asr #12
    5868:	51555f5f 	cmppl	r5, pc, asr pc
    586c:	42465f51 	submi	r5, r6, #324	; 0x144
    5870:	5f5f5449 	svcpl	0x005f5449
    5874:	5f003820 	svcpl	0x00003820
    5878:	74726377 	ldrbtvc	r6, [r2], #-887	; 0xfffffc89
    587c:	5f626d6f 	svcpl	0x00626d6f
    5880:	74617473 	strbtvc	r7, [r1], #-1139	; 0xfffffb8d
    5884:	6e690065 	cdpvs	0, 6, cr0, cr9, cr5, {3}
    5888:	322b2074 	eorcc	r2, fp, #116	; 0x74
    588c:	445f5f00 	ldrbmi	r5, [pc], #-3840	; 5894 <_Min_Stack_Size+0x5494>
    5890:	34364345 	ldrtcc	r4, [r6], #-837	; 0xfffffcbb
    5894:	4e494d5f 	mcrmi	13, 2, r4, cr9, cr15, {2}
    5898:	5058455f 	subspl	r4, r8, pc, asr r5
    589c:	28205f5f 	stmdacs	r0!, {r0, r1, r2, r3, r4, r6, r8, r9, sl, fp, ip, lr}
    58a0:	3238332d 	eorscc	r3, r8, #-1275068416	; 0xb4000000
    58a4:	5f5f0029 	svcpl	0x005f0029
    58a8:	43434155 	movtmi	r4, #12629	; 0x3155
    58ac:	4d5f4d55 	ldclmi	13, cr4, [pc, #-340]	; 5760 <_Min_Stack_Size+0x5360>
    58b0:	5f5f5841 	svcpl	0x005f5841
    58b4:	46583020 	ldrbmi	r3, [r8], -r0, lsr #32
    58b8:	46464646 	strbmi	r4, [r6], -r6, asr #12
    58bc:	50464646 	subpl	r4, r6, r6, asr #12
    58c0:	5536312d 	ldrpl	r3, [r6, #-301]!	; 0xfffffed3
    58c4:	525f004b 	subspl	r0, pc, #75	; 0x4b
    58c8:	544e4545 	strbpl	r4, [lr], #-1349	; 0xfffffabb
    58cc:	5443575f 	strbpl	r5, [r3], #-1887	; 0xfffff8a1
    58d0:	5f424d4f 	svcpl	0x00424d4f
    58d4:	54415453 	strbpl	r5, [r1], #-1107	; 0xfffffbad
    58d8:	74702845 	ldrbtvc	r2, [r0], #-2117	; 0xfffff7bb
    58dc:	28202972 	stmdacs	r0!, {r1, r4, r5, r6, r8, fp, sp}
    58e0:	72747028 	rsbsvc	r7, r4, #40	; 0x28
    58e4:	5f3e2d29 	svcpl	0x003e2d29
    58e8:	6373696d 	cmnvs	r3, #1785856	; 0x1b4000
    58ec:	775f3e2d 	ldrbvc	r3, [pc, -sp, lsr #28]
    58f0:	6d6f7463 	cfstrdvs	mvd7, [pc, #-396]!	; 576c <_Min_Stack_Size+0x536c>
    58f4:	74735f62 	ldrbtvc	r5, [r3], #-3938	; 0xfffff09e
    58f8:	29657461 	stmdbcs	r5!, {r0, r5, r6, sl, ip, sp, lr}^
    58fc:	745f5f00 	ldrbvc	r5, [pc], #-3840	; 5904 <_Min_Stack_Size+0x5504>
    5900:	646d5f6d 	strbtvs	r5, [sp], #-3949	; 0xfffff093
    5904:	63007961 	movwvs	r7, #2401	; 0x961
    5908:	20726168 	rsbscs	r6, r2, r8, ror #2
    590c:	6100302b 	tstvs	r0, fp, lsr #32
    5910:	636f6c6c 	cmnvs	pc, #108, 24	; 0x6c00
    5914:	5f5f0061 	svcpl	0x005f0061
    5918:	4152464c 	cmpmi	r2, ip, asr #12
    591c:	4d5f5443 	cfldrdmi	mvd5, [pc, #-268]	; 5818 <_Min_Stack_Size+0x5418>
    5920:	5f5f5841 	svcpl	0x005f5841
    5924:	37583020 	ldrbcc	r3, [r8, -r0, lsr #32]
    5928:	46464646 	strbmi	r4, [r6], -r6, asr #12
    592c:	50464646 	subpl	r4, r6, r6, asr #12
    5930:	4c31332d 	ldcmi	3, cr3, [r1], #-180	; 0xffffff4c
    5934:	5f5f0052 	svcpl	0x005f0052
    5938:	455a4953 	ldrbmi	r4, [sl, #-2387]	; 0xfffff6ad
    593c:	505f464f 	subspl	r4, pc, pc, asr #12
    5940:	49445254 	stmdbmi	r4, {r2, r4, r6, r9, ip, lr}^
    5944:	545f4646 	ldrbpl	r4, [pc], #-1606	; 594c <_Min_Stack_Size+0x554c>
    5948:	34205f5f 	strtcc	r5, [r0], #-3935	; 0xfffff0a1
    594c:	54584500 	ldrbpl	r4, [r8], #-1280	; 0xfffffb00
    5950:	20313149 	eorscs	r3, r1, r9, asr #2
    5954:	5f003131 	svcpl	0x00003131
    5958:	4843575f 	stmdami	r3, {r0, r1, r2, r3, r4, r6, r8, r9, sl, ip, lr}^
    595c:	545f5241 	ldrbpl	r5, [pc], #-577	; 5964 <_Min_Stack_Size+0x5564>
    5960:	00205f5f 	eoreq	r5, r0, pc, asr pc
    5964:	695f5f5f 	ldmdbvs	pc, {r0, r1, r2, r3, r4, r6, r8, r9, sl, fp, ip, lr}^	; <UNPREDICTABLE>
    5968:	6c5f746e 	cfldrdvs	mvd7, [pc], {110}	; 0x6e
    596c:	74736165 	ldrbtvc	r6, [r3], #-357	; 0xfffffe9b
    5970:	5f745f38 	svcpl	0x00745f38
    5974:	69666564 	stmdbvs	r6!, {r2, r5, r6, r8, sl, sp, lr}^
    5978:	2064656e 	rsbcs	r6, r4, lr, ror #10
    597c:	5f5f0031 	svcpl	0x005f0031
    5980:	5f4d5241 	svcpl	0x004d5241
    5984:	54414546 	strbpl	r4, [r1], #-1350	; 0xfffffaba
    5988:	5f455255 	svcpl	0x00455255
    598c:	56494449 	strbpl	r4, [r9], -r9, asr #8
    5990:	5f003120 	svcpl	0x00003120
    5994:	66756275 			; <UNDEFINED> instruction: 0x66756275
    5998:	465f5f00 	ldrbmi	r5, [pc], -r0, lsl #30
    599c:	54414f4c 	strbpl	r4, [r1], #-3916	; 0xfffff0b4
    59a0:	524f575f 	subpl	r5, pc, #24903680	; 0x17c0000
    59a4:	524f5f44 	subpl	r5, pc, #68, 30	; 0x110
    59a8:	5f524544 	svcpl	0x00524544
    59ac:	5f5f205f 	svcpl	0x005f205f
    59b0:	4544524f 	strbmi	r5, [r4, #-591]	; 0xfffffdb1
    59b4:	494c5f52 	stmdbmi	ip, {r1, r4, r6, r8, r9, sl, fp, ip, lr}^
    59b8:	454c5454 	strbmi	r5, [ip, #-1108]	; 0xfffffbac
    59bc:	444e455f 	strbmi	r4, [lr], #-1375	; 0xfffffaa1
    59c0:	5f4e4149 	svcpl	0x004e4149
    59c4:	4e49005f 	mcrmi	0, 2, r0, cr9, cr15, {2}
    59c8:	58414d54 	stmdapl	r1, {r2, r4, r6, r8, sl, fp, lr}^
    59cc:	4e494d5f 	mcrmi	13, 2, r4, cr9, cr15, {2}
    59d0:	492d2820 	pushmi	{r5, fp, sp}
    59d4:	414d544e 	cmpmi	sp, lr, asr #8
    59d8:	414d5f58 	cmpmi	sp, r8, asr pc
    59dc:	202d2058 	eorcs	r2, sp, r8, asr r0
    59e0:	5f002931 	svcpl	0x00002931
    59e4:	5f434347 	svcpl	0x00434347
    59e8:	41484357 	cmpmi	r8, r7, asr r3
    59ec:	20545f52 	subscs	r5, r4, r2, asr pc
    59f0:	755f5f00 	ldrbvc	r5, [pc, #-3840]	; 4af8 <_Min_Stack_Size+0x46f8>
    59f4:	636f6c6e 	cmnvs	pc, #28160	; 0x6e00
    59f8:	2e28736b 	cdpcs	3, 2, cr7, cr8, cr11, {3}
    59fc:	20292e2e 	eorcs	r2, r9, lr, lsr #28
    5a00:	6f6c5f5f 	svcvs	0x006c5f5f
    5a04:	615f6b63 	cmpvs	pc, r3, ror #22
    5a08:	746f6e6e 	strbtvc	r6, [pc], #-3694	; 5a10 <_Min_Stack_Size+0x5610>
    5a0c:	28657461 	stmdacs	r5!, {r0, r5, r6, sl, ip, sp, lr}^
    5a10:	6f6c6e75 	svcvs	0x006c6e75
    5a14:	665f6b63 	ldrbvs	r6, [pc], -r3, ror #22
    5a18:	74636e75 	strbtvc	r6, [r3], #-3701	; 0xfffff18b
    5a1c:	286e6f69 	stmdacs	lr!, {r0, r3, r5, r6, r8, r9, sl, fp, sp, lr}^
    5a20:	41565f5f 	cmpmi	r6, pc, asr pc
    5a24:	4752415f 			; <UNDEFINED> instruction: 0x4752415f
    5a28:	295f5f53 	ldmdbcs	pc, {r0, r1, r4, r6, r8, r9, sl, fp, ip, lr}^	; <UNPREDICTABLE>
    5a2c:	5f5f0029 	svcpl	0x005f0029
    5a30:	4f505845 	svcmi	0x00505845
    5a34:	00205452 	eoreq	r5, r0, r2, asr r4
    5a38:	7463775f 	strbtvc	r7, [r3], #-1887	; 0xfffff8a1
    5a3c:	5f626d6f 	svcpl	0x00626d6f
    5a40:	74617473 	strbtvc	r7, [r1], #-1139	; 0xfffffb8d
    5a44:	5f5f0065 	svcpl	0x005f0065
    5a48:	4f53424f 	svcmi	0x0053424f
    5a4c:	4554454c 	ldrbmi	r4, [r4, #-1356]	; 0xfffffab4
    5a50:	54414d5f 	strbpl	r4, [r1], #-3423	; 0xfffff2a1
    5a54:	45445f48 	strbmi	r5, [r4, #-3912]	; 0xfffff0b8
    5a58:	4c554146 	ldfmie	f4, [r5], {70}	; 0x46
    5a5c:	00312054 	eorseq	r2, r1, r4, asr r0
    5a60:	73626d5f 	cmnvc	r2, #6080	; 0x17c0
    5a64:	65746174 	ldrbvs	r6, [r4, #-372]!	; 0xfffffe8c
    5a68:	535f5f00 	cmppl	pc, #0, 30
    5a6c:	49534343 	ldmdbmi	r3, {r0, r1, r6, r8, r9, lr}^
    5a70:	29732844 	ldmdbcs	r3!, {r2, r6, fp, sp}^
    5a74:	72747320 	rsbsvc	r7, r4, #32, 6	; 0x80000000
    5a78:	20746375 	rsbscs	r6, r4, r5, ror r3
    5a7c:	61685f5f 	cmnvs	r8, pc, asr pc
    5a80:	45006b63 	strmi	r6, [r0, #-2915]	; 0xfffff49d
    5a84:	5f495458 	svcpl	0x00495458
    5a88:	67697254 			; <UNDEFINED> instruction: 0x67697254
    5a8c:	5f726567 	svcpl	0x00726567
    5a90:	49534952 	ldmdbmi	r3, {r1, r4, r6, r8, fp, lr}^
    5a94:	4e41474e 	cdpmi	7, 4, cr4, cr1, cr14, {2}
    5a98:	4c414644 	mcrrmi	6, 4, r4, r1, cr4
    5a9c:	474e494c 	strbmi	r4, [lr, -ip, asr #18]
    5aa0:	5f003220 	svcpl	0x00003220
    5aa4:	5248535f 	subpl	r5, r8, #2080374785	; 0x7c000001
    5aa8:	49575f54 	ldmdbmi	r7, {r2, r4, r6, r8, r9, sl, fp, ip, lr}^
    5aac:	5f485444 	svcpl	0x00485444
    5ab0:	3631205f 			; <UNDEFINED> instruction: 0x3631205f
    5ab4:	4f5f5f00 	svcmi	0x005f5f00
    5ab8:	52454452 	subpl	r4, r5, #1375731712	; 0x52000000
    5abc:	5044505f 	subpl	r5, r4, pc, asr r0
    5ac0:	444e455f 	strbmi	r4, [lr], #-1375	; 0xfffffaa1
    5ac4:	5f4e4149 	svcpl	0x004e4149
    5ac8:	3433205f 	ldrtcc	r2, [r3], #-95	; 0xffffffa1
    5acc:	5f003231 	svcpl	0x00003231
    5ad0:	646e6172 	strbtvs	r6, [lr], #-370	; 0xfffffe8e
    5ad4:	78656e5f 	stmdavc	r5!, {r0, r1, r2, r3, r4, r6, r9, sl, fp, sp, lr}^
    5ad8:	5f5f0074 	svcpl	0x005f0074
    5adc:	31434544 	cmpcc	r3, r4, asr #10
    5ae0:	4d5f3832 	ldclmi	8, cr3, [pc, #-200]	; 5a20 <_Min_Stack_Size+0x5620>
    5ae4:	455f5841 	ldrbmi	r5, [pc, #-2113]	; 52ab <_Min_Stack_Size+0x4eab>
    5ae8:	5f5f5058 	svcpl	0x005f5058
    5aec:	34313620 	ldrtcc	r3, [r1], #-1568	; 0xfffff9e0
    5af0:	665f0035 			; <UNDEFINED> instruction: 0x665f0035
    5af4:	7367616c 	cmnvc	r7, #108, 2
    5af8:	495f5f00 	ldmdbmi	pc, {r8, r9, sl, fp, ip, lr}^	; <UNPREDICTABLE>
    5afc:	524f504d 	subpl	r5, pc, #77	; 0x4d
    5b00:	5f002054 	svcpl	0x00002054
    5b04:	444e4152 	strbmi	r4, [lr], #-338	; 0xfffffeae
    5b08:	535f3834 	cmppl	pc, #52, 16	; 0x340000
    5b0c:	5f444545 	svcpl	0x00444545
    5b10:	30282032 	eorcc	r2, r8, r2, lsr r0
    5b14:	33323178 	teqcc	r2, #120, 2
    5b18:	5f002934 	svcpl	0x00002934
    5b1c:	44525450 	ldrbmi	r5, [r2], #-1104	; 0xfffffbb0
    5b20:	5f464649 	svcpl	0x00464649
    5b24:	45445f54 	strbmi	r5, [r4, #-3924]	; 0xfffff0ac
    5b28:	52414c43 	subpl	r4, r1, #17152	; 0x4300
    5b2c:	00204445 	eoreq	r4, r0, r5, asr #8
    5b30:	53555f5f 	cmppl	r5, #380	; 0x17c
    5b34:	42465f41 	submi	r5, r6, #260	; 0x104
    5b38:	5f5f5449 	svcpl	0x005f5449
    5b3c:	00363120 	eorseq	r3, r6, r0, lsr #2
    5b40:	6f765f5f 	svcvs	0x00765f5f
    5b44:	6974616c 	ldmdbvs	r4!, {r2, r3, r5, r6, r8, sp, lr}^
    5b48:	7620656c 	strtvc	r6, [r0], -ip, ror #10
    5b4c:	74616c6f 	strbtvc	r6, [r1], #-3183	; 0xfffff391
    5b50:	00656c69 	rsbeq	r6, r5, r9, ror #24
    5b54:	45495f5f 	strbmi	r5, [r9, #-3935]	; 0xfffff0a1
    5b58:	4c5f4545 	cfldr64mi	mvdx4, [pc], {69}	; 0x45
    5b5c:	4c545449 	cfldrdmi	mvd5, [r4], {73}	; 0x49
    5b60:	4e455f45 	cdpmi	15, 4, cr5, cr5, cr5, {2}
    5b64:	4e414944 	vmlsmi.f16	s9, s2, s8	; <UNPREDICTABLE>
    5b68:	5f5f0020 	svcpl	0x005f0020
    5b6c:	4c42444c 	cfstrdmi	mvd4, [r2], {76}	; 0x4c
    5b70:	4e494d5f 	mcrmi	13, 2, r4, cr9, cr15, {2}
    5b74:	5f30315f 	svcpl	0x0030315f
    5b78:	5f505845 	svcpl	0x00505845
    5b7c:	2d28205f 	stccs	0, cr2, [r8, #-380]!	; 0xfffffe84
    5b80:	29373033 	ldmdbcs	r7!, {r0, r1, r4, r5, ip, sp}
    5b84:	49564e00 	ldmdbmi	r6, {r9, sl, fp, lr}^
    5b88:	52495f43 	subpl	r5, r9, #268	; 0x10c
    5b8c:	455f3851 	ldrbmi	r3, [pc, #-2129]	; 5343 <_Min_Stack_Size+0x4f43>
    5b90:	32495458 	subcc	r5, r9, #88, 8	; 0x58000000
    5b94:	7369445f 	cmnvc	r9, #1593835520	; 0x5f000000
    5b98:	656c6261 	strbvs	r6, [ip, #-609]!	; 0xfffffd9f
    5b9c:	564e2820 	strbpl	r2, [lr], -r0, lsr #16
    5ba0:	495f4349 	ldmdbmi	pc, {r0, r3, r6, r8, r9, lr}^	; <UNPREDICTABLE>
    5ba4:	30524543 	subscc	r4, r2, r3, asr #10
    5ba8:	203d7c20 	eorscs	r7, sp, r0, lsr #24
    5bac:	3c3c3128 	ldfccs	f3, [ip], #-160	; 0xffffff60
    5bb0:	00292938 	eoreq	r2, r9, r8, lsr r9
    5bb4:	4c465f5f 	mcrrmi	15, 5, r5, r6, cr15
    5bb8:	41485f54 	cmpmi	r8, r4, asr pc
    5bbc:	55515f53 	ldrbpl	r5, [r1, #-3923]	; 0xfffff0ad
    5bc0:	5f544549 	svcpl	0x00544549
    5bc4:	5f4e414e 	svcpl	0x004e414e
    5bc8:	0031205f 	eorseq	r2, r1, pc, asr r0
    5bcc:	43475f5f 	movtmi	r5, #32607	; 0x7f5f
    5bd0:	54415f43 	strbpl	r5, [r1], #-3907	; 0xfffff0bd
    5bd4:	43494d4f 	movtmi	r4, #40271	; 0x9d4f
    5bd8:	4148435f 	cmpmi	r8, pc, asr r3
    5bdc:	4f4c5f52 	svcmi	0x004c5f52
    5be0:	465f4b43 	ldrbmi	r4, [pc], -r3, asr #22
    5be4:	20454552 	subcs	r4, r5, r2, asr r5
    5be8:	50430032 	subpl	r0, r3, r2, lsr r0
    5bec:	43415f55 	movtmi	r5, #8021	; 0x1f55
    5bf0:	53534543 	cmppl	r3, #281018368	; 0x10c00000
    5bf4:	56454c5f 			; <UNDEFINED> instruction: 0x56454c5f
    5bf8:	45004c45 	strmi	r4, [r0, #-3141]	; 0xfffff3bb
    5bfc:	31495458 	cmpcc	r9, r8, asr r4
    5c00:	35312035 	ldrcc	r2, [r1, #-53]!	; 0xffffffcb
    5c04:	49504700 	ldmdbmi	r0, {r8, r9, sl, lr}^
    5c08:	49505f4f 	ldmdbmi	r0, {r0, r1, r2, r3, r6, r8, r9, sl, fp, ip, lr}^
    5c0c:	34315f4e 	ldrtcc	r5, [r1], #-3918	; 0xfffff0b2
    5c10:	75282820 	strvc	r2, [r8, #-2080]!	; 0xfffff7e0
    5c14:	31746e69 	cmncc	r4, r9, ror #28
    5c18:	29745f36 	ldmdbcs	r4!, {r1, r2, r4, r5, r8, r9, sl, fp, ip, lr}^
    5c1c:	30347830 	eorscc	r7, r4, r0, lsr r8
    5c20:	00293030 	eoreq	r3, r9, r0, lsr r0
    5c24:	464c5f5f 			; <UNDEFINED> instruction: 0x464c5f5f
    5c28:	54434152 	strbpl	r4, [r3], #-338	; 0xfffffeae
    5c2c:	5350455f 	cmppl	r0, #398458880	; 0x17c00000
    5c30:	4e4f4c49 	cdpmi	12, 4, cr4, cr15, cr9, {2}
    5c34:	30205f5f 	eorcc	r5, r0, pc, asr pc
    5c38:	2d503178 	ldfcse	f3, [r0, #-480]	; 0xfffffe20
    5c3c:	524c3133 	subpl	r3, ip, #-1073741812	; 0xc000000c
    5c40:	705f5f00 	subsvc	r5, pc, r0, lsl #30
    5c44:	69646572 	stmdbvs	r4!, {r1, r4, r5, r6, r8, sl, sp, lr}^
    5c48:	665f7463 	ldrbvs	r7, [pc], -r3, ror #8
    5c4c:	65736c61 	ldrbvs	r6, [r3, #-3169]!	; 0xfffff39f
    5c50:	70786528 	rsbsvc	r6, r8, r8, lsr #10
    5c54:	5f5f2029 	svcpl	0x005f2029
    5c58:	6c697562 	cfstr64vs	mvdx7, [r9], #-392	; 0xfffffe78
    5c5c:	5f6e6974 	svcpl	0x006e6974
    5c60:	65707865 	ldrbvs	r7, [r0, #-2149]!	; 0xfffff79b
    5c64:	28287463 	stmdacs	r8!, {r0, r1, r5, r6, sl, ip, sp, lr}
    5c68:	29707865 	ldmdbcs	r0!, {r0, r2, r5, r6, fp, ip, sp, lr}^
    5c6c:	2930202c 	ldmdbcs	r0!, {r2, r3, r5, sp}
    5c70:	45425f00 	strbmi	r5, [r2, #-3840]	; 0xfffff100
    5c74:	5f4e4947 	svcpl	0x004e4947
    5c78:	5f445453 	svcpl	0x00445453
    5c7c:	5f002043 	svcpl	0x00002043
    5c80:	4e454552 	mcrmi	5, 2, r4, cr5, cr2, {2}
    5c84:	48435f54 	stmdami	r3, {r2, r4, r6, r8, r9, sl, fp, ip, lr}^
    5c88:	5f4b4345 	svcpl	0x004b4345
    5c8c:	54435341 	strbpl	r5, [r3], #-833	; 0xfffffcbf
    5c90:	5f454d49 	svcpl	0x00454d49
    5c94:	28465542 	stmdacs	r6, {r1, r6, r8, sl, ip, lr}^
    5c98:	29726176 	ldmdbcs	r2!, {r1, r2, r4, r5, r6, r8, sp, lr}^
    5c9c:	45525f20 	ldrbmi	r5, [r2, #-3872]	; 0xfffff0e0
    5ca0:	5f544e45 	svcpl	0x00544e45
    5ca4:	43454843 	movtmi	r4, #22595	; 0x5843
    5ca8:	6176284b 	cmnvs	r6, fp, asr #16
    5cac:	5f202c72 	svcpl	0x00202c72
    5cb0:	74637361 	strbtvc	r7, [r3], #-865	; 0xfffffc9f
    5cb4:	5f656d69 	svcpl	0x00656d69
    5cb8:	2c667562 	cfstr64cs	mvdx7, [r6], #-392	; 0xfffffe78
    5cbc:	61686320 	cmnvs	r8, r0, lsr #6
    5cc0:	2c2a2072 	stccs	0, cr2, [sl], #-456	; 0xfffffe38
    5cc4:	45525f20 	ldrbmi	r5, [r2, #-3872]	; 0xfffff0e0
    5cc8:	5f544e45 	svcpl	0x00544e45
    5ccc:	54435341 	strbpl	r5, [r3], #-833	; 0xfffffcbf
    5cd0:	5f454d49 	svcpl	0x00454d49
    5cd4:	455a4953 	ldrbmi	r4, [sl, #-2387]	; 0xfffff6ad
    5cd8:	656d202c 	strbvs	r2, [sp, #-44]!	; 0xffffffd4
    5cdc:	7465736d 	strbtvc	r7, [r5], #-877	; 0xfffffc93
    5ce0:	61762828 	cmnvs	r6, r8, lsr #16
    5ce4:	3e2d2972 			; <UNDEFINED> instruction: 0x3e2d2972
    5ce8:	6373615f 	cmnvs	r3, #-1073741801	; 0xc0000017
    5cec:	656d6974 	strbvs	r6, [sp, #-2420]!	; 0xfffff68c
    5cf0:	6675625f 			; <UNDEFINED> instruction: 0x6675625f
    5cf4:	2c30202c 	ldccs	0, cr2, [r0], #-176	; 0xffffff50
    5cf8:	45525f20 	ldrbmi	r5, [r2, #-3872]	; 0xfffff0e0
    5cfc:	5f544e45 	svcpl	0x00544e45
    5d00:	54435341 	strbpl	r5, [r3], #-833	; 0xfffffcbf
    5d04:	5f454d49 	svcpl	0x00454d49
    5d08:	455a4953 	ldrbmi	r4, [sl, #-2387]	; 0xfffff6ad
    5d0c:	45002929 	strmi	r2, [r0, #-2345]	; 0xfffff6d7
    5d10:	30495458 	subcc	r5, r9, r8, asr r4
    5d14:	20304350 	eorscs	r4, r0, r0, asr r3
    5d18:	54584528 	ldrbpl	r4, [r8], #-1320	; 0xfffffad8
    5d1c:	50475f49 	subpl	r5, r7, r9, asr #30
    5d20:	4d5f4f49 	ldclmi	15, cr4, [pc, #-292]	; 5c04 <_Min_Stack_Size+0x5804>
    5d24:	6e697061 	cdpvs	0, 6, cr7, cr9, cr1, {3}
    5d28:	29745f67 	ldmdbcs	r4!, {r0, r1, r2, r5, r6, r8, r9, sl, fp, ip, lr}^
    5d2c:	5458457b 	ldrbpl	r4, [r8], #-1403	; 0xfffffa85
    5d30:	472c3049 	strmi	r3, [ip, -r9, asr #32]!
    5d34:	434f4950 	movtmi	r4, #63824	; 0xf950
    5d38:	4950472c 	ldmdbmi	r0, {r2, r3, r5, r8, r9, sl, lr}^
    5d3c:	49505f4f 	ldmdbmi	r0, {r0, r1, r2, r3, r6, r8, r9, sl, fp, ip, lr}^
    5d40:	2c305f4e 	ldccs	15, cr5, [r0], #-312	; 0xfffffec8
    5d44:	49545845 	ldmdbmi	r4, {r0, r2, r6, fp, ip, lr}^
    5d48:	52495f30 	subpl	r5, r9, #48, 30	; 0xc0
    5d4c:	5f007d51 	svcpl	0x00007d51
    5d50:	4d52415f 	ldfmie	f4, [r2, #-380]	; 0xfffffe84
    5d54:	5a49535f 	bpl	125aad8 <_Min_Stack_Size+0x125a6d8>
    5d58:	5f464f45 	svcpl	0x00464f45
    5d5c:	494e494d 	stmdbmi	lr, {r0, r2, r3, r6, r8, fp, lr}^
    5d60:	5f4c414d 	svcpl	0x004c414d
    5d64:	4d554e45 	ldclmi	14, cr4, [r5, #-276]	; 0xfffffeec
    5d68:	4e003120 	adfmisp	f3, f0, f0
    5d6c:	5f434956 	svcpl	0x00434956
    5d70:	39515249 	ldmdbcc	r1, {r0, r3, r6, r9, ip, lr}^
    5d74:	5458455f 	ldrbpl	r4, [r8], #-1375	; 0xfffffaa1
    5d78:	445f3349 	ldrbmi	r3, [pc], #-841	; 5d80 <_Min_Stack_Size+0x5980>
    5d7c:	62617369 	rsbvs	r7, r1, #-1543503871	; 0xa4000001
    5d80:	2820656c 	stmdacs	r0!, {r2, r3, r5, r6, r8, sl, sp, lr}
    5d84:	4349564e 	movtmi	r5, #38478	; 0x964e
    5d88:	4543495f 	strbmi	r4, [r3, #-2399]	; 0xfffff6a1
    5d8c:	7c203052 	stcvc	0, cr3, [r0], #-328	; 0xfffffeb8
    5d90:	3128203d 			; <UNDEFINED> instruction: 0x3128203d
    5d94:	29393c3c 	ldmdbcs	r9!, {r2, r3, r4, r5, sl, fp, ip, sp}
    5d98:	5f5f0029 	svcpl	0x005f0029
    5d9c:	5f6d7261 	svcpl	0x006d7261
    5da0:	0031205f 	eorseq	r2, r1, pc, asr r0
    5da4:	49545845 	ldmdbmi	r4, {r0, r2, r6, fp, ip, lr}^
    5da8:	34425034 	strbcc	r5, [r2], #-52	; 0xffffffcc
    5dac:	58452820 	stmdapl	r5, {r5, fp, sp}^
    5db0:	475f4954 			; <UNDEFINED> instruction: 0x475f4954
    5db4:	5f4f4950 	svcpl	0x004f4950
    5db8:	6970614d 	ldmdbvs	r0!, {r0, r2, r3, r6, r8, sp, lr}^
    5dbc:	745f676e 	ldrbvc	r6, [pc], #-1902	; 5dc4 <_Min_Stack_Size+0x59c4>
    5dc0:	58457b29 	stmdapl	r5, {r0, r3, r5, r8, r9, fp, ip, sp, lr}^
    5dc4:	2c344954 			; <UNDEFINED> instruction: 0x2c344954
    5dc8:	4f495047 	svcmi	0x00495047
    5dcc:	50472c42 	subpl	r2, r7, r2, asr #24
    5dd0:	505f4f49 	subspl	r4, pc, r9, asr #30
    5dd4:	345f4e49 	ldrbcc	r4, [pc], #-3657	; 5ddc <_Min_Stack_Size+0x59dc>
    5dd8:	5458452c 	ldrbpl	r4, [r8], #-1324	; 0xfffffad4
    5ddc:	495f3449 	ldmdbmi	pc, {r0, r3, r6, sl, ip, sp}^	; <UNPREDICTABLE>
    5de0:	007d5152 	rsbseq	r5, sp, r2, asr r1
    5de4:	4545525f 	strbmi	r5, [r5, #-607]	; 0xfffffda1
    5de8:	535f544e 	cmppl	pc, #1308622848	; 0x4e000000
    5dec:	4c4c414d 	stfmie	f4, [ip], {77}	; 0x4d
    5df0:	4548435f 	strbmi	r4, [r8, #-863]	; 0xfffffca1
    5df4:	495f4b43 	ldmdbmi	pc, {r0, r1, r6, r8, r9, fp, lr}^	; <UNPREDICTABLE>
    5df8:	2854494e 	ldmdacs	r4, {r1, r2, r3, r6, r8, fp, lr}^
    5dfc:	29727470 	ldmdbcs	r2!, {r4, r5, r6, sl, ip, sp, lr}^
    5e00:	206f6420 	rsbcs	r6, pc, r0, lsr #8
    5e04:	6669207b 			; <UNDEFINED> instruction: 0x6669207b
    5e08:	70282820 	eorvc	r2, r8, r0, lsr #16
    5e0c:	20297274 	eorcs	r7, r9, r4, ror r2
    5e10:	21202626 			; <UNDEFINED> instruction: 0x21202626
    5e14:	72747028 	rsbsvc	r7, r4, #40	; 0x28
    5e18:	5f3e2d29 	svcpl	0x003e2d29
    5e1c:	6964735f 	stmdbvs	r4!, {r0, r1, r2, r3, r4, r6, r8, r9, ip, sp, lr}^
    5e20:	696e6964 	stmdbvs	lr!, {r2, r5, r6, r8, fp, sp, lr}^
    5e24:	5f202974 	svcpl	0x00202974
    5e28:	6e69735f 	mcrvs	3, 3, r7, cr9, cr15, {2}
    5e2c:	28207469 	stmdacs	r0!, {r0, r3, r5, r6, sl, ip, sp, lr}
    5e30:	29727470 	ldmdbcs	r2!, {r4, r5, r6, sl, ip, sp, lr}^
    5e34:	207d203b 	rsbscs	r2, sp, fp, lsr r0
    5e38:	6c696877 	stclvs	8, cr6, [r9], #-476	; 0xfffffe24
    5e3c:	30282065 	eorcc	r2, r8, r5, rrx
    5e40:	58450029 	stmdapl	r5, {r0, r3, r5}^
    5e44:	50374954 	eorspl	r4, r7, r4, asr r9
    5e48:	28203744 	stmdacs	r0!, {r2, r6, r8, r9, sl, ip, sp}
    5e4c:	49545845 	ldmdbmi	r4, {r0, r2, r6, fp, ip, lr}^
    5e50:	4950475f 	ldmdbmi	r0, {r0, r1, r2, r3, r4, r6, r8, r9, sl, lr}^
    5e54:	614d5f4f 	cmpvs	sp, pc, asr #30
    5e58:	676e6970 			; <UNDEFINED> instruction: 0x676e6970
    5e5c:	7b29745f 	blvc	a62fe0 <_Min_Stack_Size+0xa62be0>
    5e60:	49545845 	ldmdbmi	r4, {r0, r2, r6, fp, ip, lr}^
    5e64:	50472c37 	subpl	r2, r7, r7, lsr ip
    5e68:	2c444f49 	mcrrcs	15, 4, r4, r4, cr9
    5e6c:	4f495047 	svcmi	0x00495047
    5e70:	4e49505f 	mcrmi	0, 2, r5, cr9, cr15, {2}
    5e74:	452c375f 	strmi	r3, [ip, #-1887]!	; 0xfffff8a1
    5e78:	37495458 	smlsldcc	r5, r9, r8, r4
    5e7c:	5152495f 	cmppl	r2, pc, asr r9
    5e80:	5f5f007d 	svcpl	0x005f007d
    5e84:	33544c46 	cmpcc	r4, #17920	; 0x4600
    5e88:	494d5f32 	stmdbmi	sp, {r1, r4, r5, r8, r9, sl, fp, ip, lr}^
    5e8c:	30315f4e 	eorscc	r5, r1, lr, asr #30
    5e90:	5058455f 	subspl	r4, r8, pc, asr r5
    5e94:	28205f5f 	stmdacs	r0!, {r0, r1, r2, r3, r4, r6, r8, r9, sl, fp, ip, lr}
    5e98:	2937332d 	ldmdbcs	r7!, {r0, r2, r3, r5, r8, r9, ip, sp}
    5e9c:	635f5f00 	cmpvs	pc, #0, 30
    5ea0:	746e756f 	strbtvc	r7, [lr], #-1391	; 0xfffffa91
    5ea4:	6c5f5f00 	mrrcvs	15, 0, r5, pc, cr0	; <UNPREDICTABLE>
    5ea8:	5f6b636f 	svcpl	0x006b636f
    5eac:	5f797274 	svcpl	0x00797274
    5eb0:	75716361 	ldrbvc	r6, [r1, #-865]!	; 0xfffffc9f
    5eb4:	28657269 	stmdacs	r5!, {r0, r3, r5, r6, r9, ip, sp, lr}^
    5eb8:	6b636f6c 	blvs	18e1c70 <_Min_Stack_Size+0x18e1870>
    5ebc:	28282029 	stmdacs	r8!, {r0, r3, r5, sp}
    5ec0:	64696f76 	strbtvs	r6, [r9], #-3958	; 0xfffff08a
    5ec4:	29302029 	ldmdbcs	r0!, {r0, r3, r5, sp}
    5ec8:	495f5f00 	ldmdbmi	pc, {r8, r9, sl, fp, ip, lr}^	; <UNPREDICTABLE>
    5ecc:	435f4f53 	cmpmi	pc, #332	; 0x14c
    5ed0:	5349565f 	movtpl	r5, #38495	; 0x965f
    5ed4:	454c4249 	strbmi	r4, [ip, #-585]	; 0xfffffdb7
    5ed8:	31303220 	teqcc	r0, r0, lsr #4
    5edc:	50470031 	subpl	r0, r7, r1, lsr r0
    5ee0:	505f4f49 	subspl	r4, pc, r9, asr #30
    5ee4:	485f4e49 	ldmdami	pc, {r0, r3, r6, r9, sl, fp, lr}^	; <UNPREDICTABLE>
    5ee8:	20484749 	subcs	r4, r8, r9, asr #14
    5eec:	5f5f0031 	svcpl	0x005f0031
    5ef0:	5f4d5241 	svcpl	0x004d5241
    5ef4:	36315046 	ldrtcc	r5, [r1], -r6, asr #32
    5ef8:	524f465f 	subpl	r4, pc, #99614720	; 0x5f00000
    5efc:	5f54414d 	svcpl	0x0054414d
    5f00:	45544c41 	ldrbmi	r4, [r4, #-3137]	; 0xfffff3bf
    5f04:	54414e52 	strbpl	r4, [r1], #-3666	; 0xfffff1ae
    5f08:	00455649 	subeq	r5, r5, r9, asr #12
    5f0c:	45445f5f 	strbmi	r5, [r4, #-3935]	; 0xfffff0a1
    5f10:	5f323343 	svcpl	0x00323343
    5f14:	544e414d 	strbpl	r4, [lr], #-333	; 0xfffffeb3
    5f18:	4749445f 	smlsldmi	r4, r9, pc, r4	; <UNPREDICTABLE>
    5f1c:	37205f5f 			; <UNDEFINED> instruction: 0x37205f5f
    5f20:	54584500 	ldrbpl	r4, [r8], #-1280	; 0xfffffb00
    5f24:	31203149 			; <UNDEFINED> instruction: 0x31203149
    5f28:	544e4900 	strbpl	r4, [lr], #-2304	; 0xfffff700
    5f2c:	5341465f 	movtpl	r4, #5727	; 0x165f
    5f30:	5f343654 	svcpl	0x00343654
    5f34:	204e494d 	subcs	r4, lr, sp, asr #18
    5f38:	5f5f2d28 	svcpl	0x005f2d28
    5f3c:	5f544e49 	svcpl	0x00544e49
    5f40:	54534146 	ldrbpl	r4, [r3], #-326	; 0xfffffeba
    5f44:	4d5f3436 	cfldrdmi	mvd3, [pc, #-216]	; 5e74 <_Min_Stack_Size+0x5a74>
    5f48:	5f5f5841 	svcpl	0x005f5841
    5f4c:	31202d20 			; <UNDEFINED> instruction: 0x31202d20
    5f50:	4d5f0029 	ldclmi	0, cr0, [pc, #-164]	; 5eb4 <_Min_Stack_Size+0x5ab4>
    5f54:	49484341 	stmdbmi	r8, {r0, r6, r8, r9, lr}^
    5f58:	5f5f454e 	svcpl	0x005f454e
    5f5c:	41464544 	cmpmi	r6, r4, asr #10
    5f60:	5f544c55 	svcpl	0x00544c55
    5f64:	45505954 	ldrbmi	r5, [r0, #-2388]	; 0xfffff6ac
    5f68:	20485f53 	subcs	r5, r8, r3, asr pc
    5f6c:	425f5f00 	subsmi	r5, pc, #0, 30
    5f70:	45474749 	strbmi	r4, [r7, #-1865]	; 0xfffff8b7
    5f74:	415f5453 	cmpmi	pc, r3, asr r4	; <UNPREDICTABLE>
    5f78:	4e47494c 	vmlsmi.f16	s9, s14, s24	; <UNPREDICTABLE>
    5f7c:	544e454d 	strbpl	r4, [lr], #-1357	; 0xfffffab3
    5f80:	38205f5f 	stmdacc	r0!, {r0, r1, r2, r3, r4, r6, r8, r9, sl, fp, ip, lr}
    5f84:	685f5f00 	ldmdavs	pc, {r8, r9, sl, fp, ip, lr}^	; <UNPREDICTABLE>
    5f88:	665f7361 	ldrbvs	r7, [pc], -r1, ror #6
    5f8c:	75746165 	ldrbvc	r6, [r4, #-357]!	; 0xfffffe9b
    5f90:	78286572 	stmdavc	r8!, {r1, r4, r5, r6, r8, sl, sp, lr}
    5f94:	00302029 	eorseq	r2, r0, r9, lsr #32
    5f98:	4343475f 	movtmi	r4, #14175	; 0x375f
    5f9c:	5254505f 	subspl	r5, r4, #95	; 0x5f
    5fa0:	46464944 	strbmi	r4, [r6], -r4, asr #18
    5fa4:	0020545f 	eoreq	r5, r0, pc, asr r4
    5fa8:	4e475f5f 	mcrmi	15, 2, r5, cr7, cr15, {2}
    5fac:	494c4355 	stmdbmi	ip, {r0, r2, r4, r6, r8, r9, lr}^
    5fb0:	425f454b 	subsmi	r4, pc, #314572800	; 0x12c00000
    5fb4:	544c4955 	strbpl	r4, [ip], #-2389	; 0xfffff6ab
    5fb8:	4e5f4e49 	cdpmi	14, 5, cr4, cr15, cr9, {2}
    5fbc:	5f545845 	svcpl	0x00545845
    5fc0:	20475241 	subcs	r5, r7, r1, asr #4
    5fc4:	5f5f0031 	svcpl	0x005f0031
    5fc8:	495f4154 	ldmdbmi	pc, {r2, r4, r6, r8, lr}^	; <UNPREDICTABLE>
    5fcc:	5f544942 	svcpl	0x00544942
    5fd0:	3436205f 	ldrtcc	r2, [r6], #-95	; 0xffffffa1
    5fd4:	49504700 	ldmdbmi	r0, {r8, r9, sl, lr}^
    5fd8:	425f444f 	subsmi	r4, pc, #1325400064	; 0x4f000000
    5fdc:	20455341 	subcs	r5, r5, r1, asr #6
    5fe0:	30347830 	eorscc	r7, r4, r0, lsr r8
    5fe4:	34313130 	ldrtcc	r3, [r1], #-304	; 0xfffffed0
    5fe8:	4c553030 	mrrcmi	0, 3, r3, r5, cr0
    5fec:	4d545300 	ldclmi	3, cr5, [r4, #-0]
    5ff0:	31203233 			; <UNDEFINED> instruction: 0x31203233
    5ff4:	525f5f00 	subspl	r5, pc, #0, 30
    5ff8:	5f444e41 	svcpl	0x00444e41
    5ffc:	2058414d 	subscs	r4, r8, sp, asr #2
    6000:	66377830 			; <UNDEFINED> instruction: 0x66377830
    6004:	66666666 	strbtvs	r6, [r6], -r6, ror #12
    6008:	5f006666 	svcpl	0x00006666
    600c:	434f4c5f 	movtmi	r4, #64607	; 0xfc5f
    6010:	4e495f4b 	cdpmi	15, 4, cr5, cr9, cr11, {2}
    6014:	63285449 			; <UNDEFINED> instruction: 0x63285449
    6018:	7373616c 	cmnvc	r3, #108, 2
    601c:	636f6c2c 	cmnvs	pc, #44, 24	; 0x2c00
    6020:	7320296b 			; <UNDEFINED> instruction: 0x7320296b
    6024:	69746174 	ldmdbvs	r4!, {r2, r4, r5, r6, r8, sp, lr}^
    6028:	6e692063 	cdpvs	0, 6, cr2, cr9, cr3, {3}
    602c:	6f6c2074 	svcvs	0x006c2074
    6030:	3d206b63 	fstmdbxcc	r0!, {d6-d54}	;@ Deprecated
    6034:	003b3020 	eorseq	r3, fp, r0, lsr #32
    6038:	49545845 	ldmdbmi	r4, {r0, r2, r6, fp, ip, lr}^
    603c:	00342034 	eorseq	r2, r4, r4, lsr r0
    6040:	68676945 	stmdavs	r7!, {r0, r2, r6, r8, fp, sp, lr}^
    6044:	69425f74 	stmdbvs	r2, {r2, r4, r5, r6, r8, r9, sl, fp, ip, lr}^
    6048:	646f4d74 	strbtvs	r4, [pc], #-3444	; 6050 <_Min_Stack_Size+0x5c50>
    604c:	78302065 	ldmdavc	r0!, {r0, r2, r5, r6, sp}
    6050:	5f003833 	svcpl	0x00003833
    6054:	5f6d745f 	svcpl	0x006d745f
    6058:	79616477 	stmdbvc	r1!, {r0, r1, r2, r4, r5, r6, sl, sp, lr}^
    605c:	415f5f00 	cmpmi	pc, r0, lsl #30
    6060:	465f4d52 			; <UNDEFINED> instruction: 0x465f4d52
    6064:	55544145 	ldrbpl	r4, [r4, #-325]	; 0xfffffebb
    6068:	515f4552 	cmppl	pc, r2, asr r5	; <UNPREDICTABLE>
    606c:	584d4452 	stmdapl	sp, {r1, r4, r6, sl, lr}^
    6070:	41485f00 	cmpmi	r8, r0, lsl #30
    6074:	435f4556 	cmpmi	pc, #360710144	; 0x15800000
    6078:	4e495f43 	cdpmi	15, 4, cr5, cr9, cr3, {2}
    607c:	49424948 	stmdbmi	r2, {r3, r6, r8, fp, lr}^
    6080:	4f4c5f54 	svcmi	0x004c5f54
    6084:	545f504f 	ldrbpl	r5, [pc], #-79	; 608c <_Min_Stack_Size+0x5c8c>
    6088:	494c5f4f 	stmdbmi	ip, {r0, r1, r2, r3, r6, r8, r9, sl, fp, ip, lr}^
    608c:	4c414342 	mcrrmi	3, 4, r4, r1, cr2
    6090:	0031204c 	eorseq	r2, r1, ip, asr #32
    6094:	52415f5f 	subpl	r5, r1, #380	; 0x17c
    6098:	52415f4d 	subpl	r5, r1, #308	; 0x134
    609c:	495f4843 	ldmdbmi	pc, {r0, r1, r6, fp, lr}^	; <UNPREDICTABLE>
    60a0:	545f4153 	ldrbpl	r4, [pc], #-339	; 60a8 <_Min_Stack_Size+0x5ca8>
    60a4:	424d5548 	submi	r5, sp, #72, 10	; 0x12000000
    60a8:	5f003220 	svcpl	0x00003220
    60ac:	4e4f4c5f 	mcrmi	12, 2, r4, cr15, cr15, {2}
    60b0:	4f4c5f47 	svcmi	0x004c5f47
    60b4:	4d5f474e 	ldclmi	7, cr4, [pc, #-312]	; 5f84 <_Min_Stack_Size+0x5b84>
    60b8:	5f5f5841 	svcpl	0x005f5841
    60bc:	37783020 	ldrbcc	r3, [r8, -r0, lsr #32]!
    60c0:	66666666 	strbtvs	r6, [r6], -r6, ror #12
    60c4:	66666666 	strbtvs	r6, [r6], -r6, ror #12
    60c8:	66666666 	strbtvs	r6, [r6], -r6, ror #12
    60cc:	4c666666 	stclmi	6, cr6, [r6], #-408	; 0xfffffe68
    60d0:	635f004c 	cmpvs	pc, #76	; 0x4c
    60d4:	65736f6c 	ldrbvs	r6, [r3, #-3948]!	; 0xfffff094
    60d8:	615f5f00 	cmpvs	pc, r0, lsl #30
    60dc:	745f6772 	ldrbvc	r6, [pc], #-1906	; 60e4 <_Min_Stack_Size+0x5ce4>
    60e0:	5f657079 	svcpl	0x00657079
    60e4:	28676174 	stmdacs	r7!, {r2, r4, r5, r6, r8, sp, lr}^
    60e8:	5f677261 	svcpl	0x00677261
    60ec:	646e696b 	strbtvs	r6, [lr], #-2411	; 0xfffff695
    60f0:	6772612c 	ldrbvs	r6, [r2, -ip, lsr #2]!
    60f4:	7864695f 	stmdavc	r4!, {r0, r1, r2, r3, r4, r6, r8, fp, sp, lr}^
    60f8:	7079742c 	rsbsvc	r7, r9, ip, lsr #8
    60fc:	61745f65 	cmnvs	r4, r5, ror #30
    6100:	64695f67 	strbtvs	r5, [r9], #-3943	; 0xfffff099
    6104:	00202978 	eoreq	r2, r0, r8, ror r9
    6108:	54535f5f 	ldrbpl	r5, [r3], #-3935	; 0xfffff0a1
    610c:	474e4952 	smlsldmi	r4, lr, r2, r9
    6110:	20297828 	eorcs	r7, r9, r8, lsr #16
    6114:	5f007823 	svcpl	0x00007823
    6118:	5f6d745f 	svcpl	0x006d745f
    611c:	79616479 	stmdbvc	r1!, {r0, r3, r4, r5, r6, sl, sp, lr}^
    6120:	6f687300 	svcvs	0x00687300
    6124:	5f007472 	svcpl	0x00007472
    6128:	4e454552 	mcrmi	5, 2, r4, cr5, cr2, {2}
    612c:	4e495f54 	mcrmi	15, 2, r5, cr9, cr4, {2}
    6130:	505f5449 	subspl	r5, pc, r9, asr #8
    6134:	76285254 			; <UNDEFINED> instruction: 0x76285254
    6138:	20297261 	eorcs	r7, r9, r1, ror #4
    613c:	656d207b 	strbvs	r2, [sp, #-123]!	; 0xffffff85
    6140:	7465736d 	strbtvc	r7, [r5], #-877	; 0xfffffc93
    6144:	61762828 	cmnvs	r6, r8, lsr #16
    6148:	202c2972 	eorcs	r2, ip, r2, ror r9
    614c:	73202c30 			; <UNDEFINED> instruction: 0x73202c30
    6150:	6f657a69 	svcvs	0x00657a69
    6154:	282a2866 	stmdacs	sl!, {r1, r2, r5, r6, fp, sp}
    6158:	29726176 	ldmdbcs	r2!, {r1, r2, r4, r5, r6, r8, sp, lr}^
    615c:	203b2929 	eorscs	r2, fp, r9, lsr #18
    6160:	4545525f 	strbmi	r5, [r5, #-607]	; 0xfffffda1
    6164:	495f544e 	ldmdbmi	pc, {r1, r2, r3, r6, sl, ip, lr}^	; <UNPREDICTABLE>
    6168:	5f54494e 	svcpl	0x0054494e
    616c:	5f525450 	svcpl	0x00525450
    6170:	4f52455a 	svcmi	0x0052455a
    6174:	76284445 	strtvc	r4, [r8], -r5, asr #8
    6178:	3b297261 	blcc	a62b04 <_Min_Stack_Size+0xa62704>
    617c:	5f007d20 	svcpl	0x00007d20
    6180:	504f435f 	subpl	r4, pc, pc, asr r3	; <UNPREDICTABLE>
    6184:	47495259 	smlsldmi	r5, r9, r9, r2
    6188:	73285448 			; <UNDEFINED> instruction: 0x73285448
    618c:	74732029 	ldrbtvc	r2, [r3], #-41	; 0xffffffd7
    6190:	74637572 	strbtvc	r7, [r3], #-1394	; 0xfffffa8e
    6194:	685f5f20 	ldmdavs	pc, {r5, r8, r9, sl, fp, ip, lr}^	; <UNPREDICTABLE>
    6198:	006b6361 	rsbeq	r6, fp, r1, ror #6
    619c:	46555f5f 	usaxmi	r5, r5, pc	; <UNPREDICTABLE>
    61a0:	54434152 	strbpl	r4, [r3], #-338	; 0xfffffeae
    61a4:	4942495f 	stmdbmi	r2, {r0, r1, r2, r3, r4, r6, r8, fp, lr}^
    61a8:	205f5f54 	subscs	r5, pc, r4, asr pc	; <UNPREDICTABLE>
    61ac:	5f5f0030 	svcpl	0x005f0030
    61b0:	5f4d5241 	svcpl	0x004d5241
    61b4:	49423233 	stmdbmi	r2, {r0, r1, r4, r5, r9, ip, sp}^
    61b8:	54535f54 	ldrbpl	r5, [r3], #-3924	; 0xfffff0ac
    61bc:	20455441 	subcs	r5, r5, r1, asr #8
    61c0:	5f5f0031 	svcpl	0x005f0031
    61c4:	38544e49 	ldmdacc	r4, {r0, r3, r6, r9, sl, fp, lr}^
    61c8:	6328435f 			; <UNDEFINED> instruction: 0x6328435f
    61cc:	00632029 	rsbeq	r2, r3, r9, lsr #32
    61d0:	464c5f5f 			; <UNDEFINED> instruction: 0x464c5f5f
    61d4:	54434152 	strbpl	r4, [r3], #-338	; 0xfffffeae
    61d8:	4942495f 	stmdbmi	r2, {r0, r1, r2, r3, r4, r6, r8, fp, lr}^
    61dc:	205f5f54 	subscs	r5, pc, r4, asr pc	; <UNPREDICTABLE>
    61e0:	535f0030 	cmppl	pc, #48	; 0x30
    61e4:	45444454 	strbmi	r4, [r4, #-1108]	; 0xfffffbac
    61e8:	5f485f46 	svcpl	0x00485f46
    61ec:	564e0020 	strbpl	r0, [lr], -r0, lsr #32
    61f0:	495f4349 	ldmdbmi	pc, {r0, r3, r6, r8, r9, lr}^	; <UNPREDICTABLE>
    61f4:	31524543 	cmpcc	r2, r3, asr #10
    61f8:	76282a20 	strtvc	r2, [r8], -r0, lsr #20
    61fc:	74616c6f 	strbtvc	r6, [r1], #-3183	; 0xfffff391
    6200:	20656c69 	rsbcs	r6, r5, r9, ror #24
    6204:	746e6975 	strbtvc	r6, [lr], #-2421	; 0xfffff68b
    6208:	745f3233 	ldrbvc	r3, [pc], #-563	; 6210 <_Min_Stack_Size+0x5e10>
    620c:	4e28292a 	vmulmi.f16	s4, s16, s21	; <UNPREDICTABLE>
    6210:	5f434956 	svcpl	0x00434956
    6214:	45534142 	ldrbmi	r4, [r3, #-322]	; 0xfffffebe
    6218:	30202b20 	eorcc	r2, r0, r0, lsr #22
    621c:	29343878 	ldmdbcs	r4!, {r3, r4, r5, r6, fp, ip, sp}
    6220:	445f5f00 	ldrbmi	r5, [pc], #-3840	; 6228 <_Min_Stack_Size+0x5e28>
    6224:	4d5f4c42 	ldclmi	12, cr4, [pc, #-264]	; 6124 <_Min_Stack_Size+0x5d24>
    6228:	455f4e49 	ldrbmi	r4, [pc, #-3657]	; 53e7 <_Min_Stack_Size+0x4fe7>
    622c:	5f5f5058 	svcpl	0x005f5058
    6230:	312d2820 			; <UNDEFINED> instruction: 0x312d2820
    6234:	29313230 	ldmdbcs	r1!, {r4, r5, r9, ip, sp}
    6238:	535f5f00 	cmppl	pc, #0, 30
    623c:	5f455a49 	svcpl	0x00455a49
    6240:	61002054 	qaddvs	r2, r4, r0
    6244:	636f6c6c 	cmnvs	pc, #108, 24	; 0x6c00
    6248:	69732861 	ldmdbvs	r3!, {r0, r5, r6, fp, sp}^
    624c:	2029657a 	eorcs	r6, r9, sl, ror r5
    6250:	75625f5f 	strbvc	r5, [r2, #-3935]!	; 0xfffff0a1
    6254:	69746c69 	ldmdbvs	r4!, {r0, r3, r5, r6, sl, fp, sp, lr}^
    6258:	6c615f6e 	stclvs	15, cr5, [r1], #-440	; 0xfffffe48
    625c:	61636f6c 	cmnvs	r3, ip, ror #30
    6260:	7a697328 	bvc	1a62f08 <_Min_Stack_Size+0x1a62b08>
    6264:	5f002965 	svcpl	0x00002965
    6268:	64656573 	strbtvs	r6, [r5], #-1395	; 0xfffffa8d
    626c:	705f5f00 	subsvc	r5, pc, r0, lsl #30
    6270:	746e6972 	strbtvc	r6, [lr], #-2418	; 0xfffff68e
    6274:	696c3066 	stmdbvs	ip!, {r1, r2, r5, r6, ip, sp}^
    6278:	6628656b 	strtvs	r6, [r8], -fp, ror #10
    627c:	7261746d 	rsbvc	r7, r1, #1828716544	; 0x6d000000
    6280:	69662c67 	stmdbvs	r6!, {r0, r1, r2, r5, r6, sl, fp, sp}^
    6284:	76747372 			; <UNDEFINED> instruction: 0x76747372
    6288:	72617261 	rsbvc	r7, r1, #268435462	; 0x10000006
    628c:	00202967 	eoreq	r2, r0, r7, ror #18
    6290:	4d415253 	sfmmi	f5, 2, [r1, #-332]	; 0xfffffeb4
    6294:	6d654d5f 	stclvs	13, cr4, [r5, #-380]!	; 0xfffffe84
    6298:	5f79726f 	svcpl	0x0079726f
    629c:	45534142 	ldrbmi	r4, [r3, #-322]	; 0xfffffebe
    62a0:	32783020 	rsbscc	r3, r8, #32
    62a4:	30303030 	eorscc	r3, r0, r0, lsr r0
    62a8:	55303030 	ldrpl	r3, [r0, #-48]!	; 0xffffffd0
    62ac:	5047004c 	subpl	r0, r7, ip, asr #32
    62b0:	4d5f4f49 	ldclmi	15, cr4, [pc, #-292]	; 6194 <_Min_Stack_Size+0x5d94>
    62b4:	5f45444f 	svcpl	0x0045444f
    62b8:	55504e49 	ldrbpl	r4, [r0, #-3657]	; 0xfffff1b7
    62bc:	55505f54 	ldrbpl	r5, [r0, #-3924]	; 0xfffff0ac
    62c0:	50554c4c 	subspl	r4, r5, ip, asr #24
    62c4:	30783020 	rsbscc	r3, r8, r0, lsr #32
    62c8:	30303030 	eorscc	r3, r0, r0, lsr r0
    62cc:	75323030 	ldrvc	r3, [r2, #-48]!	; 0xffffffd0
    62d0:	465f5f00 	ldrbmi	r5, [pc], -r0, lsl #30
    62d4:	3233544c 	eorscc	r5, r3, #76, 8	; 0x4c000000
    62d8:	4749445f 	smlsldmi	r4, r9, pc, r4	; <UNPREDICTABLE>
    62dc:	36205f5f 	qsaxcc	r5, r0, pc	; <UNPREDICTABLE>
    62e0:	65735f00 	ldrbvs	r5, [r3, #-3840]!	; 0xfffff100
    62e4:	5f006b65 	svcpl	0x00006b65
    62e8:	6165645f 	cmnvs	r5, pc, asr r4
    62ec:	5f203264 	svcpl	0x00203264
    62f0:	7474615f 	ldrbtvc	r6, [r4], #-351	; 0xfffffea1
    62f4:	75626972 	strbvc	r6, [r2, #-2418]!	; 0xfffff68e
    62f8:	5f5f6574 	svcpl	0x005f6574
    62fc:	5f5f2828 	svcpl	0x005f2828
    6300:	65726f6e 	ldrbvs	r6, [r2, #-3950]!	; 0xfffff092
    6304:	6e727574 	mrcvs	5, 3, r7, cr2, cr4, {3}
    6308:	29295f5f 	stmdbcs	r9!, {r0, r1, r2, r3, r4, r6, r8, r9, sl, fp, ip, lr}
    630c:	4c5f5f00 	mrrcmi	15, 0, r5, pc, cr0	; <UNPREDICTABLE>
    6310:	54534145 	ldrbpl	r4, [r3], #-325	; 0xfffffebb
    6314:	22203436 	eorcs	r3, r0, #905969664	; 0x36000000
    6318:	00226c6c 	eoreq	r6, r2, ip, ror #24
    631c:	5f434352 	svcpl	0x00434352
    6320:	4f495047 	svcmi	0x00495047
    6324:	4c435f45 	mcrrmi	15, 4, r5, r3, cr5
    6328:	4e455f4b 	cdpmi	15, 4, cr5, cr5, cr11, {2}
    632c:	28202928 	stmdacs	r0!, {r3, r5, r8, fp, sp}
    6330:	2d434352 	stclcs	3, cr4, [r3, #-328]	; 0xfffffeb8
    6334:	4250413e 	subsmi	r4, r0, #-2147483633	; 0x8000000f
    6338:	524e4532 	subpl	r4, lr, #209715200	; 0xc800000
    633c:	203d7c20 	eorscs	r7, sp, r0, lsr #24
    6340:	363c3c31 			; <UNDEFINED> instruction: 0x363c3c31
    6344:	5f5f0029 	svcpl	0x005f0029
    6348:	706d6f63 	rsbvc	r6, sp, r3, ror #30
    634c:	665f7261 	ldrbvs	r7, [pc], -r1, ror #4
    6350:	5f745f6e 	svcpl	0x00745f6e
    6354:	69666564 	stmdbvs	r6!, {r2, r5, r6, r8, sl, sp, lr}^
    6358:	2064656e 	rsbcs	r6, r4, lr, ror #10
    635c:	4e495500 	cdpmi	5, 4, cr5, cr9, cr0, {0}
    6360:	58414d54 	stmdapl	r1, {r2, r4, r6, r8, sl, fp, lr}^
    6364:	7828435f 	stmdavc	r8!, {r0, r1, r2, r3, r4, r6, r8, r9, lr}
    6368:	5f5f2029 	svcpl	0x005f2029
    636c:	544e4955 	strbpl	r4, [lr], #-2389	; 0xfffff6ab
    6370:	5f58414d 	svcpl	0x0058414d
    6374:	29782843 	ldmdbcs	r8!, {r0, r1, r6, fp, sp}^
    6378:	455f5f00 	ldrbmi	r5, [pc, #-3840]	; 5480 <_Min_Stack_Size+0x5080>
    637c:	5f005058 	svcpl	0x00005058
    6380:	6e695f5f 	mcrvs	15, 3, r5, cr9, cr15, {2}
    6384:	5f343674 	svcpl	0x00343674
    6388:	65645f74 	strbvs	r5, [r4, #-3956]!	; 0xfffff08c
    638c:	656e6966 	strbvs	r6, [lr, #-2406]!	; 0xfffff69a
    6390:	00312064 	eorseq	r2, r1, r4, rrx
    6394:	444c5f5f 	strbmi	r5, [ip], #-3935	; 0xfffff0a1
    6398:	485f4c42 	ldmdami	pc, {r1, r6, sl, fp, lr}^	; <UNPREDICTABLE>
    639c:	445f5341 	ldrbmi	r5, [pc], #-833	; 63a4 <_Min_Stack_Size+0x5fa4>
    63a0:	524f4e45 	subpl	r4, pc, #1104	; 0x450
    63a4:	205f5f4d 	subscs	r5, pc, sp, asr #30
    63a8:	58450031 	stmdapl	r5, {r0, r4, r5}^
    63ac:	50364954 	eorspl	r4, r6, r4, asr r9
    63b0:	28203641 	stmdacs	r0!, {r0, r6, r9, sl, ip, sp}
    63b4:	49545845 	ldmdbmi	r4, {r0, r2, r6, fp, ip, lr}^
    63b8:	4950475f 	ldmdbmi	r0, {r0, r1, r2, r3, r4, r6, r8, r9, sl, lr}^
    63bc:	614d5f4f 	cmpvs	sp, pc, asr #30
    63c0:	676e6970 			; <UNDEFINED> instruction: 0x676e6970
    63c4:	7b29745f 	blvc	a63548 <_Min_Stack_Size+0xa63148>
    63c8:	49545845 	ldmdbmi	r4, {r0, r2, r6, fp, ip, lr}^
    63cc:	50472c36 	subpl	r2, r7, r6, lsr ip
    63d0:	2c414f49 	mcrrcs	15, 4, r4, r1, cr9
    63d4:	4f495047 	svcmi	0x00495047
    63d8:	4e49505f 	mcrmi	0, 2, r5, cr9, cr15, {2}
    63dc:	452c365f 	strmi	r3, [ip, #-1631]!	; 0xfffff9a1
    63e0:	36495458 			; <UNDEFINED> instruction: 0x36495458
    63e4:	5152495f 	cmppl	r2, pc, asr r9
    63e8:	5f5f007d 	svcpl	0x005f007d
    63ec:	62686377 	rsbvs	r6, r8, #-603979775	; 0xdc000001
    63f0:	475f5f00 	ldrbmi	r5, [pc, -r0, lsl #30]
    63f4:	485f4343 	ldmdami	pc, {r0, r1, r6, r8, r9, lr}^	; <UNPREDICTABLE>
    63f8:	5f455641 	svcpl	0x00455641
    63fc:	434e5953 	movtmi	r5, #59731	; 0xe953
    6400:	4d4f435f 	stclmi	3, cr4, [pc, #-380]	; 628c <_Min_Stack_Size+0x5e8c>
    6404:	45524150 	ldrbmi	r4, [r2, #-336]	; 0xfffffeb0
    6408:	444e415f 	strbmi	r4, [lr], #-351	; 0xfffffea1
    640c:	4157535f 	cmpmi	r7, pc, asr r3
    6410:	20345f50 	eorscs	r5, r4, r0, asr pc
    6414:	50410031 	subpl	r0, r1, r1, lsr r0
    6418:	53523142 	cmppl	r2, #-2147483632	; 0x80000010
    641c:	5f005254 	svcpl	0x00005254
    6420:	4343415f 	movtmi	r4, #12639	; 0x315f
    6424:	4d5f4d55 	ldclmi	13, cr4, [pc, #-340]	; 62d8 <_Min_Stack_Size+0x5ed8>
    6428:	5f5f4e49 	svcpl	0x005f4e49
    642c:	302d2820 	eorcc	r2, sp, r0, lsr #16
    6430:	31503158 	cmpcc	r0, r8, asr r1
    6434:	302d4b35 	eorcc	r4, sp, r5, lsr fp
    6438:	31503158 	cmpcc	r0, r8, asr r1
    643c:	00294b35 	eoreq	r4, r9, r5, lsr fp
    6440:	4e475f5f 	mcrmi	15, 2, r5, cr7, cr15, {2}
    6444:	565f4355 			; <UNDEFINED> instruction: 0x565f4355
    6448:	494c5f41 	stmdbmi	ip, {r0, r6, r8, r9, sl, fp, ip, lr}^
    644c:	435f5453 	cmpmi	pc, #1392508928	; 0x53000000
    6450:	41504d4f 	cmpmi	r0, pc, asr #26
    6454:	49424954 	stmdbmi	r2, {r2, r4, r6, r8, fp, lr}^
    6458:	5954494c 	ldmdbpl	r4, {r2, r3, r6, r8, fp, lr}^
    645c:	5f003120 	svcpl	0x00003120
    6460:	4d52415f 	ldfmie	f4, [r2, #-380]	; 0xfffffe84
    6464:	4145465f 	cmpmi	r5, pc, asr r6
    6468:	45525554 	ldrbmi	r5, [r2, #-1364]	; 0xfffffaac
    646c:	5952435f 	ldmdbpl	r2, {r0, r1, r2, r3, r4, r6, r8, r9, lr}^
    6470:	004f5450 	subeq	r5, pc, r0, asr r4	; <UNPREDICTABLE>
    6474:	49535f5f 	ldmdbmi	r3, {r0, r1, r2, r3, r4, r6, r8, r9, sl, fp, ip, lr}^
    6478:	464f455a 			; <UNDEFINED> instruction: 0x464f455a
    647c:	4843575f 	stmdami	r3, {r0, r1, r2, r3, r4, r6, r8, r9, sl, ip, lr}^
    6480:	545f5241 	ldrbpl	r5, [pc], #-577	; 6488 <_Min_Stack_Size+0x6088>
    6484:	34205f5f 	strtcc	r5, [r0], #-3935	; 0xfffff0a1
    6488:	42504100 	subsmi	r4, r0, #0, 2
    648c:	524e4531 	subpl	r4, lr, #205520896	; 0xc400000
    6490:	626d5f00 	rsbvs	r5, sp, #0, 30
    6494:	63776f74 	cmnvs	r7, #116, 30	; 0x1d0
    6498:	6174735f 	cmnvs	r4, pc, asr r3
    649c:	5f006574 	svcpl	0x00006574
    64a0:	4e49555f 	mcrmi	5, 2, r5, cr9, cr15, {2}
    64a4:	454c5f54 	strbmi	r5, [ip, #-3924]	; 0xfffff0ac
    64a8:	36545341 	ldrbcc	r5, [r4], -r1, asr #6
    64ac:	414d5f34 	cmpmi	sp, r4, lsr pc
    64b0:	205f5f58 	subscs	r5, pc, r8, asr pc	; <UNPREDICTABLE>
    64b4:	66667830 			; <UNDEFINED> instruction: 0x66667830
    64b8:	66666666 	strbtvs	r6, [r6], -r6, ror #12
    64bc:	66666666 	strbtvs	r6, [r6], -r6, ror #12
    64c0:	66666666 	strbtvs	r6, [r6], -r6, ror #12
    64c4:	4c556666 	mrrcmi	6, 6, r6, r5, cr6
    64c8:	5f5f004c 	svcpl	0x005f004c
    64cc:	43415246 	movtmi	r5, #4678	; 0x1246
    64d0:	42495f54 	submi	r5, r9, #84, 30	; 0x150
    64d4:	5f5f5449 	svcpl	0x005f5449
    64d8:	52003020 	andpl	r3, r0, #32
    64dc:	50472057 	subpl	r2, r7, r7, asr r0
    64e0:	505f4f49 	subspl	r4, pc, r9, asr #30
    64e4:	325f4e49 	subscc	r4, pc, #1168	; 0x490
    64e8:	54584500 	ldrbpl	r4, [r8], #-1280	; 0xfffffb00
    64ec:	5f313149 	svcpl	0x00313149
    64f0:	20515249 	subscs	r5, r1, r9, asr #4
    64f4:	5f003034 	svcpl	0x00003034
    64f8:	544e495f 	strbpl	r4, [lr], #-2399	; 0xfffff6a1
    64fc:	4449575f 	strbmi	r5, [r9], #-1887	; 0xfffff8a1
    6500:	5f5f4854 	svcpl	0x005f4854
    6504:	00323320 	eorseq	r3, r2, r0, lsr #6
    6508:	454e5f5f 	strbmi	r5, [lr, #-3935]	; 0xfffff0a1
    650c:	42494c57 	submi	r4, r9, #22272	; 0x5700
    6510:	5441505f 	strbpl	r5, [r1], #-95	; 0xffffffa1
    6514:	454c4843 	strbmi	r4, [ip, #-2115]	; 0xfffff7bd
    6518:	5f4c4556 	svcpl	0x004c4556
    651c:	0030205f 	eorseq	r2, r0, pc, asr r0
    6520:	445f3444 	ldrbmi	r3, [pc], #-1092	; 6528 <_Min_Stack_Size+0x6128>
    6524:	78302037 	ldmdavc	r0!, {r0, r1, r2, r4, r5, sp}
    6528:	5f003832 	svcpl	0x00003832
    652c:	44524f5f 	ldrbmi	r4, [r2], #-3935	; 0xfffff0a1
    6530:	4c5f5245 	lfmmi	f5, 2, [pc], {69}	; 0x45
    6534:	4c545449 	cfldrdmi	mvd5, [r4], {73}	; 0x49
    6538:	4e455f45 	cdpmi	15, 4, cr5, cr5, cr5, {2}
    653c:	4e414944 	vmlsmi.f16	s9, s2, s8	; <UNPREDICTABLE>
    6540:	31205f5f 			; <UNDEFINED> instruction: 0x31205f5f
    6544:	00343332 	eorseq	r3, r4, r2, lsr r3
    6548:	69735f5f 	ldmdbvs	r3!, {r0, r1, r2, r3, r4, r6, r8, r9, sl, fp, ip, lr}^
    654c:	745f657a 	ldrbvc	r6, [pc], #-1402	; 6554 <_Min_Stack_Size+0x6154>
    6550:	435f5f00 	cmpmi	pc, #0, 30
    6554:	55535f43 	ldrbpl	r5, [r3, #-3907]	; 0xfffff0bd
    6558:	524f5050 	subpl	r5, pc, #80	; 0x50
    655c:	495f5354 	ldmdbmi	pc, {r2, r4, r6, r8, r9, ip, lr}^	; <UNPREDICTABLE>
    6560:	4e494c4e 	cdpmi	12, 4, cr4, cr9, cr14, {2}
    6564:	00312045 	eorseq	r2, r1, r5, asr #32
    6568:	4f445f5f 	svcmi	0x00445f5f
    656c:	2c205354 	stccs	3, cr5, [r0], #-336	; 0xfffffeb0
    6570:	2e2e2e20 	cdpcs	14, 2, cr2, cr14, cr0, {1}
    6574:	445f5f00 	ldrbmi	r5, [pc], #-3840	; 657c <_Min_Stack_Size+0x617c>
    6578:	34364345 	ldrtcc	r4, [r6], #-837	; 0xfffffcbb
    657c:	4e414d5f 	mcrmi	13, 2, r4, cr1, cr15, {2}
    6580:	49445f54 	stmdbmi	r4, {r2, r4, r6, r8, r9, sl, fp, ip, lr}^
    6584:	205f5f47 	subscs	r5, pc, r7, asr #30
    6588:	5f003631 	svcpl	0x00003631
    658c:	4e454552 	mcrmi	5, 2, r4, cr5, cr2, {2}
    6590:	45475f54 	strbmi	r5, [r7, #-3924]	; 0xfffff0ac
    6594:	54414454 	strbpl	r4, [r1], #-1108	; 0xfffffbac
    6598:	52455f45 	subpl	r5, r5, #276	; 0x114
    659c:	28505f52 	ldmdacs	r0, {r1, r4, r6, r8, r9, sl, fp, ip, lr}^
    65a0:	29727470 	ldmdbcs	r2!, {r4, r5, r6, sl, ip, sp, lr}^
    65a4:	28262820 	stmdacs	r6!, {r5, fp, sp}
    65a8:	72747028 	rsbsvc	r7, r4, #40	; 0x28
    65ac:	5f3e2d29 	svcpl	0x003e2d29
    65b0:	6373696d 	cmnvs	r3, #1785856	; 0x1b4000
    65b4:	675f3e2d 	ldrbvs	r3, [pc, -sp, lsr #28]
    65b8:	61647465 	cmnvs	r4, r5, ror #8
    65bc:	655f6574 	ldrbvs	r6, [pc, #-1396]	; 6050 <_Min_Stack_Size+0x5c50>
    65c0:	29297272 	stmdbcs	r9!, {r1, r4, r5, r6, r9, ip, sp, lr}
    65c4:	465f5f00 	ldrbmi	r5, [pc], -r0, lsl #30
    65c8:	4d5f544c 	cfldrdmi	mvd5, [pc, #-304]	; 64a0 <_Min_Stack_Size+0x60a0>
    65cc:	315f4e49 	cmpcc	pc, r9, asr #28
    65d0:	58455f30 	stmdapl	r5, {r4, r5, r8, r9, sl, fp, ip, lr}^
    65d4:	205f5f50 	subscs	r5, pc, r0, asr pc	; <UNPREDICTABLE>
    65d8:	37332d28 	ldrcc	r2, [r3, -r8, lsr #26]!
    65dc:	5f5f0029 	svcpl	0x005f0029
    65e0:	43414c55 	movtmi	r4, #7253	; 0x1c55
    65e4:	5f4d5543 	svcpl	0x004d5543
    65e8:	54494249 	strbpl	r4, [r9], #-585	; 0xfffffdb7
    65ec:	33205f5f 			; <UNDEFINED> instruction: 0x33205f5f
    65f0:	5f5f0032 	svcpl	0x005f0032
    65f4:	54524853 	ldrbpl	r4, [r2], #-2131	; 0xfffff7ad
    65f8:	58414d5f 	stmdapl	r1, {r0, r1, r2, r3, r4, r6, r8, sl, fp, lr}^
    65fc:	30205f5f 	eorcc	r5, r0, pc, asr pc
    6600:	66663778 			; <UNDEFINED> instruction: 0x66663778
    6604:	49550066 	ldmdbmi	r5, {r1, r2, r5, r6}^
    6608:	465f544e 	ldrbmi	r5, [pc], -lr, asr #8
    660c:	38545341 	ldmdacc	r4, {r0, r6, r8, r9, ip, lr}^
    6610:	58414d5f 	stmdapl	r1, {r0, r1, r2, r3, r4, r6, r8, sl, fp, lr}^
    6614:	5f5f2820 	svcpl	0x005f2820
    6618:	544e4955 	strbpl	r4, [lr], #-2389	; 0xfffff6ab
    661c:	5341465f 	movtpl	r4, #5727	; 0x165f
    6620:	4d5f3854 	ldclmi	8, cr3, [pc, #-336]	; 64d8 <_Min_Stack_Size+0x60d8>
    6624:	5f5f5841 	svcpl	0x005f5841
    6628:	564e0029 	strbpl	r0, [lr], -r9, lsr #32
    662c:	495f4349 	ldmdbmi	pc, {r0, r3, r6, r8, r9, lr}^	; <UNPREDICTABLE>
    6630:	5f385152 	svcpl	0x00385152
    6634:	49545845 	ldmdbmi	r4, {r0, r2, r6, fp, ip, lr}^
    6638:	6e455f32 	mcrvs	15, 2, r5, cr5, cr2, {1}
    663c:	656c6261 	strbvs	r6, [ip, #-609]!	; 0xfffffd9f
    6640:	564e2820 	strbpl	r2, [lr], -r0, lsr #16
    6644:	495f4349 	ldmdbmi	pc, {r0, r3, r6, r8, r9, lr}^	; <UNPREDICTABLE>
    6648:	30524553 	subscc	r4, r2, r3, asr r5
    664c:	203d7c20 	eorscs	r7, sp, r0, lsr #24
    6650:	3c3c3128 	ldfccs	f3, [ip], #-160	; 0xffffff60
    6654:	00292938 	eoreq	r2, r9, r8, lsr r9
    6658:	4c555f5f 	mrrcmi	15, 5, r5, r5, cr15	; <UNPREDICTABLE>
    665c:	4343414c 	movtmi	r4, #12620	; 0x314c
    6660:	455f4d55 	ldrbmi	r4, [pc, #-3413]	; 5913 <_Min_Stack_Size+0x5513>
    6664:	4c495350 	mcrrmi	3, 5, r5, r9, cr0
    6668:	5f5f4e4f 	svcpl	0x005f4e4f
    666c:	31783020 	cmncc	r8, r0, lsr #32
    6670:	32332d50 	eorscc	r2, r3, #80, 26	; 0x1400
    6674:	4b4c4c55 	blmi	13197d0 <_Min_Stack_Size+0x13193d0>
    6678:	49535f00 	ldmdbmi	r3, {r8, r9, sl, fp, ip, lr}^
    667c:	545f455a 	ldrbpl	r4, [pc], #-1370	; 6684 <_Min_Stack_Size+0x6284>
    6680:	4645445f 			; <UNDEFINED> instruction: 0x4645445f
    6684:	44454e49 	strbmi	r4, [r5], #-3657	; 0xfffff1b7
    6688:	5f5f0020 	svcpl	0x005f0020
    668c:	465f5144 	ldrbmi	r5, [pc], -r4, asr #2
    6690:	5f544942 	svcpl	0x00544942
    6694:	3336205f 	teqcc	r6, #95	; 0x5f
    6698:	475f5f00 	ldrbmi	r5, [pc, -r0, lsl #30]
    669c:	565f554e 	ldrbpl	r5, [pc], -lr, asr #10
    66a0:	42495349 	submi	r5, r9, #603979777	; 0x24000001
    66a4:	3020454c 	eorcc	r4, r0, ip, asr #10
    66a8:	49504700 	ldmdbmi	r0, {r8, r9, sl, lr}^
    66ac:	425f424f 	subsmi	r4, pc, #-268435452	; 0xf0000004
    66b0:	20455341 	subcs	r5, r5, r1, asr #6
    66b4:	30347830 	eorscc	r7, r4, r0, lsr r8
    66b8:	43303130 	teqmi	r0, #48, 2
    66bc:	4c553030 	mrrcmi	0, 3, r3, r5, cr0
    66c0:	49564e00 	ldmdbmi	r6, {r9, sl, fp, lr}^
    66c4:	52495f43 	subpl	r5, r9, #268	; 0x10c
    66c8:	455f3951 	ldrbmi	r3, [pc, #-2385]	; 5d7f <_Min_Stack_Size+0x597f>
    66cc:	33495458 	movtcc	r5, #37976	; 0x9458
    66d0:	616e455f 	cmnvs	lr, pc, asr r5
    66d4:	20656c62 	rsbcs	r6, r5, r2, ror #24
    66d8:	49564e28 	ldmdbmi	r6, {r3, r5, r9, sl, fp, lr}^
    66dc:	53495f43 	movtpl	r5, #40771	; 0x9f43
    66e0:	20305245 	eorscs	r5, r0, r5, asr #4
    66e4:	28203d7c 	stmdacs	r0!, {r2, r3, r4, r5, r6, r8, sl, fp, ip, sp}
    66e8:	393c3c31 	ldmdbcc	ip!, {r0, r4, r5, sl, fp, ip, sp}
    66ec:	5f002929 	svcpl	0x00002929
    66f0:	5254505f 	subspl	r5, r4, #95	; 0x5f
    66f4:	46464944 	strbmi	r4, [r6], -r4, asr #18
    66f8:	0020545f 	eoreq	r5, r0, pc, asr r4
    66fc:	48555f5f 	ldmdami	r5, {r0, r1, r2, r3, r4, r6, r8, r9, sl, fp, ip, lr}^
    6700:	42495f51 	submi	r5, r9, #324	; 0x144
    6704:	5f5f5449 	svcpl	0x005f5449
    6708:	47003020 	strmi	r3, [r0, -r0, lsr #32]
    670c:	5f4f4950 	svcpl	0x004f4950
    6710:	5f4e4950 	svcpl	0x004e4950
    6714:	28282035 	stmdacs	r8!, {r0, r2, r4, r5, sp}
    6718:	746e6975 	strbtvc	r6, [lr], #-2421	; 0xfffff68b
    671c:	745f3631 	ldrbvc	r3, [pc], #-1585	; 6724 <_Min_Stack_Size+0x6324>
    6720:	30783029 	rsbscc	r3, r8, r9, lsr #32
    6724:	29303230 	ldmdbcs	r0!, {r4, r5, r9, ip, sp}
    6728:	73645f00 	cmnvc	r4, #0, 30
    672c:	61685f6f 	cmnvs	r8, pc, ror #30
    6730:	656c646e 	strbvs	r6, [ip, #-1134]!	; 0xfffffb92
    6734:	495f5f00 	ldmdbmi	pc, {r8, r9, sl, fp, ip, lr}^	; <UNPREDICTABLE>
    6738:	465f544e 	ldrbmi	r5, [pc], -lr, asr #8
    673c:	31545341 	cmpcc	r4, r1, asr #6
    6740:	59545f36 	ldmdbpl	r4, {r1, r2, r4, r5, r8, r9, sl, fp, ip, lr}^
    6744:	5f5f4550 	svcpl	0x005f4550
    6748:	746e6920 	strbtvc	r6, [lr], #-2336	; 0xfffff6e0
    674c:	49555f00 	ldmdbmi	r5, {r8, r9, sl, fp, ip, lr}^
    6750:	414d544e 	cmpmi	sp, lr, asr #8
    6754:	5f545f58 	svcpl	0x00545f58
    6758:	4c434544 	cfstr64mi	mvdx4, [r3], {68}	; 0x44
    675c:	44455241 	strbmi	r5, [r5], #-577	; 0xfffffdbf
    6760:	58450020 	stmdapl	r5, {r5}^
    6764:	33314954 	teqcc	r1, #84, 18	; 0x150000
    6768:	33314250 	teqcc	r1, #80, 4
    676c:	58452820 	stmdapl	r5, {r5, fp, sp}^
    6770:	475f4954 			; <UNDEFINED> instruction: 0x475f4954
    6774:	5f4f4950 	svcpl	0x004f4950
    6778:	6970614d 	ldmdbvs	r0!, {r0, r2, r3, r6, r8, sp, lr}^
    677c:	745f676e 	ldrbvc	r6, [pc], #-1902	; 6784 <_Min_Stack_Size+0x6384>
    6780:	58457b29 	stmdapl	r5, {r0, r3, r5, r8, r9, fp, ip, sp, lr}^
    6784:	33314954 	teqcc	r1, #84, 18	; 0x150000
    6788:	4950472c 	ldmdbmi	r0, {r2, r3, r5, r8, r9, sl, lr}^
    678c:	472c424f 	strmi	r4, [ip, -pc, asr #4]!
    6790:	5f4f4950 	svcpl	0x004f4950
    6794:	5f4e4950 	svcpl	0x004e4950
    6798:	452c3331 	strmi	r3, [ip, #-817]!	; 0xfffffccf
    679c:	31495458 	cmpcc	r9, r8, asr r4
    67a0:	52495f33 	subpl	r5, r9, #51, 30	; 0xcc
    67a4:	5f007d51 	svcpl	0x00007d51
    67a8:	4341535f 	movtmi	r5, #4959	; 0x135f
    67ac:	5f4d5543 	svcpl	0x004d5543
    67b0:	5f4e494d 	svcpl	0x004e494d
    67b4:	2d28205f 	stccs	0, cr2, [r8, #-380]!	; 0xfffffe84
    67b8:	50315830 	eorspl	r5, r1, r0, lsr r8
    67bc:	2d4b4837 	stclcs	8, cr4, [fp, #-220]	; 0xffffff24
    67c0:	50315830 	eorspl	r5, r1, r0, lsr r8
    67c4:	294b4837 	stmdbcs	fp, {r0, r1, r2, r4, r5, fp, lr}^
    67c8:	61725f00 	cmnvs	r2, r0, lsl #30
    67cc:	3834646e 	ldmdacc	r4!, {r1, r2, r3, r5, r6, sl, sp, lr}
    67d0:	555f5f00 	ldrbpl	r5, [pc, #-3840]	; 58d8 <_Min_Stack_Size+0x54d8>
    67d4:	5f544e49 	svcpl	0x00544e49
    67d8:	5341454c 	movtpl	r4, #5452	; 0x154c
    67dc:	5f363154 	svcpl	0x00363154
    67e0:	45505954 	ldrbmi	r5, [r0, #-2388]	; 0xfffff6ac
    67e4:	73205f5f 			; <UNDEFINED> instruction: 0x73205f5f
    67e8:	74726f68 	ldrbtvc	r6, [r2], #-3944	; 0xfffff098
    67ec:	736e7520 	cmnvc	lr, #32, 10	; 0x8000000
    67f0:	656e6769 	strbvs	r6, [lr, #-1897]!	; 0xfffff897
    67f4:	6e692064 	cdpvs	0, 6, cr2, cr9, cr4, {3}
    67f8:	5f5f0074 	svcpl	0x005f0074
    67fc:	5f4d5241 	svcpl	0x004d5241
    6800:	54414546 	strbpl	r4, [r1], #-1350	; 0xfffffaba
    6804:	5f455255 	svcpl	0x00455255
    6808:	00414d46 	subeq	r4, r1, r6, asr #26
    680c:	414c5f5f 	cmpmi	ip, pc, asr pc
    6810:	4d554343 	ldclmi	3, cr4, [r5, #-268]	; 0xfffffef4
    6814:	58414d5f 	stmdapl	r1, {r0, r1, r2, r3, r4, r6, r8, sl, fp, lr}^
    6818:	30205f5f 	eorcc	r5, r0, pc, asr pc
    681c:	46463758 			; <UNDEFINED> instruction: 0x46463758
    6820:	46464646 	strbmi	r4, [r6], -r6, asr #12
    6824:	46464646 	strbmi	r4, [r6], -r6, asr #12
    6828:	46464646 	strbmi	r4, [r6], -r6, asr #12
    682c:	332d5046 			; <UNDEFINED> instruction: 0x332d5046
    6830:	004b4c31 	subeq	r4, fp, r1, lsr ip
    6834:	48435f5f 	stmdami	r3, {r0, r1, r2, r3, r4, r6, r8, r9, sl, fp, ip, lr}^
    6838:	36315241 	ldrtcc	r5, [r1], -r1, asr #4
    683c:	5059545f 	subspl	r5, r9, pc, asr r4
    6840:	205f5f45 	subscs	r5, pc, r5, asr #30
    6844:	726f6873 	rsbvc	r6, pc, #7536640	; 0x730000
    6848:	6e752074 	mrcvs	0, 3, r2, cr5, cr4, {3}
    684c:	6e676973 			; <UNDEFINED> instruction: 0x6e676973
    6850:	69206465 	stmdbvs	r0!, {r0, r2, r5, r6, sl, sp, lr}
    6854:	4700746e 	strmi	r7, [r0, -lr, ror #8]
    6858:	5f4f4950 	svcpl	0x004f4950
    685c:	74726f50 	ldrbtvc	r6, [r2], #-3920	; 0xfffff0b0
    6860:	49504700 	ldmdbmi	r0, {r8, r9, sl, lr}^
    6864:	49505f4f 	ldmdbmi	r0, {r0, r1, r2, r3, r6, r8, r9, sl, fp, ip, lr}^
    6868:	20365f4e 	eorscs	r5, r6, lr, asr #30
    686c:	69752828 	ldmdbvs	r5!, {r3, r5, fp, sp}^
    6870:	3631746e 	ldrtcc	r7, [r1], -lr, ror #8
    6874:	3029745f 	eorcc	r7, r9, pc, asr r4
    6878:	34303078 	ldrtcc	r3, [r0], #-120	; 0xffffff88
    687c:	5f002930 	svcpl	0x00002930
    6880:	544c465f 	strbpl	r4, [ip], #-1631	; 0xfffff9a1
    6884:	5f583233 	svcpl	0x00583233
    6888:	5f474944 	svcpl	0x00474944
    688c:	3531205f 	ldrcc	r2, [r1, #-95]!	; 0xffffffa1
    6890:	735f5f00 	cmpvc	pc, #0, 30
    6894:	656e6769 	strbvs	r6, [lr, #-1897]!	; 0xfffff897
    6898:	69732064 	ldmdbvs	r3!, {r2, r5, r6, sp}^
    689c:	64656e67 	strbtvs	r6, [r5], #-3687	; 0xfffff199
    68a0:	555f5f00 	ldrbpl	r5, [pc, #-3840]	; 59a8 <_Min_Stack_Size+0x55a8>
    68a4:	465f5154 			; <UNDEFINED> instruction: 0x465f5154
    68a8:	5f544942 	svcpl	0x00544942
    68ac:	3231205f 	eorscc	r2, r1, #95	; 0x5f
    68b0:	58450038 	stmdapl	r5, {r3, r4, r5}^
    68b4:	50344954 	eorspl	r4, r4, r4, asr r9
    68b8:	28203441 	stmdacs	r0!, {r0, r6, sl, ip, sp}
    68bc:	49545845 	ldmdbmi	r4, {r0, r2, r6, fp, ip, lr}^
    68c0:	4950475f 	ldmdbmi	r0, {r0, r1, r2, r3, r4, r6, r8, r9, sl, lr}^
    68c4:	614d5f4f 	cmpvs	sp, pc, asr #30
    68c8:	676e6970 			; <UNDEFINED> instruction: 0x676e6970
    68cc:	7b29745f 	blvc	a63a50 <_Min_Stack_Size+0xa63650>
    68d0:	49545845 	ldmdbmi	r4, {r0, r2, r6, fp, ip, lr}^
    68d4:	50472c34 	subpl	r2, r7, r4, lsr ip
    68d8:	2c414f49 	mcrrcs	15, 4, r4, r1, cr9
    68dc:	4f495047 	svcmi	0x00495047
    68e0:	4e49505f 	mcrmi	0, 2, r5, cr9, cr15, {2}
    68e4:	452c345f 	strmi	r3, [ip, #-1119]!	; 0xfffffba1
    68e8:	34495458 	strbcc	r5, [r9], #-1112	; 0xfffffba8
    68ec:	5152495f 	cmppl	r2, pc, asr r9
    68f0:	5f5f007d 	svcpl	0x005f007d
    68f4:	494e4946 	stmdbmi	lr, {r1, r2, r6, r8, fp, lr}^
    68f8:	4d5f4554 	cfldr64mi	mvdx4, [pc, #-336]	; 67b0 <_Min_Stack_Size+0x63b0>
    68fc:	5f485441 	svcpl	0x00485441
    6900:	594c4e4f 	stmdbpl	ip, {r0, r1, r2, r3, r6, r9, sl, fp, lr}^
    6904:	30205f5f 	eorcc	r5, r0, pc, asr pc
    6908:	495f5f00 	ldmdbmi	pc, {r8, r9, sl, fp, ip, lr}^	; <UNPREDICTABLE>
    690c:	465f544e 	ldrbmi	r5, [pc], -lr, asr #8
    6910:	31545341 	cmpcc	r4, r1, asr #6
    6914:	414d5f36 	cmpmi	sp, r6, lsr pc
    6918:	205f5f58 	subscs	r5, pc, r8, asr pc	; <UNPREDICTABLE>
    691c:	66377830 			; <UNDEFINED> instruction: 0x66377830
    6920:	66666666 	strbtvs	r6, [r6], -r6, ror #12
    6924:	5f006666 	svcpl	0x00006666
    6928:	7661685f 			; <UNDEFINED> instruction: 0x7661685f
    692c:	6f6c5f65 	svcvs	0x006c5f65
    6930:	6f6c676e 	svcvs	0x006c676e
    6934:	3436676e 	ldrtcc	r6, [r6], #-1902	; 0xfffff892
    6938:	5f003120 	svcpl	0x00003120
    693c:	736b6c62 	cmnvc	fp, #25088	; 0x6200
    6940:	00657a69 	rsbeq	r7, r5, r9, ror #20
    6944:	4e49555f 	mcrmi	5, 2, r5, cr9, cr15, {2}
    6948:	545f3854 	ldrbpl	r3, [pc], #-2132	; 6950 <_Min_Stack_Size+0x6550>
    694c:	4345445f 	movtmi	r4, #21599	; 0x545f
    6950:	4552414c 	ldrbmi	r4, [r2, #-332]	; 0xfffffeb4
    6954:	5f002044 	svcpl	0x00002044
    6958:	544e4955 	strbpl	r4, [lr], #-2389	; 0xfffff6ab
    695c:	5f525450 	svcpl	0x00525450
    6960:	45445f54 	strbmi	r5, [r4, #-3924]	; 0xfffff0ac
    6964:	52414c43 	subpl	r4, r1, #17152	; 0x4300
    6968:	00204445 	eoreq	r4, r0, r5, asr #8
    696c:	49545845 	ldmdbmi	r4, {r0, r2, r6, fp, ip, lr}^
    6970:	495f3531 	ldmdbmi	pc, {r0, r4, r5, r8, sl, ip, sp}^	; <UNPREDICTABLE>
    6974:	34205152 	strtcc	r5, [r0], #-338	; 0xfffffeae
    6978:	575f0030 	smmlarpl	pc, r0, r0, r0	; <UNPREDICTABLE>
    697c:	52414843 	subpl	r4, r1, #4390912	; 0x430000
    6980:	445f545f 	ldrbmi	r5, [pc], #-1119	; 6988 <_Min_Stack_Size+0x6588>
    6984:	4e494645 	cdpmi	6, 4, cr4, cr9, cr5, {2}
    6988:	00204445 	eoreq	r4, r0, r5, asr #8
    698c:	7361625f 	cmnvc	r1, #-268435451	; 0xf0000005
    6990:	5f5f0065 	svcpl	0x005f0065
    6994:	43414c55 	movtmi	r4, #7253	; 0x1c55
    6998:	5f4d5543 	svcpl	0x004d5543
    699c:	5f58414d 	svcpl	0x0058414d
    69a0:	5830205f 	ldmdapl	r0!, {r0, r1, r2, r3, r4, r6, sp}
    69a4:	46464646 	strbmi	r4, [r6], -r6, asr #12
    69a8:	46464646 	strbmi	r4, [r6], -r6, asr #12
    69ac:	46464646 	strbmi	r4, [r6], -r6, asr #12
    69b0:	46464646 	strbmi	r4, [r6], -r6, asr #12
    69b4:	32332d50 	eorscc	r2, r3, #80, 26	; 0x1400
    69b8:	004b4c55 	subeq	r4, fp, r5, asr ip
    69bc:	72745f5f 	rsbsvc	r5, r4, #380	; 0x17c
    69c0:	636f6c79 	cmnvs	pc, #30976	; 0x7900
    69c4:	655f736b 	ldrbvs	r7, [pc, #-875]	; 6661 <_Min_Stack_Size+0x6261>
    69c8:	756c6378 	strbvc	r6, [ip, #-888]!	; 0xfffffc88
    69cc:	65766973 	ldrbvs	r6, [r6, #-2419]!	; 0xfffff68d
    69d0:	2e2e2e28 	cdpcs	14, 2, cr2, cr14, cr8, {1}
    69d4:	5f5f2029 	svcpl	0x005f2029
    69d8:	6b636f6c 	blvs	18e2790 <_Min_Stack_Size+0x18e2390>
    69dc:	6e6e615f 	mcrvs	1, 3, r6, cr14, cr15, {2}
    69e0:	7461746f 	strbtvc	r7, [r1], #-1135	; 0xfffffb91
    69e4:	78652865 	stmdavc	r5!, {r0, r2, r5, r6, fp, sp}^
    69e8:	73756c63 	cmnvc	r5, #25344	; 0x6300
    69ec:	5f657669 	svcpl	0x00657669
    69f0:	6c797274 	lfmvs	f7, 2, [r9], #-464	; 0xfffffe30
    69f4:	5f6b636f 	svcpl	0x006b636f
    69f8:	636e7566 	cmnvs	lr, #427819008	; 0x19800000
    69fc:	6e6f6974 			; <UNDEFINED> instruction: 0x6e6f6974
    6a00:	565f5f28 	ldrbpl	r5, [pc], -r8, lsr #30
    6a04:	52415f41 	subpl	r5, r1, #260	; 0x104
    6a08:	5f5f5347 	svcpl	0x005f5347
    6a0c:	5f002929 	svcpl	0x00002929
    6a10:	4e454552 	mcrmi	5, 2, r4, cr5, cr2, {2}
    6a14:	41525f54 	cmpmi	r2, r4, asr pc
    6a18:	4e5f444e 	cdpmi	4, 5, cr4, cr15, cr14, {2}
    6a1c:	28545845 	ldmdacs	r4, {r0, r2, r6, fp, ip, lr}^
    6a20:	29727470 	ldmdbcs	r2!, {r4, r5, r6, sl, ip, sp, lr}^
    6a24:	70282820 	eorvc	r2, r8, r0, lsr #16
    6a28:	2d297274 	sfmcs	f7, 4, [r9, #-464]!	; 0xfffffe30
    6a2c:	34725f3e 	ldrbtcc	r5, [r2], #-3902	; 0xfffff0c2
    6a30:	5f3e2d38 	svcpl	0x003e2d38
    6a34:	646e6172 	strbtvs	r6, [lr], #-370	; 0xfffffe8e
    6a38:	78656e5f 	stmdavc	r5!, {r0, r1, r2, r3, r4, r6, r9, sl, fp, sp, lr}^
    6a3c:	45002974 	strmi	r2, [r0, #-2420]	; 0xfffff68c
    6a40:	30495458 	subcc	r5, r9, r8, asr r4
    6a44:	5152495f 	cmppl	r2, pc, asr r9
    6a48:	5f003620 	svcpl	0x00003620
    6a4c:	464c555f 			; <UNDEFINED> instruction: 0x464c555f
    6a50:	54434152 	strbpl	r4, [r3], #-338	; 0xfffffeae
    6a54:	4e494d5f 	mcrmi	13, 2, r4, cr9, cr15, {2}
    6a58:	30205f5f 	eorcc	r5, r0, pc, asr pc
    6a5c:	4c55302e 	mrrcmi	0, 2, r3, r5, cr14
    6a60:	735f0052 	cmpvc	pc, #82	; 0x52
    6a64:	6f747274 	svcvs	0x00747274
    6a68:	616c5f6b 	cmnvs	ip, fp, ror #30
    6a6c:	5f007473 	svcpl	0x00007473
    6a70:	5f51445f 	svcpl	0x0051445f
    6a74:	54494249 	strbpl	r4, [r9], #-585	; 0xfffffdb7
    6a78:	30205f5f 	eorcc	r5, r0, pc, asr pc
    6a7c:	4c414800 	mcrrmi	8, 0, r4, r1, cr0
    6a80:	44434c5f 	strbmi	r4, [r3], #-3167	; 0xfffff3a1
    6a84:	44434c5f 	strbmi	r4, [r3], #-3167	; 0xfffff3a1
    6a88:	4e4f435f 	mcrmi	3, 2, r4, cr15, cr15, {2}
    6a8c:	5f474946 	svcpl	0x00474946
    6a90:	00205f48 	eoreq	r5, r0, r8, asr #30
    6a94:	4e495f5f 	mcrmi	15, 2, r5, cr9, cr15, {2}
    6a98:	5f323354 	svcpl	0x00323354
    6a9c:	45505954 	ldrbmi	r5, [r0, #-2388]	; 0xfffff6ac
    6aa0:	6c205f5f 	stcvs	15, cr5, [r0], #-380	; 0xfffffe84
    6aa4:	20676e6f 	rsbcs	r6, r7, pc, ror #28
    6aa8:	00746e69 	rsbseq	r6, r4, r9, ror #28
    6aac:	49555f5f 	ldmdbmi	r5, {r0, r1, r2, r3, r4, r6, r8, r9, sl, fp, ip, lr}^
    6ab0:	4c5f544e 	cfldrdmi	mvd5, [pc], {78}	; 0x4e
    6ab4:	54534145 	ldrbpl	r4, [r3], #-325	; 0xfffffebb
    6ab8:	414d5f38 	cmpmi	sp, r8, lsr pc
    6abc:	205f5f58 	subscs	r5, pc, r8, asr pc	; <UNPREDICTABLE>
    6ac0:	66667830 			; <UNDEFINED> instruction: 0x66667830
    6ac4:	626d5f00 	rsbvs	r5, sp, #0, 30
    6ac8:	776f7472 			; <UNDEFINED> instruction: 0x776f7472
    6acc:	74735f63 	ldrbtvc	r5, [r3], #-3939	; 0xfffff09d
    6ad0:	00657461 	rsbeq	r7, r5, r1, ror #8
    6ad4:	6f635f5f 	svcvs	0x00635f5f
    6ad8:	6961746e 	stmdbvs	r1!, {r1, r2, r3, r5, r6, sl, ip, sp, lr}^
    6adc:	6f72656e 	svcvs	0x0072656e
    6ae0:	2c782866 	ldclcs	8, cr2, [r8], #-408	; 0xfffffe68
    6ae4:	296d2c73 	stmdbcs	sp!, {r0, r1, r4, r5, r6, sl, fp, sp}^
    6ae8:	207b2820 	rsbscs	r2, fp, r0, lsr #16
    6aec:	736e6f63 	cmnvc	lr, #396	; 0x18c
    6af0:	6f762074 	svcvs	0x00762074
    6af4:	6974616c 	ldmdbvs	r4!, {r2, r3, r5, r6, r8, sp, lr}^
    6af8:	5f20656c 	svcpl	0x0020656c
    6afc:	7079745f 	rsbsvc	r7, r9, pc, asr r4
    6b00:	28666f65 	stmdacs	r6!, {r0, r2, r5, r6, r8, r9, sl, fp, sp, lr}^
    6b04:	20732828 	rsbscs	r2, r3, r8, lsr #16
    6b08:	2930292a 	ldmdbcs	r0!, {r1, r3, r5, r8, fp, sp}
    6b0c:	296d3e2d 	stmdbcs	sp!, {r0, r2, r3, r5, r9, sl, fp, ip, sp}^
    6b10:	5f5f2a20 	svcpl	0x005f2a20
    6b14:	203d2078 	eorscs	r2, sp, r8, ror r0
    6b18:	3b297828 	blcc	a64bc0 <_Min_Stack_Size+0xa647c0>
    6b1c:	445f5f20 	ldrbmi	r5, [pc], #-3872	; 6b24 <_Min_Stack_Size+0x6724>
    6b20:	41555145 	cmpmi	r5, r5, asr #2
    6b24:	5946494c 	stmdbpl	r6, {r2, r3, r6, r8, fp, lr}^
    6b28:	2a207328 	bcs	8237d0 <_Min_Stack_Size+0x8233d0>
    6b2c:	6328202c 			; <UNDEFINED> instruction: 0x6328202c
    6b30:	74736e6f 	ldrbtvc	r6, [r3], #-3695	; 0xfffff191
    6b34:	6c6f7620 	stclvs	6, cr7, [pc], #-128	; 6abc <_Min_Stack_Size+0x66bc>
    6b38:	6c697461 	cfstrdvs	mvd7, [r9], #-388	; 0xfffffe7c
    6b3c:	68632065 	stmdavs	r3!, {r0, r2, r5, r6, sp}^
    6b40:	2a207261 	bcs	8234cc <_Min_Stack_Size+0x8230cc>
    6b44:	785f5f29 	ldmdavc	pc, {r0, r3, r5, r8, r9, sl, fp, ip, lr}^	; <UNPREDICTABLE>
    6b48:	5f202d20 	svcpl	0x00202d20
    6b4c:	66666f5f 	uqsaxvs	r6, r6, pc	; <UNPREDICTABLE>
    6b50:	6f746573 	svcvs	0x00746573
    6b54:	2c732866 	ldclcs	8, cr2, [r3], #-408	; 0xfffffe68
    6b58:	29296d20 	stmdbcs	r9!, {r5, r8, sl, fp, sp, lr}
    6b5c:	00297d3b 	eoreq	r7, r9, fp, lsr sp
    6b60:	4e49555f 	mcrmi	5, 2, r5, cr9, cr15, {2}
    6b64:	5f323354 	svcpl	0x00323354
    6b68:	45445f54 	strbmi	r5, [r4, #-3924]	; 0xfffff0ac
    6b6c:	52414c43 	subpl	r4, r1, #17152	; 0x4300
    6b70:	00204445 	eoreq	r4, r0, r5, asr #8
    6b74:	4453425f 	ldrbmi	r4, [r3], #-607	; 0xfffffda1
    6b78:	5a49535f 	bpl	125b8fc <_Min_Stack_Size+0x125b4fc>
    6b7c:	5f545f45 	svcpl	0x00545f45
    6b80:	58450020 	stmdapl	r5, {r5}^
    6b84:	50354954 	eorspl	r4, r5, r4, asr r9
    6b88:	28203544 	stmdacs	r0!, {r2, r6, r8, sl, ip, sp}
    6b8c:	49545845 	ldmdbmi	r4, {r0, r2, r6, fp, ip, lr}^
    6b90:	4950475f 	ldmdbmi	r0, {r0, r1, r2, r3, r4, r6, r8, r9, sl, lr}^
    6b94:	614d5f4f 	cmpvs	sp, pc, asr #30
    6b98:	676e6970 			; <UNDEFINED> instruction: 0x676e6970
    6b9c:	7b29745f 	blvc	a63d20 <_Min_Stack_Size+0xa63920>
    6ba0:	49545845 	ldmdbmi	r4, {r0, r2, r6, fp, ip, lr}^
    6ba4:	50472c35 	subpl	r2, r7, r5, lsr ip
    6ba8:	2c444f49 	mcrrcs	15, 4, r4, r4, cr9
    6bac:	4f495047 	svcmi	0x00495047
    6bb0:	4e49505f 	mcrmi	0, 2, r5, cr9, cr15, {2}
    6bb4:	452c355f 	strmi	r3, [ip, #-1375]!	; 0xfffffaa1
    6bb8:	35495458 	strbcc	r5, [r9, #-1112]	; 0xfffffba8
    6bbc:	5152495f 	cmppl	r2, pc, asr r9
    6bc0:	5845007d 	stmdapl	r5, {r0, r2, r3, r4, r5, r6}^
    6bc4:	50314954 	eorspl	r4, r1, r4, asr r9
    6bc8:	28203144 	stmdacs	r0!, {r2, r6, r8, ip, sp}
    6bcc:	49545845 	ldmdbmi	r4, {r0, r2, r6, fp, ip, lr}^
    6bd0:	4950475f 	ldmdbmi	r0, {r0, r1, r2, r3, r4, r6, r8, r9, sl, lr}^
    6bd4:	614d5f4f 	cmpvs	sp, pc, asr #30
    6bd8:	676e6970 			; <UNDEFINED> instruction: 0x676e6970
    6bdc:	7b29745f 	blvc	a63d60 <_Min_Stack_Size+0xa63960>
    6be0:	49545845 	ldmdbmi	r4, {r0, r2, r6, fp, ip, lr}^
    6be4:	50472c31 	subpl	r2, r7, r1, lsr ip
    6be8:	2c444f49 	mcrrcs	15, 4, r4, r4, cr9
    6bec:	4f495047 	svcmi	0x00495047
    6bf0:	4e49505f 	mcrmi	0, 2, r5, cr9, cr15, {2}
    6bf4:	452c315f 	strmi	r3, [ip, #-351]!	; 0xfffffea1
    6bf8:	31495458 	cmpcc	r9, r8, asr r4
    6bfc:	5152495f 	cmppl	r2, pc, asr r9
    6c00:	5f5f007d 	svcpl	0x005f007d
    6c04:	6c5f6f6e 	mrrcvs	15, 6, r6, pc, cr14	; <UNPREDICTABLE>
    6c08:	5f6b636f 	svcpl	0x006b636f
    6c0c:	6c616e61 	stclvs	14, cr6, [r1], #-388	; 0xfffffe7c
    6c10:	73697379 	cmnvc	r9, #-469762047	; 0xe4000001
    6c14:	6c5f5f20 	mrrcvs	15, 2, r5, pc, cr0	; <UNPREDICTABLE>
    6c18:	5f6b636f 	svcpl	0x006b636f
    6c1c:	6f6e6e61 	svcvs	0x006e6e61
    6c20:	65746174 	ldrbvs	r6, [r4, #-372]!	; 0xfffffe8c
    6c24:	5f6f6e28 	svcpl	0x006f6e28
    6c28:	65726874 	ldrbvs	r6, [r2, #-2164]!	; 0xfffff78c
    6c2c:	735f6461 	cmpvc	pc, #1627389952	; 0x61000000
    6c30:	74656661 	strbtvc	r6, [r5], #-1633	; 0xfffff99f
    6c34:	6e615f79 	mcrvs	15, 3, r5, cr1, cr9, {3}
    6c38:	73796c61 	cmnvc	r9, #24832	; 0x6100
    6c3c:	00297369 	eoreq	r7, r9, r9, ror #6
    6c40:	4349564e 	movtmi	r5, #38478	; 0x964e
    6c44:	5152495f 	cmppl	r2, pc, asr r9
    6c48:	58455f36 	stmdapl	r5, {r1, r2, r4, r5, r8, r9, sl, fp, ip, lr}^
    6c4c:	5f304954 	svcpl	0x00304954
    6c50:	62616e45 	rsbvs	r6, r1, #1104	; 0x450
    6c54:	2820656c 	stmdacs	r0!, {r2, r3, r5, r6, r8, sl, sp, lr}
    6c58:	4349564e 	movtmi	r5, #38478	; 0x964e
    6c5c:	4553495f 	ldrbmi	r4, [r3, #-2399]	; 0xfffff6a1
    6c60:	7c203052 	stcvc	0, cr3, [r0], #-328	; 0xfffffeb8
    6c64:	3128203d 			; <UNDEFINED> instruction: 0x3128203d
    6c68:	29363c3c 	ldmdbcs	r6!, {r2, r3, r4, r5, sl, fp, ip, sp}
    6c6c:	665f0029 	ldrbvs	r0, [pc], -r9, lsr #32
    6c70:	6b636f6c 	blvs	18e2a28 <_Min_Stack_Size+0x18e2628>
    6c74:	5f00745f 	svcpl	0x0000745f
    6c78:	4c49465f 	mcrrmi	6, 5, r4, r9, cr15
    6c7c:	525f0045 	subspl	r0, pc, #69	; 0x45
    6c80:	544e4545 	strbpl	r4, [lr], #-1349	; 0xfffffabb
    6c84:	5f504d5f 	svcpl	0x00504d5f
    6c88:	45455246 	strbmi	r5, [r5, #-582]	; 0xfffffdba
    6c8c:	5453494c 	ldrbpl	r4, [r3], #-2380	; 0xfffff6b4
    6c90:	72747028 	rsbsvc	r7, r4, #40	; 0x28
    6c94:	28282029 	stmdacs	r8!, {r0, r3, r5, sp}
    6c98:	29727470 	ldmdbcs	r2!, {r4, r5, r6, sl, ip, sp, lr}^
    6c9c:	6d5f3e2d 	ldclvs	14, cr3, [pc, #-180]	; 6bf0 <_Min_Stack_Size+0x67f0>
    6ca0:	5f3e2d70 	svcpl	0x003e2d70
    6ca4:	65657266 	strbvs	r7, [r5, #-614]!	; 0xfffffd9a
    6ca8:	7473696c 	ldrbtvc	r6, [r3], #-2412	; 0xfffff694
    6cac:	545f0029 	ldrbpl	r0, [pc], #-41	; 6cb4 <_Min_Stack_Size+0x68b4>
    6cb0:	5f454d49 	svcpl	0x00454d49
    6cb4:	5f205f54 	svcpl	0x00205f54
    6cb8:	746e695f 	strbtvc	r6, [lr], #-2399	; 0xfffff6a1
    6cbc:	61656c5f 	cmnvs	r5, pc, asr ip
    6cc0:	34367473 	ldrtcc	r7, [r6], #-1139	; 0xfffffb8d
    6cc4:	5f00745f 	svcpl	0x0000745f
    6cc8:	434f4c43 	movtmi	r4, #64579	; 0xfc43
    6ccc:	5f44494b 	svcpl	0x0044494b
    6cd0:	75205f54 	strvc	r5, [r0, #-3924]!	; 0xfffff0ac
    6cd4:	6769736e 	strbvs	r7, [r9, -lr, ror #6]!
    6cd8:	2064656e 	rsbcs	r6, r4, lr, ror #10
    6cdc:	676e6f6c 	strbvs	r6, [lr, -ip, ror #30]!
    6ce0:	4e495500 	cdpmi	5, 4, cr5, cr9, cr0, {0}
    6ce4:	5f363154 	svcpl	0x00363154
    6ce8:	29782843 	ldmdbcs	r8!, {r0, r1, r6, fp, sp}^
    6cec:	555f5f20 	ldrbpl	r5, [pc, #-3872]	; 5dd4 <_Min_Stack_Size+0x59d4>
    6cf0:	31544e49 	cmpcc	r4, r9, asr #28
    6cf4:	28435f36 	stmdacs	r3, {r1, r2, r4, r5, r8, r9, sl, fp, ip, lr}^
    6cf8:	5f002978 	svcpl	0x00002978
    6cfc:	5154555f 	cmppl	r4, pc, asr r5
    6d00:	4942495f 	stmdbmi	r2, {r0, r1, r2, r3, r4, r6, r8, fp, lr}^
    6d04:	205f5f54 	subscs	r5, pc, r4, asr pc	; <UNPREDICTABLE>
    6d08:	58450030 	stmdapl	r5, {r4, r5}^
    6d0c:	20324954 	eorscs	r4, r2, r4, asr r9
    6d10:	5f5f0032 	svcpl	0x005f0032
    6d14:	465f4153 			; <UNDEFINED> instruction: 0x465f4153
    6d18:	5f544942 	svcpl	0x00544942
    6d1c:	3531205f 	ldrcc	r2, [r1, #-95]!	; 0xffffffa1
    6d20:	495f5f00 	ldmdbmi	pc, {r8, r9, sl, fp, ip, lr}^	; <UNPREDICTABLE>
    6d24:	575f544e 	ldrbpl	r5, [pc, -lr, asr #8]
    6d28:	52414843 	subpl	r4, r1, #4390912	; 0x430000
    6d2c:	485f545f 	ldmdami	pc, {r0, r1, r2, r3, r4, r6, sl, ip, lr}^	; <UNPREDICTABLE>
    6d30:	5f5f0020 	svcpl	0x005f0020
    6d34:	33544c46 	cmpcc	r4, #17920	; 0x4600
    6d38:	4d5f5832 	ldclmi	8, cr5, [pc, #-200]	; 6c78 <_Min_Stack_Size+0x6878>
    6d3c:	5f5f5841 	svcpl	0x005f5841
    6d40:	372e3120 	strcc	r3, [lr, -r0, lsr #2]!
    6d44:	39363739 	ldmdbcc	r6!, {r0, r3, r4, r5, r8, r9, sl, ip, sp}
    6d48:	34333133 	ldrtcc	r3, [r3], #-307	; 0xfffffecd
    6d4c:	33323638 	teqcc	r2, #56, 12	; 0x3800000
    6d50:	65373531 	ldrvs	r3, [r7, #-1329]!	; 0xfffffacf
    6d54:	3830332b 	ldmdacc	r0!, {r0, r1, r3, r5, r8, r9, ip, sp}
    6d58:	78323346 	ldmdavc	r2!, {r1, r2, r6, r8, r9, ip, sp}
    6d5c:	48435700 	stmdami	r3, {r8, r9, sl, ip, lr}^
    6d60:	4d5f5241 	lfmmi	f5, 2, [pc, #-260]	; 6c64 <_Min_Stack_Size+0x6864>
    6d64:	28205841 	stmdacs	r0!, {r0, r6, fp, ip, lr}
    6d68:	43575f5f 	cmpmi	r7, #380	; 0x17c
    6d6c:	5f524148 	svcpl	0x00524148
    6d70:	5f58414d 	svcpl	0x0058414d
    6d74:	5f00295f 	svcpl	0x0000295f
    6d78:	544c465f 	strbpl	r4, [ip], #-1631	; 0xfffff9a1
    6d7c:	4d5f3233 	lfmmi	f3, 2, [pc, #-204]	; 6cb8 <_Min_Stack_Size+0x68b8>
    6d80:	5f5f4e49 	svcpl	0x005f4e49
    6d84:	312e3120 			; <UNDEFINED> instruction: 0x312e3120
    6d88:	39343537 	ldmdbcc	r4!, {r0, r1, r2, r4, r5, r8, sl, ip, sp}
    6d8c:	30353334 	eorscc	r3, r5, r4, lsr r3
    6d90:	32323238 	eorscc	r3, r2, #56, 4	; 0x80000003
    6d94:	65353738 	ldrvs	r3, [r5, #-1848]!	; 0xfffff8c8
    6d98:	4638332d 	ldrtmi	r3, [r8], -sp, lsr #6
    6d9c:	5f003233 	svcpl	0x00003233
    6da0:	00383472 	eorseq	r3, r8, r2, ror r4
    6da4:	41555f5f 	cmpmi	r5, pc, asr pc
    6da8:	4d554343 	ldclmi	3, cr4, [r5, #-268]	; 0xfffffef4
    6dac:	4942495f 	stmdbmi	r2, {r0, r1, r2, r3, r4, r6, r8, fp, lr}^
    6db0:	205f5f54 	subscs	r5, pc, r4, asr pc	; <UNPREDICTABLE>
    6db4:	5f003631 	svcpl	0x00003631
    6db8:	464c455f 			; <UNDEFINED> instruction: 0x464c455f
    6dbc:	31205f5f 			; <UNDEFINED> instruction: 0x31205f5f
    6dc0:	544e4900 	strbpl	r4, [lr], #-2304	; 0xfffff700
    6dc4:	4d5f3233 	lfmmi	f3, 2, [pc, #-204]	; 6d00 <_Min_Stack_Size+0x6900>
    6dc8:	28204e49 	stmdacs	r0!, {r0, r3, r6, r9, sl, fp, lr}
    6dcc:	495f5f2d 	ldmdbmi	pc, {r0, r2, r3, r5, r8, r9, sl, fp, ip, lr}^	; <UNPREDICTABLE>
    6dd0:	3233544e 	eorscc	r5, r3, #1308622848	; 0x4e000000
    6dd4:	58414d5f 	stmdapl	r1, {r0, r1, r2, r3, r4, r6, r8, sl, fp, lr}^
    6dd8:	2d205f5f 	stccs	15, cr5, [r0, #-380]!	; 0xfffffe84
    6ddc:	00293120 	eoreq	r3, r9, r0, lsr #2
    6de0:	48545f5f 	ldmdami	r4, {r0, r1, r2, r3, r4, r6, r8, r9, sl, fp, ip, lr}^
    6de4:	45424d55 	strbmi	r4, [r2, #-3413]	; 0xfffff2ab
    6de8:	205f5f4c 	subscs	r5, pc, ip, asr #30
    6dec:	49550031 	ldmdbmi	r5, {r0, r4, r5}^
    6df0:	5f38544e 	svcpl	0x0038544e
    6df4:	29782843 	ldmdbcs	r8!, {r0, r1, r6, fp, sp}^
    6df8:	555f5f20 	ldrbpl	r5, [pc, #-3872]	; 5ee0 <_Min_Stack_Size+0x5ae0>
    6dfc:	38544e49 	ldmdacc	r4, {r0, r3, r6, r9, sl, fp, lr}^
    6e00:	7828435f 	stmdavc	r8!, {r0, r1, r2, r3, r4, r6, r8, r9, lr}
    6e04:	495f0029 	ldmdbmi	pc, {r0, r3, r5}^	; <UNPREDICTABLE>
    6e08:	5f38544e 	svcpl	0x0038544e
    6e0c:	45445f54 	strbmi	r5, [r4, #-3924]	; 0xfffff0ac
    6e10:	52414c43 	subpl	r4, r1, #17152	; 0x4300
    6e14:	00204445 	eoreq	r4, r0, r5, asr #8
    6e18:	49545845 	ldmdbmi	r4, {r0, r2, r6, fp, ip, lr}^
    6e1c:	39425039 	stmdbcc	r2, {r0, r3, r4, r5, ip, lr}^
    6e20:	58452820 	stmdapl	r5, {r5, fp, sp}^
    6e24:	475f4954 			; <UNDEFINED> instruction: 0x475f4954
    6e28:	5f4f4950 	svcpl	0x004f4950
    6e2c:	6970614d 	ldmdbvs	r0!, {r0, r2, r3, r6, r8, sp, lr}^
    6e30:	745f676e 	ldrbvc	r6, [pc], #-1902	; 6e38 <_Min_Stack_Size+0x6a38>
    6e34:	58457b29 	stmdapl	r5, {r0, r3, r5, r8, r9, fp, ip, sp, lr}^
    6e38:	2c394954 			; <UNDEFINED> instruction: 0x2c394954
    6e3c:	4f495047 	svcmi	0x00495047
    6e40:	50472c42 	subpl	r2, r7, r2, asr #24
    6e44:	505f4f49 	subspl	r4, pc, r9, asr #30
    6e48:	395f4e49 	ldmdbcc	pc, {r0, r3, r6, r9, sl, fp, lr}^	; <UNPREDICTABLE>
    6e4c:	5458452c 	ldrbpl	r4, [r8], #-1324	; 0xfffffad4
    6e50:	495f3949 	ldmdbmi	pc, {r0, r3, r6, r8, fp, ip, sp}^	; <UNPREDICTABLE>
    6e54:	007d5152 	rsbseq	r5, sp, r2, asr r1
    6e58:	51515f5f 	cmppl	r1, pc, asr pc
    6e5c:	4942495f 	stmdbmi	r2, {r0, r1, r2, r3, r4, r6, r8, fp, lr}^
    6e60:	205f5f54 	subscs	r5, pc, r4, asr pc	; <UNPREDICTABLE>
    6e64:	5f5f0030 	svcpl	0x005f0030
    6e68:	6e656572 	mcrvs	5, 3, r6, cr5, cr2, {3}
    6e6c:	73615f74 	cmnvc	r1, #116, 30	; 0x1d0
    6e70:	74726573 	ldrbtvc	r6, [r2], #-1395	; 0xfffffa8d
    6e74:	20297828 	eorcs	r7, r9, r8, lsr #16
    6e78:	6f762828 	svcvs	0x00762828
    6e7c:	30296469 	eorcc	r6, r9, r9, ror #8
    6e80:	49550029 	ldmdbmi	r5, {r0, r3, r5}^
    6e84:	3436544e 	ldrtcc	r5, [r6], #-1102	; 0xfffffbb2
    6e88:	7828435f 	stmdavc	r8!, {r0, r1, r2, r3, r4, r6, r8, r9, lr}
    6e8c:	5f5f2029 	svcpl	0x005f2029
    6e90:	544e4955 	strbpl	r4, [lr], #-2389	; 0xfffff6ab
    6e94:	435f3436 	cmpmi	pc, #905969664	; 0x36000000
    6e98:	00297828 	eoreq	r7, r9, r8, lsr #16
    6e9c:	4c4c5f5f 	mcrrmi	15, 5, r5, ip, cr15
    6ea0:	55434341 	strbpl	r4, [r3, #-833]	; 0xfffffcbf
    6ea4:	42465f4d 	submi	r5, r6, #308	; 0x134
    6ea8:	5f5f5449 	svcpl	0x005f5449
    6eac:	00313320 	eorseq	r3, r1, r0, lsr #6
    6eb0:	7461645f 	strbtvc	r6, [r1], #-1119	; 0xfffffba1
    6eb4:	49550061 	ldmdbmi	r5, {r0, r5, r6}^
    6eb8:	3631544e 	ldrtcc	r5, [r1], -lr, asr #8
    6ebc:	58414d5f 	stmdapl	r1, {r0, r1, r2, r3, r4, r6, r8, sl, fp, lr}^
    6ec0:	5f5f2820 	svcpl	0x005f2820
    6ec4:	544e4955 	strbpl	r4, [lr], #-2389	; 0xfffff6ab
    6ec8:	4d5f3631 	ldclmi	6, cr3, [pc, #-196]	; 6e0c <_Min_Stack_Size+0x6a0c>
    6ecc:	5f5f5841 	svcpl	0x005f5841
    6ed0:	5f5f0029 	svcpl	0x005f0029
    6ed4:	33544c46 	cmpcc	r4, #17920	; 0x4600
    6ed8:	4d5f5832 	ldclmi	8, cr5, [pc, #-200]	; 6e18 <_Min_Stack_Size+0x6a18>
    6edc:	315f4e49 	cmpcc	pc, r9, asr #28
    6ee0:	58455f30 	stmdapl	r5, {r4, r5, r8, r9, sl, fp, ip, lr}^
    6ee4:	205f5f50 	subscs	r5, pc, r0, asr pc	; <UNPREDICTABLE>
    6ee8:	30332d28 	eorscc	r2, r3, r8, lsr #26
    6eec:	55002937 	strpl	r2, [r0, #-2359]	; 0xfffff6c9
    6ef0:	5f544e49 	svcpl	0x00544e49
    6ef4:	5341454c 	movtpl	r4, #5452	; 0x154c
    6ef8:	4d5f3854 	ldclmi	8, cr3, [pc, #-336]	; 6db0 <_Min_Stack_Size+0x69b0>
    6efc:	28205841 	stmdacs	r0!, {r0, r6, fp, ip, lr}
    6f00:	49555f5f 	ldmdbmi	r5, {r0, r1, r2, r3, r4, r6, r8, r9, sl, fp, ip, lr}^
    6f04:	4c5f544e 	cfldrdmi	mvd5, [pc], {78}	; 0x4e
    6f08:	54534145 	ldrbpl	r4, [r3], #-325	; 0xfffffebb
    6f0c:	414d5f38 	cmpmi	sp, r8, lsr pc
    6f10:	295f5f58 	ldmdbcs	pc, {r3, r4, r6, r8, r9, sl, fp, ip, lr}^	; <UNPREDICTABLE>
    6f14:	555f5f00 	ldrbpl	r5, [pc, #-3840]	; 601c <_Min_Stack_Size+0x5c1c>
    6f18:	495f5153 	ldmdbmi	pc, {r0, r1, r4, r6, r8, ip, lr}^	; <UNPREDICTABLE>
    6f1c:	5f544942 	svcpl	0x00544942
    6f20:	0030205f 	eorseq	r2, r0, pc, asr r0
    6f24:	4e475f5f 	mcrmi	15, 2, r5, cr7, cr15, {2}
    6f28:	4d5f4355 	ldclmi	3, cr4, [pc, #-340]	; 6ddc <_Min_Stack_Size+0x69dc>
    6f2c:	524f4e49 	subpl	r4, pc, #1168	; 0x490
    6f30:	33205f5f 			; <UNDEFINED> instruction: 0x33205f5f
    6f34:	6c5f5f00 	mrrcvs	15, 0, r5, pc, cr0	; <UNPREDICTABLE>
    6f38:	5f6b636f 	svcpl	0x006b636f
    6f3c:	656c6572 	strbvs	r6, [ip, #-1394]!	; 0xfffffa8e
    6f40:	5f657361 	svcpl	0x00657361
    6f44:	75636572 	strbvc	r6, [r3, #-1394]!	; 0xfffffa8e
    6f48:	76697372 			; <UNDEFINED> instruction: 0x76697372
    6f4c:	6f6c2865 	svcvs	0x006c2865
    6f50:	20296b63 	eorcs	r6, r9, r3, ror #22
    6f54:	6f762828 	svcvs	0x00762828
    6f58:	20296469 	eorcs	r6, r9, r9, ror #8
    6f5c:	5f002930 	svcpl	0x00002930
    6f60:	4e49555f 	mcrmi	5, 2, r5, cr9, cr15, {2}
    6f64:	454c5f54 	strbmi	r5, [ip, #-3924]	; 0xfffff0ac
    6f68:	33545341 	cmpcc	r4, #67108865	; 0x4000001
    6f6c:	59545f32 	ldmdbpl	r4, {r1, r4, r5, r8, r9, sl, fp, ip, lr}^
    6f70:	5f5f4550 	svcpl	0x005f4550
    6f74:	6e6f6c20 	cdpvs	12, 6, cr6, cr15, cr0, {1}
    6f78:	6e752067 	cdpvs	0, 7, cr2, cr5, cr7, {3}
    6f7c:	6e676973 			; <UNDEFINED> instruction: 0x6e676973
    6f80:	69206465 	stmdbvs	r0!, {r0, r2, r5, r6, sl, sp, lr}
    6f84:	5f00746e 	svcpl	0x0000746e
    6f88:	33544e49 	cmpcc	r4, #1168	; 0x490
    6f8c:	5f545f32 	svcpl	0x00545f32
    6f90:	4c434544 	cfstr64mi	mvdx4, [r3], {68}	; 0x44
    6f94:	44455241 	strbmi	r5, [r5], #-577	; 0xfffffdbf
    6f98:	5f5f0020 	svcpl	0x005f0020
    6f9c:	5f4d5241 	svcpl	0x004d5241
    6fa0:	54414546 	strbpl	r4, [r1], #-1350	; 0xfffffaba
    6fa4:	5f455255 	svcpl	0x00455255
    6fa8:	454d554e 	strbmi	r5, [sp, #-1358]	; 0xfffffab2
    6fac:	5f434952 	svcpl	0x00434952
    6fb0:	4d58414d 	ldfmie	f4, [r8, #-308]	; 0xfffffecc
    6fb4:	5f004e49 	svcpl	0x00004e49
    6fb8:	444e4152 	strbmi	r4, [lr], #-338	; 0xfffffeae
    6fbc:	4d5f3834 	ldclmi	8, cr3, [pc, #-208]	; 6ef4 <_Min_Stack_Size+0x6af4>
    6fc0:	5f544c55 	svcpl	0x00544c55
    6fc4:	30282031 	eorcc	r2, r8, r1, lsr r0
    6fc8:	65656478 	strbvs	r6, [r5, #-1144]!	; 0xfffffb88
    6fcc:	5f002963 	svcpl	0x00002963
    6fd0:	544e495f 	strbpl	r4, [lr], #-2399	; 0xfffff6a1
    6fd4:	5f58414d 	svcpl	0x0058414d
    6fd8:	45505954 	ldrbmi	r5, [r0, #-2388]	; 0xfffff6ac
    6fdc:	6c205f5f 	stcvs	15, cr5, [r0], #-380	; 0xfffffe84
    6fe0:	20676e6f 	rsbcs	r6, r7, pc, ror #28
    6fe4:	676e6f6c 	strbvs	r6, [lr, -ip, ror #30]!
    6fe8:	746e6920 	strbtvc	r6, [lr], #-2336	; 0xfffff6e0
    6fec:	54584500 	ldrbpl	r4, [r8], #-1280	; 0xfffffb00
    6ff0:	42503349 	subsmi	r3, r0, #603979777	; 0x24000001
    6ff4:	45282033 	strmi	r2, [r8, #-51]!	; 0xffffffcd
    6ff8:	5f495458 	svcpl	0x00495458
    6ffc:	4f495047 	svcmi	0x00495047
    7000:	70614d5f 	rsbvc	r4, r1, pc, asr sp
    7004:	5f676e69 	svcpl	0x00676e69
    7008:	457b2974 	ldrbmi	r2, [fp, #-2420]!	; 0xfffff68c
    700c:	33495458 	movtcc	r5, #37976	; 0x9458
    7010:	4950472c 	ldmdbmi	r0, {r2, r3, r5, r8, r9, sl, lr}^
    7014:	472c424f 	strmi	r4, [ip, -pc, asr #4]!
    7018:	5f4f4950 	svcpl	0x004f4950
    701c:	5f4e4950 	svcpl	0x004e4950
    7020:	58452c33 	stmdapl	r5, {r0, r1, r4, r5, sl, fp, sp}^
    7024:	5f334954 	svcpl	0x00334954
    7028:	7d515249 	lfmvc	f5, 2, [r1, #-292]	; 0xfffffedc
    702c:	4e495500 	cdpmi	5, 4, cr5, cr9, cr0, {0}
    7030:	41465f54 	cmpmi	r6, r4, asr pc
    7034:	32335453 	eorscc	r5, r3, #1392508928	; 0x53000000
    7038:	58414d5f 	stmdapl	r1, {r0, r1, r2, r3, r4, r6, r8, sl, fp, lr}^
    703c:	5f5f2820 	svcpl	0x005f2820
    7040:	544e4955 	strbpl	r4, [lr], #-2389	; 0xfffff6ab
    7044:	5341465f 	movtpl	r4, #5727	; 0x165f
    7048:	5f323354 	svcpl	0x00323354
    704c:	5f58414d 	svcpl	0x0058414d
    7050:	5f00295f 	svcpl	0x0000295f
    7054:	4343475f 	movtmi	r4, #14175	; 0x375f
    7058:	4f54415f 	svcmi	0x0054415f
    705c:	5f43494d 	svcpl	0x0043494d
    7060:	5f544e49 	svcpl	0x00544e49
    7064:	4b434f4c 	blmi	10dad9c <_Min_Stack_Size+0x10da99c>
    7068:	4552465f 	ldrbmi	r4, [r2, #-1631]	; 0xfffff9a1
    706c:	00322045 	eorseq	r2, r2, r5, asr #32
    7070:	49545845 	ldmdbmi	r4, {r0, r2, r6, fp, ip, lr}^
    7074:	35435035 	strbcc	r5, [r3, #-53]	; 0xffffffcb
    7078:	58452820 	stmdapl	r5, {r5, fp, sp}^
    707c:	475f4954 			; <UNDEFINED> instruction: 0x475f4954
    7080:	5f4f4950 	svcpl	0x004f4950
    7084:	6970614d 	ldmdbvs	r0!, {r0, r2, r3, r6, r8, sp, lr}^
    7088:	745f676e 	ldrbvc	r6, [pc], #-1902	; 7090 <_Min_Stack_Size+0x6c90>
    708c:	58457b29 	stmdapl	r5, {r0, r3, r5, r8, r9, fp, ip, sp, lr}^
    7090:	2c354954 			; <UNDEFINED> instruction: 0x2c354954
    7094:	4f495047 	svcmi	0x00495047
    7098:	50472c43 	subpl	r2, r7, r3, asr #24
    709c:	505f4f49 	subspl	r4, pc, r9, asr #30
    70a0:	355f4e49 	ldrbcc	r4, [pc, #-3657]	; 625f <_Min_Stack_Size+0x5e5f>
    70a4:	5458452c 	ldrbpl	r4, [r8], #-1324	; 0xfffffad4
    70a8:	495f3549 	ldmdbmi	pc, {r0, r3, r6, r8, sl, ip, sp}^	; <UNPREDICTABLE>
    70ac:	007d5152 	rsbseq	r5, sp, r2, asr r1
    70b0:	4e41525f 	mcrmi	2, 2, r5, cr1, cr15, {2}
    70b4:	5f383444 	svcpl	0x00383444
    70b8:	44454553 	strbmi	r4, [r5], #-1363	; 0xfffffaad
    70bc:	2820305f 	stmdacs	r0!, {r0, r1, r2, r3, r4, r6, ip, sp}
    70c0:	33337830 	teqcc	r3, #48, 16	; 0x300000
    70c4:	00296530 	eoreq	r6, r9, r0, lsr r5
    70c8:	49545845 	ldmdbmi	r4, {r0, r2, r6, fp, ip, lr}^
    70cc:	32425032 	subcc	r5, r2, #50	; 0x32
    70d0:	58452820 	stmdapl	r5, {r5, fp, sp}^
    70d4:	475f4954 			; <UNDEFINED> instruction: 0x475f4954
    70d8:	5f4f4950 	svcpl	0x004f4950
    70dc:	6970614d 	ldmdbvs	r0!, {r0, r2, r3, r6, r8, sp, lr}^
    70e0:	745f676e 	ldrbvc	r6, [pc], #-1902	; 70e8 <_Min_Stack_Size+0x6ce8>
    70e4:	58457b29 	stmdapl	r5, {r0, r3, r5, r8, r9, fp, ip, sp, lr}^
    70e8:	2c324954 			; <UNDEFINED> instruction: 0x2c324954
    70ec:	4f495047 	svcmi	0x00495047
    70f0:	50472c42 	subpl	r2, r7, r2, asr #24
    70f4:	505f4f49 	subspl	r4, pc, r9, asr #30
    70f8:	325f4e49 	subscc	r4, pc, #1168	; 0x490
    70fc:	5458452c 	ldrbpl	r4, [r8], #-1324	; 0xfffffad4
    7100:	495f3249 	ldmdbmi	pc, {r0, r3, r6, r9, ip, sp}^	; <UNPREDICTABLE>
    7104:	007d5152 	rsbseq	r5, sp, r2, asr r1
    7108:	4343475f 	movtmi	r4, #14175	; 0x375f
    710c:	58414d5f 	stmdapl	r1, {r0, r1, r2, r3, r4, r6, r8, sl, fp, lr}^
    7110:	494c415f 	stmdbmi	ip, {r0, r1, r2, r3, r4, r6, r8, lr}^
    7114:	545f4e47 	ldrbpl	r4, [pc], #-3655	; 711c <_Min_Stack_Size+0x6d1c>
    7118:	5f5f0020 	svcpl	0x005f0020
    711c:	676e6f4c 	strbvs	r6, [lr, -ip, asr #30]!
    7120:	6e6f6c20 	cdpvs	12, 6, cr6, cr15, cr0, {1}
    7124:	5f5f0067 	svcpl	0x005f0067
    7128:	5f4d5241 	svcpl	0x004d5241
    712c:	54414546 	strbpl	r4, [r1], #-1350	; 0xfffffaba
    7130:	5f455255 	svcpl	0x00455255
    7134:	36315046 	ldrtcc	r5, [r1], -r6, asr #32
    7138:	4143535f 	cmpmi	r3, pc, asr r3
    713c:	5f52414c 	svcpl	0x0052414c
    7140:	54495241 	strbpl	r5, [r9], #-577	; 0xfffffdbf
    7144:	54454d48 	strbpl	r4, [r5], #-3400	; 0xfffff2b8
    7148:	5f004349 	svcpl	0x00004349
    714c:	4153555f 	cmpmi	r3, pc, asr r5
    7150:	4d554343 	ldclmi	3, cr4, [r5, #-268]	; 0xfffffef4
    7154:	5350455f 	cmppl	r0, #398458880	; 0x17c00000
    7158:	4e4f4c49 	cdpmi	12, 4, cr4, cr15, cr9, {2}
    715c:	30205f5f 	eorcc	r5, r0, pc, asr pc
    7160:	2d503178 	ldfcse	f3, [r0, #-480]	; 0xfffffe20
    7164:	4b485538 	blmi	121c64c <_Min_Stack_Size+0x121c24c>
    7168:	445f5f00 	ldrbmi	r5, [pc], #-3840	; 7170 <_Min_Stack_Size+0x6d70>
    716c:	485f4c42 	ldmdami	pc, {r1, r6, sl, fp, lr}^	; <UNPREDICTABLE>
    7170:	515f5341 	cmppl	pc, r1, asr #6
    7174:	54454955 	strbpl	r4, [r5], #-2389	; 0xfffff6ab
    7178:	4e414e5f 	mcrmi	14, 2, r4, cr1, cr15, {2}
    717c:	31205f5f 			; <UNDEFINED> instruction: 0x31205f5f
    7180:	49504700 	ldmdbmi	r0, {r8, r9, sl, lr}^
    7184:	425f434f 	subsmi	r4, pc, #1006632961	; 0x3c000001
    7188:	20455341 	subcs	r5, r5, r1, asr #6
    718c:	30347830 	eorscc	r7, r4, r0, lsr r8
    7190:	30313130 	eorscc	r3, r1, r0, lsr r1
    7194:	4c553030 	mrrcmi	0, 3, r3, r5, cr0
    7198:	49504700 	ldmdbmi	r0, {r8, r9, sl, lr}^
    719c:	49505f4f 	ldmdbmi	r0, {r0, r1, r2, r3, r6, r8, r9, sl, fp, ip, lr}^
    71a0:	20375f4e 	eorscs	r5, r7, lr, asr #30
    71a4:	69752828 	ldmdbvs	r5!, {r3, r5, fp, sp}^
    71a8:	3631746e 	ldrtcc	r7, [r1], -lr, ror #8
    71ac:	3029745f 	eorcc	r7, r9, pc, asr r4
    71b0:	38303078 	ldmdacc	r0!, {r3, r4, r5, r6, ip, sp}
    71b4:	49002930 	stmdbmi	r0, {r4, r5, r8, fp, sp}
    71b8:	3233544e 	eorscc	r5, r3, #1308622848	; 0x4e000000
    71bc:	7828435f 	stmdavc	r8!, {r0, r1, r2, r3, r4, r6, r8, r9, lr}
    71c0:	5f5f2029 	svcpl	0x005f2029
    71c4:	33544e49 	cmpcc	r4, #1168	; 0x490
    71c8:	28435f32 	stmdacs	r3, {r1, r4, r5, r8, r9, sl, fp, ip, lr}^
    71cc:	5f002978 	svcpl	0x00002978
    71d0:	7274705f 	rsbsvc	r7, r4, #95	; 0x5f
    71d4:	756c6176 	strbvc	r6, [ip, #-374]!	; 0xfffffe8a
    71d8:	5f002065 	svcpl	0x00002065
    71dc:	4e494f4e 	cdpmi	15, 4, cr4, cr9, cr14, {2}
    71e0:	454e494c 	strbmi	r4, [lr, #-2380]	; 0xfffff6b4
    71e4:	4154535f 	cmpmi	r4, pc, asr r3
    71e8:	20434954 	subcs	r4, r3, r4, asr r9
    71ec:	494f4e5f 	stmdbmi	pc, {r0, r1, r2, r3, r4, r6, r9, sl, fp, lr}^	; <UNPREDICTABLE>
    71f0:	4e494c4e 	cdpmi	12, 4, cr4, cr9, cr14, {2}
    71f4:	74732045 	ldrbtvc	r2, [r3], #-69	; 0xffffffbb
    71f8:	63697461 	cmnvs	r9, #1627389952	; 0x61000000
    71fc:	43435200 	movtmi	r5, #12800	; 0x3200
    7200:	4950475f 	ldmdbmi	r0, {r0, r1, r2, r3, r4, r6, r8, r9, sl, lr}^
    7204:	435f444f 	cmpmi	pc, #1325400064	; 0x4f000000
    7208:	455f4b4c 	ldrbmi	r4, [pc, #-2892]	; 66c4 <_Min_Stack_Size+0x62c4>
    720c:	2029284e 	eorcs	r2, r9, lr, asr #16
    7210:	43435228 	movtmi	r5, #12840	; 0x3228
    7214:	50413e2d 	subpl	r3, r1, sp, lsr #28
    7218:	4e453242 	cdpmi	2, 4, cr3, cr5, cr2, {2}
    721c:	3d7c2052 	ldclcc	0, cr2, [ip, #-328]!	; 0xfffffeb8
    7220:	3c3c3120 	ldfccs	f3, [ip], #-128	; 0xffffff80
    7224:	5f002935 	svcpl	0x00002935
    7228:	4843414d 	stmdami	r3, {r0, r2, r3, r6, r8, lr}^
    722c:	5f454e49 	svcpl	0x00454e49
    7230:	5059545f 	subspl	r5, r9, pc, asr r4
    7234:	485f5345 	ldmdami	pc, {r0, r2, r6, r8, r9, ip, lr}^	; <UNPREDICTABLE>
    7238:	5f5f0020 	svcpl	0x005f0020
    723c:	736e6f63 	cmnvc	lr, #396	; 0x18c
    7240:	6f632074 	svcvs	0x00632074
    7244:	0074736e 	rsbseq	r7, r4, lr, ror #6
    7248:	544e4955 	strbpl	r4, [lr], #-2389	; 0xfffff6ab
    724c:	41454c5f 	cmpmi	r5, pc, asr ip
    7250:	32335453 	eorscc	r5, r3, #1392508928	; 0x53000000
    7254:	58414d5f 	stmdapl	r1, {r0, r1, r2, r3, r4, r6, r8, sl, fp, lr}^
    7258:	5f5f2820 	svcpl	0x005f2820
    725c:	544e4955 	strbpl	r4, [lr], #-2389	; 0xfffff6ab
    7260:	41454c5f 	cmpmi	r5, pc, asr ip
    7264:	32335453 	eorscc	r5, r3, #1392508928	; 0x53000000
    7268:	58414d5f 	stmdapl	r1, {r0, r1, r2, r3, r4, r6, r8, sl, fp, lr}^
    726c:	00295f5f 	eoreq	r5, r9, pc, asr pc
    7270:	4f495047 	svcmi	0x00495047
    7274:	6e69505f 	mcrvs	0, 3, r5, cr9, cr15, {2}
    7278:	54584500 	ldrbpl	r4, [r8], #-1280	; 0xfffffb00
    727c:	43503349 	cmpmi	r0, #603979777	; 0x24000001
    7280:	45282033 	strmi	r2, [r8, #-51]!	; 0xffffffcd
    7284:	5f495458 	svcpl	0x00495458
    7288:	4f495047 	svcmi	0x00495047
    728c:	70614d5f 	rsbvc	r4, r1, pc, asr sp
    7290:	5f676e69 	svcpl	0x00676e69
    7294:	457b2974 	ldrbmi	r2, [fp, #-2420]!	; 0xfffff68c
    7298:	33495458 	movtcc	r5, #37976	; 0x9458
    729c:	4950472c 	ldmdbmi	r0, {r2, r3, r5, r8, r9, sl, lr}^
    72a0:	472c434f 	strmi	r4, [ip, -pc, asr #6]!
    72a4:	5f4f4950 	svcpl	0x004f4950
    72a8:	5f4e4950 	svcpl	0x004e4950
    72ac:	58452c33 	stmdapl	r5, {r0, r1, r4, r5, sl, fp, sp}^
    72b0:	5f334954 	svcpl	0x00334954
    72b4:	7d515249 	lfmvc	f5, 2, [r1, #-292]	; 0xfffffedc
    72b8:	49504700 	ldmdbmi	r0, {r8, r9, sl, lr}^
    72bc:	425f414f 	subsmi	r4, pc, #-1073741805	; 0xc0000013
    72c0:	20455341 	subcs	r5, r5, r1, asr #6
    72c4:	30347830 	eorscc	r7, r4, r0, lsr r8
    72c8:	38303130 	ldmdacc	r0!, {r4, r5, r8, ip, sp}
    72cc:	4c553030 	mrrcmi	0, 3, r3, r5, cr0
    72d0:	535f5f00 	cmppl	pc, #0, 30
    72d4:	55434341 	strbpl	r4, [r3, #-833]	; 0xfffffcbf
    72d8:	414d5f4d 	cmpmi	sp, sp, asr #30
    72dc:	205f5f58 	subscs	r5, pc, r8, asr pc	; <UNPREDICTABLE>
    72e0:	46375830 			; <UNDEFINED> instruction: 0x46375830
    72e4:	2d504646 	ldclcs	6, cr4, [r0, #-280]	; 0xfffffee8
    72e8:	004b4837 	subeq	r4, fp, r7, lsr r8
    72ec:	4e495f5f 	mcrmi	15, 2, r5, cr9, cr15, {2}
    72f0:	52545054 	subspl	r5, r4, #84	; 0x54
    72f4:	5059545f 	subspl	r5, r9, pc, asr r4
    72f8:	205f5f45 	subscs	r5, pc, r5, asr #30
    72fc:	00746e69 	rsbseq	r6, r4, r9, ror #28
    7300:	49545845 	ldmdbmi	r4, {r0, r2, r6, fp, ip, lr}^
    7304:	52495f38 	subpl	r5, r9, #56, 30	; 0xe0
    7308:	33322051 	teqcc	r2, #81	; 0x51
    730c:	555f5f00 	ldrbpl	r5, [pc, #-3840]	; 6414 <_Min_Stack_Size+0x6014>
    7310:	50544e49 	subspl	r4, r4, r9, asr #28
    7314:	545f5254 	ldrbpl	r5, [pc], #-596	; 731c <_Min_Stack_Size+0x6f1c>
    7318:	5f455059 	svcpl	0x00455059
    731c:	6e75205f 	mrcvs	0, 3, r2, cr5, cr15, {2}
    7320:	6e676973 			; <UNDEFINED> instruction: 0x6e676973
    7324:	69206465 	stmdbvs	r0!, {r0, r2, r5, r6, sl, sp, lr}
    7328:	4500746e 	strmi	r7, [r0, #-1134]	; 0xfffffb92
    732c:	37495458 	smlsldcc	r5, r9, r8, r4
    7330:	20374250 	eorscs	r4, r7, r0, asr r2
    7334:	54584528 	ldrbpl	r4, [r8], #-1320	; 0xfffffad8
    7338:	50475f49 	subpl	r5, r7, r9, asr #30
    733c:	4d5f4f49 	ldclmi	15, cr4, [pc, #-292]	; 7220 <_Min_Stack_Size+0x6e20>
    7340:	6e697061 	cdpvs	0, 6, cr7, cr9, cr1, {3}
    7344:	29745f67 	ldmdbcs	r4!, {r0, r1, r2, r5, r6, r8, r9, sl, fp, ip, lr}^
    7348:	5458457b 	ldrbpl	r4, [r8], #-1403	; 0xfffffa85
    734c:	472c3749 	strmi	r3, [ip, -r9, asr #14]!
    7350:	424f4950 	submi	r4, pc, #80, 18	; 0x140000
    7354:	4950472c 	ldmdbmi	r0, {r2, r3, r5, r8, r9, sl, lr}^
    7358:	49505f4f 	ldmdbmi	r0, {r0, r1, r2, r3, r6, r8, r9, sl, fp, ip, lr}^
    735c:	2c375f4e 	ldccs	15, cr5, [r7], #-312	; 0xfffffec8
    7360:	49545845 	ldmdbmi	r4, {r0, r2, r6, fp, ip, lr}^
    7364:	52495f37 	subpl	r5, r9, #55, 30	; 0xdc
    7368:	5f007d51 	svcpl	0x00007d51
    736c:	4745525f 	smlsldmi	r5, r5, pc, r2	; <UNPREDICTABLE>
    7370:	45545349 	ldrbmi	r5, [r4, #-841]	; 0xfffffcb7
    7374:	52505f52 	subspl	r5, r0, #328	; 0x148
    7378:	58494645 	stmdapl	r9, {r0, r2, r6, r9, sl, lr}^
    737c:	00205f5f 	eoreq	r5, r0, pc, asr pc
    7380:	4c465f5f 	mcrrmi	15, 5, r5, r6, cr15
    7384:	5f323354 	svcpl	0x00323354
    7388:	5f58414d 	svcpl	0x0058414d
    738c:	2e33205f 	mrccs	0, 1, r2, cr3, cr15, {2}
    7390:	38323034 	ldmdacc	r2!, {r2, r4, r5, ip, sp}
    7394:	36343332 			; <UNDEFINED> instruction: 0x36343332
    7398:	35383336 	ldrcc	r3, [r8, #-822]!	; 0xfffffcca
    739c:	36383832 			; <UNDEFINED> instruction: 0x36383832
    73a0:	38332b65 	ldmdacc	r3!, {r0, r2, r5, r6, r8, r9, fp, sp}
    73a4:	00323346 	eorseq	r3, r2, r6, asr #6
    73a8:	42445f5f 	submi	r5, r4, #380	; 0x17c
    73ac:	49445f4c 	stmdbmi	r4, {r2, r3, r6, r8, r9, sl, fp, ip, lr}^
    73b0:	205f5f47 	subscs	r5, pc, r7, asr #30
    73b4:	5f003531 	svcpl	0x00003531
    73b8:	464c555f 			; <UNDEFINED> instruction: 0x464c555f
    73bc:	54434152 	strbpl	r4, [r3], #-338	; 0xfffffeae
    73c0:	5350455f 	cmppl	r0, #398458880	; 0x17c00000
    73c4:	4e4f4c49 	cdpmi	12, 4, cr4, cr15, cr9, {2}
    73c8:	30205f5f 	eorcc	r5, r0, pc, asr pc
    73cc:	2d503178 	ldfcse	f3, [r0, #-480]	; 0xfffffe20
    73d0:	4c553233 	lfmmi	f3, 2, [r5], {51}	; 0x33
    73d4:	5f5f0052 	svcpl	0x005f0052
    73d8:	49534352 	ldmdbmi	r3, {r1, r4, r6, r8, r9, lr}^
    73dc:	29732844 	ldmdbcs	r3!, {r2, r6, fp, sp}^
    73e0:	72747320 	rsbsvc	r7, r4, #32, 6	; 0x80000000
    73e4:	20746375 	rsbscs	r6, r4, r5, ror r3
    73e8:	61685f5f 	cmnvs	r8, pc, asr pc
    73ec:	45006b63 	strmi	r6, [r0, #-2915]	; 0xfffff49d
    73f0:	32495458 	subcc	r5, r9, #88, 8	; 0x58000000
    73f4:	20324450 	eorscs	r4, r2, r0, asr r4
    73f8:	54584528 	ldrbpl	r4, [r8], #-1320	; 0xfffffad8
    73fc:	50475f49 	subpl	r5, r7, r9, asr #30
    7400:	4d5f4f49 	ldclmi	15, cr4, [pc, #-292]	; 72e4 <_Min_Stack_Size+0x6ee4>
    7404:	6e697061 	cdpvs	0, 6, cr7, cr9, cr1, {3}
    7408:	29745f67 	ldmdbcs	r4!, {r0, r1, r2, r5, r6, r8, r9, sl, fp, ip, lr}^
    740c:	5458457b 	ldrbpl	r4, [r8], #-1403	; 0xfffffa85
    7410:	472c3249 	strmi	r3, [ip, -r9, asr #4]!
    7414:	444f4950 	strbmi	r4, [pc], #-2384	; 741c <_Min_Stack_Size+0x701c>
    7418:	4950472c 	ldmdbmi	r0, {r2, r3, r5, r8, r9, sl, lr}^
    741c:	49505f4f 	ldmdbmi	r0, {r0, r1, r2, r3, r6, r8, r9, sl, fp, ip, lr}^
    7420:	2c325f4e 	ldccs	15, cr5, [r2], #-312	; 0xfffffec8
    7424:	49545845 	ldmdbmi	r4, {r0, r2, r6, fp, ip, lr}^
    7428:	52495f32 	subpl	r5, r9, #50, 30	; 0xc8
    742c:	5f007d51 	svcpl	0x00007d51
    7430:	4e454552 	mcrmi	5, 2, r4, cr5, cr2, {2}
    7434:	364c5f54 			; <UNDEFINED> instruction: 0x364c5f54
    7438:	425f4134 	subsmi	r4, pc, #52, 2
    743c:	70284655 	eorvc	r4, r8, r5, asr r6
    7440:	20297274 	eorcs	r7, r9, r4, ror r2
    7444:	74702828 	ldrbtvc	r2, [r0], #-2088	; 0xfffff7d8
    7448:	3e2d2972 			; <UNDEFINED> instruction: 0x3e2d2972
    744c:	73696d5f 	cmnvc	r9, #6080	; 0x17c0
    7450:	5f3e2d63 	svcpl	0x003e2d63
    7454:	6134366c 	teqvs	r4, ip, ror #12
    7458:	6675625f 			; <UNDEFINED> instruction: 0x6675625f
    745c:	5f5f0029 	svcpl	0x005f0029
    7460:	455a4953 	ldrbmi	r4, [sl, #-2387]	; 0xfffff6ad
    7464:	535f464f 	cmppl	pc, #82837504	; 0x4f00000
    7468:	5f455a49 	svcpl	0x00455a49
    746c:	205f5f54 	subscs	r5, pc, r4, asr pc	; <UNPREDICTABLE>
    7470:	5f5f0034 	svcpl	0x005f0034
    7474:	6b636f6c 	blvs	18e322c <_Min_Stack_Size+0x18e2e2c>
    7478:	6f6c635f 	svcvs	0x006c635f
    747c:	725f6573 	subsvc	r6, pc, #482344960	; 0x1cc00000
    7480:	72756365 	rsbsvc	r6, r5, #-1811939327	; 0x94000001
    7484:	65766973 	ldrbvs	r6, [r6, #-2419]!	; 0xfffff68d
    7488:	636f6c28 	cmnvs	pc, #40, 24	; 0x2800
    748c:	2820296b 	stmdacs	r0!, {r0, r1, r3, r5, r6, r8, fp, sp}
    7490:	696f7628 	stmdbvs	pc!, {r3, r5, r9, sl, ip, sp, lr}^	; <UNPREDICTABLE>
    7494:	30202964 	eorcc	r2, r0, r4, ror #18
    7498:	5f5f0029 	svcpl	0x005f0029
    749c:	544e4955 	strbpl	r4, [lr], #-2389	; 0xfffff6ab
    74a0:	545f3436 	ldrbpl	r3, [pc], #-1078	; 74a8 <_Min_Stack_Size+0x70a8>
    74a4:	5f455059 	svcpl	0x00455059
    74a8:	6f6c205f 	svcvs	0x006c205f
    74ac:	6c20676e 	stcvs	7, cr6, [r0], #-440	; 0xfffffe48
    74b0:	20676e6f 	rsbcs	r6, r7, pc, ror #28
    74b4:	69736e75 	ldmdbvs	r3!, {r0, r2, r4, r5, r6, r9, sl, fp, sp, lr}^
    74b8:	64656e67 	strbtvs	r6, [r5], #-3687	; 0xfffff199
    74bc:	746e6920 	strbtvc	r6, [lr], #-2336	; 0xfffff6e0
    74c0:	445f5f00 	ldrbmi	r5, [pc], #-3840	; 74c8 <_Min_Stack_Size+0x70c8>
    74c4:	32314345 	eorscc	r4, r1, #335544321	; 0x14000001
    74c8:	494d5f38 	stmdbmi	sp, {r3, r4, r5, r8, r9, sl, fp, ip, lr}^
    74cc:	205f5f4e 	subscs	r5, pc, lr, asr #30
    74d0:	362d4531 			; <UNDEFINED> instruction: 0x362d4531
    74d4:	44333431 	ldrtmi	r3, [r3], #-1073	; 0xfffffbcf
    74d8:	5f5f004c 	svcpl	0x005f004c
    74dc:	36544e49 	ldrbcc	r4, [r4], -r9, asr #28
    74e0:	28435f34 	stmdacs	r3, {r2, r4, r5, r8, r9, sl, fp, ip, lr}^
    74e4:	63202963 			; <UNDEFINED> instruction: 0x63202963
    74e8:	20232320 	eorcs	r2, r3, r0, lsr #6
    74ec:	48004c4c 	stmdami	r0, {r2, r3, r6, sl, fp, lr}
    74f0:	5f455641 	svcpl	0x00455641
    74f4:	54494e49 	strbpl	r4, [r9], #-3657	; 0xfffff1b7
    74f8:	494e4946 	stmdbmi	lr, {r1, r2, r6, r8, fp, lr}^
    74fc:	5252415f 	subspl	r4, r2, #-1073741801	; 0xc0000017
    7500:	31205941 			; <UNDEFINED> instruction: 0x31205941
    7504:	6c5f5f00 	mrrcvs	15, 0, r5, pc, cr0	; <UNPREDICTABLE>
    7508:	616b636f 	cmnvs	fp, pc, ror #6
    750c:	20656c62 	rsbcs	r6, r5, r2, ror #24
    7510:	6f6c5f5f 	svcvs	0x006c5f5f
    7514:	615f6b63 	cmpvs	pc, r3, ror #22
    7518:	746f6e6e 	strbtvc	r6, [pc], #-3694	; 7520 <_Min_Stack_Size+0x7120>
    751c:	28657461 	stmdacs	r5!, {r0, r5, r6, sl, ip, sp, lr}^
    7520:	6b636f6c 	blvs	18e32d8 <_Min_Stack_Size+0x18e2ed8>
    7524:	656c6261 	strbvs	r6, [ip, #-609]!	; 0xfffffd9f
    7528:	75430029 	strbvc	r0, [r3, #-41]	; 0xffffffd7
    752c:	726f7372 	rsbvc	r7, pc, #-939524095	; 0xc8000001
    7530:	2046464f 	subcs	r4, r6, pc, asr #12
    7534:	63307830 	teqvs	r0, #48, 16	; 0x300000
    7538:	455f5f00 	ldrbmi	r5, [pc, #-3840]	; 6640 <_Min_Stack_Size+0x6240>
    753c:	445f444e 	ldrbmi	r4, [pc], #-1102	; 7544 <_Min_Stack_Size+0x7144>
    7540:	534c4345 	movtpl	r4, #49989	; 0xc345
    7544:	58450020 	stmdapl	r5, {r5}^
    7548:	50344954 	eorspl	r4, r4, r4, asr r9
    754c:	28203443 	stmdacs	r0!, {r0, r1, r6, sl, ip, sp}
    7550:	49545845 	ldmdbmi	r4, {r0, r2, r6, fp, ip, lr}^
    7554:	4950475f 	ldmdbmi	r0, {r0, r1, r2, r3, r4, r6, r8, r9, sl, lr}^
    7558:	614d5f4f 	cmpvs	sp, pc, asr #30
    755c:	676e6970 			; <UNDEFINED> instruction: 0x676e6970
    7560:	7b29745f 	blvc	a646e4 <_Min_Stack_Size+0xa642e4>
    7564:	49545845 	ldmdbmi	r4, {r0, r2, r6, fp, ip, lr}^
    7568:	50472c34 	subpl	r2, r7, r4, lsr ip
    756c:	2c434f49 	mcrrcs	15, 4, r4, r3, cr9
    7570:	4f495047 	svcmi	0x00495047
    7574:	4e49505f 	mcrmi	0, 2, r5, cr9, cr15, {2}
    7578:	452c345f 	strmi	r3, [ip, #-1119]!	; 0xfffffba1
    757c:	34495458 	strbcc	r5, [r9], #-1112	; 0xfffffba8
    7580:	5152495f 	cmppl	r2, pc, asr r9
    7584:	5f5f007d 	svcpl	0x005f007d
    7588:	4c42444c 	cfstrdmi	mvd4, [r2], {76}	; 0x4c
    758c:	4e494d5f 	mcrmi	13, 2, r4, cr9, cr15, {2}
    7590:	32205f5f 	eorcc	r5, r0, #380	; 0x17c
    7594:	3532322e 	ldrcc	r3, [r2, #-558]!	; 0xfffffdd2
    7598:	38333730 	ldmdacc	r3!, {r4, r5, r8, r9, sl, ip, sp}
    759c:	30353835 	eorscc	r3, r5, r5, lsr r8
    75a0:	31303237 	teqcc	r0, r7, lsr r2
    75a4:	332d6534 			; <UNDEFINED> instruction: 0x332d6534
    75a8:	004c3830 	subeq	r3, ip, r0, lsr r8
    75ac:	43415f5f 	movtmi	r5, #8031	; 0x1f5f
    75b0:	5f4d5543 	svcpl	0x004d5543
    75b4:	54494249 	strbpl	r4, [r9], #-585	; 0xfffffdb7
    75b8:	31205f5f 			; <UNDEFINED> instruction: 0x31205f5f
    75bc:	43520036 	cmpmi	r2, #54	; 0x36
    75c0:	79545f43 	ldmdbvc	r4, {r0, r1, r6, r8, r9, sl, fp, ip, lr}^
    75c4:	65446570 	strbvs	r6, [r4, #-1392]	; 0xfffffa90
    75c8:	6e750066 	cdpvs	0, 7, cr0, cr5, cr6, {3}
    75cc:	6e676973 			; <UNDEFINED> instruction: 0x6e676973
    75d0:	41006465 	tstmi	r0, r5, ror #8
    75d4:	5f4f4946 	svcpl	0x004f4946
    75d8:	45534142 	ldrbmi	r4, [r3, #-322]	; 0xfffffebe
    75dc:	34783020 	ldrbtcc	r3, [r8], #-32	; 0xffffffe0
    75e0:	30313030 	eorscc	r3, r1, r0, lsr r0
    75e4:	55303030 	ldrpl	r3, [r0, #-48]!	; 0xffffffd0
    75e8:	6d5f004c 	ldclvs	0, cr0, [pc, #-304]	; 74c0 <_Min_Stack_Size+0x70c0>
    75ec:	6e656c62 	cdpvs	12, 6, cr6, cr5, cr2, {3}
    75f0:	6174735f 	cmnvs	r4, pc, asr r3
    75f4:	5f006574 	svcpl	0x00006574
    75f8:	7361685f 	cmnvc	r1, #6225920	; 0x5f0000
    75fc:	6975625f 	ldmdbvs	r5!, {r0, r1, r2, r3, r4, r6, r9, sp, lr}^
    7600:	6e69746c 	cdpvs	4, 6, cr7, cr9, cr12, {3}
    7604:	20297828 	eorcs	r7, r9, r8, lsr #16
    7608:	5f5f0030 	svcpl	0x005f0030
    760c:	675f7470 			; <UNDEFINED> instruction: 0x675f7470
    7610:	64726175 	ldrbtvs	r6, [r2], #-373	; 0xfffffe8b
    7614:	625f6465 	subsvs	r6, pc, #1694498816	; 0x65000000
    7618:	29782879 	ldmdbcs	r8!, {r0, r3, r4, r5, r6, fp, sp}^
    761c:	6c5f5f20 	mrrcvs	15, 2, r5, pc, cr0	; <UNPREDICTABLE>
    7620:	5f6b636f 	svcpl	0x006b636f
    7624:	6f6e6e61 	svcvs	0x006e6e61
    7628:	65746174 	ldrbvs	r6, [r4, #-372]!	; 0xfffffe8c
    762c:	5f747028 	svcpl	0x00747028
    7630:	72617567 	rsbvc	r7, r1, #432013312	; 0x19c00000
    7634:	5f646564 	svcpl	0x00646564
    7638:	78287962 	stmdavc	r8!, {r1, r5, r6, r8, fp, ip, sp, lr}
    763c:	5f002929 	svcpl	0x00002929
    7640:	6175675f 	cmnvs	r5, pc, asr r7
    7644:	64656472 	strbtvs	r6, [r5], #-1138	; 0xfffffb8e
    7648:	2879625f 	ldmdacs	r9!, {r0, r1, r2, r3, r4, r6, r9, sp, lr}^
    764c:	5f202978 	svcpl	0x00202978
    7650:	636f6c5f 	cmnvs	pc, #24320	; 0x5f00
    7654:	6e615f6b 	cdpvs	15, 6, cr5, cr1, cr11, {3}
    7658:	61746f6e 	cmnvs	r4, lr, ror #30
    765c:	67286574 			; <UNDEFINED> instruction: 0x67286574
    7660:	64726175 	ldrbtvs	r6, [r2], #-373	; 0xfffffe8b
    7664:	625f6465 	subsvs	r6, pc, #1694498816	; 0x65000000
    7668:	29782879 	ldmdbcs	r8!, {r0, r3, r4, r5, r6, fp, sp}^
    766c:	58450029 	stmdapl	r5, {r0, r3, r5}^
    7670:	32314954 	eorscc	r4, r1, #84, 18	; 0x150000
    7674:	5152495f 	cmppl	r2, pc, asr r9
    7678:	00303420 	eorseq	r3, r0, r0, lsr #8
    767c:	4e475f5f 	mcrmi	15, 2, r5, cr7, cr15, {2}
    7680:	494c4355 	stmdbmi	ip, {r0, r2, r4, r6, r8, r9, lr}^
    7684:	5f5f454b 	svcpl	0x005f454b
    7688:	46464f5f 			; <UNDEFINED> instruction: 0x46464f5f
    768c:	4f544553 	svcmi	0x00544553
    7690:	00312046 	eorseq	r2, r1, r6, asr #32
    7694:	49555f5f 	ldmdbmi	r5, {r0, r1, r2, r3, r4, r6, r8, r9, sl, fp, ip, lr}^
    7698:	3631544e 	ldrtcc	r5, [r1], -lr, asr #8
    769c:	6328435f 			; <UNDEFINED> instruction: 0x6328435f
    76a0:	00632029 	rsbeq	r2, r3, r9, lsr #32
    76a4:	79735f5f 	ldmdbvc	r3!, {r0, r1, r2, r3, r4, r6, r8, r9, sl, fp, ip, lr}^
    76a8:	6f635f6d 	svcvs	0x00635f6d
    76ac:	7461706d 	strbtvc	r7, [r1], #-109	; 0xffffff93
    76b0:	6d797328 	ldclvs	3, cr7, [r9, #-160]!	; 0xffffff60
    76b4:	706d692c 	rsbvc	r6, sp, ip, lsr #18
    76b8:	65762c6c 	ldrbvs	r2, [r6, #-3180]!	; 0xfffff394
    76bc:	29646972 	stmdbcs	r4!, {r1, r4, r5, r6, r8, fp, sp, lr}^
    76c0:	615f5f20 	cmpvs	pc, r0, lsr #30
    76c4:	5f5f6d73 	svcpl	0x005f6d73
    76c8:	732e2228 			; <UNDEFINED> instruction: 0x732e2228
    76cc:	65766d79 	ldrbvs	r6, [r6, #-3449]!	; 0xfffff287
    76d0:	20222072 	eorcs	r2, r2, r2, ror r0
    76d4:	706d6923 	rsbvc	r6, sp, r3, lsr #18
    76d8:	2c22206c 	stccs	0, cr2, [r2], #-432	; 0xfffffe50
    76dc:	23202220 			; <UNDEFINED> instruction: 0x23202220
    76e0:	206d7973 	rsbcs	r7, sp, r3, ror r9
    76e4:	20224022 	eorcs	r4, r2, r2, lsr #32
    76e8:	72657623 	rsbvc	r7, r5, #36700160	; 0x2300000
    76ec:	00296469 	eoreq	r6, r9, r9, ror #8
    76f0:	43435f5f 	movtmi	r5, #16223	; 0x3f5f
    76f4:	5055535f 	subspl	r5, r5, pc, asr r3
    76f8:	54524f50 	ldrbpl	r4, [r2], #-3920	; 0xfffff0b0
    76fc:	5f5f5f53 	svcpl	0x005f5f53
    7700:	494c4e49 	stmdbmi	ip, {r0, r3, r6, r9, sl, fp, lr}^
    7704:	5f5f454e 	svcpl	0x005f454e
    7708:	5f003120 	svcpl	0x00003120
    770c:	4144555f 	cmpmi	r4, pc, asr r5
    7710:	4942495f 	stmdbmi	r2, {r0, r1, r2, r3, r4, r6, r8, fp, lr}^
    7714:	205f5f54 	subscs	r5, pc, r4, asr pc	; <UNPREDICTABLE>
    7718:	5f003233 	svcpl	0x00003233
    771c:	41454c5f 	cmpmi	r5, pc, asr ip
    7720:	36315453 			; <UNDEFINED> instruction: 0x36315453
    7724:	22682220 	rsbcs	r2, r8, #32, 4
    7728:	705f5f00 	subsvc	r5, pc, r0, lsl #30
    772c:	746e6972 	strbtvc	r6, [lr], #-2418	; 0xfffff68e
    7730:	6b696c66 	blvs	1a628d0 <_Min_Stack_Size+0x1a624d0>
    7734:	6d662865 	stclvs	8, cr2, [r6, #-404]!	; 0xfffffe6c
    7738:	67726174 			; <UNDEFINED> instruction: 0x67726174
    773c:	7269662c 	rsbvc	r6, r9, #44, 12	; 0x2c00000
    7740:	61767473 	cmnvs	r6, r3, ror r4
    7744:	67726172 			; <UNDEFINED> instruction: 0x67726172
    7748:	5f5f2029 	svcpl	0x005f2029
    774c:	72747461 	rsbsvc	r7, r4, #1627389952	; 0x61000000
    7750:	74756269 	ldrbtvc	r6, [r5], #-617	; 0xfffffd97
    7754:	285f5f65 	ldmdacs	pc, {r0, r2, r5, r6, r8, r9, sl, fp, ip, lr}^	; <UNPREDICTABLE>
    7758:	665f5f28 	ldrbvs	r5, [pc], -r8, lsr #30
    775c:	616d726f 	cmnvs	sp, pc, ror #4
    7760:	205f5f74 	subscs	r5, pc, r4, ror pc	; <UNPREDICTABLE>
    7764:	705f5f28 	subsvc	r5, pc, r8, lsr #30
    7768:	746e6972 	strbtvc	r6, [lr], #-2418	; 0xfffff68e
    776c:	2c5f5f66 	mrrccs	15, 6, r5, pc, cr6	; <UNPREDICTABLE>
    7770:	746d6620 	strbtvc	r6, [sp], #-1568	; 0xfffff9e0
    7774:	2c677261 	sfmcs	f7, 2, [r7], #-388	; 0xfffffe7c
    7778:	72696620 	rsbvc	r6, r9, #32, 12	; 0x2000000
    777c:	61767473 	cmnvs	r6, r3, ror r4
    7780:	67726172 			; <UNDEFINED> instruction: 0x67726172
    7784:	00292929 	eoreq	r2, r9, r9, lsr #18
    7788:	4f4e5f5f 	svcmi	0x004e5f5f
    778c:	4c4e495f 	mcrrmi	9, 5, r4, lr, cr15	; <UNPREDICTABLE>
    7790:	5f454e49 	svcpl	0x00454e49
    7794:	0031205f 	eorseq	r2, r1, pc, asr r0
    7798:	61665f5f 	cmnvs	r6, pc, asr pc
    779c:	61637473 	smcvs	14147	; 0x3743
    77a0:	5f206c6c 	svcpl	0x00206c6c
    77a4:	7474615f 	ldrbtvc	r6, [r4], #-351	; 0xfffffea1
    77a8:	75626972 	strbvc	r6, [r2, #-2418]!	; 0xfffff68e
    77ac:	5f5f6574 	svcpl	0x005f6574
    77b0:	5f5f2828 	svcpl	0x005f2828
    77b4:	74736166 	ldrbtvc	r6, [r3], #-358	; 0xfffffe9a
    77b8:	6c6c6163 	stfvse	f6, [ip], #-396	; 0xfffffe74
    77bc:	29295f5f 	stmdbcs	r9!, {r0, r1, r2, r3, r4, r6, r8, r9, sl, fp, ip, lr}
    77c0:	544e4900 	strbpl	r4, [lr], #-2304	; 0xfffff700
    77c4:	4d5f3436 	cfldrdmi	mvd3, [pc, #-216]	; 76f4 <_Min_Stack_Size+0x72f4>
    77c8:	28204e49 	stmdacs	r0!, {r0, r3, r6, r9, sl, fp, lr}
    77cc:	495f5f2d 	ldmdbmi	pc, {r0, r2, r3, r5, r8, r9, sl, fp, ip, lr}^	; <UNPREDICTABLE>
    77d0:	3436544e 	ldrtcc	r5, [r6], #-1102	; 0xfffffbb2
    77d4:	58414d5f 	stmdapl	r1, {r0, r1, r2, r3, r4, r6, r8, sl, fp, lr}^
    77d8:	2d205f5f 	stccs	15, cr5, [r0, #-380]!	; 0xfffffe84
    77dc:	00293120 	eoreq	r3, r9, r0, lsr #2
    77e0:	6f6c5f5f 	svcvs	0x006c5f5f
    77e4:	615f6b63 	cmpvs	pc, r3, ror #22
    77e8:	746f6e6e 	strbtvc	r6, [pc], #-3694	; 77f0 <_Min_Stack_Size+0x73f0>
    77ec:	28657461 	stmdacs	r5!, {r0, r5, r6, sl, ip, sp, lr}^
    77f0:	00202978 	eoreq	r2, r0, r8, ror r9
    77f4:	54494c5f 	strbpl	r4, [r9], #-3167	; 0xfffff3a1
    77f8:	58455f45 	stmdapl	r5, {r0, r2, r6, r8, r9, sl, fp, ip, lr}^
    77fc:	31205449 			; <UNDEFINED> instruction: 0x31205449
    7800:	415f5f00 	cmpmi	pc, r0, lsl #30
    7804:	494d4f54 	stmdbmi	sp, {r2, r4, r6, r8, r9, sl, fp, lr}^
    7808:	45525f43 	ldrbmi	r5, [r2, #-3907]	; 0xfffff0bd
    780c:	4558414c 	ldrbmi	r4, [r8, #-332]	; 0xfffffeb4
    7810:	00302044 	eorseq	r2, r0, r4, asr #32
    7814:	5454415f 	ldrbpl	r4, [r4], #-351	; 0xfffffea1
    7818:	55424952 	strbpl	r4, [r2, #-2386]	; 0xfffff6ae
    781c:	61284554 			; <UNDEFINED> instruction: 0x61284554
    7820:	73727474 	cmnvc	r2, #116, 8	; 0x74000000
    7824:	5f5f2029 	svcpl	0x005f2029
    7828:	72747461 	rsbsvc	r7, r4, #1627389952	; 0x61000000
    782c:	74756269 	ldrbtvc	r6, [r5], #-617	; 0xfffffd97
    7830:	205f5f65 	subscs	r5, pc, r5, ror #30
    7834:	74746128 	ldrbtvc	r6, [r4], #-296	; 0xfffffed8
    7838:	00297372 	eoreq	r7, r9, r2, ror r3
    783c:	41465f5f 	cmpmi	r6, pc, asr pc
    7840:	20385453 	eorscs	r5, r8, r3, asr r4
    7844:	415f5f00 	cmpmi	pc, r0, lsl #30
    7848:	49525454 	ldmdbmi	r2, {r2, r4, r6, sl, ip, lr}^
    784c:	45545542 	ldrbmi	r5, [r4, #-1346]	; 0xfffffabe
    7850:	504d495f 	subpl	r4, sp, pc, asr r9
    7854:	5f455255 	svcpl	0x00455255
    7858:	5f525450 	svcpl	0x00525450
    785c:	5f00205f 	svcpl	0x0000205f
    7860:	4c42445f 	cfstrdmi	mvd4, [r2], {95}	; 0x5f
    7864:	5341485f 	movtpl	r4, #6239	; 0x185f
    7868:	464e495f 			; <UNDEFINED> instruction: 0x464e495f
    786c:	54494e49 	strbpl	r4, [r9], #-3657	; 0xfffff1b7
    7870:	205f5f59 	subscs	r5, pc, r9, asr pc	; <UNPREDICTABLE>
    7874:	5f5f0031 	svcpl	0x005f0031
    7878:	5f474953 	svcpl	0x00474953
    787c:	4d4f5441 	cfstrdmi	mvd5, [pc, #-260]	; 7780 <_Min_Stack_Size+0x7380>
    7880:	4d5f4349 	ldclmi	3, cr4, [pc, #-292]	; 7764 <_Min_Stack_Size+0x7364>
    7884:	5f5f5841 	svcpl	0x005f5841
    7888:	37783020 	ldrbcc	r3, [r8, -r0, lsr #32]!
    788c:	66666666 	strbtvs	r6, [r6], -r6, ror #12
    7890:	00666666 	rsbeq	r6, r6, r6, ror #12
    7894:	4c465f5f 	mcrrmi	15, 5, r5, r6, cr15
    7898:	5f343654 	svcpl	0x00343654
    789c:	544e414d 	strbpl	r4, [lr], #-333	; 0xfffffeb3
    78a0:	4749445f 	smlsldmi	r4, r9, pc, r4	; <UNPREDICTABLE>
    78a4:	35205f5f 	strcc	r5, [r0, #-3935]!	; 0xfffff0a1
    78a8:	525f0033 	subspl	r0, pc, #51	; 0x33
    78ac:	544e4545 	strbpl	r4, [lr], #-1349	; 0xfffffabb
    78b0:	4548435f 	strbmi	r4, [r8, #-863]	; 0xfffffca1
    78b4:	525f4b43 	subspl	r4, pc, #68608	; 0x10c00
    78b8:	34444e41 	strbcc	r4, [r4], #-3649	; 0xfffff1bf
    78bc:	61762838 	cmnvs	r6, r8, lsr r8
    78c0:	5f202972 	svcpl	0x00202972
    78c4:	4e454552 	mcrmi	5, 2, r4, cr5, cr2, {2}
    78c8:	48435f54 	stmdami	r3, {r2, r4, r6, r8, r9, sl, fp, ip, lr}^
    78cc:	284b4345 	stmdacs	fp, {r0, r2, r6, r8, r9, lr}^
    78d0:	2c726176 	ldfcse	f6, [r2], #-472	; 0xfffffe28
    78d4:	34725f20 	ldrbtcc	r5, [r2], #-3872	; 0xfffff0e0
    78d8:	73202c38 			; <UNDEFINED> instruction: 0x73202c38
    78dc:	63757274 	cmnvs	r5, #116, 4	; 0x40000007
    78e0:	725f2074 	subsvc	r2, pc, #116	; 0x74
    78e4:	34646e61 	strbtcc	r6, [r4], #-3681	; 0xfffff19f
    78e8:	2c2a2038 	stccs	0, cr2, [sl], #-224	; 0xffffff20
    78ec:	7a697320 	bvc	1a64574 <_Min_Stack_Size+0x1a64174>
    78f0:	20666f65 	rsbcs	r6, r6, r5, ror #30
    78f4:	7628282a 	strtvc	r2, [r8], -sl, lsr #16
    78f8:	2d297261 	sfmcs	f7, 4, [r9, #-388]!	; 0xfffffe7c
    78fc:	34725f3e 	ldrbtcc	r5, [r2], #-3902	; 0xfffff0c2
    7900:	202c2938 	eorcs	r2, ip, r8, lsr r9
    7904:	4545525f 	strbmi	r5, [r5, #-607]	; 0xfffffda1
    7908:	495f544e 	ldmdbmi	pc, {r1, r2, r3, r6, sl, ip, lr}^	; <UNPREDICTABLE>
    790c:	5f54494e 	svcpl	0x0054494e
    7910:	444e4152 	strbmi	r4, [lr], #-338	; 0xfffffeae
    7914:	28283834 	stmdacs	r8!, {r2, r4, r5, fp, ip, sp}
    7918:	29726176 	ldmdbcs	r2!, {r1, r2, r4, r5, r6, r8, sp, lr}^
    791c:	48002929 	stmdami	r0, {r0, r3, r5, r8, fp, sp}
    7920:	4c5f4c41 	mrrcmi	12, 4, r4, pc, cr1	; <UNPREDICTABLE>
    7924:	4c5f4443 	cfldrdmi	mvd4, [pc], {67}	; 0x43
    7928:	485f4443 	ldmdami	pc, {r0, r1, r6, sl, lr}^	; <UNPREDICTABLE>
    792c:	4500205f 	strmi	r2, [r0, #-95]	; 0xffffffa1
    7930:	37495458 	smlsldcc	r5, r9, r8, r4
    7934:	5152495f 	cmppl	r2, pc, asr r9
    7938:	00333220 	eorseq	r3, r3, r0, lsr #4
    793c:	61725f5f 	cmnvs	r2, pc, asr pc
    7940:	6f65676e 	svcvs	0x0065676e
    7944:	79742866 	ldmdbvc	r4!, {r1, r2, r5, r6, fp, sp}^
    7948:	732c6570 			; <UNDEFINED> instruction: 0x732c6570
    794c:	74726174 	ldrbtvc	r6, [r2], #-372	; 0xfffffe8c
    7950:	646e652c 	strbtvs	r6, [lr], #-1324	; 0xfffffad4
    7954:	5f282029 	svcpl	0x00282029
    7958:	66666f5f 	uqsaxvs	r6, r6, pc	; <UNPREDICTABLE>
    795c:	6f746573 	svcvs	0x00746573
    7960:	79742866 	ldmdbvc	r4!, {r1, r2, r5, r6, fp, sp}^
    7964:	202c6570 	eorcs	r6, ip, r0, ror r5
    7968:	29646e65 	stmdbcs	r4!, {r0, r2, r5, r6, r9, sl, fp, sp, lr}^
    796c:	5f202d20 	svcpl	0x00202d20
    7970:	66666f5f 	uqsaxvs	r6, r6, pc	; <UNPREDICTABLE>
    7974:	6f746573 	svcvs	0x00746573
    7978:	79742866 	ldmdbvc	r4!, {r1, r2, r5, r6, fp, sp}^
    797c:	202c6570 	eorcs	r6, ip, r0, ror r5
    7980:	72617473 	rsbvc	r7, r1, #1929379840	; 0x73000000
    7984:	00292974 	eoreq	r2, r9, r4, ror r9
    7988:	6f627573 	svcvs	0x00627573
    798c:	72617470 	rsbvc	r7, r1, #112, 8	; 0x70000000
    7990:	5f5f0067 	svcpl	0x005f0067
    7994:	53455355 	movtpl	r5, #21333	; 0x5355
    7998:	494e495f 	stmdbmi	lr, {r0, r1, r2, r3, r4, r6, r8, fp, lr}^
    799c:	4e494654 	mcrmi	6, 2, r4, cr9, cr4, {2}
    79a0:	205f5f49 	subscs	r5, pc, r9, asr #30
    79a4:	5f5f0031 	svcpl	0x005f0031
    79a8:	6b636f6c 	blvs	18e3760 <_Min_Stack_Size+0x18e3360>
    79ac:	696e695f 	stmdbvs	lr!, {r0, r1, r2, r3, r4, r6, r8, fp, sp, lr}^
    79b0:	6f6c2874 	svcvs	0x006c2874
    79b4:	20296b63 	eorcs	r6, r9, r3, ror #22
    79b8:	6f762828 	svcvs	0x00762828
    79bc:	20296469 	eorcs	r6, r9, r9, ror #8
    79c0:	5f002930 	svcpl	0x00002930
    79c4:	4345445f 	movtmi	r4, #21599	; 0x545f
    79c8:	4d5f3436 	cfldrdmi	mvd3, [pc, #-216]	; 78f8 <_Min_Stack_Size+0x74f8>
    79cc:	5f5f4e49 	svcpl	0x005f4e49
    79d0:	2d453120 	stfcse	f3, [r5, #-128]	; 0xffffff80
    79d4:	44333833 	ldrtmi	r3, [r3], #-2099	; 0xfffff7cd
    79d8:	5f5f0044 	svcpl	0x005f0044
    79dc:	6465656e 	strbtvs	r6, [r5], #-1390	; 0xfffffa92
    79e0:	7274705f 	rsbsvc	r7, r4, #95	; 0x5f
    79e4:	66666964 	strbtvs	r6, [r6], -r4, ror #18
    79e8:	5f00745f 	svcpl	0x0000745f
    79ec:	464c555f 			; <UNDEFINED> instruction: 0x464c555f
    79f0:	54434152 	strbpl	r4, [r3], #-338	; 0xfffffeae
    79f4:	58414d5f 	stmdapl	r1, {r0, r1, r2, r3, r4, r6, r8, sl, fp, lr}^
    79f8:	30205f5f 	eorcc	r5, r0, pc, asr pc
    79fc:	46464658 			; <UNDEFINED> instruction: 0x46464658
    7a00:	46464646 	strbmi	r4, [r6], -r6, asr #12
    7a04:	332d5046 			; <UNDEFINED> instruction: 0x332d5046
    7a08:	524c5532 	subpl	r5, ip, #209715200	; 0xc800000
    7a0c:	445f5f00 	ldrbmi	r5, [pc], #-3840	; 7a14 <_Min_Stack_Size+0x7614>
    7a10:	445f4c42 	ldrbmi	r4, [pc], #-3138	; 7a18 <_Min_Stack_Size+0x7618>
    7a14:	4d494345 	stclmi	3, cr4, [r9, #-276]	; 0xfffffeec
    7a18:	445f4c41 	ldrbmi	r4, [pc], #-3137	; 7a20 <_Min_Stack_Size+0x7620>
    7a1c:	5f5f4749 	svcpl	0x005f4749
    7a20:	00373120 	eorseq	r3, r7, r0, lsr #2
    7a24:	78616d5f 	stmdavc	r1!, {r0, r1, r2, r3, r4, r6, r8, sl, fp, sp, lr}^
    7a28:	00736477 	rsbseq	r6, r3, r7, ror r4
    7a2c:	61685f5f 	cmnvs	r8, pc, asr pc
    7a30:	6c5f6576 	cfldr64vs	mvdx6, [pc], {118}	; 0x76
    7a34:	33676e6f 	cmncc	r7, #1776	; 0x6f0
    7a38:	00312032 	eorseq	r2, r1, r2, lsr r0
    7a3c:	5f544e49 	svcpl	0x00544e49
    7a40:	5341454c 	movtpl	r4, #5452	; 0x154c
    7a44:	4d5f3854 	ldclmi	8, cr3, [pc, #-336]	; 78fc <_Min_Stack_Size+0x74fc>
    7a48:	28204e49 	stmdacs	r0!, {r0, r3, r6, r9, sl, fp, lr}
    7a4c:	495f5f2d 	ldmdbmi	pc, {r0, r2, r3, r5, r8, r9, sl, fp, ip, lr}^	; <UNPREDICTABLE>
    7a50:	4c5f544e 	cfldrdmi	mvd5, [pc], {78}	; 0x4e
    7a54:	54534145 	ldrbpl	r4, [r3], #-325	; 0xfffffebb
    7a58:	414d5f38 	cmpmi	sp, r8, lsr pc
    7a5c:	205f5f58 	subscs	r5, pc, r8, asr pc	; <UNPREDICTABLE>
    7a60:	2931202d 	ldmdbcs	r1!, {r0, r2, r3, r5, sp}
    7a64:	4c475f00 	mcrrmi	15, 0, r5, r7, cr0
    7a68:	4c41424f 	sfmmi	f4, 2, [r1], {79}	; 0x4f
    7a6c:	4545525f 	strbmi	r5, [r5, #-607]	; 0xfffffda1
    7a70:	5f20544e 	svcpl	0x0020544e
    7a74:	626f6c67 	rsbvs	r6, pc, #26368	; 0x6700
    7a78:	695f6c61 	ldmdbvs	pc, {r0, r5, r6, sl, fp, sp, lr}^	; <UNPREDICTABLE>
    7a7c:	7275706d 	rsbsvc	r7, r5, #109	; 0x6d
    7a80:	74705f65 	ldrbtvc	r5, [r0], #-3941	; 0xfffff09b
    7a84:	4e5f0072 	mrcmi	0, 2, r0, cr15, cr2, {3}
    7a88:	204c4c55 	subcs	r4, ip, r5, asr ip
    7a8c:	5f5f0030 	svcpl	0x005f0030
    7a90:	78656c66 	stmdavc	r5!, {r1, r2, r5, r6, sl, fp, sp, lr}^
    7a94:	20727261 	rsbscs	r7, r2, r1, ror #4
    7a98:	005d305b 	subseq	r3, sp, fp, asr r0
    7a9c:	6d745f5f 	ldclvs	15, cr5, [r4, #-380]!	; 0xfffffe84
    7aa0:	6165795f 	cmnvs	r5, pc, asr r9
    7aa4:	48410072 	stmdami	r1, {r1, r4, r5, r6}^
    7aa8:	524e4542 	subpl	r4, lr, #276824064	; 0x10800000
    7aac:	45525f00 	ldrbmi	r5, [r2, #-3840]	; 0xfffff100
    7ab0:	5f544e45 	svcpl	0x00544e45
    7ab4:	54494e49 	strbpl	r4, [r9], #-3657	; 0xfffff1b7
    7ab8:	5254505f 	subspl	r5, r4, #95	; 0x5f
    7abc:	52455a5f 	subpl	r5, r5, #389120	; 0x5f000
    7ac0:	2844454f 	stmdacs	r4, {r0, r1, r2, r3, r6, r8, sl, lr}^
    7ac4:	29726176 	ldmdbcs	r2!, {r1, r2, r4, r5, r6, r8, sp, lr}^
    7ac8:	28207b20 	stmdacs	r0!, {r5, r8, r9, fp, ip, sp, lr}
    7acc:	29726176 	ldmdbcs	r2!, {r1, r2, r4, r5, r6, r8, sp, lr}^
    7ad0:	735f3e2d 	cmpvc	pc, #720	; 0x2d0
    7ad4:	6e696474 	mcrvs	4, 3, r6, cr9, cr4, {3}
    7ad8:	28203d20 	stmdacs	r0!, {r5, r8, sl, fp, ip, sp}
    7adc:	49465f5f 	stmdbmi	r6, {r0, r1, r2, r3, r4, r6, r8, r9, sl, fp, ip, lr}^
    7ae0:	2a20454c 	bcs	819018 <_Min_Stack_Size+0x818c18>
    7ae4:	5f5f2629 	svcpl	0x005f2629
    7ae8:	665f6673 			; <UNDEFINED> instruction: 0x665f6673
    7aec:	5f656b61 	svcpl	0x00656b61
    7af0:	69647473 	stmdbvs	r4!, {r0, r1, r4, r5, r6, sl, ip, sp, lr}^
    7af4:	28203b6e 	stmdacs	r0!, {r1, r2, r3, r5, r6, r8, r9, fp, ip, sp}
    7af8:	29726176 	ldmdbcs	r2!, {r1, r2, r4, r5, r6, r8, sp, lr}^
    7afc:	735f3e2d 	cmpvc	pc, #720	; 0x2d0
    7b00:	756f6474 	strbvc	r6, [pc, #-1140]!	; 7694 <_Min_Stack_Size+0x7294>
    7b04:	203d2074 	eorscs	r2, sp, r4, ror r0
    7b08:	465f5f28 	ldrbmi	r5, [pc], -r8, lsr #30
    7b0c:	20454c49 	subcs	r4, r5, r9, asr #24
    7b10:	5f26292a 	svcpl	0x0026292a
    7b14:	5f66735f 	svcpl	0x0066735f
    7b18:	656b6166 	strbvs	r6, [fp, #-358]!	; 0xfffffe9a
    7b1c:	6474735f 	ldrbtvs	r7, [r4], #-863	; 0xfffffca1
    7b20:	3b74756f 	blcc	1d250e4 <_Min_Stack_Size+0x1d24ce4>
    7b24:	61762820 	cmnvs	r6, r0, lsr #16
    7b28:	3e2d2972 			; <UNDEFINED> instruction: 0x3e2d2972
    7b2c:	6474735f 	ldrbtvs	r7, [r4], #-863	; 0xfffffca1
    7b30:	20727265 	rsbscs	r7, r2, r5, ror #4
    7b34:	5f28203d 	svcpl	0x0028203d
    7b38:	4c49465f 	mcrrmi	6, 5, r4, r9, cr15
    7b3c:	292a2045 	stmdbcs	sl!, {r0, r2, r6, sp}
    7b40:	735f5f26 	cmpvc	pc, #38, 30	; 0x98
    7b44:	61665f66 	cmnvs	r6, r6, ror #30
    7b48:	735f656b 	cmpvc	pc, #448790528	; 0x1ac00000
    7b4c:	72656474 	rsbvc	r6, r5, #116, 8	; 0x74000000
    7b50:	7d203b72 	vstmdbvc	r0!, {d3-<overflow reg d59>}
    7b54:	495f5f00 	ldmdbmi	pc, {r8, r9, sl, fp, ip, lr}^	; <UNPREDICTABLE>
    7b58:	3631544e 	ldrtcc	r5, [r1], -lr, asr #8
    7b5c:	58414d5f 	stmdapl	r1, {r0, r1, r2, r3, r4, r6, r8, sl, fp, lr}^
    7b60:	30205f5f 	eorcc	r5, r0, pc, asr pc
    7b64:	66663778 			; <UNDEFINED> instruction: 0x66663778
    7b68:	5f5f0066 	svcpl	0x005f0066
    7b6c:	5f535953 	svcpl	0x00535953
    7b70:	464e4f43 	strbmi	r4, [lr], -r3, asr #30
    7b74:	485f4749 	ldmdami	pc, {r0, r3, r6, r8, r9, sl, lr}^	; <UNPREDICTABLE>
    7b78:	00205f5f 	eoreq	r5, r0, pc, asr pc
    7b7c:	4f495047 	svcmi	0x00495047
    7b80:	4550535f 	ldrbmi	r5, [r0, #-863]	; 0xfffffca1
    7b84:	325f4445 	subscc	r4, pc, #1157627904	; 0x45000000
    7b88:	205a484d 	subscs	r4, sl, sp, asr #16
    7b8c:	30307830 	eorscc	r7, r0, r0, lsr r8
    7b90:	30303030 	eorscc	r3, r0, r0, lsr r0
    7b94:	00753230 	rsbseq	r3, r5, r0, lsr r2
    7b98:	45445f5f 	strbmi	r5, [r4, #-3935]	; 0xfffff0a1
    7b9c:	414c4f56 	cmpmi	ip, r6, asr pc
    7ba0:	454c4954 	strbmi	r4, [ip, #-2388]	; 0xfffff6ac
    7ba4:	70797428 	rsbsvc	r7, r9, r8, lsr #8
    7ba8:	61762c65 	cmnvs	r6, r5, ror #24
    7bac:	28202972 	stmdacs	r0!, {r1, r4, r5, r6, r8, fp, sp}
    7bb0:	70797428 	rsbsvc	r7, r9, r8, lsr #8
    7bb4:	5f282965 	svcpl	0x00282965
    7bb8:	6e69755f 	mcrvs	5, 3, r7, cr9, cr15, {2}
    7bbc:	72747074 	rsbsvc	r7, r4, #116	; 0x74
    7bc0:	2829745f 	stmdacs	r9!, {r0, r1, r2, r3, r4, r6, sl, ip, sp, lr}
    7bc4:	616c6f76 	smcvs	50934	; 0xc6f6
    7bc8:	656c6974 	strbvs	r6, [ip, #-2420]!	; 0xfffff68c
    7bcc:	696f7620 	stmdbvs	pc!, {r5, r9, sl, ip, sp, lr}^	; <UNPREDICTABLE>
    7bd0:	292a2064 	stmdbcs	sl!, {r2, r5, r6, sp}
    7bd4:	72617628 	rsbvc	r7, r1, #40, 12	; 0x2800000
    7bd8:	47002929 	strmi	r2, [r0, -r9, lsr #18]
    7bdc:	5f4f4950 	svcpl	0x004f4950
    7be0:	5f4e4950 	svcpl	0x004e4950
    7be4:	28203531 	stmdacs	r0!, {r0, r4, r5, r8, sl, ip, sp}
    7be8:	6e697528 	cdpvs	5, 6, cr7, cr9, cr8, {1}
    7bec:	5f363174 	svcpl	0x00363174
    7bf0:	78302974 	ldmdavc	r0!, {r2, r4, r5, r6, r8, fp, sp}
    7bf4:	30303038 	eorscc	r3, r0, r8, lsr r0
    7bf8:	564e0029 	strbpl	r0, [lr], -r9, lsr #32
    7bfc:	495f4349 	ldmdbmi	pc, {r0, r3, r6, r8, r9, lr}^	; <UNPREDICTABLE>
    7c00:	31524553 	cmpcc	r2, r3, asr r5
    7c04:	76282a20 	strtvc	r2, [r8], -r0, lsr #20
    7c08:	74616c6f 	strbtvc	r6, [r1], #-3183	; 0xfffff391
    7c0c:	20656c69 	rsbcs	r6, r5, r9, ror #24
    7c10:	746e6975 	strbtvc	r6, [lr], #-2421	; 0xfffff68b
    7c14:	745f3233 	ldrbvc	r3, [pc], #-563	; 7c1c <_Min_Stack_Size+0x781c>
    7c18:	4e28292a 	vmulmi.f16	s4, s16, s21	; <UNPREDICTABLE>
    7c1c:	5f434956 	svcpl	0x00434956
    7c20:	45534142 	ldrbmi	r4, [r3, #-322]	; 0xfffffebe
    7c24:	30202b20 	eorcc	r2, r0, r0, lsr #22
    7c28:	00293478 	eoreq	r3, r9, r8, ror r4
    7c2c:	53535f5f 	cmppl	r3, #380	; 0x17c
    7c30:	4f465f50 	svcmi	0x00465f50
    7c34:	46495452 			; <UNDEFINED> instruction: 0x46495452
    7c38:	454c5f59 	strbmi	r5, [ip, #-3929]	; 0xfffff0a7
    7c3c:	204c4556 	subcs	r4, ip, r6, asr r5
    7c40:	5f5f0030 	svcpl	0x005f0030
    7c44:	43554e47 	cmpmi	r5, #1136	; 0x470
    7c48:	454b494c 	strbmi	r4, [fp, #-2380]	; 0xfffff6b4
    7c4c:	4955425f 	ldmdbmi	r5, {r0, r1, r2, r3, r4, r6, r9, lr}^
    7c50:	4e49544c 	cdpmi	4, 4, cr5, cr9, cr12, {2}
    7c54:	4454535f 	ldrbmi	r5, [r4], #-863	; 0xfffffca1
    7c58:	20475241 	subcs	r5, r7, r1, asr #4
    7c5c:	5f5f0031 	svcpl	0x005f0031
    7c60:	75736572 	ldrbvc	r6, [r3, #-1394]!	; 0xfffffa8e
    7c64:	755f746c 	ldrbvc	r7, [pc, #-1132]	; 7800 <_Min_Stack_Size+0x7400>
    7c68:	635f6573 	cmpvs	pc, #482344960	; 0x1cc00000
    7c6c:	6b636568 	blvs	18e1214 <_Min_Stack_Size+0x18e0e14>
    7c70:	615f5f20 	cmpvs	pc, r0, lsr #30
    7c74:	69727474 	ldmdbvs	r2!, {r2, r4, r5, r6, sl, ip, sp, lr}^
    7c78:	65747562 	ldrbvs	r7, [r4, #-1378]!	; 0xfffffa9e
    7c7c:	28285f5f 	stmdacs	r8!, {r0, r1, r2, r3, r4, r6, r8, r9, sl, fp, ip, lr}
    7c80:	61775f5f 	cmnvs	r7, pc, asr pc
    7c84:	755f6e72 	ldrbvc	r6, [pc, #-3698]	; 6e1a <_Min_Stack_Size+0x6a1a>
    7c88:	6573756e 	ldrbvs	r7, [r3, #-1390]!	; 0xfffffa92
    7c8c:	65725f64 	ldrbvs	r5, [r2, #-3940]!	; 0xfffff09c
    7c90:	746c7573 	strbtvc	r7, [ip], #-1395	; 0xfffffa8d
    7c94:	29295f5f 	stmdbcs	r9!, {r0, r1, r2, r3, r4, r6, r8, r9, sl, fp, ip, lr}
    7c98:	585f5f00 	ldmdapl	pc, {r8, r9, sl, fp, ip, lr}^	; <UNPREDICTABLE>
    7c9c:	565f4953 			; <UNDEFINED> instruction: 0x565f4953
    7ca0:	42495349 	submi	r5, r9, #603979777	; 0x24000001
    7ca4:	3020454c 	eorcc	r4, r0, ip, asr #10
    7ca8:	54535f00 	ldrbpl	r5, [r3], #-3840	; 0xfffff100
    7cac:	42494c44 	submi	r4, r9, #68, 24	; 0x4400
    7cb0:	205f485f 	subscs	r4, pc, pc, asr r8	; <UNPREDICTABLE>
    7cb4:	54584500 	ldrbpl	r4, [r8], #-1280	; 0xfffffb00
    7cb8:	37203749 	strcc	r3, [r0, -r9, asr #14]!
    7cbc:	52534200 	subspl	r4, r3, #0, 4
    7cc0:	37440052 	smlsldcc	r0, r4, r2, r0
    7cc4:	49504720 	ldmdbmi	r0, {r5, r8, r9, sl, lr}^
    7cc8:	49505f4f 	ldmdbmi	r0, {r0, r1, r2, r3, r6, r8, r9, sl, fp, ip, lr}^
    7ccc:	00375f4e 	eorseq	r5, r7, lr, asr #30
    7cd0:	43475f5f 	movtmi	r5, #32607	; 0x7f5f
    7cd4:	54415f43 	strbpl	r5, [r1], #-3907	; 0xfffff0bd
    7cd8:	43494d4f 	movtmi	r4, #40271	; 0x9d4f
    7cdc:	5345545f 	movtpl	r5, #21599	; 0x545f
    7ce0:	4e415f54 	mcrmi	15, 2, r5, cr1, cr4, {2}
    7ce4:	45535f44 	ldrbmi	r5, [r3, #-3908]	; 0xfffff0bc
    7ce8:	52545f54 	subspl	r5, r4, #84, 30	; 0x150
    7cec:	41564555 	cmpmi	r6, r5, asr r5
    7cf0:	0031204c 	eorseq	r2, r1, ip, asr #32
    7cf4:	41465f5f 	cmpmi	r6, pc, asr pc
    7cf8:	32335453 	eorscc	r5, r3, #1392508928	; 0x53000000
    7cfc:	5f5f0020 	svcpl	0x005f0020
    7d00:	5f474953 	svcpl	0x00474953
    7d04:	4d4f5441 	cfstrdmi	mvd5, [pc, #-260]	; 7c08 <_Min_Stack_Size+0x7808>
    7d08:	575f4349 	ldrbpl	r4, [pc, -r9, asr #6]
    7d0c:	48544449 	ldmdami	r4, {r0, r3, r6, sl, lr}^
    7d10:	33205f5f 			; <UNDEFINED> instruction: 0x33205f5f
    7d14:	5f5f0032 	svcpl	0x005f0032
    7d18:	36544c46 	ldrbcc	r4, [r4], -r6, asr #24
    7d1c:	50455f34 	subpl	r5, r5, r4, lsr pc
    7d20:	4f4c4953 	svcmi	0x004c4953
    7d24:	205f5f4e 	subscs	r5, pc, lr, asr #30
    7d28:	32322e32 	eorscc	r2, r2, #800	; 0x320
    7d2c:	36343430 			; <UNDEFINED> instruction: 0x36343430
    7d30:	32393430 	eorscc	r3, r9, #48, 8	; 0x30000000
    7d34:	31333035 	teqcc	r3, r5, lsr r0
    7d38:	2d653133 	stfcse	f3, [r5, #-204]!	; 0xffffff34
    7d3c:	36463631 			; <UNDEFINED> instruction: 0x36463631
    7d40:	525f0034 	subspl	r0, pc, #52	; 0x34
    7d44:	544e4545 	strbpl	r4, [lr], #-1349	; 0xfffffabb
    7d48:	494e495f 	stmdbmi	lr, {r0, r1, r2, r3, r4, r6, r8, fp, lr}^
    7d4c:	54415f54 	strbpl	r5, [r1], #-3924	; 0xfffff0ac
    7d50:	54495845 	strbpl	r5, [r9], #-2117	; 0xfffff7bb
    7d54:	5f5f0020 	svcpl	0x005f0020
    7d58:	43554e47 	cmpmi	r5, #1136	; 0x470
    7d5c:	4552505f 	ldrbmi	r5, [r2, #-95]	; 0xffffffa1
    7d60:	5f514552 	svcpl	0x00514552
    7d64:	616d285f 	cmnvs	sp, pc, asr r8
    7d68:	29696d2c 	stmdbcs	r9!, {r2, r3, r5, r8, sl, fp, sp, lr}^
    7d6c:	475f5f20 	ldrbmi	r5, [pc, -r0, lsr #30]
    7d70:	5f43554e 	svcpl	0x0043554e
    7d74:	52455250 	subpl	r5, r5, #80, 4
    7d78:	6d285145 	stfvss	f5, [r8, #-276]!	; 0xfffffeec
    7d7c:	6d202c61 	stcvs	12, cr2, [r0, #-388]!	; 0xfffffe7c
    7d80:	5f002969 	svcpl	0x00002969
    7d84:	4154555f 	cmpmi	r4, pc, asr r5
    7d88:	4942495f 	stmdbmi	r2, {r0, r1, r2, r3, r4, r6, r8, fp, lr}^
    7d8c:	205f5f54 	subscs	r5, pc, r4, asr pc	; <UNPREDICTABLE>
    7d90:	5f003436 	svcpl	0x00003436
    7d94:	4c4c555f 	cfstr64mi	mvdx5, [ip], {95}	; 0x5f
    7d98:	55434341 	strbpl	r4, [r3, #-833]	; 0xfffffcbf
    7d9c:	42495f4d 	submi	r5, r9, #308	; 0x134
    7da0:	5f5f5449 	svcpl	0x005f5449
    7da4:	00323320 	eorseq	r3, r2, r0, lsr #6
    7da8:	74735f5f 	ldrbtvc	r5, [r3], #-3935	; 0xfffff0a1
    7dac:	676e6f72 			; <UNDEFINED> instruction: 0x676e6f72
    7db0:	6665725f 			; <UNDEFINED> instruction: 0x6665725f
    7db4:	6e657265 	cdpvs	2, 6, cr7, cr5, cr5, {3}
    7db8:	73286563 			; <UNDEFINED> instruction: 0x73286563
    7dbc:	612c6d79 			; <UNDEFINED> instruction: 0x612c6d79
    7dc0:	7361696c 	cmnvc	r1, #108, 18	; 0x1b0000
    7dc4:	296d7973 	stmdbcs	sp!, {r0, r1, r4, r5, r6, r8, fp, ip, sp, lr}^
    7dc8:	74786520 	ldrbtvc	r6, [r8], #-1312	; 0xfffffae0
    7dcc:	206e7265 	rsbcs	r7, lr, r5, ror #4
    7dd0:	79745f5f 	ldmdbvc	r4!, {r0, r1, r2, r3, r4, r6, r8, r9, sl, fp, ip, lr}^
    7dd4:	666f6570 			; <UNDEFINED> instruction: 0x666f6570
    7dd8:	79732820 	ldmdbvc	r3!, {r5, fp, sp}^
    7ddc:	6120296d 			; <UNDEFINED> instruction: 0x6120296d
    7de0:	7361696c 	cmnvc	r1, #108, 18	; 0x1b0000
    7de4:	206d7973 	rsbcs	r7, sp, r3, ror r9
    7de8:	74615f5f 	strbtvc	r5, [r1], #-3935	; 0xfffff0a1
    7dec:	62697274 	rsbvs	r7, r9, #116, 4	; 0x40000007
    7df0:	5f657475 	svcpl	0x00657475
    7df4:	2828205f 	stmdacs	r8!, {r0, r1, r2, r3, r4, r6, sp}
    7df8:	6c615f5f 	stclvs	15, cr5, [r1], #-380	; 0xfffffe84
    7dfc:	5f736169 	svcpl	0x00736169
    7e00:	2328205f 			; <UNDEFINED> instruction: 0x2328205f
    7e04:	296d7973 	stmdbcs	sp!, {r0, r1, r4, r5, r6, r8, fp, ip, sp, lr}^
    7e08:	47002929 	strmi	r2, [r0, -r9, lsr #18]
    7e0c:	5f4f4950 	svcpl	0x004f4950
    7e10:	65707954 	ldrbvs	r7, [r0, #-2388]!	; 0xfffff6ac
    7e14:	00666544 	rsbeq	r6, r6, r4, asr #10
    7e18:	4c555f5f 	mrrcmi	15, 5, r5, r5, cr15	; <UNPREDICTABLE>
    7e1c:	4152464c 	cmpmi	r2, ip, asr #12
    7e20:	455f5443 	ldrbmi	r5, [pc, #-1091]	; 79e5 <_Min_Stack_Size+0x75e5>
    7e24:	4c495350 	mcrrmi	3, 5, r5, r9, cr0
    7e28:	5f5f4e4f 	svcpl	0x005f4e4f
    7e2c:	31783020 	cmncc	r8, r0, lsr #32
    7e30:	34362d50 	ldrtcc	r2, [r6], #-3408	; 0xfffff2b0
    7e34:	524c4c55 	subpl	r4, ip, #21760	; 0x5500
    7e38:	49545f00 	ldmdbmi	r4, {r8, r9, sl, fp, ip, lr}^
    7e3c:	5f52454d 	svcpl	0x0052454d
    7e40:	75205f54 	strvc	r5, [r0, #-3924]!	; 0xfffff0ac
    7e44:	6769736e 	strbvs	r7, [r9, -lr, ror #6]!
    7e48:	2064656e 	rsbcs	r6, r4, lr, ror #10
    7e4c:	676e6f6c 	strbvs	r6, [lr, -ip, ror #30]!
    7e50:	626c5f00 	rsbvs	r5, ip, #0, 30
    7e54:	7a697366 	bvc	1a64bf4 <_Min_Stack_Size+0x1a647f4>
    7e58:	415f0065 	cmpmi	pc, r5, rrx
    7e5c:	49584554 	ldmdbmi	r8, {r2, r4, r6, r8, sl, lr}^
    7e60:	49535f54 	ldmdbmi	r3, {r2, r4, r6, r8, r9, sl, fp, ip, lr}^
    7e64:	3320455a 			; <UNDEFINED> instruction: 0x3320455a
    7e68:	5f5f0032 	svcpl	0x005f0032
    7e6c:	455a4953 	ldrbmi	r4, [sl, #-2387]	; 0xfffff6ad
    7e70:	575f464f 	ldrbpl	r4, [pc, -pc, asr #12]
    7e74:	5f544e49 	svcpl	0x00544e49
    7e78:	205f5f54 	subscs	r5, pc, r4, asr pc	; <UNPREDICTABLE>
    7e7c:	58450034 	stmdapl	r5, {r2, r4, r5}^
    7e80:	435f4954 	cmpmi	pc, #84, 18	; 0x150000
    7e84:	5f006766 	svcpl	0x00006766
    7e88:	4d52415f 	ldfmie	f4, [r2, #-380]	; 0xfffffe84
    7e8c:	4145465f 	cmpmi	r5, pc, asr r6
    7e90:	45525554 	ldrbmi	r5, [r2, #-1364]	; 0xfffffaac
    7e94:	414e555f 	cmpmi	lr, pc, asr r5
    7e98:	4e47494c 	vmlsmi.f16	s9, s14, s24	; <UNPREDICTABLE>
    7e9c:	31204445 			; <UNDEFINED> instruction: 0x31204445
    7ea0:	535f5f00 	cmppl	pc, #0, 30
    7ea4:	5f434454 	svcpl	0x00434454
    7ea8:	0031205f 	eorseq	r2, r1, pc, asr r0
    7eac:	444c5f5f 	strbmi	r5, [ip], #-3935	; 0xfffff0a1
    7eb0:	445f4c42 	ldrbmi	r4, [pc], #-3138	; 7eb8 <_Min_Stack_Size+0x7ab8>
    7eb4:	4d494345 	stclmi	3, cr4, [r9, #-276]	; 0xfffffeec
    7eb8:	445f4c41 	ldrbmi	r4, [pc], #-3137	; 7ec0 <_Min_Stack_Size+0x7ac0>
    7ebc:	5f5f4749 	svcpl	0x005f4749
    7ec0:	00373120 	eorseq	r3, r7, r0, lsr #2
    7ec4:	4e475f5f 	mcrmi	15, 2, r5, cr7, cr15, {2}
    7ec8:	494c4355 	stmdbmi	ip, {r0, r2, r4, r6, r8, r9, lr}^
    7ecc:	415f454b 	cmpmi	pc, fp, asr #10
    7ed0:	33204d53 			; <UNDEFINED> instruction: 0x33204d53
    7ed4:	4c5f5f00 	mrrcmi	15, 0, r5, pc, cr0	; <UNPREDICTABLE>
    7ed8:	55434341 	strbpl	r4, [r3, #-833]	; 0xfffffcbf
    7edc:	494d5f4d 	stmdbmi	sp, {r0, r2, r3, r6, r8, r9, sl, fp, ip, lr}^
    7ee0:	205f5f4e 	subscs	r5, pc, lr, asr #30
    7ee4:	58302d28 	ldmdapl	r0!, {r3, r5, r8, sl, fp, sp}
    7ee8:	31335031 	teqcc	r3, r1, lsr r0
    7eec:	302d4b4c 	eorcc	r4, sp, ip, asr #22
    7ef0:	33503158 	cmpcc	r0, #88, 2
    7ef4:	294b4c31 	stmdbcs	fp, {r0, r4, r5, sl, fp, lr}^
    7ef8:	495f5f00 	ldmdbmi	pc, {r8, r9, sl, fp, ip, lr}^	; <UNPREDICTABLE>
    7efc:	465f544e 	ldrbmi	r5, [pc], -lr, asr #8
    7f00:	38545341 	ldmdacc	r4, {r0, r6, r8, r9, ip, lr}^
    7f04:	58414d5f 	stmdapl	r1, {r0, r1, r2, r3, r4, r6, r8, sl, fp, lr}^
    7f08:	30205f5f 	eorcc	r5, r0, pc, asr pc
    7f0c:	66663778 			; <UNDEFINED> instruction: 0x66663778
    7f10:	66666666 	strbtvs	r6, [r6], -r6, ror #12
    7f14:	5f5f0066 	svcpl	0x005f0066
    7f18:	33544c46 	cmpcc	r4, #17920	; 0x4600
    7f1c:	41485f32 	cmpmi	r8, r2, lsr pc
    7f20:	45445f53 	strbmi	r5, [r4, #-3923]	; 0xfffff0ad
    7f24:	4d524f4e 	ldclmi	15, cr4, [r2, #-312]	; 0xfffffec8
    7f28:	31205f5f 			; <UNDEFINED> instruction: 0x31205f5f
    7f2c:	735f5f00 	cmpvc	pc, #0, 30
    7f30:	666e6163 	strbtvs	r6, [lr], -r3, ror #2
    7f34:	656b696c 	strbvs	r6, [fp, #-2412]!	; 0xfffff694
    7f38:	746d6628 	strbtvc	r6, [sp], #-1576	; 0xfffff9d8
    7f3c:	2c677261 	sfmcs	f7, 2, [r7], #-388	; 0xfffffe7c
    7f40:	73726966 	cmnvc	r2, #1671168	; 0x198000
    7f44:	72617674 	rsbvc	r7, r1, #116, 12	; 0x7400000
    7f48:	29677261 	stmdbcs	r7!, {r0, r5, r6, r9, ip, sp, lr}^
    7f4c:	615f5f20 	cmpvs	pc, r0, lsr #30
    7f50:	69727474 	ldmdbvs	r2!, {r2, r4, r5, r6, sl, ip, sp, lr}^
    7f54:	65747562 	ldrbvs	r7, [r4, #-1378]!	; 0xfffffa9e
    7f58:	28285f5f 	stmdacs	r8!, {r0, r1, r2, r3, r4, r6, r8, r9, sl, fp, ip, lr}
    7f5c:	6f665f5f 	svcvs	0x00665f5f
    7f60:	74616d72 	strbtvc	r6, [r1], #-3442	; 0xfffff28e
    7f64:	28205f5f 	stmdacs	r0!, {r0, r1, r2, r3, r4, r6, r8, r9, sl, fp, ip, lr}
    7f68:	63735f5f 	cmnvs	r3, #380	; 0x17c
    7f6c:	5f666e61 	svcpl	0x00666e61
    7f70:	66202c5f 			; <UNDEFINED> instruction: 0x66202c5f
    7f74:	7261746d 	rsbvc	r7, r1, #1828716544	; 0x6d000000
    7f78:	66202c67 	strtvs	r2, [r0], -r7, ror #24
    7f7c:	74737269 	ldrbtvc	r7, [r3], #-617	; 0xfffffd97
    7f80:	61726176 	cmnvs	r2, r6, ror r1
    7f84:	29296772 	stmdbcs	r9!, {r1, r4, r5, r6, r8, r9, sl, sp, lr}
    7f88:	525f0029 	subspl	r0, pc, #41	; 0x29
    7f8c:	544e4545 	strbpl	r4, [lr], #-1349	; 0xfffffabb
    7f90:	414d535f 	cmpmi	sp, pc, asr r3
    7f94:	00204c4c 	eoreq	r4, r0, ip, asr #24
    7f98:	4c555f5f 	mrrcmi	15, 5, r5, r5, cr15	; <UNPREDICTABLE>
    7f9c:	4343414c 	movtmi	r4, #12620	; 0x314c
    7fa0:	4d5f4d55 	ldclmi	13, cr4, [pc, #-340]	; 7e54 <_Min_Stack_Size+0x7a54>
    7fa4:	5f5f4e49 	svcpl	0x005f4e49
    7fa8:	302e3020 	eorcc	r3, lr, r0, lsr #32
    7fac:	4b4c4c55 	blmi	131b108 <_Min_Stack_Size+0x131ad08>
    7fb0:	59535f00 	ldmdbpl	r3, {r8, r9, sl, fp, ip, lr}^
    7fb4:	545f5f53 	ldrbpl	r5, [pc], #-3923	; 7fbc <_Min_Stack_Size+0x7bbc>
    7fb8:	53455059 	movtpl	r5, #20569	; 0x5059
    7fbc:	0020485f 	eoreq	r4, r0, pc, asr r8
    7fc0:	4e495f5f 	mcrmi	15, 2, r5, cr9, cr15, {2}
    7fc4:	41465f54 	cmpmi	r6, r4, asr pc
    7fc8:	32335453 	eorscc	r5, r3, #1392508928	; 0x53000000
    7fcc:	4449575f 	strbmi	r5, [r9], #-1887	; 0xfffff8a1
    7fd0:	5f5f4854 	svcpl	0x005f4854
    7fd4:	00323320 	eorseq	r3, r2, r0, lsr #6
    7fd8:	4e41525f 	mcrmi	2, 2, r5, cr1, cr15, {2}
    7fdc:	5f383444 	svcpl	0x00383444
    7fe0:	544c554d 	strbpl	r5, [ip], #-1357	; 0xfffffab3
    7fe4:	2820305f 	stmdacs	r0!, {r0, r1, r2, r3, r4, r6, ip, sp}
    7fe8:	36657830 			; <UNDEFINED> instruction: 0x36657830
    7fec:	00296436 	eoreq	r6, r9, r6, lsr r4
    7ff0:	5f73695f 	svcpl	0x0073695f
    7ff4:	00617863 	rsbeq	r7, r1, r3, ror #16
    7ff8:	4e475f5f 	mcrmi	15, 2, r5, cr7, cr15, {2}
    7ffc:	494c4355 	stmdbmi	ip, {r0, r2, r4, r6, r8, r9, lr}^
    8000:	425f454b 	subsmi	r4, pc, #314572800	; 0x12c00000
    8004:	544c4955 	strbpl	r4, [ip], #-2389	; 0xfffff6ab
    8008:	565f4e49 	ldrbpl	r4, [pc], -r9, asr #28
    800c:	494c4141 	stmdbmi	ip, {r0, r6, r8, lr}^
    8010:	31205453 			; <UNDEFINED> instruction: 0x31205453
    8014:	454e5f00 	strbmi	r5, [lr, #-3840]	; 0xfffff100
    8018:	42494c57 	submi	r4, r9, #22272	; 0x5700
    801c:	4c4c415f 	stfmie	f4, [ip], {95}	; 0x5f
    8020:	5f41434f 	svcpl	0x0041434f
    8024:	5f002048 	svcpl	0x00002048
    8028:	544e495f 	strbpl	r4, [lr], #-2399	; 0xfffff6a1
    802c:	22203233 	eorcs	r3, r0, #805306371	; 0x30000003
    8030:	5f00226c 	svcpl	0x0000226c
    8034:	4d52415f 	ldfmie	f4, [r2, #-380]	; 0xfffffe84
    8038:	4d53415f 	ldfmie	f4, [r3, #-380]	; 0xfffffe84
    803c:	4e59535f 	mrcmi	3, 2, r5, cr9, cr15, {2}
    8040:	5f584154 	svcpl	0x00584154
    8044:	46494e55 			; <UNDEFINED> instruction: 0x46494e55
    8048:	5f444549 	svcpl	0x00444549
    804c:	0031205f 	eorseq	r2, r1, pc, asr r0
    8050:	74727473 	ldrbtvc	r7, [r2], #-1139	; 0xfffffb8d
    8054:	2066646f 	rsbcs	r6, r6, pc, ror #8
    8058:	74727473 	ldrbtvc	r7, [r2], #-1139	; 0xfffffb8d
    805c:	5f00666f 	svcpl	0x0000666f
    8060:	4e49555f 	mcrmi	5, 2, r5, cr9, cr15, {2}
    8064:	5f323354 	svcpl	0x00323354
    8068:	45505954 	ldrbmi	r5, [r0, #-2388]	; 0xfffff6ac
    806c:	6c205f5f 	stcvs	15, cr5, [r0], #-380	; 0xfffffe84
    8070:	20676e6f 	rsbcs	r6, r7, pc, ror #28
    8074:	69736e75 	ldmdbvs	r3!, {r0, r2, r4, r5, r6, r9, sl, fp, sp, lr}^
    8078:	64656e67 	strbtvs	r6, [r5], #-3687	; 0xfffff199
    807c:	746e6920 	strbtvc	r6, [lr], #-2336	; 0xfffff6e0
    8080:	475f5f00 	ldrbmi	r5, [pc, -r0, lsl #30]
    8084:	4c43554e 	cfstr64mi	mvdx5, [r3], {78}	; 0x4e
    8088:	5f454b49 	svcpl	0x00454b49
    808c:	4854414d 	ldmdami	r4, {r0, r2, r3, r6, r8, lr}^
    8090:	4955425f 	ldmdbmi	r5, {r0, r1, r2, r3, r4, r6, r9, lr}^
    8094:	4e49544c 	cdpmi	4, 4, cr5, cr9, cr12, {2}
    8098:	4e4f435f 	mcrmi	3, 2, r4, cr15, cr15, {2}
    809c:	4e415453 	mcrmi	4, 2, r5, cr1, cr3, {2}
    80a0:	00205354 	eoreq	r5, r0, r4, asr r3
    80a4:	68745f5f 	ldmdavs	r4!, {r0, r1, r2, r3, r4, r6, r8, r9, sl, fp, ip, lr}^
    80a8:	32626d75 	rsbcc	r6, r2, #7488	; 0x1d40
    80ac:	31205f5f 			; <UNDEFINED> instruction: 0x31205f5f
    80b0:	69685300 	stmdbvs	r8!, {r8, r9, ip, lr}^
    80b4:	654c7466 	strbvs	r7, [ip, #-1126]	; 0xfffffb9a
    80b8:	30207466 	eorcc	r7, r0, r6, ror #8
    80bc:	00383178 	eorseq	r3, r8, r8, ror r1
    80c0:	74697753 	strbtvc	r7, [r9], #-1875	; 0xfffff8ad
    80c4:	435f6863 	cmpmi	pc, #6488064	; 0x630000
    80c8:	415f5550 	cmpmi	pc, r0, asr r5	; <UNPREDICTABLE>
    80cc:	73656363 	cmnvc	r5, #-1946157055	; 0x8c000001
    80d0:	76654c73 			; <UNDEFINED> instruction: 0x76654c73
    80d4:	5f006c65 	svcpl	0x00006c65
    80d8:	41464544 	cmpmi	r6, r4, asr #10
    80dc:	5f544c55 	svcpl	0x00544c55
    80e0:	52554f53 	subspl	r4, r5, #332	; 0x14c
    80e4:	44004543 	strmi	r4, [r0], #-1347	; 0xfffffabd
    80e8:	50472035 	subpl	r2, r7, r5, lsr r0
    80ec:	505f4f49 	subspl	r4, pc, r9, asr #30
    80f0:	355f4e49 	ldrbcc	r4, [pc, #-3657]	; 72af <_Min_Stack_Size+0x6eaf>
    80f4:	6f687300 	svcvs	0x00687300
    80f8:	2b207472 	blcs	8252c8 <_Min_Stack_Size+0x824ec8>
    80fc:	475f0031 	smmlarmi	pc, r1, r0, r0	; <UNPREDICTABLE>
    8100:	535f4343 	cmppl	pc, #201326593	; 0xc000001
    8104:	5f455a49 	svcpl	0x00455a49
    8108:	52002054 	andpl	r2, r0, #84	; 0x54
    810c:	50472053 	subpl	r2, r7, r3, asr r0
    8110:	505f4f49 	subspl	r4, pc, r9, asr #30
    8114:	305f4e49 	subscc	r4, pc, r9, asr #28
    8118:	696d5f00 	stmdbvs	sp!, {r8, r9, sl, fp, ip, lr}^
    811c:	5f006373 	svcpl	0x00006373
    8120:	4c4c555f 	cfstr64mi	mvdx5, [ip], {95}	; 0x5f
    8124:	43415246 	movtmi	r5, #4678	; 0x1246
    8128:	494d5f54 	stmdbmi	sp, {r2, r4, r6, r8, r9, sl, fp, ip, lr}^
    812c:	205f5f4e 	subscs	r5, pc, lr, asr #30
    8130:	55302e30 	ldrpl	r2, [r0, #-3632]!	; 0xfffff1d0
    8134:	00524c4c 	subseq	r4, r2, ip, asr #24
    8138:	575f545f 			; <UNDEFINED> instruction: 0x575f545f
    813c:	52414843 	subpl	r4, r1, #4390912	; 0x430000
    8140:	5f00205f 	svcpl	0x0000205f
    8144:	61636f6c 	cmnvs	r3, ip, ror #30
    8148:	5f00656c 	svcpl	0x0000656c
    814c:	6f4c555f 	svcvs	0x004c555f
    8150:	4e00676e 	cdpmi	7, 0, cr6, cr0, cr14, {3}
    8154:	5f434956 	svcpl	0x00434956
    8158:	31515249 	cmpcc	r1, r9, asr #4
    815c:	58455f30 	stmdapl	r5, {r4, r5, r8, r9, sl, fp, ip, lr}^
    8160:	5f344954 	svcpl	0x00344954
    8164:	61736944 	cmnvs	r3, r4, asr #18
    8168:	20656c62 	rsbcs	r6, r5, r2, ror #24
    816c:	49564e28 	ldmdbmi	r6, {r3, r5, r9, sl, fp, lr}^
    8170:	43495f43 	movtmi	r5, #40771	; 0x9f43
    8174:	20305245 	eorscs	r5, r0, r5, asr #4
    8178:	28203d7c 	stmdacs	r0!, {r2, r3, r4, r5, r6, r8, sl, fp, ip, sp}
    817c:	313c3c31 	teqcc	ip, r1, lsr ip
    8180:	00292930 	eoreq	r2, r9, r0, lsr r9
    8184:	52415f5f 	subpl	r5, r1, #380	; 0x17c
    8188:	50465f4d 	subpl	r5, r6, sp, asr #30
    818c:	415f3631 	cmpmi	pc, r1, lsr r6	; <UNPREDICTABLE>
    8190:	00534752 	subseq	r4, r3, r2, asr r7
    8194:	6f6c5f5f 	svcvs	0x006c5f5f
    8198:	725f6b63 	subsvc	r6, pc, #101376	; 0x18c00
    819c:	61656c65 	cmnvs	r5, r5, ror #24
    81a0:	6c286573 	cfstr32vs	mvfx6, [r8], #-460	; 0xfffffe34
    81a4:	296b636f 	stmdbcs	fp!, {r0, r1, r2, r3, r5, r6, r8, r9, sp, lr}^
    81a8:	76282820 	strtvc	r2, [r8], -r0, lsr #16
    81ac:	2964696f 	stmdbcs	r4!, {r0, r1, r2, r3, r5, r6, r8, fp, sp, lr}^
    81b0:	00293020 	eoreq	r3, r9, r0, lsr #32
    81b4:	49535f5f 	ldmdbmi	r3, {r0, r1, r2, r3, r4, r6, r8, r9, sl, fp, ip, lr}^
    81b8:	464f455a 			; <UNDEFINED> instruction: 0x464f455a
    81bc:	544e495f 	strbpl	r4, [lr], #-2399	; 0xfffff6a1
    81c0:	34205f5f 	strtcc	r5, [r0], #-3935	; 0xfffff0a1
    81c4:	53425f00 	movtpl	r5, #12032	; 0x2f00
    81c8:	43575f44 	cmpmi	r7, #68, 30	; 0x110
    81cc:	5f524148 	svcpl	0x00524148
    81d0:	5f005f54 	svcpl	0x00005f54
    81d4:	464c4c5f 			; <UNDEFINED> instruction: 0x464c4c5f
    81d8:	54434152 	strbpl	r4, [r3], #-338	; 0xfffffeae
    81dc:	4942495f 	stmdbmi	r2, {r0, r1, r2, r3, r4, r6, r8, fp, lr}^
    81e0:	205f5f54 	subscs	r5, pc, r4, asr pc	; <UNPREDICTABLE>
    81e4:	5f5f0030 	svcpl	0x005f0030
    81e8:	535f4343 	cmppl	pc, #201326593	; 0xc000001
    81ec:	4f505055 	svcmi	0x00505055
    81f0:	5f535452 	svcpl	0x00535452
    81f4:	41524156 	cmpmi	r2, r6, asr r1
    81f8:	5f434944 	svcpl	0x00434944
    81fc:	20585858 	subscs	r5, r8, r8, asr r8
    8200:	735f0031 	cmpvc	pc, #49	; 0x31
    8204:	00657a69 	rsbeq	r7, r5, r9, ror #20
    8208:	5359535f 	cmppl	r9, #2080374785	; 0x7c000001
    820c:	4e495f5f 	mcrmi	15, 2, r5, cr9, cr15, {2}
    8210:	50555354 	subspl	r5, r5, r4, asr r3
    8214:	0020485f 	eoreq	r4, r0, pc, asr r8
    8218:	41535f5f 	cmpmi	r3, pc, asr pc
    821c:	4d554343 	ldclmi	3, cr4, [r5, #-268]	; 0xfffffef4
    8220:	5350455f 	cmppl	r0, #398458880	; 0x17c00000
    8224:	4e4f4c49 	cdpmi	12, 4, cr4, cr15, cr9, {2}
    8228:	30205f5f 	eorcc	r5, r0, pc, asr pc
    822c:	2d503178 	ldfcse	f3, [r0, #-480]	; 0xfffffe20
    8230:	004b4837 	subeq	r4, fp, r7, lsr r8
    8234:	7365725f 	cmnvc	r5, #-268435451	; 0xf0000005
    8238:	00746c75 	rsbseq	r6, r4, r5, ror ip
    823c:	5f544e49 	svcpl	0x00544e49
    8240:	54534146 	ldrbpl	r4, [r3], #-326	; 0xfffffeba
    8244:	4d5f3436 	cfldrdmi	mvd3, [pc, #-216]	; 8174 <_Min_Stack_Size+0x7d74>
    8248:	28205841 	stmdacs	r0!, {r0, r6, fp, ip, lr}
    824c:	4e495f5f 	mcrmi	15, 2, r5, cr9, cr15, {2}
    8250:	41465f54 	cmpmi	r6, r4, asr pc
    8254:	34365453 	ldrtcc	r5, [r6], #-1107	; 0xfffffbad
    8258:	58414d5f 	stmdapl	r1, {r0, r1, r2, r3, r4, r6, r8, sl, fp, lr}^
    825c:	00295f5f 	eoreq	r5, r9, pc, asr pc
    8260:	534f505f 	movtpl	r5, #61535	; 0xf05f
    8264:	535f5849 	cmppl	pc, #4784128	; 0x490000
    8268:	4352554f 	cmpmi	r2, #331350016	; 0x13c00000
    826c:	00312045 	eorseq	r2, r1, r5, asr #32
    8270:	4f495047 	svcmi	0x00495047
    8274:	444f4d5f 	strbmi	r4, [pc], #-3423	; 827c <_Min_Stack_Size+0x7e7c>
    8278:	46415f45 	strbmi	r5, [r1], -r5, asr #30
    827c:	504e495f 	subpl	r4, lr, pc, asr r9
    8280:	30205455 	eorcc	r5, r0, r5, asr r4
    8284:	30303078 	eorscc	r3, r0, r8, ror r0
    8288:	30303030 	eorscc	r3, r0, r0, lsr r0
    828c:	5f007538 	svcpl	0x00007538
    8290:	4e49555f 	mcrmi	5, 2, r5, cr9, cr15, {2}
    8294:	41465f54 	cmpmi	r6, r4, asr pc
    8298:	36315453 			; <UNDEFINED> instruction: 0x36315453
    829c:	5059545f 	subspl	r5, r9, pc, asr r4
    82a0:	205f5f45 	subscs	r5, pc, r5, asr #30
    82a4:	69736e75 	ldmdbvs	r3!, {r0, r2, r4, r5, r6, r9, sl, fp, sp, lr}^
    82a8:	64656e67 	strbtvs	r6, [r5], #-3687	; 0xfffff199
    82ac:	746e6920 	strbtvc	r6, [lr], #-2336	; 0xfffff6e0
    82b0:	555f5f00 	ldrbpl	r5, [pc, #-3840]	; 73b8 <_Min_Stack_Size+0x6fb8>
    82b4:	495f4148 	ldmdbmi	pc, {r3, r6, r8, lr}^	; <UNPREDICTABLE>
    82b8:	5f544942 	svcpl	0x00544942
    82bc:	0038205f 	eorseq	r2, r8, pc, asr r0
    82c0:	6f70665f 	svcvs	0x0070665f
    82c4:	00745f73 	rsbseq	r5, r4, r3, ror pc
    82c8:	43415f5f 	movtmi	r5, #8031	; 0x1f5f
    82cc:	5f4d5543 	svcpl	0x004d5543
    82d0:	49535045 	ldmdbmi	r3, {r0, r2, r6, ip, lr}^
    82d4:	5f4e4f4c 	svcpl	0x004e4f4c
    82d8:	7830205f 	ldmdavc	r0!, {r0, r1, r2, r3, r4, r6, sp}
    82dc:	312d5031 			; <UNDEFINED> instruction: 0x312d5031
    82e0:	5f004b35 	svcpl	0x00004b35
    82e4:	414c555f 	cmpmi	ip, pc, asr r5
    82e8:	4d554343 	ldclmi	3, cr4, [r5, #-268]	; 0xfffffef4
    82ec:	5350455f 	cmppl	r0, #398458880	; 0x17c00000
    82f0:	4e4f4c49 	cdpmi	12, 4, cr4, cr15, cr9, {2}
    82f4:	30205f5f 	eorcc	r5, r0, pc, asr pc
    82f8:	2d503178 	ldfcse	f3, [r0, #-480]	; 0xfffffe20
    82fc:	4c553233 	lfmmi	f3, 2, [r5], {51}	; 0x33
    8300:	5f5f004b 	svcpl	0x005f004b
    8304:	4c42444c 	cfstrdmi	mvd4, [r2], {76}	; 0x4c
    8308:	4749445f 	smlsldmi	r4, r9, pc, r4	; <UNPREDICTABLE>
    830c:	31205f5f 			; <UNDEFINED> instruction: 0x31205f5f
    8310:	5f5f0035 	svcpl	0x005f0035
    8314:	5f4c4244 	svcpl	0x004c4244
    8318:	5f4e494d 	svcpl	0x004e494d
    831c:	2828205f 	stmdacs	r8!, {r0, r1, r2, r3, r4, r6, sp}
    8320:	62756f64 	rsbsvs	r6, r5, #100, 30	; 0x190
    8324:	3229656c 	eorcc	r6, r9, #108, 10	; 0x1b000000
    8328:	3532322e 	ldrcc	r3, [r2, #-558]!	; 0xfffffdd2
    832c:	38333730 	ldmdacc	r3!, {r4, r5, r8, r9, sl, ip, sp}
    8330:	30353835 	eorscc	r3, r5, r5, lsr r8
    8334:	31303237 	teqcc	r0, r7, lsr r2
    8338:	332d6534 			; <UNDEFINED> instruction: 0x332d6534
    833c:	294c3830 	stmdbcs	ip, {r4, r5, fp, ip, sp}^
    8340:	535f5f00 	cmppl	pc, #0, 30
    8344:	5f455a49 	svcpl	0x00455a49
    8348:	54444957 	strbpl	r4, [r4], #-2391	; 0xfffff6a9
    834c:	205f5f48 	subscs	r5, pc, r8, asr #30
    8350:	5f003233 	svcpl	0x00003233
    8354:	4e454552 	mcrmi	5, 2, r4, cr5, cr2, {2}
    8358:	504d5f54 	subpl	r5, sp, r4, asr pc
    835c:	5345525f 	movtpl	r5, #21087	; 0x525f
    8360:	28544c55 	ldmdacs	r4, {r0, r2, r4, r6, sl, fp, lr}^
    8364:	29727470 	ldmdbcs	r2!, {r4, r5, r6, sl, ip, sp, lr}^
    8368:	70282820 	eorvc	r2, r8, r0, lsr #16
    836c:	2d297274 	sfmcs	f7, 4, [r9, #-464]!	; 0xfffffe30
    8370:	706d5f3e 	rsbvc	r5, sp, lr, lsr pc
    8374:	725f3e2d 	subsvc	r3, pc, #720	; 0x2d0
    8378:	6c757365 	ldclvs	3, cr7, [r5], #-404	; 0xfffffe6c
    837c:	5f002974 	svcpl	0x00002974
    8380:	4e49575f 	mcrmi	7, 2, r5, cr9, cr15, {2}
    8384:	494d5f54 	stmdbmi	sp, {r2, r4, r6, r8, r9, sl, fp, ip, lr}^
    8388:	205f5f4e 	subscs	r5, pc, lr, asr #30
    838c:	5f005530 	svcpl	0x00005530
    8390:	5f66666f 	svcpl	0x0066666f
    8394:	5f5f0074 	svcpl	0x005f0074
    8398:	36544c46 	ldrbcc	r4, [r4], -r6, asr #24
    839c:	49445f34 	stmdbmi	r4, {r2, r4, r5, r8, r9, sl, fp, ip, lr}^
    83a0:	205f5f47 	subscs	r5, pc, r7, asr #30
    83a4:	5f003531 	svcpl	0x00003531
    83a8:	4345445f 	movtmi	r4, #21599	; 0x545f
    83ac:	455f3436 	ldrbmi	r3, [pc, #-1078]	; 7f7e <_Min_Stack_Size+0x7b7e>
    83b0:	4c495350 	mcrrmi	3, 5, r5, r9, cr0
    83b4:	5f5f4e4f 	svcpl	0x005f4e4f
    83b8:	2d453120 	stfcse	f3, [r5, #-128]	; 0xffffff80
    83bc:	44443531 	strbmi	r3, [r4], #-1329	; 0xfffffacf
    83c0:	575f5f00 	ldrbpl	r5, [pc, -r0, lsl #30]
    83c4:	5f544e49 	svcpl	0x00544e49
    83c8:	5f58414d 	svcpl	0x0058414d
    83cc:	7830205f 	ldmdavc	r0!, {r0, r1, r2, r3, r4, r6, sp}
    83d0:	66666666 	strbtvs	r6, [r6], -r6, ror #12
    83d4:	66666666 	strbtvs	r6, [r6], -r6, ror #12
    83d8:	5f5f0055 	svcpl	0x005f0055
    83dc:	5f544e49 	svcpl	0x00544e49
    83e0:	5341454c 	movtpl	r4, #5452	; 0x154c
    83e4:	575f3854 			; <UNDEFINED> instruction: 0x575f3854
    83e8:	48544449 	ldmdami	r4, {r0, r3, r6, sl, lr}^
    83ec:	38205f5f 	stmdacc	r0!, {r0, r1, r2, r3, r4, r6, r8, r9, sl, fp, ip, lr}
    83f0:	45525f00 	ldrbmi	r5, [r2, #-3840]	; 0xfffff100
    83f4:	5f544e45 	svcpl	0x00544e45
    83f8:	525f504d 	subspl	r5, pc, #77	; 0x4d
    83fc:	4c555345 	mrrcmi	3, 4, r5, r5, cr5	; <UNPREDICTABLE>
    8400:	284b5f54 	stmdacs	fp, {r2, r4, r6, r8, r9, sl, fp, ip, lr}^
    8404:	29727470 	ldmdbcs	r2!, {r4, r5, r6, sl, ip, sp, lr}^
    8408:	70282820 	eorvc	r2, r8, r0, lsr #16
    840c:	2d297274 	sfmcs	f7, 4, [r9, #-464]!	; 0xfffffe30
    8410:	706d5f3e 	rsbvc	r5, sp, lr, lsr pc
    8414:	725f3e2d 	subsvc	r3, pc, #720	; 0x2d0
    8418:	6c757365 	ldclvs	3, cr7, [r5], #-404	; 0xfffffe6c
    841c:	296b5f74 	stmdbcs	fp!, {r2, r4, r5, r6, r8, r9, sl, fp, ip, lr}^
    8420:	6c5f5f00 	mrrcvs	15, 0, r5, pc, cr0	; <UNPREDICTABLE>
    8424:	5f676e6f 	svcpl	0x00676e6f
    8428:	62756f64 	rsbsvs	r6, r5, #100, 30	; 0x190
    842c:	745f656c 	ldrbvc	r6, [pc], #-1388	; 8434 <_Min_Stack_Size+0x8034>
    8430:	6e6f6c20 	cdpvs	12, 6, cr6, cr15, cr0, {1}
    8434:	6f642067 	svcvs	0x00642067
    8438:	656c6275 	strbvs	r6, [ip, #-629]!	; 0xfffffd8b
    843c:	495f5f00 	ldmdbmi	pc, {r8, r9, sl, fp, ip, lr}^	; <UNPREDICTABLE>
    8440:	4c5f544e 	cfldrdmi	mvd5, [pc], {78}	; 0x4e
    8444:	54534145 	ldrbpl	r4, [r3], #-325	; 0xfffffebb
    8448:	545f3631 	ldrbpl	r3, [pc], #-1585	; 8450 <_Min_Stack_Size+0x8050>
    844c:	5f455059 	svcpl	0x00455059
    8450:	6873205f 	ldmdavs	r3!, {r0, r1, r2, r3, r4, r6, sp}^
    8454:	2074726f 	rsbscs	r7, r4, pc, ror #4
    8458:	00746e69 	rsbseq	r6, r4, r9, ror #28
    845c:	6464615f 	strbtvs	r6, [r4], #-351	; 0xfffffea1
    8460:	515f5f00 	cmppl	pc, r0, lsl #30
    8464:	42465f51 	submi	r5, r6, #324	; 0x144
    8468:	5f5f5449 	svcpl	0x005f5449
    846c:	45003720 	strmi	r3, [r0, #-1824]	; 0xfffff8e0
    8470:	31495458 	cmpcc	r9, r8, asr r4
    8474:	20314150 	eorscs	r4, r1, r0, asr r1
    8478:	54584528 	ldrbpl	r4, [r8], #-1320	; 0xfffffad8
    847c:	50475f49 	subpl	r5, r7, r9, asr #30
    8480:	4d5f4f49 	ldclmi	15, cr4, [pc, #-292]	; 8364 <_Min_Stack_Size+0x7f64>
    8484:	6e697061 	cdpvs	0, 6, cr7, cr9, cr1, {3}
    8488:	29745f67 	ldmdbcs	r4!, {r0, r1, r2, r5, r6, r8, r9, sl, fp, ip, lr}^
    848c:	5458457b 	ldrbpl	r4, [r8], #-1403	; 0xfffffa85
    8490:	472c3149 	strmi	r3, [ip, -r9, asr #2]!
    8494:	414f4950 	cmpmi	pc, r0, asr r9	; <UNPREDICTABLE>
    8498:	4950472c 	ldmdbmi	r0, {r2, r3, r5, r8, r9, sl, lr}^
    849c:	49505f4f 	ldmdbmi	r0, {r0, r1, r2, r3, r6, r8, r9, sl, fp, ip, lr}^
    84a0:	2c315f4e 	ldccs	15, cr5, [r1], #-312	; 0xfffffec8
    84a4:	49545845 	ldmdbmi	r4, {r0, r2, r6, fp, ip, lr}^
    84a8:	52495f31 	subpl	r5, r9, #49, 30	; 0xc4
    84ac:	5f007d51 	svcpl	0x00007d51
    84b0:	4c42445f 	cfstrdmi	mvd4, [r2], {95}	; 0x5f
    84b4:	58414d5f 	stmdapl	r1, {r0, r1, r2, r3, r4, r6, r8, sl, fp, lr}^
    84b8:	28205f5f 	stmdacs	r0!, {r0, r1, r2, r3, r4, r6, r8, r9, sl, fp, ip, lr}
    84bc:	756f6428 	strbvc	r6, [pc, #-1064]!	; 809c <_Min_Stack_Size+0x7c9c>
    84c0:	29656c62 	stmdbcs	r5!, {r1, r5, r6, sl, fp, sp, lr}^
    84c4:	39372e31 	ldmdbcc	r7!, {r0, r4, r5, r9, sl, fp, sp}
    84c8:	33393637 	teqcc	r9, #57671680	; 0x3700000
    84cc:	38343331 	ldmdacc	r4!, {r0, r4, r5, r8, r9, ip, sp}
    84d0:	31333236 	teqcc	r3, r6, lsr r2
    84d4:	2b653735 	blcs	19561b0 <_Min_Stack_Size+0x1955db0>
    84d8:	4c383033 	ldcmi	0, cr3, [r8], #-204	; 0xffffff34
    84dc:	5f5f0029 	svcpl	0x005f0029
    84e0:	52464c4c 	subpl	r4, r6, #76, 24	; 0x4c00
    84e4:	5f544341 	svcpl	0x00544341
    84e8:	54494246 	strbpl	r4, [r9], #-582	; 0xfffffdba
    84ec:	36205f5f 	qsaxcc	r5, r0, pc	; <UNPREDICTABLE>
    84f0:	5f5f0033 	svcpl	0x005f0033
    84f4:	685f6d74 	ldmdavs	pc, {r2, r4, r5, r6, r8, sl, fp, sp, lr}^	; <UNPREDICTABLE>
    84f8:	0072756f 	rsbseq	r7, r2, pc, ror #10
    84fc:	68745f5f 	ldmdavs	r4!, {r0, r1, r2, r3, r4, r6, r8, r9, sl, fp, ip, lr}^
    8500:	5f626d75 	svcpl	0x00626d75
    8504:	0031205f 	eorseq	r2, r1, pc, asr r0
    8508:	46735f5f 	uhsaxmi	r5, r3, pc	; <UNPREDICTABLE>
    850c:	00454c49 	subeq	r4, r5, r9, asr #24
    8510:	52415f5f 	subpl	r5, r1, #380	; 0x17c
    8514:	5f4c454d 	svcpl	0x004c454d
    8518:	0031205f 	eorseq	r2, r1, pc, asr r0
    851c:	49545845 	ldmdbmi	r4, {r0, r2, r6, fp, ip, lr}^
    8520:	38435038 	stmdacc	r3, {r3, r4, r5, ip, lr}^
    8524:	58452820 	stmdapl	r5, {r5, fp, sp}^
    8528:	475f4954 			; <UNDEFINED> instruction: 0x475f4954
    852c:	5f4f4950 	svcpl	0x004f4950
    8530:	6970614d 	ldmdbvs	r0!, {r0, r2, r3, r6, r8, sp, lr}^
    8534:	745f676e 	ldrbvc	r6, [pc], #-1902	; 853c <_Min_Stack_Size+0x813c>
    8538:	58457b29 	stmdapl	r5, {r0, r3, r5, r8, r9, fp, ip, sp, lr}^
    853c:	2c384954 			; <UNDEFINED> instruction: 0x2c384954
    8540:	4f495047 	svcmi	0x00495047
    8544:	50472c43 	subpl	r2, r7, r3, asr #24
    8548:	505f4f49 	subspl	r4, pc, r9, asr #30
    854c:	385f4e49 	ldmdacc	pc, {r0, r3, r6, r9, sl, fp, lr}^	; <UNPREDICTABLE>
    8550:	5458452c 	ldrbpl	r4, [r8], #-1324	; 0xfffffad4
    8554:	495f3849 	ldmdbmi	pc, {r0, r3, r6, fp, ip, sp}^	; <UNPREDICTABLE>
    8558:	007d5152 	rsbseq	r5, sp, r2, asr r1
    855c:	544e495f 	strbpl	r4, [lr], #-2399	; 0xfffff6a1
    8560:	5f58414d 	svcpl	0x0058414d
    8564:	45445f54 	strbmi	r5, [r4, #-3924]	; 0xfffff0ac
    8568:	52414c43 	subpl	r4, r1, #17152	; 0x4300
    856c:	00204445 	eoreq	r4, r0, r5, asr #8
    8570:	6f665f5f 	svcvs	0x00665f5f
    8574:	74616d72 	strbtvc	r6, [r1], #-3442	; 0xfffff28e
    8578:	6772615f 			; <UNDEFINED> instruction: 0x6772615f
    857c:	746d6628 	strbtvc	r6, [sp], #-1576	; 0xfffff9d8
    8580:	29677261 	stmdbcs	r7!, {r0, r5, r6, r9, ip, sp, lr}^
    8584:	615f5f20 	cmpvs	pc, r0, lsr #30
    8588:	69727474 	ldmdbvs	r2!, {r2, r4, r5, r6, sl, ip, sp, lr}^
    858c:	65747562 	ldrbvs	r7, [r4, #-1378]!	; 0xfffffa9e
    8590:	28285f5f 	stmdacs	r8!, {r0, r1, r2, r3, r4, r6, r8, r9, sl, fp, ip, lr}
    8594:	6f665f5f 	svcvs	0x00665f5f
    8598:	74616d72 	strbtvc	r6, [r1], #-3442	; 0xfffff28e
    859c:	6772615f 			; <UNDEFINED> instruction: 0x6772615f
    85a0:	28205f5f 	stmdacs	r0!, {r0, r1, r2, r3, r4, r6, r8, r9, sl, fp, ip, lr}
    85a4:	61746d66 	cmnvs	r4, r6, ror #26
    85a8:	29296772 	stmdbcs	r9!, {r1, r4, r5, r6, r8, r9, sl, sp, lr}
    85ac:	5f5f0029 	svcpl	0x005f0029
    85b0:	706d6f63 	rsbvc	r6, sp, r3, ror #30
    85b4:	72656c69 	rsbvc	r6, r5, #26880	; 0x6900
    85b8:	6d656d5f 	stclvs	13, cr6, [r5, #-380]!	; 0xfffffe84
    85bc:	28726162 	ldmdacs	r2!, {r1, r5, r6, r8, sp, lr}^
    85c0:	5f5f2029 	svcpl	0x005f2029
    85c4:	206d7361 	rsbcs	r7, sp, r1, ror #6
    85c8:	6f765f5f 	svcvs	0x00765f5f
    85cc:	6974616c 	ldmdbvs	r4!, {r2, r3, r5, r6, r8, sp, lr}^
    85d0:	2228656c 	eorcs	r6, r8, #108, 10	; 0x1b000000
    85d4:	3a202220 	bcc	810e5c <_Min_Stack_Size+0x810a5c>
    85d8:	3a203a20 	bcc	816e60 <_Min_Stack_Size+0x816a60>
    85dc:	656d2220 	strbvs	r2, [sp, #-544]!	; 0xfffffde0
    85e0:	79726f6d 	ldmdbvc	r2!, {r0, r2, r3, r5, r6, r8, r9, sl, fp, sp, lr}^
    85e4:	45002922 	strmi	r2, [r0, #-2338]	; 0xfffff6de
    85e8:	30495458 	subcc	r5, r9, r8, asr r4
    85ec:	20304250 	eorscs	r4, r0, r0, asr r2
    85f0:	54584528 	ldrbpl	r4, [r8], #-1320	; 0xfffffad8
    85f4:	50475f49 	subpl	r5, r7, r9, asr #30
    85f8:	4d5f4f49 	ldclmi	15, cr4, [pc, #-292]	; 84dc <_Min_Stack_Size+0x80dc>
    85fc:	6e697061 	cdpvs	0, 6, cr7, cr9, cr1, {3}
    8600:	29745f67 	ldmdbcs	r4!, {r0, r1, r2, r5, r6, r8, r9, sl, fp, ip, lr}^
    8604:	5458457b 	ldrbpl	r4, [r8], #-1403	; 0xfffffa85
    8608:	472c3049 	strmi	r3, [ip, -r9, asr #32]!
    860c:	424f4950 	submi	r4, pc, #80, 18	; 0x140000
    8610:	4950472c 	ldmdbmi	r0, {r2, r3, r5, r8, r9, sl, lr}^
    8614:	49505f4f 	ldmdbmi	r0, {r0, r1, r2, r3, r6, r8, r9, sl, fp, ip, lr}^
    8618:	2c305f4e 	ldccs	15, cr5, [r0], #-312	; 0xfffffec8
    861c:	49545845 	ldmdbmi	r4, {r0, r2, r6, fp, ip, lr}^
    8620:	52495f30 	subpl	r5, r9, #48, 30	; 0xc0
    8624:	5f007d51 	svcpl	0x00007d51
    8628:	5f51485f 	svcpl	0x0051485f
    862c:	54494246 	strbpl	r4, [r9], #-582	; 0xfffffdba
    8630:	31205f5f 			; <UNDEFINED> instruction: 0x31205f5f
    8634:	5f5f0035 	svcpl	0x005f0035
    8638:	61746164 	cmnvs	r4, r4, ror #2
    863c:	65707974 	ldrbvs	r7, [r0, #-2420]!	; 0xfffff68c
    8640:	7079745f 	rsbsvc	r7, r9, pc, asr r4
    8644:	61745f65 	cmnvs	r4, r5, ror #30
    8648:	696b2867 	stmdbvs	fp!, {r0, r1, r2, r5, r6, fp, sp}^
    864c:	742c646e 	strtvc	r6, [ip], #-1134	; 0xfffffb92
    8650:	29657079 	stmdbcs	r5!, {r0, r3, r4, r5, r6, ip, sp, lr}^
    8654:	5f5f0020 	svcpl	0x005f0020
    8658:	6b636f6c 	blvs	18e4410 <_Min_Stack_Size+0x18e4010>
    865c:	7972745f 	ldmdbvc	r2!, {r0, r1, r2, r3, r4, r6, sl, ip, sp, lr}^
    8660:	7163615f 	cmnvc	r3, pc, asr r1
    8664:	65726975 	ldrbvs	r6, [r2, #-2421]!	; 0xfffff68b
    8668:	6365725f 	cmnvs	r5, #-268435451	; 0xf0000005
    866c:	69737275 	ldmdbvs	r3!, {r0, r2, r4, r5, r6, r9, ip, sp, lr}^
    8670:	6c286576 	cfstr32vs	mvfx6, [r8], #-472	; 0xfffffe28
    8674:	296b636f 	stmdbcs	fp!, {r0, r1, r2, r3, r5, r6, r8, r9, sp, lr}^
    8678:	76282820 	strtvc	r2, [r8], -r0, lsr #16
    867c:	2964696f 	stmdbcs	r4!, {r0, r1, r2, r3, r5, r6, r8, fp, sp, lr}^
    8680:	00293020 	eoreq	r3, r9, r0, lsr #32
    8684:	49535f5f 	ldmdbmi	r3, {r0, r1, r2, r3, r4, r6, r8, r9, sl, fp, ip, lr}^
    8688:	4d5f455a 	cfldr64mi	mvdx4, [pc, #-360]	; 8528 <_Min_Stack_Size+0x8128>
    868c:	5f5f5841 	svcpl	0x005f5841
    8690:	66783020 	ldrbtvs	r3, [r8], -r0, lsr #32
    8694:	66666666 	strbtvs	r6, [r6], -r6, ror #12
    8698:	55666666 	strbpl	r6, [r6, #-1638]!	; 0xfffff99a
    869c:	6e5f5f00 	cdpvs	15, 5, cr5, cr15, cr0, {0}
    86a0:	5f646565 	svcpl	0x00646565
    86a4:	746e6977 	strbtvc	r6, [lr], #-2423	; 0xfffff689
    86a8:	0020745f 	eoreq	r7, r0, pc, asr r4
    86ac:	73626d5f 	cmnvc	r2, #6080	; 0x17c0
    86b0:	776f7472 			; <UNDEFINED> instruction: 0x776f7472
    86b4:	735f7363 	cmpvc	pc, #-1946157055	; 0x8c000001
    86b8:	65746174 	ldrbvs	r6, [r4, #-372]!	; 0xfffffe8c
    86bc:	495f5f00 	ldmdbmi	pc, {r8, r9, sl, fp, ip, lr}^	; <UNPREDICTABLE>
    86c0:	3436544e 	ldrtcc	r5, [r6], #-1102	; 0xfffffbb2
    86c4:	6c6c2220 	sfmvs	f2, 2, [ip], #-128	; 0xffffff80
    86c8:	5f5f0022 	svcpl	0x005f0022
    86cc:	61776c61 	cmnvs	r7, r1, ror #24
    86d0:	695f7379 	ldmdbvs	pc, {r0, r3, r4, r5, r6, r8, r9, ip, sp, lr}^	; <UNPREDICTABLE>
    86d4:	6e696c6e 	cdpvs	12, 6, cr6, cr9, cr14, {3}
    86d8:	5f5f2065 	svcpl	0x005f2065
    86dc:	696c6e69 	stmdbvs	ip!, {r0, r3, r5, r6, r9, sl, fp, sp, lr}^
    86e0:	5f5f656e 	svcpl	0x005f656e
    86e4:	615f5f20 	cmpvs	pc, r0, lsr #30
    86e8:	69727474 	ldmdbvs	r2!, {r2, r4, r5, r6, sl, ip, sp, lr}^
    86ec:	65747562 	ldrbvs	r7, [r4, #-1378]!	; 0xfffffa9e
    86f0:	28285f5f 	stmdacs	r8!, {r0, r1, r2, r3, r4, r6, r8, r9, sl, fp, ip, lr}
    86f4:	6c615f5f 	stclvs	15, cr5, [r1], #-380	; 0xfffffe84
    86f8:	73796177 	cmnvc	r9, #-1073741795	; 0xc000001d
    86fc:	6c6e695f 			; <UNDEFINED> instruction: 0x6c6e695f
    8700:	5f656e69 	svcpl	0x00656e69
    8704:	0029295f 	eoreq	r2, r9, pc, asr r9
    8708:	49545845 	ldmdbmi	r4, {r0, r2, r6, fp, ip, lr}^
    870c:	61435f39 	cmpvs	r3, r9, lsr pc
    8710:	61426c6c 	cmpvs	r2, ip, ror #24
    8714:	43006b63 	movwmi	r6, #2915	; 0xb63
    8718:	445f524c 	ldrbmi	r5, [pc], #-588	; 8720 <_Min_Stack_Size+0x8320>
    871c:	6c707369 	ldclvs	3, cr7, [r0], #-420	; 0xfffffe5c
    8720:	30207961 	eorcc	r7, r0, r1, ror #18
    8724:	00313078 	eorseq	r3, r1, r8, ror r0
    8728:	544e4955 	strbpl	r4, [lr], #-2389	; 0xfffff6ab
    872c:	414d5f38 	cmpmi	sp, r8, lsr pc
    8730:	5f282058 	svcpl	0x00282058
    8734:	4e49555f 	mcrmi	5, 2, r5, cr9, cr15, {2}
    8738:	4d5f3854 	ldclmi	8, cr3, [pc, #-336]	; 85f0 <_Min_Stack_Size+0x81f0>
    873c:	5f5f5841 	svcpl	0x005f5841
    8740:	5f5f0029 	svcpl	0x005f0029
    8744:	474e4f4c 	strbmi	r4, [lr, -ip, asr #30]
    8748:	58414d5f 	stmdapl	r1, {r0, r1, r2, r3, r4, r6, r8, sl, fp, lr}^
    874c:	30205f5f 	eorcc	r5, r0, pc, asr pc
    8750:	66663778 			; <UNDEFINED> instruction: 0x66663778
    8754:	66666666 	strbtvs	r6, [r6], -r6, ror #12
    8758:	5f004c66 	svcpl	0x00004c66
    875c:	5f535953 	svcpl	0x00535953
    8760:	46454443 	strbmi	r4, [r5], -r3, asr #8
    8764:	5f485f53 	svcpl	0x00485f53
    8768:	79530020 	ldmdbvc	r3, {r5}^
    876c:	6d657473 	cfstrdvs	mvd7, [r5, #-460]!	; 0xfffffe34
    8770:	6d654d5f 	stclvs	13, cr4, [r5, #-380]!	; 0xfffffe84
    8774:	5f79726f 	svcpl	0x0079726f
    8778:	45534142 	ldrbmi	r4, [r3, #-322]	; 0xfffffebe
    877c:	31783020 	cmncc	r8, r0, lsr #32
    8780:	46464646 	strbmi	r4, [r6], -r6, asr #12
    8784:	55303030 	ldrpl	r3, [r0, #-48]!	; 0xffffffd0
    8788:	4e47004c 	cdpmi	0, 4, cr0, cr7, cr12, {2}
    878c:	31432055 	qdaddcc	r2, r5, r3
    8790:	2e372031 	mrccs	0, 1, r2, cr7, cr1, {1}
    8794:	20312e33 	eorscs	r2, r1, r3, lsr lr
    8798:	38313032 	ldmdacc	r1!, {r1, r4, r5, ip, sp}
    879c:	32323630 	eorscc	r3, r2, #48, 12	; 0x3000000
    87a0:	65722820 	ldrbvs	r2, [r2, #-2080]!	; 0xfffff7e0
    87a4:	7361656c 	cmnvc	r1, #108, 10	; 0x1b000000
    87a8:	5b202965 	blpl	812d44 <_Min_Stack_Size+0x812944>
    87ac:	2f4d5241 	svccs	0x004d5241
    87b0:	65626d65 	strbvs	r6, [r2, #-3429]!	; 0xfffff29b
    87b4:	64656464 	strbtvs	r6, [r5], #-1124	; 0xfffffb9c
    87b8:	622d372d 	eorvs	r3, sp, #11796480	; 0xb40000
    87bc:	636e6172 	cmnvs	lr, #-2147483620	; 0x8000001c
    87c0:	65722068 	ldrbvs	r2, [r2, #-104]!	; 0xffffff98
    87c4:	69736976 	ldmdbvs	r3!, {r1, r2, r4, r5, r6, r8, fp, sp, lr}^
    87c8:	32206e6f 	eorcc	r6, r0, #1776	; 0x6f0
    87cc:	30393136 	eorscc	r3, r9, r6, lsr r1
    87d0:	2d205d37 	stccs	13, cr5, [r0, #-220]!	; 0xffffff24
    87d4:	7570636d 	ldrbvc	r6, [r0, #-877]!	; 0xfffffc93
    87d8:	726f633d 	rsbvc	r6, pc, #-201326592	; 0xf4000000
    87dc:	2d786574 	cfldr64cs	mvdx6, [r8, #-464]!	; 0xfffffe30
    87e0:	2d20336d 	stccs	3, cr3, [r0, #-436]!	; 0xfffffe4c
    87e4:	6f6c666d 	svcvs	0x006c666d
    87e8:	612d7461 			; <UNDEFINED> instruction: 0x612d7461
    87ec:	733d6962 	teqvc	sp, #1605632	; 0x188000
    87f0:	2074666f 	rsbscs	r6, r4, pc, ror #12
    87f4:	68746d2d 	ldmdavs	r4!, {r0, r2, r3, r5, r8, sl, fp, sp, lr}^
    87f8:	20626d75 	rsbcs	r6, r2, r5, ror sp
    87fc:	7764672d 	strbvc	r6, [r4, -sp, lsr #14]!
    8800:	2d667261 	sfmcs	f7, 2, [r6, #-388]!	; 0xfffffe7c
    8804:	672d2032 			; <UNDEFINED> instruction: 0x672d2032
    8808:	4f2d2033 	svcmi	0x002d2033
    880c:	732d2030 			; <UNDEFINED> instruction: 0x732d2030
    8810:	673d6474 			; <UNDEFINED> instruction: 0x673d6474
    8814:	3131756e 	teqcc	r1, lr, ror #10
    8818:	66662d20 	strbtvs	r2, [r6], -r0, lsr #26
    881c:	74636e75 	strbtvc	r6, [r3], #-3701	; 0xfffff18b
    8820:	2d6e6f69 	stclcs	15, cr6, [lr, #-420]!	; 0xfffffe5c
    8824:	74636573 	strbtvc	r6, [r3], #-1395	; 0xfffffa8d
    8828:	736e6f69 	cmnvc	lr, #420	; 0x1a4
    882c:	64662d20 	strbtvs	r2, [r6], #-3360	; 0xfffff2e0
    8830:	2d617461 	cfstrdcs	mvd7, [r1, #-388]!	; 0xfffffe7c
    8834:	74636573 	strbtvc	r6, [r3], #-1395	; 0xfffffa8d
    8838:	736e6f69 	cmnvc	lr, #420	; 0x1a4
    883c:	73662d20 	cmnvc	r6, #32, 26	; 0x800
    8840:	6b636174 	blvs	18e0e18 <_Min_Stack_Size+0x18e0a18>
    8844:	6173752d 	cmnvs	r3, sp, lsr #10
    8848:	6c006567 	cfstr32vs	mvfx6, [r0], {103}	; 0x67
    884c:	20676e6f 	rsbcs	r6, r7, pc, ror #28
    8850:	4500342b 	strmi	r3, [r0, #-1067]	; 0xfffffbd5
    8854:	33495458 	movtcc	r5, #37976	; 0x9458
    8858:	5f003320 	svcpl	0x00003320
    885c:	6e6f6e5f 	mcrvs	14, 3, r6, cr15, cr15, {2}
    8860:	6c6c756e 	cfstr64vs	mvdx7, [ip], #-440	; 0xfffffe48
    8864:	20297828 	eorcs	r7, r9, r8, lsr #16
    8868:	74615f5f 	strbtvc	r5, [r1], #-3935	; 0xfffff0a1
    886c:	62697274 	rsbvs	r7, r9, #116, 4	; 0x40000007
    8870:	5f657475 	svcpl	0x00657475
    8874:	5f28285f 	svcpl	0x0028285f
    8878:	6e6f6e5f 	mcrvs	14, 3, r6, cr15, cr15, {2}
    887c:	6c6c756e 	cfstr64vs	mvdx7, [ip], #-440	; 0xfffffe48
    8880:	78205f5f 	stmdavc	r0!, {r0, r1, r2, r3, r4, r6, r8, r9, sl, fp, ip, lr}
    8884:	5f002929 	svcpl	0x00002929
    8888:	444e4152 	strbmi	r4, [lr], #-338	; 0xfffffeae
    888c:	415f3834 	cmpmi	pc, r4, lsr r8	; <UNPREDICTABLE>
    8890:	28204444 	stmdacs	r0!, {r2, r6, sl, lr}
    8894:	30307830 	eorscc	r7, r0, r0, lsr r8
    8898:	00296230 	eoreq	r6, r9, r0, lsr r2
    889c:	54495845 	strbpl	r5, [r9], #-2117	; 0xfffff7bb
    88a0:	4941465f 	stmdbmi	r1, {r0, r1, r2, r3, r4, r6, r9, sl, lr}^
    88a4:	4552554c 	ldrbmi	r5, [r2, #-1356]	; 0xfffffab4
    88a8:	45003120 	strmi	r3, [r0, #-288]	; 0xfffffee0
    88ac:	31495458 	cmpcc	r9, r8, asr r4
    88b0:	33312033 	teqcc	r1, #51	; 0x33
    88b4:	415f5f00 	cmpmi	pc, r0, lsl #30
    88b8:	465f4d52 			; <UNDEFINED> instruction: 0x465f4d52
    88bc:	55544145 	ldrbpl	r4, [r4, #-325]	; 0xfffffebb
    88c0:	4c5f4552 	cfldr64mi	mvdx4, [pc], {82}	; 0x52
    88c4:	58455244 	stmdapl	r5, {r2, r6, r9, ip, lr}^
    88c8:	45003720 	strmi	r3, [r0, #-1824]	; 0xfffff8e0
    88cc:	30495458 	subcc	r5, r9, r8, asr r4
    88d0:	20304450 	eorscs	r4, r0, r0, asr r4
    88d4:	54584528 	ldrbpl	r4, [r8], #-1320	; 0xfffffad8
    88d8:	50475f49 	subpl	r5, r7, r9, asr #30
    88dc:	4d5f4f49 	ldclmi	15, cr4, [pc, #-292]	; 87c0 <_Min_Stack_Size+0x83c0>
    88e0:	6e697061 	cdpvs	0, 6, cr7, cr9, cr1, {3}
    88e4:	29745f67 	ldmdbcs	r4!, {r0, r1, r2, r5, r6, r8, r9, sl, fp, ip, lr}^
    88e8:	5458457b 	ldrbpl	r4, [r8], #-1403	; 0xfffffa85
    88ec:	472c3049 	strmi	r3, [ip, -r9, asr #32]!
    88f0:	444f4950 	strbmi	r4, [pc], #-2384	; 88f8 <_Min_Stack_Size+0x84f8>
    88f4:	4950472c 	ldmdbmi	r0, {r2, r3, r5, r8, r9, sl, lr}^
    88f8:	49505f4f 	ldmdbmi	r0, {r0, r1, r2, r3, r6, r8, r9, sl, fp, ip, lr}^
    88fc:	2c305f4e 	ldccs	15, cr5, [r0], #-312	; 0xfffffec8
    8900:	49545845 	ldmdbmi	r4, {r0, r2, r6, fp, ip, lr}^
    8904:	52495f30 	subpl	r5, r9, #48, 30	; 0xc0
    8908:	5f007d51 	svcpl	0x00007d51
    890c:	33544e49 	cmpcc	r4, #1168	; 0x490
    8910:	51455f32 	cmppl	r5, r2, lsr pc
    8914:	4e4f4c5f 	mcrmi	12, 2, r4, cr15, cr15, {2}
    8918:	5f002047 	svcpl	0x00002047
    891c:	464c4c5f 			; <UNDEFINED> instruction: 0x464c4c5f
    8920:	54434152 	strbpl	r4, [r3], #-338	; 0xfffffeae
    8924:	5350455f 	cmppl	r0, #398458880	; 0x17c00000
    8928:	4e4f4c49 	cdpmi	12, 4, cr4, cr15, cr9, {2}
    892c:	30205f5f 	eorcc	r5, r0, pc, asr pc
    8930:	2d503178 	ldfcse	f3, [r0, #-480]	; 0xfffffe20
    8934:	4c4c3336 	mcrrmi	3, 3, r3, ip, cr6
    8938:	50470052 	subpl	r0, r7, r2, asr r0
    893c:	4d5f4f49 	ldclmi	15, cr4, [pc, #-292]	; 8820 <_Min_Stack_Size+0x8420>
    8940:	5f45444f 	svcpl	0x0045444f
    8944:	5054554f 	subspl	r5, r4, pc, asr #10
    8948:	4f5f5455 	svcmi	0x005f5455
    894c:	444e4550 	strbmi	r4, [lr], #-1360	; 0xfffffab0
    8950:	4e494152 	mcrmi	1, 2, r4, cr9, cr2, {2}
    8954:	30783020 	rsbscc	r3, r8, r0, lsr #32
    8958:	30303030 	eorscc	r3, r0, r0, lsr r0
    895c:	75353030 	ldrvc	r3, [r5, #-48]!	; 0xffffffd0
    8960:	415f5f00 	cmpmi	pc, r0, lsl #30
    8964:	465f4d52 			; <UNDEFINED> instruction: 0x465f4d52
    8968:	55544145 	ldrbpl	r4, [r4, #-325]	; 0xfffffebb
    896c:	535f4552 	cmppl	pc, #343932928	; 0x14800000
    8970:	33444d49 	movtcc	r4, #19785	; 0x4d49
    8974:	5f5f0032 	svcpl	0x005f0032
    8978:	33544c46 	cmpcc	r4, #17920	; 0x4600
    897c:	4d5f5832 	ldclmi	8, cr5, [pc, #-200]	; 88bc <_Min_Stack_Size+0x84bc>
    8980:	5f544e41 	svcpl	0x00544e41
    8984:	5f474944 	svcpl	0x00474944
    8988:	3335205f 	teqcc	r5, #95	; 0x5f
    898c:	54584500 	ldrbpl	r4, [r8], #-1280	; 0xfffffb00
    8990:	38203849 	stmdacc	r0!, {r0, r3, r6, fp, ip, sp}
    8994:	49504700 	ldmdbmi	r0, {r8, r9, sl, lr}^
    8998:	49505f4f 	ldmdbmi	r0, {r0, r1, r2, r3, r6, r8, r9, sl, fp, ip, lr}^
    899c:	31315f4e 	teqcc	r1, lr, asr #30
    89a0:	75282820 	strvc	r2, [r8, #-2080]!	; 0xfffff7e0
    89a4:	31746e69 	cmncc	r4, r9, ror #28
    89a8:	29745f36 	ldmdbcs	r4!, {r1, r2, r4, r5, r8, r9, sl, fp, ip, lr}^
    89ac:	38307830 	ldmdacc	r0!, {r4, r5, fp, ip, sp, lr}
    89b0:	00293030 	eoreq	r3, r9, r0, lsr r0
    89b4:	43575f5f 	cmpmi	r7, #380	; 0x17c
    89b8:	5f524148 	svcpl	0x00524148
    89bc:	54444957 	strbpl	r4, [r4], #-2391	; 0xfffff6a9
    89c0:	205f5f48 	subscs	r5, pc, r8, asr #30
    89c4:	5f003233 	svcpl	0x00003233
    89c8:	36544e49 	ldrbcc	r4, [r4], -r9, asr #28
    89cc:	5f545f34 	svcpl	0x00545f34
    89d0:	4c434544 	cfstr64mi	mvdx4, [r3], {68}	; 0x44
    89d4:	44455241 	strbmi	r5, [r5], #-577	; 0xfffffdbf
    89d8:	5f5f0020 	svcpl	0x005f0020
    89dc:	756c6773 	strbvc	r6, [ip, #-1907]!	; 0xfffff88d
    89e0:	5f5f0065 	svcpl	0x005f0065
    89e4:	31544e49 	cmpcc	r4, r9, asr #28
    89e8:	28435f36 	stmdacs	r3, {r1, r2, r4, r5, r8, r9, sl, fp, ip, lr}^
    89ec:	63202963 			; <UNDEFINED> instruction: 0x63202963
    89f0:	54564900 	ldrbpl	r4, [r6], #-2304	; 0xfffff700
    89f4:	5152495f 	cmppl	r2, pc, asr r9
    89f8:	6d754e5f 	ldclvs	14, cr4, [r5, #-380]!	; 0xfffffe84
    89fc:	00726562 	rsbseq	r6, r2, r2, ror #10
    8a00:	49545845 	ldmdbmi	r4, {r0, r2, r6, fp, ip, lr}^
    8a04:	38445038 	stmdacc	r4, {r3, r4, r5, ip, lr}^
    8a08:	58452820 	stmdapl	r5, {r5, fp, sp}^
    8a0c:	475f4954 			; <UNDEFINED> instruction: 0x475f4954
    8a10:	5f4f4950 	svcpl	0x004f4950
    8a14:	6970614d 	ldmdbvs	r0!, {r0, r2, r3, r6, r8, sp, lr}^
    8a18:	745f676e 	ldrbvc	r6, [pc], #-1902	; 8a20 <_Min_Stack_Size+0x8620>
    8a1c:	58457b29 	stmdapl	r5, {r0, r3, r5, r8, r9, fp, ip, sp, lr}^
    8a20:	2c384954 			; <UNDEFINED> instruction: 0x2c384954
    8a24:	4f495047 	svcmi	0x00495047
    8a28:	50472c44 	subpl	r2, r7, r4, asr #24
    8a2c:	505f4f49 	subspl	r4, pc, r9, asr #30
    8a30:	385f4e49 	ldmdacc	pc, {r0, r3, r6, r9, sl, fp, lr}^	; <UNPREDICTABLE>
    8a34:	5458452c 	ldrbpl	r4, [r8], #-1324	; 0xfffffad4
    8a38:	495f3849 	ldmdbmi	pc, {r0, r3, r6, fp, ip, sp}^	; <UNPREDICTABLE>
    8a3c:	007d5152 	rsbseq	r5, sp, r2, asr r1
    8a40:	41445f5f 	cmpmi	r4, pc, asr pc
    8a44:	4942495f 	stmdbmi	r2, {r0, r1, r2, r3, r4, r6, r8, fp, lr}^
    8a48:	205f5f54 	subscs	r5, pc, r4, asr pc	; <UNPREDICTABLE>
    8a4c:	47003233 	smladxmi	r0, r3, r2, r3
    8a50:	454f4950 	strbmi	r4, [pc, #-2384]	; 8108 <_Min_Stack_Size+0x7d08>
    8a54:	5341425f 	movtpl	r4, #4703	; 0x125f
    8a58:	78302045 	ldmdavc	r0!, {r0, r2, r6, sp}
    8a5c:	31303034 	teqcc	r0, r4, lsr r0
    8a60:	30303831 	eorscc	r3, r0, r1, lsr r8
    8a64:	5f004c55 	svcpl	0x00004c55
    8a68:	7274735f 	rsbsvc	r7, r4, #2080374785	; 0x7c000001
    8a6c:	6d697466 	cfstrdvs	mvd7, [r9, #-408]!	; 0xfffffe68
    8a70:	6b696c65 	blvs	1a63c0c <_Min_Stack_Size+0x1a6380c>
    8a74:	6d662865 	stclvs	8, cr2, [r6, #-404]!	; 0xfffffe6c
    8a78:	67726174 			; <UNDEFINED> instruction: 0x67726174
    8a7c:	7269662c 	rsbvc	r6, r9, #44, 12	; 0x2c00000
    8a80:	61767473 	cmnvs	r6, r3, ror r4
    8a84:	67726172 			; <UNDEFINED> instruction: 0x67726172
    8a88:	5f5f2029 	svcpl	0x005f2029
    8a8c:	72747461 	rsbsvc	r7, r4, #1627389952	; 0x61000000
    8a90:	74756269 	ldrbtvc	r6, [r5], #-617	; 0xfffffd97
    8a94:	285f5f65 	ldmdacs	pc, {r0, r2, r5, r6, r8, r9, sl, fp, ip, lr}^	; <UNPREDICTABLE>
    8a98:	665f5f28 	ldrbvs	r5, [pc], -r8, lsr #30
    8a9c:	616d726f 	cmnvs	sp, pc, ror #4
    8aa0:	205f5f74 	subscs	r5, pc, r4, ror pc	; <UNPREDICTABLE>
    8aa4:	735f5f28 	cmpvc	pc, #40, 30	; 0xa0
    8aa8:	74667274 	strbtvc	r7, [r6], #-628	; 0xfffffd8c
    8aac:	5f656d69 	svcpl	0x00656d69
    8ab0:	66202c5f 			; <UNDEFINED> instruction: 0x66202c5f
    8ab4:	7261746d 	rsbvc	r7, r1, #1828716544	; 0x6d000000
    8ab8:	66202c67 	strtvs	r2, [r0], -r7, ror #24
    8abc:	74737269 	ldrbtvc	r7, [r3], #-617	; 0xfffffd97
    8ac0:	61726176 	cmnvs	r2, r6, ror r1
    8ac4:	29296772 	stmdbcs	r9!, {r1, r4, r5, r6, r8, r9, sl, sp, lr}
    8ac8:	5f5f0029 	svcpl	0x005f0029
    8acc:	695f6d74 	ldmdbvs	pc, {r2, r4, r5, r6, r8, sl, fp, sp, lr}^	; <UNPREDICTABLE>
    8ad0:	74736473 	ldrbtvc	r6, [r3], #-1139	; 0xfffffb8d
    8ad4:	49504700 	ldmdbmi	r0, {r8, r9, sl, lr}^
    8ad8:	49505f4f 	ldmdbmi	r0, {r0, r1, r2, r3, r6, r8, r9, sl, fp, ip, lr}^
    8adc:	20345f4e 	eorscs	r5, r4, lr, asr #30
    8ae0:	69752828 	ldmdbvs	r5!, {r3, r5, fp, sp}^
    8ae4:	3631746e 	ldrtcc	r7, [r1], -lr, ror #8
    8ae8:	3029745f 	eorcc	r7, r9, pc, asr r4
    8aec:	31303078 	teqcc	r0, r8, ror r0
    8af0:	5f002930 	svcpl	0x00002930
    8af4:	5145445f 	cmppl	r5, pc, asr r4
    8af8:	494c4155 	stmdbmi	ip, {r0, r2, r4, r6, r8, lr}^
    8afc:	74285946 	strtvc	r5, [r8], #-2374	; 0xfffff6ba
    8b00:	2c657079 	stclcs	0, cr7, [r5], #-484	; 0xfffffe1c
    8b04:	29726176 	ldmdbcs	r2!, {r1, r2, r4, r5, r6, r8, sp, lr}^
    8b08:	74282820 	strtvc	r2, [r8], #-2080	; 0xfffff7e0
    8b0c:	29657079 	stmdbcs	r5!, {r0, r3, r4, r5, r6, ip, sp, lr}^
    8b10:	755f5f28 	ldrbvc	r5, [pc, #-3880]	; 7bf0 <_Min_Stack_Size+0x77f0>
    8b14:	70746e69 	rsbsvc	r6, r4, r9, ror #28
    8b18:	745f7274 	ldrbvc	r7, [pc], #-628	; 8b20 <_Min_Stack_Size+0x8720>
    8b1c:	6f632829 	svcvs	0x00632829
    8b20:	2074736e 	rsbscs	r7, r4, lr, ror #6
    8b24:	616c6f76 	smcvs	50934	; 0xc6f6
    8b28:	656c6974 	strbvs	r6, [ip, #-2420]!	; 0xfffff68c
    8b2c:	696f7620 	stmdbvs	pc!, {r5, r9, sl, ip, sp, lr}^	; <UNPREDICTABLE>
    8b30:	292a2064 	stmdbcs	sl!, {r2, r5, r6, sp}
    8b34:	72617628 	rsbvc	r7, r1, #40, 12	; 0x2800000
    8b38:	5f002929 	svcpl	0x00002929
    8b3c:	4f54415f 	svcmi	0x0054415f
    8b40:	5f43494d 	svcpl	0x0043494d
    8b44:	5f514341 	svcpl	0x00514341
    8b48:	204c4552 	subcs	r4, ip, r2, asr r5
    8b4c:	5f5f0034 	svcpl	0x005f0034
    8b50:	495f5148 	ldmdbmi	pc, {r3, r6, r8, ip, lr}^	; <UNPREDICTABLE>
    8b54:	5f544942 	svcpl	0x00544942
    8b58:	0030205f 	eorseq	r2, r0, pc, asr r0
    8b5c:	61705f5f 	cmnvs	r0, pc, asr pc
    8b60:	64656b63 	strbtvs	r6, [r5], #-2915	; 0xfffff49d
    8b64:	615f5f20 	cmpvs	pc, r0, lsr #30
    8b68:	69727474 	ldmdbvs	r2!, {r2, r4, r5, r6, sl, ip, sp, lr}^
    8b6c:	65747562 	ldrbvs	r7, [r4, #-1378]!	; 0xfffffa9e
    8b70:	28285f5f 	stmdacs	r8!, {r0, r1, r2, r3, r4, r6, r8, r9, sl, fp, ip, lr}
    8b74:	61705f5f 	cmnvs	r0, pc, asr pc
    8b78:	64656b63 	strbtvs	r6, [r5], #-2915	; 0xfffff49d
    8b7c:	29295f5f 	stmdbcs	r9!, {r0, r1, r2, r3, r4, r6, r8, r9, sl, fp, ip, lr}
    8b80:	43575f00 	cmpmi	r7, #0, 30
    8b84:	5f524148 	svcpl	0x00524148
    8b88:	45445f54 	strbmi	r5, [r4, #-3924]	; 0xfffff0ac
    8b8c:	454e4946 	strbmi	r4, [lr, #-2374]	; 0xfffff6ba
    8b90:	00205f44 	eoreq	r5, r0, r4, asr #30
    8b94:	4f495047 	svcmi	0x00495047
    8b98:	444f4d5f 	strbmi	r4, [pc], #-3423	; 8ba0 <_Min_Stack_Size+0x87a0>
    8b9c:	4e495f45 	cdpmi	15, 4, cr5, cr9, cr5, {2}
    8ba0:	5f545550 	svcpl	0x00545550
    8ba4:	4c4c5550 	cfstr64mi	mvdx5, [ip], {80}	; 0x50
    8ba8:	4e574f44 	cdpmi	15, 5, cr4, cr7, cr4, {2}
    8bac:	30783020 	rsbscc	r3, r8, r0, lsr #32
    8bb0:	30303030 	eorscc	r3, r0, r0, lsr r0
    8bb4:	75333030 	ldrvc	r3, [r3, #-48]!	; 0xffffffd0
    8bb8:	4d545300 	ldclmi	3, cr5, [r4, #-0]
    8bbc:	31463233 	cmpcc	r6, r3, lsr r2
    8bc0:	45003120 	strmi	r3, [r0, #-288]	; 0xfffffee0
    8bc4:	38495458 	stmdacc	r9, {r3, r4, r6, sl, ip, lr}^
    8bc8:	20384250 	eorscs	r4, r8, r0, asr r2
    8bcc:	54584528 	ldrbpl	r4, [r8], #-1320	; 0xfffffad8
    8bd0:	50475f49 	subpl	r5, r7, r9, asr #30
    8bd4:	4d5f4f49 	ldclmi	15, cr4, [pc, #-292]	; 8ab8 <_Min_Stack_Size+0x86b8>
    8bd8:	6e697061 	cdpvs	0, 6, cr7, cr9, cr1, {3}
    8bdc:	29745f67 	ldmdbcs	r4!, {r0, r1, r2, r5, r6, r8, r9, sl, fp, ip, lr}^
    8be0:	5458457b 	ldrbpl	r4, [r8], #-1403	; 0xfffffa85
    8be4:	472c3849 	strmi	r3, [ip, -r9, asr #16]!
    8be8:	424f4950 	submi	r4, pc, #80, 18	; 0x140000
    8bec:	4950472c 	ldmdbmi	r0, {r2, r3, r5, r8, r9, sl, lr}^
    8bf0:	49505f4f 	ldmdbmi	r0, {r0, r1, r2, r3, r6, r8, r9, sl, fp, ip, lr}^
    8bf4:	2c385f4e 	ldccs	15, cr5, [r8], #-312	; 0xfffffec8
    8bf8:	49545845 	ldmdbmi	r4, {r0, r2, r6, fp, ip, lr}^
    8bfc:	52495f38 	subpl	r5, r9, #56, 30	; 0xe0
    8c00:	54007d51 	strpl	r7, [r0], #-3409	; 0xfffff2af
    8c04:	67676972 			; <UNDEFINED> instruction: 0x67676972
    8c08:	61437265 	cmpvs	r3, r5, ror #4
    8c0c:	5f006573 	svcpl	0x00006573
    8c10:	7373615f 	cmnvc	r3, #-1073741801	; 0xc0000017
    8c14:	73747265 	cmnvc	r4, #1342177286	; 0x50000006
    8c18:	6168735f 	cmnvs	r8, pc, asr r3
    8c1c:	28646572 	stmdacs	r4!, {r1, r4, r5, r6, r8, sl, sp, lr}^
    8c20:	292e2e2e 	stmdbcs	lr!, {r1, r2, r3, r5, r9, sl, fp, sp}
    8c24:	6c5f5f20 	mrrcvs	15, 2, r5, pc, cr0	; <UNPREDICTABLE>
    8c28:	5f6b636f 	svcpl	0x006b636f
    8c2c:	6f6e6e61 	svcvs	0x006e6e61
    8c30:	65746174 	ldrbvs	r6, [r4, #-372]!	; 0xfffffe8c
    8c34:	73736128 	cmnvc	r3, #40, 2
    8c38:	5f747265 	svcpl	0x00747265
    8c3c:	72616873 	rsbvc	r6, r1, #7536640	; 0x730000
    8c40:	6c5f6465 	cfldrdvs	mvd6, [pc], {101}	; 0x65
    8c44:	286b636f 	stmdacs	fp!, {r0, r1, r2, r3, r5, r6, r8, r9, sp, lr}^
    8c48:	41565f5f 	cmpmi	r6, pc, asr pc
    8c4c:	4752415f 			; <UNDEFINED> instruction: 0x4752415f
    8c50:	295f5f53 	ldmdbcs	pc, {r0, r1, r4, r6, r8, r9, sl, fp, ip, lr}^	; <UNPREDICTABLE>
    8c54:	5f5f0029 	svcpl	0x005f0029
    8c58:	5f535953 	svcpl	0x00535953
    8c5c:	4b434f4c 	blmi	10dc994 <_Min_Stack_Size+0x10dc594>
    8c60:	5f5f485f 	svcpl	0x005f485f
    8c64:	5f5f0020 	svcpl	0x005f0020
    8c68:	32746e69 	rsbscc	r6, r4, #1680	; 0x690
    8c6c:	4e5f0030 	mrcmi	0, 2, r0, cr15, cr0, {1}
    8c70:	5f4f4e41 	svcpl	0x004f4e41
    8c74:	4d524f46 	ldclmi	15, cr4, [r2, #-280]	; 0xfffffee8
    8c78:	45545441 	ldrbmi	r5, [r4, #-1089]	; 0xfffffbbf
    8c7c:	4f495f44 	svcmi	0x00495f44
    8c80:	49003120 	stmdbmi	r0, {r5, r8, ip, sp}
    8c84:	465f544e 	ldrbmi	r5, [pc], -lr, asr #8
    8c88:	33545341 	cmpcc	r4, #67108865	; 0x4000001
    8c8c:	414d5f32 	cmpmi	sp, r2, lsr pc
    8c90:	5f282058 	svcpl	0x00282058
    8c94:	544e495f 	strbpl	r4, [lr], #-2399	; 0xfffff6a1
    8c98:	5341465f 	movtpl	r4, #5727	; 0x165f
    8c9c:	5f323354 	svcpl	0x00323354
    8ca0:	5f58414d 	svcpl	0x0058414d
    8ca4:	5f00295f 	svcpl	0x0000295f
    8ca8:	5f6d745f 	svcpl	0x006d745f
    8cac:	006e696d 	rsbeq	r6, lr, sp, ror #18
    8cb0:	4545525f 	strbmi	r5, [r5, #-607]	; 0xfffffda1
    8cb4:	415f544e 	cmpmi	pc, lr, asr #8
    8cb8:	49544353 	ldmdbmi	r4, {r0, r1, r4, r6, r8, r9, lr}^
    8cbc:	535f454d 	cmppl	pc, #322961408	; 0x13400000
    8cc0:	20455a49 	subcs	r5, r5, r9, asr #20
    8cc4:	49003632 	stmdbmi	r0, {r1, r4, r5, r9, sl, ip, sp}
    8cc8:	5450544e 	ldrbpl	r5, [r0], #-1102	; 0xfffffbb2
    8ccc:	494d5f52 	stmdbmi	sp, {r1, r4, r6, r8, r9, sl, fp, ip, lr}^
    8cd0:	2d28204e 	stccs	0, cr2, [r8, #-312]!	; 0xfffffec8
    8cd4:	4e495f5f 	mcrmi	15, 2, r5, cr9, cr15, {2}
    8cd8:	52545054 	subspl	r5, r4, #84	; 0x54
    8cdc:	58414d5f 	stmdapl	r1, {r0, r1, r2, r3, r4, r6, r8, sl, fp, lr}^
    8ce0:	2d205f5f 	stccs	15, cr5, [r0, #-380]!	; 0xfffffe84
    8ce4:	00293120 	eoreq	r3, r9, r0, lsr #2
    8ce8:	44525450 	ldrbmi	r5, [r2], #-1104	; 0xfffffbb0
    8cec:	5f464649 	svcpl	0x00464649
    8cf0:	204e494d 	subcs	r4, lr, sp, asr #18
    8cf4:	54502d28 	ldrbpl	r2, [r0], #-3368	; 0xfffff2d8
    8cf8:	46494452 			; <UNDEFINED> instruction: 0x46494452
    8cfc:	414d5f46 	cmpmi	sp, r6, asr #30
    8d00:	202d2058 	eorcs	r2, sp, r8, asr r0
    8d04:	5f002931 	svcpl	0x00002931
    8d08:	49534f50 	ldmdbmi	r3, {r4, r6, r8, r9, sl, fp, lr}^
    8d0c:	5f435f58 	svcpl	0x00435f58
    8d10:	52554f53 	subspl	r4, r5, #332	; 0x14c
    8d14:	5f004543 	svcpl	0x00004543
    8d18:	4e49555f 	mcrmi	5, 2, r5, cr9, cr15, {2}
    8d1c:	58414d54 	stmdapl	r1, {r2, r4, r6, r8, sl, fp, lr}^
    8d20:	58414d5f 	stmdapl	r1, {r0, r1, r2, r3, r4, r6, r8, sl, fp, lr}^
    8d24:	30205f5f 	eorcc	r5, r0, pc, asr pc
    8d28:	66666678 			; <UNDEFINED> instruction: 0x66666678
    8d2c:	66666666 	strbtvs	r6, [r6], -r6, ror #12
    8d30:	66666666 	strbtvs	r6, [r6], -r6, ror #12
    8d34:	66666666 	strbtvs	r6, [r6], -r6, ror #12
    8d38:	4c4c5566 	cfstr64mi	mvdx5, [ip], {102}	; 0x66
    8d3c:	445f5f00 	ldrbmi	r5, [pc], #-3840	; 8d44 <_Min_Stack_Size+0x8944>
    8d40:	4d5f4c42 	ldclmi	12, cr4, [pc, #-264]	; 8c40 <_Min_Stack_Size+0x8840>
    8d44:	5f544e41 	svcpl	0x00544e41
    8d48:	5f474944 	svcpl	0x00474944
    8d4c:	3335205f 	teqcc	r5, #95	; 0x5f
    8d50:	555f5f00 	ldrbpl	r5, [pc, #-3840]	; 7e58 <_Min_Stack_Size+0x7a58>
    8d54:	4152464c 	cmpmi	r2, ip, asr #12
    8d58:	495f5443 	ldmdbmi	pc, {r0, r1, r6, sl, ip, lr}^	; <UNPREDICTABLE>
    8d5c:	5f544942 	svcpl	0x00544942
    8d60:	0030205f 	eorseq	r2, r0, pc, asr r0
    8d64:	49545845 	ldmdbmi	r4, {r0, r2, r6, fp, ip, lr}^
    8d68:	33415033 	movtcc	r5, #4147	; 0x1033
    8d6c:	58452820 	stmdapl	r5, {r5, fp, sp}^
    8d70:	475f4954 			; <UNDEFINED> instruction: 0x475f4954
    8d74:	5f4f4950 	svcpl	0x004f4950
    8d78:	6970614d 	ldmdbvs	r0!, {r0, r2, r3, r6, r8, sp, lr}^
    8d7c:	745f676e 	ldrbvc	r6, [pc], #-1902	; 8d84 <_Min_Stack_Size+0x8984>
    8d80:	58457b29 	stmdapl	r5, {r0, r3, r5, r8, r9, fp, ip, sp, lr}^
    8d84:	2c334954 			; <UNDEFINED> instruction: 0x2c334954
    8d88:	4f495047 	svcmi	0x00495047
    8d8c:	50472c41 	subpl	r2, r7, r1, asr #24
    8d90:	505f4f49 	subspl	r4, pc, r9, asr #30
    8d94:	335f4e49 	cmpcc	pc, #1168	; 0x490
    8d98:	5458452c 	ldrbpl	r4, [r8], #-1324	; 0xfffffad4
    8d9c:	495f3349 	ldmdbmi	pc, {r0, r3, r6, r8, r9, ip, sp}^	; <UNPREDICTABLE>
    8da0:	007d5152 	rsbseq	r5, sp, r2, asr r1
    8da4:	41545f5f 	cmpmi	r4, pc, asr pc
    8da8:	4942465f 	stmdbmi	r2, {r0, r1, r2, r3, r4, r6, r9, sl, lr}^
    8dac:	205f5f54 	subscs	r5, pc, r4, asr pc	; <UNPREDICTABLE>
    8db0:	5f003336 	svcpl	0x00003336
    8db4:	4d52415f 	ldfmie	f4, [r2, #-380]	; 0xfffffe84
    8db8:	4241455f 	submi	r4, r1, #398458880	; 0x17c00000
    8dbc:	205f5f49 	subscs	r5, pc, r9, asr #30
    8dc0:	5f5f0031 	svcpl	0x005f0031
    8dc4:	5f544e49 	svcpl	0x00544e49
    8dc8:	5341454c 	movtpl	r4, #5452	; 0x154c
    8dcc:	5f343654 	svcpl	0x00343654
    8dd0:	45505954 	ldrbmi	r5, [r0, #-2388]	; 0xfffff6ac
    8dd4:	6c205f5f 	stcvs	15, cr5, [r0], #-380	; 0xfffffe84
    8dd8:	20676e6f 	rsbcs	r6, r7, pc, ror #28
    8ddc:	676e6f6c 	strbvs	r6, [lr, -ip, ror #30]!
    8de0:	746e6920 	strbtvc	r6, [lr], #-2336	; 0xfffff6e0
    8de4:	54584500 	ldrbpl	r4, [r8], #-1280	; 0xfffffb00
    8de8:	44503649 	ldrbmi	r3, [r0], #-1609	; 0xfffff9b7
    8dec:	45282036 	strmi	r2, [r8, #-54]!	; 0xffffffca
    8df0:	5f495458 	svcpl	0x00495458
    8df4:	4f495047 	svcmi	0x00495047
    8df8:	70614d5f 	rsbvc	r4, r1, pc, asr sp
    8dfc:	5f676e69 	svcpl	0x00676e69
    8e00:	457b2974 	ldrbmi	r2, [fp, #-2420]!	; 0xfffff68c
    8e04:	36495458 			; <UNDEFINED> instruction: 0x36495458
    8e08:	4950472c 	ldmdbmi	r0, {r2, r3, r5, r8, r9, sl, lr}^
    8e0c:	472c444f 	strmi	r4, [ip, -pc, asr #8]!
    8e10:	5f4f4950 	svcpl	0x004f4950
    8e14:	5f4e4950 	svcpl	0x004e4950
    8e18:	58452c36 	stmdapl	r5, {r1, r2, r4, r5, sl, fp, sp}^
    8e1c:	5f364954 	svcpl	0x00364954
    8e20:	7d515249 	lfmvc	f5, 2, [r1, #-292]	; 0xfffffedc
    8e24:	49504700 	ldmdbmi	r0, {r8, r9, sl, lr}^
    8e28:	49505f4f 	ldmdbmi	r0, {r0, r1, r2, r3, r6, r8, r9, sl, fp, ip, lr}^
    8e2c:	4c415f4e 	mcrrmi	15, 4, r5, r1, cr14
    8e30:	2828204c 	stmdacs	r8!, {r2, r3, r6, sp}
    8e34:	746e6975 	strbtvc	r6, [lr], #-2421	; 0xfffff68b
    8e38:	745f3631 	ldrbvc	r3, [pc], #-1585	; 8e40 <_Min_Stack_Size+0x8a40>
    8e3c:	46783029 	ldrbtmi	r3, [r8], -r9, lsr #32
    8e40:	29464646 	stmdbcs	r6, {r1, r2, r6, r9, sl, lr}^
    8e44:	535f5f00 	cmppl	pc, #0, 30
    8e48:	55434341 	strbpl	r4, [r3, #-833]	; 0xfffffcbf
    8e4c:	42465f4d 	submi	r5, r6, #308	; 0x134
    8e50:	5f5f5449 	svcpl	0x005f5449
    8e54:	47003720 	strmi	r3, [r0, -r0, lsr #14]
    8e58:	5f4f4950 	svcpl	0x004f4950
    8e5c:	4b434f4c 	blmi	10dcb94 <_Min_Stack_Size+0x10dc794>
    8e60:	5252455f 	subspl	r4, r2, #398458880	; 0x17c00000
    8e64:	3020524f 	eorcc	r5, r0, pc, asr #4
    8e68:	2f2e2e00 	svccs	0x002e2e00
    8e6c:	72617453 	rsbvc	r7, r1, #1392508928	; 0x53000000
    8e70:	2f707574 	svccs	0x00707574
    8e74:	72617473 	rsbvc	r7, r1, #1929379840	; 0x73000000
    8e78:	5f707574 	svcpl	0x00707574
    8e7c:	336d7473 	cmncc	sp, #1929379840	; 0x73000000
    8e80:	30316632 	eorscc	r6, r1, r2, lsr r6
    8e84:	74366333 	ldrtvc	r6, [r6], #-819	; 0xfffffccd
    8e88:	00732e78 	rsbseq	r2, r3, r8, ror lr
    8e8c:	20554e47 	subscs	r4, r5, r7, asr #28
    8e90:	32205341 	eorcc	r5, r0, #67108865	; 0x4000001
    8e94:	2e30332e 	cdpcs	3, 3, cr3, cr0, cr14, {1}
    8e98:	58450030 	stmdapl	r5, {r4, r5}^
    8e9c:	52434954 	subpl	r4, r3, #84, 18	; 0x150000
    8ea0:	41434d00 	cmpmi	r3, r0, lsl #26
    8ea4:	58455f4c 	stmdapl	r5, {r2, r3, r6, r8, r9, sl, fp, ip, lr}^
    8ea8:	475f4954 			; <UNDEFINED> instruction: 0x475f4954
    8eac:	5f4f4950 	svcpl	0x004f4950
    8eb0:	61647055 	qdsubvs	r7, r5, r4
    8eb4:	41006574 	tstmi	r0, r4, ror r5
    8eb8:	5f4f4946 	svcpl	0x004f4946
    8ebc:	49545845 	ldmdbmi	r4, {r0, r2, r6, fp, ip, lr}^
    8ec0:	535f5243 	cmppl	pc, #805306372	; 0x30000004
    8ec4:	74666968 	strbtvc	r6, [r6], #-2408	; 0xfffff698
    8ec8:	69736f50 	ldmdbvs	r3!, {r4, r6, r8, r9, sl, fp, sp, lr}^
    8ecc:	6e6f6974 			; <UNDEFINED> instruction: 0x6e6f6974
    8ed0:	53544600 	cmppl	r4, #0, 12
    8ed4:	70550052 	subsvc	r0, r5, r2, asr r0
    8ed8:	65746164 	ldrbvs	r6, [r4, #-356]!	; 0xfffffe9c
    8edc:	5458455f 	ldrbpl	r4, [r8], #-1375	; 0xfffffaa1
    8ee0:	54520049 	ldrbpl	r0, [r2], #-73	; 0xffffffb7
    8ee4:	41005253 	tstmi	r0, r3, asr r2
    8ee8:	5f4f4946 	svcpl	0x004f4946
    8eec:	4f495047 	svcmi	0x00495047
    8ef0:	5458455f 	ldrbpl	r4, [r8], #-1375	; 0xfffffaa1
    8ef4:	614d5f49 	cmpvs	sp, r9, asr #30
    8ef8:	6e697070 	mcrvs	0, 3, r7, cr9, cr0, {3}
    8efc:	29782867 	ldmdbcs	r8!, {r0, r1, r2, r5, r6, fp, sp}^
    8f00:	28202820 	stmdacs	r0!, {r5, fp, sp}
    8f04:	473d3d78 			; <UNDEFINED> instruction: 0x473d3d78
    8f08:	414f4950 	cmpmi	pc, r0, asr r9	; <UNPREDICTABLE>
    8f0c:	3a303f29 	bcc	c18bb8 <_Min_Stack_Size+0xc187b8>
    8f10:	3d782820 	ldclcc	8, cr2, [r8, #-128]!	; 0xffffff80
    8f14:	4950473d 	ldmdbmi	r0, {r0, r2, r3, r4, r5, r8, r9, sl, lr}^
    8f18:	3f29424f 	svccc	0x0029424f
    8f1c:	28203a31 	stmdacs	r0!, {r0, r4, r5, r9, fp, ip, sp}
    8f20:	473d3d78 			; <UNDEFINED> instruction: 0x473d3d78
    8f24:	434f4950 	movtmi	r4, #63824	; 0xf950
    8f28:	3a323f29 	bcc	c98bd4 <_Min_Stack_Size+0xc987d4>
    8f2c:	3d782820 	ldclcc	8, cr2, [r8, #-128]!	; 0xffffff80
    8f30:	4950473d 	ldmdbmi	r0, {r0, r2, r3, r4, r5, r8, r9, sl, lr}^
    8f34:	3f29444f 	svccc	0x0029444f
    8f38:	20303a33 	eorscs	r3, r0, r3, lsr sl
    8f3c:	69500029 	ldmdbvs	r0, {r0, r3, r5}^
    8f40:	6766436e 	strbvs	r4, [r6, -lr, ror #6]!
    8f44:	49504700 	ldmdbmi	r0, {r8, r9, sl, lr}^
    8f48:	4f4d5f4f 	svcmi	0x004d5f4f
    8f4c:	52004544 	andpl	r4, r0, #68, 10	; 0x11000000
    8f50:	52455345 	subpl	r5, r5, #335544321	; 0x14000001
    8f54:	30444556 	subcc	r4, r4, r6, asr r5
    8f58:	54584500 	ldrbpl	r4, [r8], #-1280	; 0xfffffb00
    8f5c:	495f3449 	ldmdbmi	pc, {r0, r3, r6, sl, ip, sp}^	; <UNPREDICTABLE>
    8f60:	61485152 	cmpvs	r8, r2, asr r1
    8f64:	656c646e 	strbvs	r6, [ip, #-1134]!	; 0xfffffb92
    8f68:	58450072 	stmdapl	r5, {r1, r4, r5, r6}^
    8f6c:	435f4954 	cmpmi	pc, #84, 18	; 0x150000
    8f70:	69666e6f 	stmdbvs	r6!, {r0, r1, r2, r3, r5, r6, r9, sl, fp, sp, lr}^
    8f74:	50470067 	subpl	r0, r7, r7, rrx
    8f78:	505f4f49 	subspl	r4, pc, r9, asr #30
    8f7c:	6f436e69 	svcvs	0x00436e69
    8f80:	6769666e 	strbvs	r6, [r9, -lr, ror #12]!
    8f84:	4100745f 	tstmi	r0, pc, asr r4
    8f88:	5f4f4946 	svcpl	0x004f4946
    8f8c:	65707954 	ldrbvs	r7, [r0, #-2388]!	; 0xfffff6ac
    8f90:	00666564 	rsbeq	r6, r6, r4, ror #10
    8f94:	4c41434d 	mcrrmi	3, 4, r4, r1, cr13
    8f98:	5458455f 	ldrbpl	r4, [r8], #-1375	; 0xfffffaa1
    8f9c:	50475f49 	subpl	r5, r7, r9, asr #30
    8fa0:	445f4f49 	ldrbmi	r4, [pc], #-3913	; 8fa8 <_Min_Stack_Size+0x8ba8>
    8fa4:	696e4965 	stmdbvs	lr!, {r0, r2, r5, r6, r8, fp, lr}^
    8fa8:	434d0074 	movtmi	r0, #53364	; 0xd074
    8fac:	455f4c41 	ldrbmi	r4, [pc, #-3137]	; 8373 <_Min_Stack_Size+0x7f73>
    8fb0:	5f495458 	svcpl	0x00495458
    8fb4:	4f495047 	svcmi	0x00495047
    8fb8:	696e495f 	stmdbvs	lr!, {r0, r1, r2, r3, r4, r6, r8, fp, lr}^
    8fbc:	50470074 	subpl	r0, r7, r4, ror r0
    8fc0:	4f5f4f49 	svcmi	0x005f4f49
    8fc4:	55505455 	ldrbpl	r5, [r0, #-1109]	; 0xfffffbab
    8fc8:	50535f54 	subspl	r5, r3, r4, asr pc
    8fcc:	00444545 	subeq	r4, r4, r5, asr #10
    8fd0:	45495753 	strbmi	r5, [r9, #-1875]	; 0xfffff8ad
    8fd4:	414d0052 	qdaddmi	r0, r2, sp
    8fd8:	00325250 	eorseq	r5, r2, r0, asr r2
    8fdc:	495f5047 	ldmdbmi	pc, {r0, r1, r2, r6, ip, lr}^	; <UNPREDICTABLE>
    8fe0:	435f5152 	cmpmi	pc, #-2147483628	; 0x80000014
    8fe4:	426c6c61 	rsbmi	r6, ip, #24832	; 0x6100
    8fe8:	006b6361 	rsbeq	r6, fp, r1, ror #6
    8fec:	49545845 	ldmdbmi	r4, {r0, r2, r6, fp, ip, lr}^
    8ff0:	7079545f 	rsbsvc	r5, r9, pc, asr r4
    8ff4:	66656465 	strbtvs	r6, [r5], -r5, ror #8
    8ff8:	50414d00 	subpl	r4, r1, r0, lsl #26
    8ffc:	58450052 	stmdapl	r5, {r1, r4, r6}^
    9000:	5f324954 	svcpl	0x00324954
    9004:	48515249 	ldmdami	r1, {r0, r3, r6, r9, ip, lr}^
    9008:	6c646e61 	stclvs	14, cr6, [r4], #-388	; 0xfffffe7c
    900c:	45007265 	strmi	r7, [r0, #-613]	; 0xfffffd9b
    9010:	39495458 	stmdbcc	r9, {r3, r4, r6, sl, ip, lr}^
    9014:	495f355f 	ldmdbmi	pc, {r0, r1, r2, r3, r4, r6, r8, sl, ip, sp}^	; <UNPREDICTABLE>
    9018:	61485152 	cmpvs	r8, r2, asr r1
    901c:	656c646e 	strbvs	r6, [ip, #-1134]!	; 0xfffffb92
    9020:	58450072 	stmdapl	r5, {r1, r4, r5, r6}^
    9024:	5f334954 	svcpl	0x00334954
    9028:	48515249 	ldmdami	r1, {r0, r3, r6, r9, ip, lr}^
    902c:	6c646e61 	stclvs	14, cr6, [r4], #-388	; 0xfffffe7c
    9030:	2e007265 	cdpcs	2, 0, cr7, cr0, cr5, {3}
    9034:	74532f2e 	ldrbvc	r2, [r3], #-3886	; 0xfffff0d2
    9038:	5f32336d 	svcpl	0x0032336d
    903c:	33303146 	teqcc	r0, #-2147483631	; 0x80000011
    9040:	445f3643 	ldrbmi	r3, [pc], #-1603	; 9048 <_Min_Stack_Size+0x8c48>
    9044:	65766972 	ldrbvs	r6, [r6, #-2418]!	; 0xfffff68e
    9048:	452f7372 	strmi	r7, [pc, #-882]!	; 8cde <_Min_Stack_Size+0x88de>
    904c:	2f495458 	svccs	0x00495458
    9050:	336d7453 	cmncc	sp, #1392508928	; 0x53000000
    9054:	31465f32 	cmpcc	r6, r2, lsr pc
    9058:	36433330 			; <UNDEFINED> instruction: 0x36433330
    905c:	5458455f 	ldrbpl	r4, [r8], #-1375	; 0xfffffaa1
    9060:	72645f49 	rsbvc	r5, r4, #292	; 0x124
    9064:	72657669 	rsbvc	r7, r5, #110100480	; 0x6900000
    9068:	4100632e 	tstmi	r0, lr, lsr #6
    906c:	5f4f4946 	svcpl	0x004f4946
    9070:	49545845 	ldmdbmi	r4, {r0, r2, r6, fp, ip, lr}^
    9074:	695f5243 	ldmdbvs	pc, {r0, r1, r6, r9, ip, lr}^	; <UNPREDICTABLE>
    9078:	7865646e 	stmdavc	r5!, {r1, r2, r3, r5, r6, sl, sp, lr}^
    907c:	54584500 	ldrbpl	r4, [r8], #-1280	; 0xfffffb00
    9080:	495f3049 	ldmdbmi	pc, {r0, r3, r6, ip, sp}^	; <UNPREDICTABLE>
    9084:	61485152 	cmpvs	r8, r2, asr r1
    9088:	656c646e 	strbvs	r6, [ip, #-1134]!	; 0xfffffb92
    908c:	50470072 	subpl	r0, r7, r2, ror r0
    9090:	505f4f49 	subspl	r4, pc, r9, asr #30
    9094:	754e6e69 	strbvc	r6, [lr, #-3689]	; 0xfffff197
    9098:	7265626d 	rsbvc	r6, r5, #-805306362	; 0xd0000006
    909c:	43564500 	cmpmi	r6, #0, 10
    90a0:	58450052 	stmdapl	r5, {r1, r4, r6}^
    90a4:	35314954 	ldrcc	r4, [r1, #-2388]!	; 0xfffff6ac
    90a8:	5f30315f 	svcpl	0x0030315f
    90ac:	48515249 	ldmdami	r1, {r0, r3, r6, r9, ip, lr}^
    90b0:	6c646e61 	stclvs	14, cr6, [r4], #-388	; 0xfffffe7c
    90b4:	44007265 	strmi	r7, [r0], #-613	; 0xfffffd9b
    90b8:	62617369 	rsbvs	r7, r1, #-1543503871	; 0xa4000001
    90bc:	4e5f656c 	cdpmi	5, 5, cr6, cr15, cr12, {3}
    90c0:	00434956 	subeq	r4, r3, r6, asr r9
    90c4:	49545845 	ldmdbmi	r4, {r0, r2, r6, fp, ip, lr}^
    90c8:	52495f31 	subpl	r5, r9, #49, 30	; 0xc4
    90cc:	6e614851 	mcrvs	8, 3, r4, cr1, cr1, {2}
    90d0:	72656c64 	rsbvc	r6, r5, #100, 24	; 0x6400
    90d4:	616e4500 	cmnvs	lr, r0, lsl #10
    90d8:	5f656c62 	svcpl	0x00656c62
    90dc:	4349564e 	movtmi	r5, #38478	; 0x964e
    90e0:	2f2e2e00 	svccs	0x002e2e00
    90e4:	336d7453 	cmncc	sp, #1392508928	; 0x53000000
    90e8:	31465f32 	cmpcc	r6, r2, lsr pc
    90ec:	36433330 			; <UNDEFINED> instruction: 0x36433330
    90f0:	6972445f 	ldmdbvs	r2!, {r0, r1, r2, r3, r4, r6, sl, lr}^
    90f4:	73726576 	cmnvc	r2, #494927872	; 0x1d800000
    90f8:	4950472f 	ldmdbmi	r0, {r0, r1, r2, r3, r5, r8, r9, sl, lr}^
    90fc:	74532f4f 	ldrbvc	r2, [r3], #-3919	; 0xfffff0b1
    9100:	5f32336d 	svcpl	0x0032336d
    9104:	33303146 	teqcc	r0, #-2147483631	; 0x80000011
    9108:	675f3643 	ldrbvs	r3, [pc, -r3, asr #12]
    910c:	5f6f6970 	svcpl	0x006f6970
    9110:	76697264 	strbtvc	r7, [r9], -r4, ror #4
    9114:	632e7265 			; <UNDEFINED> instruction: 0x632e7265
    9118:	41434d00 	cmpmi	r3, r0, lsl #26
    911c:	50475f4c 	subpl	r5, r7, ip, asr #30
    9120:	495f4f49 	ldmdbmi	pc, {r0, r3, r6, r8, r9, sl, fp, lr}^	; <UNPREDICTABLE>
    9124:	0074696e 	rsbseq	r6, r4, lr, ror #18
    9128:	436e6950 	cmnmi	lr, #80, 18	; 0x140000
    912c:	69666e6f 	stmdbvs	r6!, {r0, r1, r2, r3, r5, r6, r9, sl, fp, sp, lr}^
    9130:	65470067 	strbvs	r0, [r7, #-103]	; 0xffffff99
    9134:	52435f74 	subpl	r5, r3, #116, 30	; 0x1d0
    9138:	505f484c 	subspl	r4, pc, ip, asr #16
    913c:	7469736f 	strbtvc	r7, [r9], #-879	; 0xfffffc91
    9140:	006e6f69 	rsbeq	r6, lr, r9, ror #30
    9144:	4c41434d 	mcrrmi	3, 4, r4, r1, cr13
    9148:	4950475f 	ldmdbmi	r0, {r0, r1, r2, r3, r4, r6, r8, r9, sl, lr}^
    914c:	6f545f4f 	svcvs	0x00545f4f
    9150:	656c6767 	strbvs	r6, [ip, #-1895]!	; 0xfffff899
    9154:	006e6950 	rsbeq	r6, lr, r0, asr r9
    9158:	4f495047 	svcmi	0x00495047
    915c:	434d0078 	movtmi	r0, #53368	; 0xd078
    9160:	475f4c41 	ldrbmi	r4, [pc, -r1, asr #24]
    9164:	5f4f4950 	svcpl	0x004f4950
    9168:	64616552 	strbtvs	r6, [r1], #-1362	; 0xfffffaae
    916c:	006e6950 	rsbeq	r6, lr, r0, asr r9
    9170:	434e4950 	movtmi	r4, #59728	; 0xe950
    9174:	69666e6f 	stmdbvs	r6!, {r0, r1, r2, r3, r5, r6, r9, sl, fp, sp, lr}^
    9178:	434d0067 	movtmi	r0, #53351	; 0xd067
    917c:	475f4c41 	ldrbmi	r4, [pc, -r1, asr #24]
    9180:	5f4f4950 	svcpl	0x004f4950
    9184:	6b636f4c 	blvs	18e4ebc <_Min_Stack_Size+0x18e4abc>
    9188:	006e6950 	rsbeq	r6, lr, r0, asr r9
    918c:	666e6f63 	strbtvs	r6, [lr], -r3, ror #30
    9190:	725f6769 	subsvc	r6, pc, #27525120	; 0x1a40000
    9194:	73696765 	cmnvc	r9, #26476544	; 0x1940000
    9198:	00726574 	rsbseq	r6, r2, r4, ror r5
    919c:	4c41434d 	mcrrmi	3, 4, r4, r1, cr13
    91a0:	4950475f 	ldmdbmi	r0, {r0, r1, r2, r3, r4, r6, r8, r9, sl, lr}^
    91a4:	72575f4f 	subsvc	r5, r7, #316	; 0x13c
    91a8:	50657469 	rsbpl	r7, r5, r9, ror #8
    91ac:	4d006e69 	stcmi	14, cr6, [r0, #-420]	; 0xfffffe5c
    91b0:	5f4c4143 	svcpl	0x004c4143
    91b4:	4f495047 	svcmi	0x00495047
    91b8:	6972575f 	ldmdbvs	r2!, {r0, r1, r2, r3, r4, r6, r8, r9, sl, ip, lr}^
    91bc:	6f506574 	svcvs	0x00506574
    91c0:	70007472 	andvc	r7, r0, r2, ror r4
    91c4:	5674726f 	ldrbtpl	r7, [r4], -pc, ror #4
    91c8:	65756c61 	ldrbvs	r6, [r5, #-3169]!	; 0xfffff39f
    91cc:	41434d00 	cmpmi	r3, r0, lsl #26
    91d0:	50475f4c 	subpl	r5, r7, ip, asr #30
    91d4:	445f4f49 	ldrbmi	r4, [pc], #-3913	; 91dc <_Min_Stack_Size+0x8ddc>
    91d8:	696e4965 	stmdbvs	lr!, {r0, r2, r5, r6, r8, fp, lr}^
    91dc:	434d0074 	movtmi	r0, #53364	; 0xd074
    91e0:	475f4c41 	ldrbmi	r4, [pc, -r1, asr #24]
    91e4:	5f4f4950 	svcpl	0x004f4950
    91e8:	64616552 	strbtvs	r6, [r1], #-1362	; 0xfffffaae
    91ec:	74726f50 	ldrbtvc	r6, [r2], #-3920	; 0xfffff0b0
    91f0:	74696200 	strbtvc	r6, [r9], #-512	; 0xfffffe00
    91f4:	74617453 	strbtvc	r7, [r1], #-1107	; 0xfffffbad
    91f8:	74007375 	strvc	r7, [r0], #-885	; 0xfffffc8b
    91fc:	00706d65 	rsbseq	r6, r0, r5, ror #26

Disassembly of section .comment:

00000000 <.comment>:
   0:	3a434347 	bcc	10d0d24 <_Min_Stack_Size+0x10d0924>
   4:	4e472820 	cdpmi	8, 4, cr2, cr7, cr0, {1}
   8:	6f542055 	svcvs	0x00542055
   c:	20736c6f 	rsbscs	r6, r3, pc, ror #24
  10:	20726f66 	rsbscs	r6, r2, r6, ror #30
  14:	334d5453 	movtcc	r5, #54355	; 0xd453
  18:	2d372032 	ldccs	0, cr2, [r7, #-200]!	; 0xffffff38
  1c:	38313032 	ldmdacc	r1!, {r1, r4, r5, ip, sp}
  20:	2d32712d 	ldfcss	f7, [r2, #-180]!	; 0xffffff4c
  24:	61647075 	smcvs	18181	; 0x4705
  28:	322e6574 	eorcc	r6, lr, #116, 10	; 0x1d000000
  2c:	30393130 	eorscc	r3, r9, r0, lsr r1
  30:	2d383233 	lfmcs	f3, 4, [r8, #-204]!	; 0xffffff34
  34:	30303831 	eorscc	r3, r0, r1, lsr r8
  38:	2e372029 	cdpcs	0, 3, cr2, cr7, cr9, {1}
  3c:	20312e33 	eorscs	r2, r1, r3, lsr lr
  40:	38313032 	ldmdacc	r1!, {r1, r4, r5, ip, sp}
  44:	32323630 	eorscc	r3, r2, #48, 12	; 0x3000000
  48:	65722820 	ldrbvs	r2, [r2, #-2080]!	; 0xfffff7e0
  4c:	7361656c 	cmnvc	r1, #108, 10	; 0x1b000000
  50:	5b202965 	blpl	80a5ec <_Min_Stack_Size+0x80a1ec>
  54:	2f4d5241 	svccs	0x004d5241
  58:	65626d65 	strbvs	r6, [r2, #-3429]!	; 0xfffff29b
  5c:	64656464 	strbtvs	r6, [r5], #-1124	; 0xfffffb9c
  60:	622d372d 	eorvs	r3, sp, #11796480	; 0xb40000
  64:	636e6172 	cmnvs	lr, #-2147483620	; 0x8000001c
  68:	65722068 	ldrbvs	r2, [r2, #-104]!	; 0xffffff98
  6c:	69736976 	ldmdbvs	r3!, {r1, r2, r4, r5, r6, r8, fp, sp, lr}^
  70:	32206e6f 	eorcc	r6, r0, #1776	; 0x6f0
  74:	30393136 	eorscc	r3, r9, r6, lsr r1
  78:	Address 0x0000000000000078 is out of bounds.


Disassembly of section .debug_frame:

00000000 <.debug_frame>:
   0:	0000000c 	andeq	r0, r0, ip
   4:	ffffffff 			; <UNDEFINED> instruction: 0xffffffff
   8:	7c020001 	stcvc	0, cr0, [r2], {1}
   c:	000d0c0e 	andeq	r0, sp, lr, lsl #24
  10:	00000024 	andeq	r0, r0, r4, lsr #32
  14:	00000000 	andeq	r0, r0, r0
  18:	08000170 	stmdaeq	r0, {r4, r5, r6, r8}
  1c:	00000040 	andeq	r0, r0, r0, asr #32
  20:	87040e41 	strhi	r0, [r4, -r1, asr #28]
  24:	100e4101 	andne	r4, lr, r1, lsl #2
  28:	5a070d41 	bpl	1c3534 <_Min_Stack_Size+0x1c3134>
  2c:	0d41040e 	cfstrdeq	mvd0, [r1, #-56]	; 0xffffffc8
  30:	0ec7410d 	poleqs	f4, f7, #5.0
  34:	00000000 	andeq	r0, r0, r0
  38:	00000018 	andeq	r0, r0, r8, lsl r0
  3c:	00000000 	andeq	r0, r0, r0
  40:	080001b0 	stmdaeq	r0, {r4, r5, r7, r8}
  44:	00000018 	andeq	r0, r0, r8, lsl r0
  48:	87080e41 	strhi	r0, [r8, -r1, asr #28]
  4c:	41018e02 	tstmi	r1, r2, lsl #28
  50:	0000070d 	andeq	r0, r0, sp, lsl #14
  54:	0000001c 	andeq	r0, r0, ip, lsl r0
  58:	00000000 	andeq	r0, r0, r0
  5c:	080001c8 	stmdaeq	r0, {r3, r6, r7, r8}
  60:	00000070 	andeq	r0, r0, r0, ror r0
  64:	87080e41 	strhi	r0, [r8, -r1, asr #28]
  68:	41018e02 	tstmi	r1, r2, lsl #28
  6c:	0d41200e 	stcleq	0, cr2, [r1, #-56]	; 0xffffffc8
  70:	00000007 	andeq	r0, r0, r7
  74:	0000000c 	andeq	r0, r0, ip
  78:	ffffffff 			; <UNDEFINED> instruction: 0xffffffff
  7c:	7c020001 	stcvc	0, cr0, [r2], {1}
  80:	000d0c0e 	andeq	r0, sp, lr, lsl #24
  84:	00000024 	andeq	r0, r0, r4, lsr #32
  88:	00000074 	andeq	r0, r0, r4, ror r0
  8c:	0800028c 	stmdaeq	r0, {r2, r3, r7, r9}
  90:	000000cc 	andeq	r0, r0, ip, asr #1
  94:	87040e41 	strhi	r0, [r4, -r1, asr #28]
  98:	100e4101 	andne	r4, lr, r1, lsl #2
  9c:	02070d41 	andeq	r0, r7, #4160	; 0x1040
  a0:	41040e5c 	tstmi	r4, ip, asr lr
  a4:	c7410d0d 	strbgt	r0, [r1, -sp, lsl #26]
  a8:	0000000e 	andeq	r0, r0, lr
  ac:	00000024 	andeq	r0, r0, r4, lsr #32
  b0:	00000074 	andeq	r0, r0, r4, ror r0
  b4:	08000358 	stmdaeq	r0, {r3, r4, r6, r8, r9}
  b8:	000000cc 	andeq	r0, r0, ip, asr #1
  bc:	87040e41 	strhi	r0, [r4, -r1, asr #28]
  c0:	100e4101 	andne	r4, lr, r1, lsl #2
  c4:	02070d41 	andeq	r0, r7, #4160	; 0x1040
  c8:	41040e5c 	tstmi	r4, ip, asr lr
  cc:	c7410d0d 	strbgt	r0, [r1, -sp, lsl #26]
  d0:	0000000e 	andeq	r0, r0, lr
  d4:	00000020 	andeq	r0, r0, r0, lsr #32
  d8:	00000074 	andeq	r0, r0, r4, ror r0
  dc:	08000424 	stmdaeq	r0, {r2, r5, sl}
  e0:	000001d8 	ldrdeq	r0, [r0], -r8
  e4:	87080e41 	strhi	r0, [r8, -r1, asr #28]
  e8:	41018e02 	tstmi	r1, r2, lsl #28
  ec:	0d41180e 	stcleq	8, cr1, [r1, #-56]	; 0xffffffc8
  f0:	0ed90207 	cdpeq	2, 13, cr0, cr9, cr7, {0}
  f4:	0d0d4108 	stfeqs	f4, [sp, #-32]	; 0xffffffe0
  f8:	0000001c 	andeq	r0, r0, ip, lsl r0
  fc:	00000074 	andeq	r0, r0, r4, ror r0
 100:	00000000 	andeq	r0, r0, r0
 104:	00000098 	muleq	r0, r8, r0
 108:	87040e41 	strhi	r0, [r4, -r1, asr #28]
 10c:	070d4101 	streq	r4, [sp, -r1, lsl #2]
 110:	0d0d4202 	sfmeq	f4, 4, [sp, #-8]
 114:	000ec741 	andeq	ip, lr, r1, asr #14
 118:	00000020 	andeq	r0, r0, r0, lsr #32
 11c:	00000074 	andeq	r0, r0, r4, ror r0
 120:	080005fc 	stmdaeq	r0, {r2, r3, r4, r5, r6, r7, r8, sl}
 124:	00000016 	andeq	r0, r0, r6, lsl r0
 128:	87080e41 	strhi	r0, [r8, -r1, asr #28]
 12c:	41018e02 	tstmi	r1, r2, lsl #28
 130:	0d41100e 	stcleq	0, cr1, [r1, #-56]	; 0xffffffc8
 134:	080e4607 	stmdaeq	lr, {r0, r1, r2, r9, sl, lr}
 138:	000d0d41 	andeq	r0, sp, r1, asr #26
 13c:	00000020 	andeq	r0, r0, r0, lsr #32
 140:	00000074 	andeq	r0, r0, r4, ror r0
 144:	00000000 	andeq	r0, r0, r0
 148:	00000016 	andeq	r0, r0, r6, lsl r0
 14c:	87080e41 	strhi	r0, [r8, -r1, asr #28]
 150:	41018e02 	tstmi	r1, r2, lsl #28
 154:	0d41100e 	stcleq	0, cr1, [r1, #-56]	; 0xffffffc8
 158:	080e4607 	stmdaeq	lr, {r0, r1, r2, r9, sl, lr}
 15c:	000d0d41 	andeq	r0, sp, r1, asr #26
 160:	00000018 	andeq	r0, r0, r8, lsl r0
 164:	00000074 	andeq	r0, r0, r4, ror r0
 168:	08000614 	stmdaeq	r0, {r2, r4, r9, sl}
 16c:	00000024 	andeq	r0, r0, r4, lsr #32
 170:	87080e41 	strhi	r0, [r8, -r1, asr #28]
 174:	41018e02 	tstmi	r1, r2, lsl #28
 178:	0000070d 	andeq	r0, r0, sp, lsl #14
 17c:	00000018 	andeq	r0, r0, r8, lsl r0
 180:	00000074 	andeq	r0, r0, r4, ror r0
 184:	08000638 	stmdaeq	r0, {r3, r4, r5, r9, sl}
 188:	00000024 	andeq	r0, r0, r4, lsr #32
 18c:	87080e41 	strhi	r0, [r8, -r1, asr #28]
 190:	41018e02 	tstmi	r1, r2, lsl #28
 194:	0000070d 	andeq	r0, r0, sp, lsl #14
 198:	00000018 	andeq	r0, r0, r8, lsl r0
 19c:	00000074 	andeq	r0, r0, r4, ror r0
 1a0:	0800065c 	stmdaeq	r0, {r2, r3, r4, r6, r9, sl}
 1a4:	00000024 	andeq	r0, r0, r4, lsr #32
 1a8:	87080e41 	strhi	r0, [r8, -r1, asr #28]
 1ac:	41018e02 	tstmi	r1, r2, lsl #28
 1b0:	0000070d 	andeq	r0, r0, sp, lsl #14
 1b4:	00000018 	andeq	r0, r0, r8, lsl r0
 1b8:	00000074 	andeq	r0, r0, r4, ror r0
 1bc:	08000680 	stmdaeq	r0, {r7, r9, sl}
 1c0:	00000024 	andeq	r0, r0, r4, lsr #32
 1c4:	87080e41 	strhi	r0, [r8, -r1, asr #28]
 1c8:	41018e02 	tstmi	r1, r2, lsl #28
 1cc:	0000070d 	andeq	r0, r0, sp, lsl #14
 1d0:	00000018 	andeq	r0, r0, r8, lsl r0
 1d4:	00000074 	andeq	r0, r0, r4, ror r0
 1d8:	080006a4 	stmdaeq	r0, {r2, r5, r7, r9, sl}
 1dc:	00000024 	andeq	r0, r0, r4, lsr #32
 1e0:	87080e41 	strhi	r0, [r8, -r1, asr #28]
 1e4:	41018e02 	tstmi	r1, r2, lsl #28
 1e8:	0000070d 	andeq	r0, r0, sp, lsl #14
 1ec:	00000018 	andeq	r0, r0, r8, lsl r0
 1f0:	00000074 	andeq	r0, r0, r4, ror r0
 1f4:	080006c8 	stmdaeq	r0, {r3, r6, r7, r9, sl}
 1f8:	000000a8 	andeq	r0, r0, r8, lsr #1
 1fc:	87080e41 	strhi	r0, [r8, -r1, asr #28]
 200:	41018e02 	tstmi	r1, r2, lsl #28
 204:	0000070d 	andeq	r0, r0, sp, lsl #14
 208:	00000018 	andeq	r0, r0, r8, lsl r0
 20c:	00000074 	andeq	r0, r0, r4, ror r0
 210:	08000770 	stmdaeq	r0, {r4, r5, r6, r8, r9, sl}
 214:	000000c4 	andeq	r0, r0, r4, asr #1
 218:	87080e41 	strhi	r0, [r8, -r1, asr #28]
 21c:	41018e02 	tstmi	r1, r2, lsl #28
 220:	0000070d 	andeq	r0, r0, sp, lsl #14
 224:	0000000c 	andeq	r0, r0, ip
 228:	ffffffff 			; <UNDEFINED> instruction: 0xffffffff
 22c:	7c020001 	stcvc	0, cr0, [r2], {1}
 230:	000d0c0e 	andeq	r0, sp, lr, lsl #24
 234:	00000024 	andeq	r0, r0, r4, lsr #32
 238:	00000224 	andeq	r0, r0, r4, lsr #4
 23c:	08000834 	stmdaeq	r0, {r2, r4, r5, fp}
 240:	000000c6 	andeq	r0, r0, r6, asr #1
 244:	87040e41 	strhi	r0, [r4, -r1, asr #28]
 248:	100e4101 	andne	r4, lr, r1, lsl #2
 24c:	02070d41 	andeq	r0, r7, #4160	; 0x1040
 250:	41040e5d 	tstmi	r4, sp, asr lr
 254:	c7410d0d 	strbgt	r0, [r1, -sp, lsl #26]
 258:	0000000e 	andeq	r0, r0, lr
 25c:	00000024 	andeq	r0, r0, r4, lsr #32
 260:	00000224 	andeq	r0, r0, r4, lsr #4
 264:	080008fa 	stmdaeq	r0, {r1, r3, r4, r5, r6, r7, fp}
 268:	000000fe 	strdeq	r0, [r0], -lr
 26c:	840c0e41 	strhi	r0, [ip], #-3649	; 0xfffff1bf
 270:	8e028703 	cdphi	7, 0, cr8, cr2, cr3, {0}
 274:	200e4101 	andcs	r4, lr, r1, lsl #2
 278:	02070d41 	andeq	r0, r7, #4160	; 0x1040
 27c:	410c0e7a 	tstmi	ip, sl, ror lr
 280:	00000d0d 	andeq	r0, r0, sp, lsl #26
 284:	00000024 	andeq	r0, r0, r4, lsr #32
 288:	00000224 	andeq	r0, r0, r4, lsr #4
 28c:	00000000 	andeq	r0, r0, r0
 290:	000000d4 	ldrdeq	r0, [r0], -r4
 294:	87040e41 	strhi	r0, [r4, -r1, asr #28]
 298:	100e4101 	andne	r4, lr, r1, lsl #2
 29c:	02070d41 	andeq	r0, r7, #4160	; 0x1040
 2a0:	41040e57 	tstmi	r4, r7, asr lr
 2a4:	c7410d0d 	strbgt	r0, [r1, -sp, lsl #26]
 2a8:	0000000e 	andeq	r0, r0, lr
 2ac:	00000024 	andeq	r0, r0, r4, lsr #32
 2b0:	00000224 	andeq	r0, r0, r4, lsr #4
 2b4:	00000000 	andeq	r0, r0, r0
 2b8:	0000002e 	andeq	r0, r0, lr, lsr #32
 2bc:	87040e41 	strhi	r0, [r4, -r1, asr #28]
 2c0:	180e4101 	stmdane	lr, {r0, r8, lr}
 2c4:	51070d41 	tstpl	r7, r1, asr #26
 2c8:	0d41040e 	cfstrdeq	mvd0, [r1, #-56]	; 0xffffffc8
 2cc:	0ec7410d 	poleqs	f4, f7, #5.0
 2d0:	00000000 	andeq	r0, r0, r0
 2d4:	00000024 	andeq	r0, r0, r4, lsr #32
 2d8:	00000224 	andeq	r0, r0, r4, lsr #4
 2dc:	00000000 	andeq	r0, r0, r0
 2e0:	0000001a 	andeq	r0, r0, sl, lsl r0
 2e4:	87040e41 	strhi	r0, [r4, -r1, asr #28]
 2e8:	180e4101 	stmdane	lr, {r0, r8, lr}
 2ec:	47070d41 	strmi	r0, [r7, -r1, asr #26]
 2f0:	0d41040e 	cfstrdeq	mvd0, [r1, #-56]	; 0xffffffc8
 2f4:	0ec7410d 	poleqs	f4, f7, #5.0
 2f8:	00000000 	andeq	r0, r0, r0
 2fc:	00000024 	andeq	r0, r0, r4, lsr #32
 300:	00000224 	andeq	r0, r0, r4, lsr #4
 304:	00000000 	andeq	r0, r0, r0
 308:	0000002e 	andeq	r0, r0, lr, lsr #32
 30c:	87040e41 	strhi	r0, [r4, -r1, asr #28]
 310:	100e4101 	andne	r4, lr, r1, lsl #2
 314:	51070d41 	tstpl	r7, r1, asr #26
 318:	0d41040e 	cfstrdeq	mvd0, [r1, #-56]	; 0xffffffc8
 31c:	0ec7410d 	poleqs	f4, f7, #5.0
 320:	00000000 	andeq	r0, r0, r0
 324:	00000024 	andeq	r0, r0, r4, lsr #32
 328:	00000224 	andeq	r0, r0, r4, lsr #4
 32c:	00000000 	andeq	r0, r0, r0
 330:	0000001c 	andeq	r0, r0, ip, lsl r0
 334:	87040e41 	strhi	r0, [r4, -r1, asr #28]
 338:	100e4101 	andne	r4, lr, r1, lsl #2
 33c:	48070d41 	stmdami	r7, {r0, r6, r8, sl, fp}
 340:	0d41040e 	cfstrdeq	mvd0, [r1, #-56]	; 0xffffffc8
 344:	0ec7410d 	poleqs	f4, f7, #5.0
 348:	00000000 	andeq	r0, r0, r0
 34c:	00000024 	andeq	r0, r0, r4, lsr #32
 350:	00000224 	andeq	r0, r0, r4, lsr #4
 354:	00000000 	andeq	r0, r0, r0
 358:	00000022 	andeq	r0, r0, r2, lsr #32
 35c:	87040e41 	strhi	r0, [r4, -r1, asr #28]
 360:	100e4101 	andne	r4, lr, r1, lsl #2
 364:	4b070d41 	blmi	1c3870 <_Min_Stack_Size+0x1c3470>
 368:	0d41040e 	cfstrdeq	mvd0, [r1, #-56]	; 0xffffffc8
 36c:	0ec7410d 	poleqs	f4, f7, #5.0
 370:	00000000 	andeq	r0, r0, r0
 374:	00000024 	andeq	r0, r0, r4, lsr #32
 378:	00000224 	andeq	r0, r0, r4, lsr #4
 37c:	00000000 	andeq	r0, r0, r0
 380:	0000004e 	andeq	r0, r0, lr, asr #32
 384:	87040e41 	strhi	r0, [r4, -r1, asr #28]
 388:	180e4101 	stmdane	lr, {r0, r8, lr}
 38c:	61070d41 	tstvs	r7, r1, asr #26
 390:	0d41040e 	cfstrdeq	mvd0, [r1, #-56]	; 0xffffffc8
 394:	0ec7410d 	poleqs	f4, f7, #5.0
 398:	00000000 	andeq	r0, r0, r0
 39c:	0000000c 	andeq	r0, r0, ip
 3a0:	ffffffff 			; <UNDEFINED> instruction: 0xffffffff
 3a4:	7c020001 	stcvc	0, cr0, [r2], {1}
 3a8:	000d0c0e 	andeq	r0, sp, lr, lsl #24
 3ac:	00000018 	andeq	r0, r0, r8, lsl r0
 3b0:	0000039c 	muleq	r0, ip, r3
 3b4:	080009f8 	stmdaeq	r0, {r3, r4, r5, r6, r7, r8, fp}
 3b8:	00000048 	andeq	r0, r0, r8, asr #32
 3bc:	84100e41 	ldrhi	r0, [r0], #-3649	; 0xfffff1bf
 3c0:	86038504 	strhi	r8, [r3], -r4, lsl #10
 3c4:	00018e02 	andeq	r8, r1, r2, lsl #28
