
Drivers2_EXTI.axf:     file format elf32-littlearm


Disassembly of section .isr_vector:

08000000 <g_pfnVectors>:
 8000000:	20002800 	andcs	r2, r0, r0, lsl #16
 8000004:	0800036d 	stmdaeq	r0, {r0, r2, r3, r5, r6, r8, r9}
 8000008:	080003bd 	stmdaeq	r0, {r0, r2, r3, r4, r5, r7, r8, r9}
 800000c:	080003bd 	stmdaeq	r0, {r0, r2, r3, r4, r5, r7, r8, r9}
 8000010:	080003bd 	stmdaeq	r0, {r0, r2, r3, r4, r5, r7, r8, r9}
 8000014:	080003bd 	stmdaeq	r0, {r0, r2, r3, r4, r5, r7, r8, r9}
 8000018:	080003bd 	stmdaeq	r0, {r0, r2, r3, r4, r5, r7, r8, r9}
	...
 800002c:	08000171 	stmdaeq	r0, {r0, r4, r5, r6, r8}
 8000030:	080003bd 	stmdaeq	r0, {r0, r2, r3, r4, r5, r7, r8, r9}
 8000034:	00000000 	andeq	r0, r0, r0
 8000038:	080003bd 	stmdaeq	r0, {r0, r2, r3, r4, r5, r7, r8, r9}
 800003c:	080003bd 	stmdaeq	r0, {r0, r2, r3, r4, r5, r7, r8, r9}
 8000040:	080003bd 	stmdaeq	r0, {r0, r2, r3, r4, r5, r7, r8, r9}
 8000044:	080003bd 	stmdaeq	r0, {r0, r2, r3, r4, r5, r7, r8, r9}
 8000048:	080003bd 	stmdaeq	r0, {r0, r2, r3, r4, r5, r7, r8, r9}
 800004c:	080003bd 	stmdaeq	r0, {r0, r2, r3, r4, r5, r7, r8, r9}
 8000050:	080003bd 	stmdaeq	r0, {r0, r2, r3, r4, r5, r7, r8, r9}
 8000054:	080003bd 	stmdaeq	r0, {r0, r2, r3, r4, r5, r7, r8, r9}
 8000058:	08000749 	stmdaeq	r0, {r0, r3, r6, r8, r9, sl}
 800005c:	0800076d 	stmdaeq	r0, {r0, r2, r3, r5, r6, r8, r9, sl}
 8000060:	08000791 	stmdaeq	r0, {r0, r4, r7, r8, r9, sl}
 8000064:	080007b5 	stmdaeq	r0, {r0, r2, r4, r5, r7, r8, r9, sl}
 8000068:	080007d9 	stmdaeq	r0, {r0, r3, r4, r6, r7, r8, r9, sl}
 800006c:	080003bd 	stmdaeq	r0, {r0, r2, r3, r4, r5, r7, r8, r9}
 8000070:	080003bd 	stmdaeq	r0, {r0, r2, r3, r4, r5, r7, r8, r9}
 8000074:	080003bd 	stmdaeq	r0, {r0, r2, r3, r4, r5, r7, r8, r9}
 8000078:	080003bd 	stmdaeq	r0, {r0, r2, r3, r4, r5, r7, r8, r9}
 800007c:	080003bd 	stmdaeq	r0, {r0, r2, r3, r4, r5, r7, r8, r9}
 8000080:	080003bd 	stmdaeq	r0, {r0, r2, r3, r4, r5, r7, r8, r9}
 8000084:	080003bd 	stmdaeq	r0, {r0, r2, r3, r4, r5, r7, r8, r9}
 8000088:	080003bd 	stmdaeq	r0, {r0, r2, r3, r4, r5, r7, r8, r9}
 800008c:	080003bd 	stmdaeq	r0, {r0, r2, r3, r4, r5, r7, r8, r9}
 8000090:	080003bd 	stmdaeq	r0, {r0, r2, r3, r4, r5, r7, r8, r9}
 8000094:	080003bd 	stmdaeq	r0, {r0, r2, r3, r4, r5, r7, r8, r9}
 8000098:	080003bd 	stmdaeq	r0, {r0, r2, r3, r4, r5, r7, r8, r9}
 800009c:	080007fd 	stmdaeq	r0, {r0, r2, r3, r4, r5, r6, r7, r8, r9, sl}
 80000a0:	080003bd 	stmdaeq	r0, {r0, r2, r3, r4, r5, r7, r8, r9}
 80000a4:	080003bd 	stmdaeq	r0, {r0, r2, r3, r4, r5, r7, r8, r9}
 80000a8:	080003bd 	stmdaeq	r0, {r0, r2, r3, r4, r5, r7, r8, r9}
 80000ac:	080003bd 	stmdaeq	r0, {r0, r2, r3, r4, r5, r7, r8, r9}
 80000b0:	080003bd 	stmdaeq	r0, {r0, r2, r3, r4, r5, r7, r8, r9}
 80000b4:	080003bd 	stmdaeq	r0, {r0, r2, r3, r4, r5, r7, r8, r9}
 80000b8:	080003bd 	stmdaeq	r0, {r0, r2, r3, r4, r5, r7, r8, r9}
 80000bc:	080003bd 	stmdaeq	r0, {r0, r2, r3, r4, r5, r7, r8, r9}
 80000c0:	080003bd 	stmdaeq	r0, {r0, r2, r3, r4, r5, r7, r8, r9}
 80000c4:	080003bd 	stmdaeq	r0, {r0, r2, r3, r4, r5, r7, r8, r9}
 80000c8:	080003bd 	stmdaeq	r0, {r0, r2, r3, r4, r5, r7, r8, r9}
 80000cc:	080003bd 	stmdaeq	r0, {r0, r2, r3, r4, r5, r7, r8, r9}
 80000d0:	080003bd 	stmdaeq	r0, {r0, r2, r3, r4, r5, r7, r8, r9}
 80000d4:	080003bd 	stmdaeq	r0, {r0, r2, r3, r4, r5, r7, r8, r9}
 80000d8:	080003bd 	stmdaeq	r0, {r0, r2, r3, r4, r5, r7, r8, r9}
 80000dc:	080003bd 	stmdaeq	r0, {r0, r2, r3, r4, r5, r7, r8, r9}
 80000e0:	080008a5 	stmdaeq	r0, {r0, r2, r5, r7, fp}
 80000e4:	080003bd 	stmdaeq	r0, {r0, r2, r3, r4, r5, r7, r8, r9}
 80000e8:	00000000 	andeq	r0, r0, r0
 80000ec:	080003bd 	stmdaeq	r0, {r0, r2, r3, r4, r5, r7, r8, r9}
 80000f0:	080003bd 	stmdaeq	r0, {r0, r2, r3, r4, r5, r7, r8, r9}
 80000f4:	080003bd 	stmdaeq	r0, {r0, r2, r3, r4, r5, r7, r8, r9}
 80000f8:	080003bd 	stmdaeq	r0, {r0, r2, r3, r4, r5, r7, r8, r9}
 80000fc:	080003bd 	stmdaeq	r0, {r0, r2, r3, r4, r5, r7, r8, r9}
 8000100:	080003bd 	stmdaeq	r0, {r0, r2, r3, r4, r5, r7, r8, r9}
 8000104:	080003bd 	stmdaeq	r0, {r0, r2, r3, r4, r5, r7, r8, r9}
 8000108:	080003bd 	stmdaeq	r0, {r0, r2, r3, r4, r5, r7, r8, r9}
 800010c:	080003bd 	stmdaeq	r0, {r0, r2, r3, r4, r5, r7, r8, r9}
 8000110:	080003bd 	stmdaeq	r0, {r0, r2, r3, r4, r5, r7, r8, r9}
 8000114:	080003bd 	stmdaeq	r0, {r0, r2, r3, r4, r5, r7, r8, r9}
 8000118:	080003bd 	stmdaeq	r0, {r0, r2, r3, r4, r5, r7, r8, r9}
 800011c:	080003bd 	stmdaeq	r0, {r0, r2, r3, r4, r5, r7, r8, r9}
 8000120:	080003bd 	stmdaeq	r0, {r0, r2, r3, r4, r5, r7, r8, r9}
 8000124:	080003bd 	stmdaeq	r0, {r0, r2, r3, r4, r5, r7, r8, r9}
 8000128:	080003bd 	stmdaeq	r0, {r0, r2, r3, r4, r5, r7, r8, r9}
 800012c:	080003bd 	stmdaeq	r0, {r0, r2, r3, r4, r5, r7, r8, r9}

Disassembly of section .text:

08000130 <__do_global_dtors_aux>:
 8000130:	b510      	push	{r4, lr}
 8000132:	4c05      	ldr	r4, [pc, #20]	; (8000148 <__do_global_dtors_aux+0x18>)
 8000134:	7823      	ldrb	r3, [r4, #0]
 8000136:	b933      	cbnz	r3, 8000146 <__do_global_dtors_aux+0x16>
 8000138:	4b04      	ldr	r3, [pc, #16]	; (800014c <__do_global_dtors_aux+0x1c>)
 800013a:	b113      	cbz	r3, 8000142 <__do_global_dtors_aux+0x12>
 800013c:	4804      	ldr	r0, [pc, #16]	; (8000150 <__do_global_dtors_aux+0x20>)
 800013e:	f3af 8000 	nop.w
 8000142:	2301      	movs	r3, #1
 8000144:	7023      	strb	r3, [r4, #0]
 8000146:	bd10      	pop	{r4, pc}
 8000148:	20000004 	andcs	r0, r0, r4
 800014c:	00000000 	andeq	r0, r0, r0
 8000150:	08000b74 	stmdaeq	r0, {r2, r4, r5, r6, r8, r9, fp}

08000154 <frame_dummy>:
 8000154:	b508      	push	{r3, lr}
 8000156:	4b03      	ldr	r3, [pc, #12]	; (8000164 <frame_dummy+0x10>)
 8000158:	b11b      	cbz	r3, 8000162 <frame_dummy+0xe>
 800015a:	4903      	ldr	r1, [pc, #12]	; (8000168 <frame_dummy+0x14>)
 800015c:	4803      	ldr	r0, [pc, #12]	; (800016c <frame_dummy+0x18>)
 800015e:	f3af 8000 	nop.w
 8000162:	bd08      	pop	{r3, pc}
 8000164:	00000000 	andeq	r0, r0, r0
 8000168:	20000008 	andcs	r0, r0, r8
 800016c:	08000b74 	stmdaeq	r0, {r2, r4, r5, r6, r8, r9, fp}

08000170 <SVC_Handler>:
 8000170:	b480      	push	{r7}
 8000172:	af00      	add	r7, sp, #0
 8000174:	f3ef 8314 	mrs	r3, CONTROL
 8000178:	ea4f 0353 	mov.w	r3, r3, lsr #1
 800017c:	ea4f 0343 	mov.w	r3, r3, lsl #1
 8000180:	f383 8814 	msr	CONTROL, r3
 8000184:	bf00      	nop
 8000186:	46bd      	mov	sp, r7
 8000188:	bc80      	pop	{r7}
 800018a:	4770      	bx	lr

0800018c <EXTI9_CallBack>:
 800018c:	b480      	push	{r7}
 800018e:	af00      	add	r7, sp, #0
 8000190:	4b0c      	ldr	r3, [pc, #48]	; (80001c4 <EXTI9_CallBack+0x38>)
 8000192:	881b      	ldrh	r3, [r3, #0]
 8000194:	2b00      	cmp	r3, #0
 8000196:	d106      	bne.n	80001a6 <EXTI9_CallBack+0x1a>
 8000198:	4b0b      	ldr	r3, [pc, #44]	; (80001c8 <EXTI9_CallBack+0x3c>)
 800019a:	2201      	movs	r2, #1
 800019c:	801a      	strh	r2, [r3, #0]
 800019e:	4b09      	ldr	r3, [pc, #36]	; (80001c4 <EXTI9_CallBack+0x38>)
 80001a0:	2201      	movs	r2, #1
 80001a2:	801a      	strh	r2, [r3, #0]
 80001a4:	e009      	b.n	80001ba <EXTI9_CallBack+0x2e>
 80001a6:	4b07      	ldr	r3, [pc, #28]	; (80001c4 <EXTI9_CallBack+0x38>)
 80001a8:	881b      	ldrh	r3, [r3, #0]
 80001aa:	2b01      	cmp	r3, #1
 80001ac:	d105      	bne.n	80001ba <EXTI9_CallBack+0x2e>
 80001ae:	4b07      	ldr	r3, [pc, #28]	; (80001cc <EXTI9_CallBack+0x40>)
 80001b0:	2201      	movs	r2, #1
 80001b2:	801a      	strh	r2, [r3, #0]
 80001b4:	4b03      	ldr	r3, [pc, #12]	; (80001c4 <EXTI9_CallBack+0x38>)
 80001b6:	2200      	movs	r2, #0
 80001b8:	801a      	strh	r2, [r3, #0]
 80001ba:	bf00      	nop
 80001bc:	46bd      	mov	sp, r7
 80001be:	bc80      	pop	{r7}
 80001c0:	4770      	bx	lr
 80001c2:	bf00      	nop
 80001c4:	20000020 	andcs	r0, r0, r0, lsr #32
 80001c8:	2000002c 	andcs	r0, r0, ip, lsr #32
 80001cc:	2000002e 	andcs	r0, r0, lr, lsr #32

080001d0 <TaskA>:
 80001d0:	b480      	push	{r7}
 80001d2:	b085      	sub	sp, #20
 80001d4:	af00      	add	r7, sp, #0
 80001d6:	60f8      	str	r0, [r7, #12]
 80001d8:	60b9      	str	r1, [r7, #8]
 80001da:	607a      	str	r2, [r7, #4]
 80001dc:	68fa      	ldr	r2, [r7, #12]
 80001de:	68bb      	ldr	r3, [r7, #8]
 80001e0:	441a      	add	r2, r3
 80001e2:	687b      	ldr	r3, [r7, #4]
 80001e4:	4413      	add	r3, r2
 80001e6:	4618      	mov	r0, r3
 80001e8:	3714      	adds	r7, #20
 80001ea:	46bd      	mov	sp, r7
 80001ec:	bc80      	pop	{r7}
 80001ee:	4770      	bx	lr

080001f0 <TaskB>:
 80001f0:	b480      	push	{r7}
 80001f2:	b085      	sub	sp, #20
 80001f4:	af00      	add	r7, sp, #0
 80001f6:	60f8      	str	r0, [r7, #12]
 80001f8:	60b9      	str	r1, [r7, #8]
 80001fa:	607a      	str	r2, [r7, #4]
 80001fc:	603b      	str	r3, [r7, #0]
 80001fe:	68fa      	ldr	r2, [r7, #12]
 8000200:	68bb      	ldr	r3, [r7, #8]
 8000202:	441a      	add	r2, r3
 8000204:	687b      	ldr	r3, [r7, #4]
 8000206:	441a      	add	r2, r3
 8000208:	683b      	ldr	r3, [r7, #0]
 800020a:	4413      	add	r3, r2
 800020c:	4618      	mov	r0, r3
 800020e:	3714      	adds	r7, #20
 8000210:	46bd      	mov	sp, r7
 8000212:	bc80      	pop	{r7}
 8000214:	4770      	bx	lr
	...

08000218 <Main_OS>:
 8000218:	b580      	push	{r7, lr}
 800021a:	af00      	add	r7, sp, #0
 800021c:	4b35      	ldr	r3, [pc, #212]	; (80002f4 <Main_OS+0xdc>)
 800021e:	681b      	ldr	r3, [r3, #0]
 8000220:	f5a3 7300 	sub.w	r3, r3, #512	; 0x200
 8000224:	4a34      	ldr	r2, [pc, #208]	; (80002f8 <Main_OS+0xe0>)
 8000226:	6013      	str	r3, [r2, #0]
 8000228:	4b33      	ldr	r3, [pc, #204]	; (80002f8 <Main_OS+0xe0>)
 800022a:	681b      	ldr	r3, [r3, #0]
 800022c:	3b08      	subs	r3, #8
 800022e:	4a33      	ldr	r2, [pc, #204]	; (80002fc <Main_OS+0xe4>)
 8000230:	6013      	str	r3, [r2, #0]
 8000232:	4b32      	ldr	r3, [pc, #200]	; (80002fc <Main_OS+0xe4>)
 8000234:	681b      	ldr	r3, [r3, #0]
 8000236:	3b64      	subs	r3, #100	; 0x64
 8000238:	4a31      	ldr	r2, [pc, #196]	; (8000300 <Main_OS+0xe8>)
 800023a:	6013      	str	r3, [r2, #0]
 800023c:	4b30      	ldr	r3, [pc, #192]	; (8000300 <Main_OS+0xe8>)
 800023e:	681b      	ldr	r3, [r3, #0]
 8000240:	3b08      	subs	r3, #8
 8000242:	4a30      	ldr	r2, [pc, #192]	; (8000304 <Main_OS+0xec>)
 8000244:	6013      	str	r3, [r2, #0]
 8000246:	4b2f      	ldr	r3, [pc, #188]	; (8000304 <Main_OS+0xec>)
 8000248:	681b      	ldr	r3, [r3, #0]
 800024a:	3b64      	subs	r3, #100	; 0x64
 800024c:	4a2e      	ldr	r2, [pc, #184]	; (8000308 <Main_OS+0xf0>)
 800024e:	6013      	str	r3, [r2, #0]
 8000250:	bf00      	nop
 8000252:	4b2e      	ldr	r3, [pc, #184]	; (800030c <Main_OS+0xf4>)
 8000254:	881b      	ldrh	r3, [r3, #0]
 8000256:	2b01      	cmp	r3, #1
 8000258:	d123      	bne.n	80002a2 <Main_OS+0x8a>
 800025a:	4b28      	ldr	r3, [pc, #160]	; (80002fc <Main_OS+0xe4>)
 800025c:	681b      	ldr	r3, [r3, #0]
 800025e:	4618      	mov	r0, r3
 8000260:	f380 8809 	msr	PSP, r0
 8000264:	f3ef 8014 	mrs	r0, CONTROL
 8000268:	f040 0002 	orr.w	r0, r0, #2
 800026c:	f380 8814 	msr	CONTROL, r0
 8000270:	f3ef 8314 	mrs	r3, CONTROL
 8000274:	f043 0301 	orr.w	r3, r3, #1
 8000278:	f383 8814 	msr	CONTROL, r3
 800027c:	2203      	movs	r2, #3
 800027e:	2102      	movs	r1, #2
 8000280:	2001      	movs	r0, #1
 8000282:	f7ff ffa5 	bl	80001d0 <TaskA>
 8000286:	4603      	mov	r3, r0
 8000288:	b29a      	uxth	r2, r3
 800028a:	4b20      	ldr	r3, [pc, #128]	; (800030c <Main_OS+0xf4>)
 800028c:	801a      	strh	r2, [r3, #0]
 800028e:	df03      	svc	3
 8000290:	f3ef 8014 	mrs	r0, CONTROL
 8000294:	f04f 0105 	mov.w	r1, #5
 8000298:	ea00 0001 	and.w	r0, r0, r1
 800029c:	f380 8814 	msr	CONTROL, r0
 80002a0:	e7d6      	b.n	8000250 <Main_OS+0x38>
 80002a2:	4b1b      	ldr	r3, [pc, #108]	; (8000310 <Main_OS+0xf8>)
 80002a4:	881b      	ldrh	r3, [r3, #0]
 80002a6:	2b01      	cmp	r3, #1
 80002a8:	d1d2      	bne.n	8000250 <Main_OS+0x38>
 80002aa:	4b16      	ldr	r3, [pc, #88]	; (8000304 <Main_OS+0xec>)
 80002ac:	681b      	ldr	r3, [r3, #0]
 80002ae:	4618      	mov	r0, r3
 80002b0:	f380 8809 	msr	PSP, r0
 80002b4:	f3ef 8014 	mrs	r0, CONTROL
 80002b8:	f040 0002 	orr.w	r0, r0, #2
 80002bc:	f380 8814 	msr	CONTROL, r0
 80002c0:	f3ef 8314 	mrs	r3, CONTROL
 80002c4:	f043 0301 	orr.w	r3, r3, #1
 80002c8:	f383 8814 	msr	CONTROL, r3
 80002cc:	2304      	movs	r3, #4
 80002ce:	2203      	movs	r2, #3
 80002d0:	2102      	movs	r1, #2
 80002d2:	2001      	movs	r0, #1
 80002d4:	f7ff ff8c 	bl	80001f0 <TaskB>
 80002d8:	4603      	mov	r3, r0
 80002da:	b29a      	uxth	r2, r3
 80002dc:	4b0c      	ldr	r3, [pc, #48]	; (8000310 <Main_OS+0xf8>)
 80002de:	801a      	strh	r2, [r3, #0]
 80002e0:	df03      	svc	3
 80002e2:	f3ef 8014 	mrs	r0, CONTROL
 80002e6:	f04f 0105 	mov.w	r1, #5
 80002ea:	ea00 0001 	and.w	r0, r0, r1
 80002ee:	f380 8814 	msr	CONTROL, r0
 80002f2:	e7ad      	b.n	8000250 <Main_OS+0x38>
 80002f4:	20000000 	andcs	r0, r0, r0
 80002f8:	20000024 	andcs	r0, r0, r4, lsr #32
 80002fc:	20000028 	andcs	r0, r0, r8, lsr #32
 8000300:	20000038 	andcs	r0, r0, r8, lsr r0
 8000304:	20000030 	andcs	r0, r0, r0, lsr r0
 8000308:	20000034 	andcs	r0, r0, r4, lsr r0
 800030c:	2000002c 	andcs	r0, r0, ip, lsr #32
 8000310:	2000002e 	andcs	r0, r0, lr, lsr #32

08000314 <main>:
 8000314:	b580      	push	{r7, lr}
 8000316:	b086      	sub	sp, #24
 8000318:	af00      	add	r7, sp, #0
 800031a:	4b11      	ldr	r3, [pc, #68]	; (8000360 <main+0x4c>)
 800031c:	699b      	ldr	r3, [r3, #24]
 800031e:	4a10      	ldr	r2, [pc, #64]	; (8000360 <main+0x4c>)
 8000320:	f043 0308 	orr.w	r3, r3, #8
 8000324:	6193      	str	r3, [r2, #24]
 8000326:	4b0e      	ldr	r3, [pc, #56]	; (8000360 <main+0x4c>)
 8000328:	699b      	ldr	r3, [r3, #24]
 800032a:	4a0d      	ldr	r2, [pc, #52]	; (8000360 <main+0x4c>)
 800032c:	f043 0301 	orr.w	r3, r3, #1
 8000330:	6193      	str	r3, [r2, #24]
 8000332:	4a0c      	ldr	r2, [pc, #48]	; (8000364 <main+0x50>)
 8000334:	1d3b      	adds	r3, r7, #4
 8000336:	ca07      	ldmia	r2, {r0, r1, r2}
 8000338:	e883 0007 	stmia.w	r3, {r0, r1, r2}
 800033c:	2300      	movs	r3, #0
 800033e:	743b      	strb	r3, [r7, #16]
 8000340:	4b09      	ldr	r3, [pc, #36]	; (8000368 <main+0x54>)
 8000342:	617b      	str	r3, [r7, #20]
 8000344:	2301      	movs	r3, #1
 8000346:	747b      	strb	r3, [r7, #17]
 8000348:	1d3b      	adds	r3, r7, #4
 800034a:	4618      	mov	r0, r3
 800034c:	f000 f9f0 	bl	8000730 <MCAL_EXTI_GPIO_Init>
 8000350:	f7ff ff62 	bl	8000218 <Main_OS>
 8000354:	2300      	movs	r3, #0
 8000356:	4618      	mov	r0, r3
 8000358:	3718      	adds	r7, #24
 800035a:	46bd      	mov	sp, r7
 800035c:	bd80      	pop	{r7, pc}
 800035e:	bf00      	nop
 8000360:	40021000 	andmi	r1, r2, r0
 8000364:	08000b8c 	stmdaeq	r0, {r2, r3, r7, r8, r9, fp}
 8000368:	0800018d 	stmdaeq	r0, {r0, r2, r3, r7, r8}

0800036c <Reset_Handler>:
 800036c:	480d      	ldr	r0, [pc, #52]	; (80003a4 <LoopForever+0x2>)
 800036e:	4685      	mov	sp, r0
 8000370:	f3af 8000 	nop.w
 8000374:	480c      	ldr	r0, [pc, #48]	; (80003a8 <LoopForever+0x6>)
 8000376:	490d      	ldr	r1, [pc, #52]	; (80003ac <LoopForever+0xa>)
 8000378:	4a0d      	ldr	r2, [pc, #52]	; (80003b0 <LoopForever+0xe>)
 800037a:	2300      	movs	r3, #0
 800037c:	e002      	b.n	8000384 <LoopCopyDataInit>

0800037e <CopyDataInit>:
 800037e:	58d4      	ldr	r4, [r2, r3]
 8000380:	50c4      	str	r4, [r0, r3]
 8000382:	3304      	adds	r3, #4

08000384 <LoopCopyDataInit>:
 8000384:	18c4      	adds	r4, r0, r3
 8000386:	428c      	cmp	r4, r1
 8000388:	d3f9      	bcc.n	800037e <CopyDataInit>
 800038a:	4a0a      	ldr	r2, [pc, #40]	; (80003b4 <LoopForever+0x12>)
 800038c:	4c0a      	ldr	r4, [pc, #40]	; (80003b8 <LoopForever+0x16>)
 800038e:	2300      	movs	r3, #0
 8000390:	e001      	b.n	8000396 <LoopFillZerobss>

08000392 <FillZerobss>:
 8000392:	6013      	str	r3, [r2, #0]
 8000394:	3204      	adds	r2, #4

08000396 <LoopFillZerobss>:
 8000396:	42a2      	cmp	r2, r4
 8000398:	d3fb      	bcc.n	8000392 <FillZerobss>
 800039a:	f000 fbc7 	bl	8000b2c <__libc_init_array>
 800039e:	f7ff ffb9 	bl	8000314 <main>

080003a2 <LoopForever>:
 80003a2:	e7fe      	b.n	80003a2 <LoopForever>
 80003a4:	20002800 	andcs	r2, r0, r0, lsl #16
 80003a8:	20000000 	andcs	r0, r0, r0
 80003ac:	20000004 	andcs	r0, r0, r4
 80003b0:	08000ba0 	stmdaeq	r0, {r5, r7, r8, r9, fp}
 80003b4:	20000004 	andcs	r0, r0, r4
 80003b8:	20000078 	andcs	r0, r0, r8, ror r0

080003bc <ADC1_2_IRQHandler>:
 80003bc:	e7fe      	b.n	80003bc <ADC1_2_IRQHandler>
	...

080003c0 <Enable_NVIC>:
 80003c0:	b480      	push	{r7}
 80003c2:	b083      	sub	sp, #12
 80003c4:	af00      	add	r7, sp, #0
 80003c6:	4603      	mov	r3, r0
 80003c8:	80fb      	strh	r3, [r7, #6]
 80003ca:	88fb      	ldrh	r3, [r7, #6]
 80003cc:	2b0f      	cmp	r3, #15
 80003ce:	d854      	bhi.n	800047a <Enable_NVIC+0xba>
 80003d0:	a201      	add	r2, pc, #4	; (adr r2, 80003d8 <Enable_NVIC+0x18>)
 80003d2:	f852 f023 	ldr.w	pc, [r2, r3, lsl #2]
 80003d6:	bf00      	nop
 80003d8:	08000419 	stmdaeq	r0, {r0, r3, r4, sl}
 80003dc:	08000427 	stmdaeq	r0, {r0, r1, r2, r5, sl}
 80003e0:	08000435 	stmdaeq	r0, {r0, r2, r4, r5, sl}
 80003e4:	08000443 	stmdaeq	r0, {r0, r1, r6, sl}
 80003e8:	08000451 	stmdaeq	r0, {r0, r4, r6, sl}
 80003ec:	0800045f 	stmdaeq	r0, {r0, r1, r2, r3, r4, r6, sl}
 80003f0:	0800045f 	stmdaeq	r0, {r0, r1, r2, r3, r4, r6, sl}
 80003f4:	0800045f 	stmdaeq	r0, {r0, r1, r2, r3, r4, r6, sl}
 80003f8:	0800045f 	stmdaeq	r0, {r0, r1, r2, r3, r4, r6, sl}
 80003fc:	0800045f 	stmdaeq	r0, {r0, r1, r2, r3, r4, r6, sl}
 8000400:	0800046d 	stmdaeq	r0, {r0, r2, r3, r5, r6, sl}
 8000404:	0800046d 	stmdaeq	r0, {r0, r2, r3, r5, r6, sl}
 8000408:	0800046d 	stmdaeq	r0, {r0, r2, r3, r5, r6, sl}
 800040c:	0800046d 	stmdaeq	r0, {r0, r2, r3, r5, r6, sl}
 8000410:	0800046d 	stmdaeq	r0, {r0, r2, r3, r5, r6, sl}
 8000414:	0800046d 	stmdaeq	r0, {r0, r2, r3, r5, r6, sl}
 8000418:	4b1a      	ldr	r3, [pc, #104]	; (8000484 <Enable_NVIC+0xc4>)
 800041a:	681b      	ldr	r3, [r3, #0]
 800041c:	4a19      	ldr	r2, [pc, #100]	; (8000484 <Enable_NVIC+0xc4>)
 800041e:	f043 0340 	orr.w	r3, r3, #64	; 0x40
 8000422:	6013      	str	r3, [r2, #0]
 8000424:	e029      	b.n	800047a <Enable_NVIC+0xba>
 8000426:	4b17      	ldr	r3, [pc, #92]	; (8000484 <Enable_NVIC+0xc4>)
 8000428:	681b      	ldr	r3, [r3, #0]
 800042a:	4a16      	ldr	r2, [pc, #88]	; (8000484 <Enable_NVIC+0xc4>)
 800042c:	f043 0380 	orr.w	r3, r3, #128	; 0x80
 8000430:	6013      	str	r3, [r2, #0]
 8000432:	e022      	b.n	800047a <Enable_NVIC+0xba>
 8000434:	4b13      	ldr	r3, [pc, #76]	; (8000484 <Enable_NVIC+0xc4>)
 8000436:	681b      	ldr	r3, [r3, #0]
 8000438:	4a12      	ldr	r2, [pc, #72]	; (8000484 <Enable_NVIC+0xc4>)
 800043a:	f443 7380 	orr.w	r3, r3, #256	; 0x100
 800043e:	6013      	str	r3, [r2, #0]
 8000440:	e01b      	b.n	800047a <Enable_NVIC+0xba>
 8000442:	4b10      	ldr	r3, [pc, #64]	; (8000484 <Enable_NVIC+0xc4>)
 8000444:	681b      	ldr	r3, [r3, #0]
 8000446:	4a0f      	ldr	r2, [pc, #60]	; (8000484 <Enable_NVIC+0xc4>)
 8000448:	f443 7300 	orr.w	r3, r3, #512	; 0x200
 800044c:	6013      	str	r3, [r2, #0]
 800044e:	e014      	b.n	800047a <Enable_NVIC+0xba>
 8000450:	4b0c      	ldr	r3, [pc, #48]	; (8000484 <Enable_NVIC+0xc4>)
 8000452:	681b      	ldr	r3, [r3, #0]
 8000454:	4a0b      	ldr	r2, [pc, #44]	; (8000484 <Enable_NVIC+0xc4>)
 8000456:	f443 6380 	orr.w	r3, r3, #1024	; 0x400
 800045a:	6013      	str	r3, [r2, #0]
 800045c:	e00d      	b.n	800047a <Enable_NVIC+0xba>
 800045e:	4b09      	ldr	r3, [pc, #36]	; (8000484 <Enable_NVIC+0xc4>)
 8000460:	681b      	ldr	r3, [r3, #0]
 8000462:	4a08      	ldr	r2, [pc, #32]	; (8000484 <Enable_NVIC+0xc4>)
 8000464:	f443 0300 	orr.w	r3, r3, #8388608	; 0x800000
 8000468:	6013      	str	r3, [r2, #0]
 800046a:	e006      	b.n	800047a <Enable_NVIC+0xba>
 800046c:	4b06      	ldr	r3, [pc, #24]	; (8000488 <Enable_NVIC+0xc8>)
 800046e:	681b      	ldr	r3, [r3, #0]
 8000470:	4a05      	ldr	r2, [pc, #20]	; (8000488 <Enable_NVIC+0xc8>)
 8000472:	f443 7380 	orr.w	r3, r3, #256	; 0x100
 8000476:	6013      	str	r3, [r2, #0]
 8000478:	bf00      	nop
 800047a:	bf00      	nop
 800047c:	370c      	adds	r7, #12
 800047e:	46bd      	mov	sp, r7
 8000480:	bc80      	pop	{r7}
 8000482:	4770      	bx	lr
 8000484:	e000e100 	and	lr, r0, r0, lsl #2
 8000488:	e000e104 	and	lr, r0, r4, lsl #2

0800048c <Disable_NVIC>:
 800048c:	b480      	push	{r7}
 800048e:	b083      	sub	sp, #12
 8000490:	af00      	add	r7, sp, #0
 8000492:	4603      	mov	r3, r0
 8000494:	80fb      	strh	r3, [r7, #6]
 8000496:	88fb      	ldrh	r3, [r7, #6]
 8000498:	2b0f      	cmp	r3, #15
 800049a:	d854      	bhi.n	8000546 <Disable_NVIC+0xba>
 800049c:	a201      	add	r2, pc, #4	; (adr r2, 80004a4 <Disable_NVIC+0x18>)
 800049e:	f852 f023 	ldr.w	pc, [r2, r3, lsl #2]
 80004a2:	bf00      	nop
 80004a4:	080004e5 	stmdaeq	r0, {r0, r2, r5, r6, r7, sl}
 80004a8:	080004f3 	stmdaeq	r0, {r0, r1, r4, r5, r6, r7, sl}
 80004ac:	08000501 	stmdaeq	r0, {r0, r8, sl}
 80004b0:	0800050f 	stmdaeq	r0, {r0, r1, r2, r3, r8, sl}
 80004b4:	0800051d 	stmdaeq	r0, {r0, r2, r3, r4, r8, sl}
 80004b8:	0800052b 	stmdaeq	r0, {r0, r1, r3, r5, r8, sl}
 80004bc:	0800052b 	stmdaeq	r0, {r0, r1, r3, r5, r8, sl}
 80004c0:	0800052b 	stmdaeq	r0, {r0, r1, r3, r5, r8, sl}
 80004c4:	0800052b 	stmdaeq	r0, {r0, r1, r3, r5, r8, sl}
 80004c8:	0800052b 	stmdaeq	r0, {r0, r1, r3, r5, r8, sl}
 80004cc:	08000539 	stmdaeq	r0, {r0, r3, r4, r5, r8, sl}
 80004d0:	08000539 	stmdaeq	r0, {r0, r3, r4, r5, r8, sl}
 80004d4:	08000539 	stmdaeq	r0, {r0, r3, r4, r5, r8, sl}
 80004d8:	08000539 	stmdaeq	r0, {r0, r3, r4, r5, r8, sl}
 80004dc:	08000539 	stmdaeq	r0, {r0, r3, r4, r5, r8, sl}
 80004e0:	08000539 	stmdaeq	r0, {r0, r3, r4, r5, r8, sl}
 80004e4:	4b1a      	ldr	r3, [pc, #104]	; (8000550 <Disable_NVIC+0xc4>)
 80004e6:	681b      	ldr	r3, [r3, #0]
 80004e8:	4a19      	ldr	r2, [pc, #100]	; (8000550 <Disable_NVIC+0xc4>)
 80004ea:	f043 0340 	orr.w	r3, r3, #64	; 0x40
 80004ee:	6013      	str	r3, [r2, #0]
 80004f0:	e029      	b.n	8000546 <Disable_NVIC+0xba>
 80004f2:	4b17      	ldr	r3, [pc, #92]	; (8000550 <Disable_NVIC+0xc4>)
 80004f4:	681b      	ldr	r3, [r3, #0]
 80004f6:	4a16      	ldr	r2, [pc, #88]	; (8000550 <Disable_NVIC+0xc4>)
 80004f8:	f043 0380 	orr.w	r3, r3, #128	; 0x80
 80004fc:	6013      	str	r3, [r2, #0]
 80004fe:	e022      	b.n	8000546 <Disable_NVIC+0xba>
 8000500:	4b13      	ldr	r3, [pc, #76]	; (8000550 <Disable_NVIC+0xc4>)
 8000502:	681b      	ldr	r3, [r3, #0]
 8000504:	4a12      	ldr	r2, [pc, #72]	; (8000550 <Disable_NVIC+0xc4>)
 8000506:	f443 7380 	orr.w	r3, r3, #256	; 0x100
 800050a:	6013      	str	r3, [r2, #0]
 800050c:	e01b      	b.n	8000546 <Disable_NVIC+0xba>
 800050e:	4b10      	ldr	r3, [pc, #64]	; (8000550 <Disable_NVIC+0xc4>)
 8000510:	681b      	ldr	r3, [r3, #0]
 8000512:	4a0f      	ldr	r2, [pc, #60]	; (8000550 <Disable_NVIC+0xc4>)
 8000514:	f443 7300 	orr.w	r3, r3, #512	; 0x200
 8000518:	6013      	str	r3, [r2, #0]
 800051a:	e014      	b.n	8000546 <Disable_NVIC+0xba>
 800051c:	4b0c      	ldr	r3, [pc, #48]	; (8000550 <Disable_NVIC+0xc4>)
 800051e:	681b      	ldr	r3, [r3, #0]
 8000520:	4a0b      	ldr	r2, [pc, #44]	; (8000550 <Disable_NVIC+0xc4>)
 8000522:	f443 6380 	orr.w	r3, r3, #1024	; 0x400
 8000526:	6013      	str	r3, [r2, #0]
 8000528:	e00d      	b.n	8000546 <Disable_NVIC+0xba>
 800052a:	4b09      	ldr	r3, [pc, #36]	; (8000550 <Disable_NVIC+0xc4>)
 800052c:	681b      	ldr	r3, [r3, #0]
 800052e:	4a08      	ldr	r2, [pc, #32]	; (8000550 <Disable_NVIC+0xc4>)
 8000530:	f443 0300 	orr.w	r3, r3, #8388608	; 0x800000
 8000534:	6013      	str	r3, [r2, #0]
 8000536:	e006      	b.n	8000546 <Disable_NVIC+0xba>
 8000538:	4b06      	ldr	r3, [pc, #24]	; (8000554 <Disable_NVIC+0xc8>)
 800053a:	681b      	ldr	r3, [r3, #0]
 800053c:	4a05      	ldr	r2, [pc, #20]	; (8000554 <Disable_NVIC+0xc8>)
 800053e:	f443 7380 	orr.w	r3, r3, #256	; 0x100
 8000542:	6013      	str	r3, [r2, #0]
 8000544:	bf00      	nop
 8000546:	bf00      	nop
 8000548:	370c      	adds	r7, #12
 800054a:	46bd      	mov	sp, r7
 800054c:	bc80      	pop	{r7}
 800054e:	4770      	bx	lr
 8000550:	e000e180 	and	lr, r0, r0, lsl #3
 8000554:	e000e184 	and	lr, r0, r4, lsl #3

08000558 <Update_EXTI>:
 8000558:	b580      	push	{r7, lr}
 800055a:	b084      	sub	sp, #16
 800055c:	af00      	add	r7, sp, #0
 800055e:	6078      	str	r0, [r7, #4]
 8000560:	687b      	ldr	r3, [r7, #4]
 8000562:	891b      	ldrh	r3, [r3, #8]
 8000564:	813b      	strh	r3, [r7, #8]
 8000566:	2308      	movs	r3, #8
 8000568:	72bb      	strb	r3, [r7, #10]
 800056a:	687b      	ldr	r3, [r7, #4]
 800056c:	685b      	ldr	r3, [r3, #4]
 800056e:	f107 0208 	add.w	r2, r7, #8
 8000572:	4611      	mov	r1, r2
 8000574:	4618      	mov	r0, r3
 8000576:	f000 fa5a 	bl	8000a2e <MCAL_GPIO_Init>
 800057a:	687b      	ldr	r3, [r7, #4]
 800057c:	881b      	ldrh	r3, [r3, #0]
 800057e:	089b      	lsrs	r3, r3, #2
 8000580:	b29b      	uxth	r3, r3
 8000582:	73fb      	strb	r3, [r7, #15]
 8000584:	687b      	ldr	r3, [r7, #4]
 8000586:	881b      	ldrh	r3, [r3, #0]
 8000588:	b2db      	uxtb	r3, r3
 800058a:	f003 0303 	and.w	r3, r3, #3
 800058e:	b2db      	uxtb	r3, r3
 8000590:	009b      	lsls	r3, r3, #2
 8000592:	73bb      	strb	r3, [r7, #14]
 8000594:	4a5f      	ldr	r2, [pc, #380]	; (8000714 <Update_EXTI+0x1bc>)
 8000596:	7bfb      	ldrb	r3, [r7, #15]
 8000598:	3302      	adds	r3, #2
 800059a:	f852 2023 	ldr.w	r2, [r2, r3, lsl #2]
 800059e:	7bbb      	ldrb	r3, [r7, #14]
 80005a0:	210f      	movs	r1, #15
 80005a2:	fa01 f303 	lsl.w	r3, r1, r3
 80005a6:	43db      	mvns	r3, r3
 80005a8:	4618      	mov	r0, r3
 80005aa:	495a      	ldr	r1, [pc, #360]	; (8000714 <Update_EXTI+0x1bc>)
 80005ac:	7bfb      	ldrb	r3, [r7, #15]
 80005ae:	4002      	ands	r2, r0
 80005b0:	3302      	adds	r3, #2
 80005b2:	f841 2023 	str.w	r2, [r1, r3, lsl #2]
 80005b6:	4a57      	ldr	r2, [pc, #348]	; (8000714 <Update_EXTI+0x1bc>)
 80005b8:	7bfb      	ldrb	r3, [r7, #15]
 80005ba:	3302      	adds	r3, #2
 80005bc:	f852 2023 	ldr.w	r2, [r2, r3, lsl #2]
 80005c0:	687b      	ldr	r3, [r7, #4]
 80005c2:	685b      	ldr	r3, [r3, #4]
 80005c4:	4954      	ldr	r1, [pc, #336]	; (8000718 <Update_EXTI+0x1c0>)
 80005c6:	428b      	cmp	r3, r1
 80005c8:	d016      	beq.n	80005f8 <Update_EXTI+0xa0>
 80005ca:	687b      	ldr	r3, [r7, #4]
 80005cc:	685b      	ldr	r3, [r3, #4]
 80005ce:	4953      	ldr	r1, [pc, #332]	; (800071c <Update_EXTI+0x1c4>)
 80005d0:	428b      	cmp	r3, r1
 80005d2:	d00f      	beq.n	80005f4 <Update_EXTI+0x9c>
 80005d4:	687b      	ldr	r3, [r7, #4]
 80005d6:	685b      	ldr	r3, [r3, #4]
 80005d8:	4951      	ldr	r1, [pc, #324]	; (8000720 <Update_EXTI+0x1c8>)
 80005da:	428b      	cmp	r3, r1
 80005dc:	d008      	beq.n	80005f0 <Update_EXTI+0x98>
 80005de:	687b      	ldr	r3, [r7, #4]
 80005e0:	685b      	ldr	r3, [r3, #4]
 80005e2:	4950      	ldr	r1, [pc, #320]	; (8000724 <Update_EXTI+0x1cc>)
 80005e4:	428b      	cmp	r3, r1
 80005e6:	d101      	bne.n	80005ec <Update_EXTI+0x94>
 80005e8:	2303      	movs	r3, #3
 80005ea:	e006      	b.n	80005fa <Update_EXTI+0xa2>
 80005ec:	2300      	movs	r3, #0
 80005ee:	e004      	b.n	80005fa <Update_EXTI+0xa2>
 80005f0:	2302      	movs	r3, #2
 80005f2:	e002      	b.n	80005fa <Update_EXTI+0xa2>
 80005f4:	2301      	movs	r3, #1
 80005f6:	e000      	b.n	80005fa <Update_EXTI+0xa2>
 80005f8:	2300      	movs	r3, #0
 80005fa:	7bb9      	ldrb	r1, [r7, #14]
 80005fc:	408b      	lsls	r3, r1
 80005fe:	4618      	mov	r0, r3
 8000600:	4944      	ldr	r1, [pc, #272]	; (8000714 <Update_EXTI+0x1bc>)
 8000602:	7bfb      	ldrb	r3, [r7, #15]
 8000604:	4302      	orrs	r2, r0
 8000606:	3302      	adds	r3, #2
 8000608:	f841 2023 	str.w	r2, [r1, r3, lsl #2]
 800060c:	4b46      	ldr	r3, [pc, #280]	; (8000728 <Update_EXTI+0x1d0>)
 800060e:	689b      	ldr	r3, [r3, #8]
 8000610:	687a      	ldr	r2, [r7, #4]
 8000612:	8812      	ldrh	r2, [r2, #0]
 8000614:	4611      	mov	r1, r2
 8000616:	2201      	movs	r2, #1
 8000618:	408a      	lsls	r2, r1
 800061a:	43d2      	mvns	r2, r2
 800061c:	4611      	mov	r1, r2
 800061e:	4a42      	ldr	r2, [pc, #264]	; (8000728 <Update_EXTI+0x1d0>)
 8000620:	400b      	ands	r3, r1
 8000622:	6093      	str	r3, [r2, #8]
 8000624:	4b40      	ldr	r3, [pc, #256]	; (8000728 <Update_EXTI+0x1d0>)
 8000626:	68db      	ldr	r3, [r3, #12]
 8000628:	687a      	ldr	r2, [r7, #4]
 800062a:	8812      	ldrh	r2, [r2, #0]
 800062c:	4611      	mov	r1, r2
 800062e:	2201      	movs	r2, #1
 8000630:	408a      	lsls	r2, r1
 8000632:	43d2      	mvns	r2, r2
 8000634:	4611      	mov	r1, r2
 8000636:	4a3c      	ldr	r2, [pc, #240]	; (8000728 <Update_EXTI+0x1d0>)
 8000638:	400b      	ands	r3, r1
 800063a:	60d3      	str	r3, [r2, #12]
 800063c:	687b      	ldr	r3, [r7, #4]
 800063e:	7b1b      	ldrb	r3, [r3, #12]
 8000640:	2b00      	cmp	r3, #0
 8000642:	d10b      	bne.n	800065c <Update_EXTI+0x104>
 8000644:	4b38      	ldr	r3, [pc, #224]	; (8000728 <Update_EXTI+0x1d0>)
 8000646:	689b      	ldr	r3, [r3, #8]
 8000648:	687a      	ldr	r2, [r7, #4]
 800064a:	8812      	ldrh	r2, [r2, #0]
 800064c:	4611      	mov	r1, r2
 800064e:	2201      	movs	r2, #1
 8000650:	408a      	lsls	r2, r1
 8000652:	4611      	mov	r1, r2
 8000654:	4a34      	ldr	r2, [pc, #208]	; (8000728 <Update_EXTI+0x1d0>)
 8000656:	430b      	orrs	r3, r1
 8000658:	6093      	str	r3, [r2, #8]
 800065a:	e029      	b.n	80006b0 <Update_EXTI+0x158>
 800065c:	687b      	ldr	r3, [r7, #4]
 800065e:	7b1b      	ldrb	r3, [r3, #12]
 8000660:	2b01      	cmp	r3, #1
 8000662:	d10b      	bne.n	800067c <Update_EXTI+0x124>
 8000664:	4b30      	ldr	r3, [pc, #192]	; (8000728 <Update_EXTI+0x1d0>)
 8000666:	68db      	ldr	r3, [r3, #12]
 8000668:	687a      	ldr	r2, [r7, #4]
 800066a:	8812      	ldrh	r2, [r2, #0]
 800066c:	4611      	mov	r1, r2
 800066e:	2201      	movs	r2, #1
 8000670:	408a      	lsls	r2, r1
 8000672:	4611      	mov	r1, r2
 8000674:	4a2c      	ldr	r2, [pc, #176]	; (8000728 <Update_EXTI+0x1d0>)
 8000676:	430b      	orrs	r3, r1
 8000678:	60d3      	str	r3, [r2, #12]
 800067a:	e019      	b.n	80006b0 <Update_EXTI+0x158>
 800067c:	687b      	ldr	r3, [r7, #4]
 800067e:	7b1b      	ldrb	r3, [r3, #12]
 8000680:	2b02      	cmp	r3, #2
 8000682:	d115      	bne.n	80006b0 <Update_EXTI+0x158>
 8000684:	4b28      	ldr	r3, [pc, #160]	; (8000728 <Update_EXTI+0x1d0>)
 8000686:	689b      	ldr	r3, [r3, #8]
 8000688:	687a      	ldr	r2, [r7, #4]
 800068a:	8812      	ldrh	r2, [r2, #0]
 800068c:	4611      	mov	r1, r2
 800068e:	2201      	movs	r2, #1
 8000690:	408a      	lsls	r2, r1
 8000692:	4611      	mov	r1, r2
 8000694:	4a24      	ldr	r2, [pc, #144]	; (8000728 <Update_EXTI+0x1d0>)
 8000696:	430b      	orrs	r3, r1
 8000698:	6093      	str	r3, [r2, #8]
 800069a:	4b23      	ldr	r3, [pc, #140]	; (8000728 <Update_EXTI+0x1d0>)
 800069c:	68db      	ldr	r3, [r3, #12]
 800069e:	687a      	ldr	r2, [r7, #4]
 80006a0:	8812      	ldrh	r2, [r2, #0]
 80006a2:	4611      	mov	r1, r2
 80006a4:	2201      	movs	r2, #1
 80006a6:	408a      	lsls	r2, r1
 80006a8:	4611      	mov	r1, r2
 80006aa:	4a1f      	ldr	r2, [pc, #124]	; (8000728 <Update_EXTI+0x1d0>)
 80006ac:	430b      	orrs	r3, r1
 80006ae:	60d3      	str	r3, [r2, #12]
 80006b0:	687b      	ldr	r3, [r7, #4]
 80006b2:	881b      	ldrh	r3, [r3, #0]
 80006b4:	4619      	mov	r1, r3
 80006b6:	687b      	ldr	r3, [r7, #4]
 80006b8:	691b      	ldr	r3, [r3, #16]
 80006ba:	4a1c      	ldr	r2, [pc, #112]	; (800072c <Update_EXTI+0x1d4>)
 80006bc:	f842 3021 	str.w	r3, [r2, r1, lsl #2]
 80006c0:	687b      	ldr	r3, [r7, #4]
 80006c2:	7b5b      	ldrb	r3, [r3, #13]
 80006c4:	2b01      	cmp	r3, #1
 80006c6:	d110      	bne.n	80006ea <Update_EXTI+0x192>
 80006c8:	4b17      	ldr	r3, [pc, #92]	; (8000728 <Update_EXTI+0x1d0>)
 80006ca:	681b      	ldr	r3, [r3, #0]
 80006cc:	687a      	ldr	r2, [r7, #4]
 80006ce:	8812      	ldrh	r2, [r2, #0]
 80006d0:	4611      	mov	r1, r2
 80006d2:	2201      	movs	r2, #1
 80006d4:	408a      	lsls	r2, r1
 80006d6:	4611      	mov	r1, r2
 80006d8:	4a13      	ldr	r2, [pc, #76]	; (8000728 <Update_EXTI+0x1d0>)
 80006da:	430b      	orrs	r3, r1
 80006dc:	6013      	str	r3, [r2, #0]
 80006de:	687b      	ldr	r3, [r7, #4]
 80006e0:	881b      	ldrh	r3, [r3, #0]
 80006e2:	4618      	mov	r0, r3
 80006e4:	f7ff fe6c 	bl	80003c0 <Enable_NVIC>
 80006e8:	e010      	b.n	800070c <Update_EXTI+0x1b4>
 80006ea:	4b0f      	ldr	r3, [pc, #60]	; (8000728 <Update_EXTI+0x1d0>)
 80006ec:	681b      	ldr	r3, [r3, #0]
 80006ee:	687a      	ldr	r2, [r7, #4]
 80006f0:	8812      	ldrh	r2, [r2, #0]
 80006f2:	4611      	mov	r1, r2
 80006f4:	2201      	movs	r2, #1
 80006f6:	408a      	lsls	r2, r1
 80006f8:	43d2      	mvns	r2, r2
 80006fa:	4611      	mov	r1, r2
 80006fc:	4a0a      	ldr	r2, [pc, #40]	; (8000728 <Update_EXTI+0x1d0>)
 80006fe:	400b      	ands	r3, r1
 8000700:	6013      	str	r3, [r2, #0]
 8000702:	687b      	ldr	r3, [r7, #4]
 8000704:	881b      	ldrh	r3, [r3, #0]
 8000706:	4618      	mov	r0, r3
 8000708:	f7ff fec0 	bl	800048c <Disable_NVIC>
 800070c:	bf00      	nop
 800070e:	3710      	adds	r7, #16
 8000710:	46bd      	mov	sp, r7
 8000712:	bd80      	pop	{r7, pc}
 8000714:	40010000 	andmi	r0, r1, r0
 8000718:	40010800 	andmi	r0, r1, r0, lsl #16
 800071c:	40010c00 	andmi	r0, r1, r0, lsl #24
 8000720:	40011000 	andmi	r1, r1, r0
 8000724:	40011400 	andmi	r1, r1, r0, lsl #8
 8000728:	40010400 	andmi	r0, r1, r0, lsl #8
 800072c:	2000003c 	andcs	r0, r0, ip, lsr r0

08000730 <MCAL_EXTI_GPIO_Init>:
 8000730:	b580      	push	{r7, lr}
 8000732:	b082      	sub	sp, #8
 8000734:	af00      	add	r7, sp, #0
 8000736:	6078      	str	r0, [r7, #4]
 8000738:	6878      	ldr	r0, [r7, #4]
 800073a:	f7ff ff0d 	bl	8000558 <Update_EXTI>
 800073e:	bf00      	nop
 8000740:	3708      	adds	r7, #8
 8000742:	46bd      	mov	sp, r7
 8000744:	bd80      	pop	{r7, pc}
	...

08000748 <EXTI0_IRQHandler>:
 8000748:	b580      	push	{r7, lr}
 800074a:	af00      	add	r7, sp, #0
 800074c:	4b05      	ldr	r3, [pc, #20]	; (8000764 <EXTI0_IRQHandler+0x1c>)
 800074e:	695b      	ldr	r3, [r3, #20]
 8000750:	4a04      	ldr	r2, [pc, #16]	; (8000764 <EXTI0_IRQHandler+0x1c>)
 8000752:	f043 0301 	orr.w	r3, r3, #1
 8000756:	6153      	str	r3, [r2, #20]
 8000758:	4b03      	ldr	r3, [pc, #12]	; (8000768 <EXTI0_IRQHandler+0x20>)
 800075a:	681b      	ldr	r3, [r3, #0]
 800075c:	4798      	blx	r3
 800075e:	bf00      	nop
 8000760:	bd80      	pop	{r7, pc}
 8000762:	bf00      	nop
 8000764:	40010400 	andmi	r0, r1, r0, lsl #8
 8000768:	2000003c 	andcs	r0, r0, ip, lsr r0

0800076c <EXTI1_IRQHandler>:
 800076c:	b580      	push	{r7, lr}
 800076e:	af00      	add	r7, sp, #0
 8000770:	4b05      	ldr	r3, [pc, #20]	; (8000788 <EXTI1_IRQHandler+0x1c>)
 8000772:	695b      	ldr	r3, [r3, #20]
 8000774:	4a04      	ldr	r2, [pc, #16]	; (8000788 <EXTI1_IRQHandler+0x1c>)
 8000776:	f043 0302 	orr.w	r3, r3, #2
 800077a:	6153      	str	r3, [r2, #20]
 800077c:	4b03      	ldr	r3, [pc, #12]	; (800078c <EXTI1_IRQHandler+0x20>)
 800077e:	685b      	ldr	r3, [r3, #4]
 8000780:	4798      	blx	r3
 8000782:	bf00      	nop
 8000784:	bd80      	pop	{r7, pc}
 8000786:	bf00      	nop
 8000788:	40010400 	andmi	r0, r1, r0, lsl #8
 800078c:	2000003c 	andcs	r0, r0, ip, lsr r0

08000790 <EXTI2_IRQHandler>:
 8000790:	b580      	push	{r7, lr}
 8000792:	af00      	add	r7, sp, #0
 8000794:	4b05      	ldr	r3, [pc, #20]	; (80007ac <EXTI2_IRQHandler+0x1c>)
 8000796:	695b      	ldr	r3, [r3, #20]
 8000798:	4a04      	ldr	r2, [pc, #16]	; (80007ac <EXTI2_IRQHandler+0x1c>)
 800079a:	f043 0304 	orr.w	r3, r3, #4
 800079e:	6153      	str	r3, [r2, #20]
 80007a0:	4b03      	ldr	r3, [pc, #12]	; (80007b0 <EXTI2_IRQHandler+0x20>)
 80007a2:	689b      	ldr	r3, [r3, #8]
 80007a4:	4798      	blx	r3
 80007a6:	bf00      	nop
 80007a8:	bd80      	pop	{r7, pc}
 80007aa:	bf00      	nop
 80007ac:	40010400 	andmi	r0, r1, r0, lsl #8
 80007b0:	2000003c 	andcs	r0, r0, ip, lsr r0

080007b4 <EXTI3_IRQHandler>:
 80007b4:	b580      	push	{r7, lr}
 80007b6:	af00      	add	r7, sp, #0
 80007b8:	4b05      	ldr	r3, [pc, #20]	; (80007d0 <EXTI3_IRQHandler+0x1c>)
 80007ba:	695b      	ldr	r3, [r3, #20]
 80007bc:	4a04      	ldr	r2, [pc, #16]	; (80007d0 <EXTI3_IRQHandler+0x1c>)
 80007be:	f043 0308 	orr.w	r3, r3, #8
 80007c2:	6153      	str	r3, [r2, #20]
 80007c4:	4b03      	ldr	r3, [pc, #12]	; (80007d4 <EXTI3_IRQHandler+0x20>)
 80007c6:	68db      	ldr	r3, [r3, #12]
 80007c8:	4798      	blx	r3
 80007ca:	bf00      	nop
 80007cc:	bd80      	pop	{r7, pc}
 80007ce:	bf00      	nop
 80007d0:	40010400 	andmi	r0, r1, r0, lsl #8
 80007d4:	2000003c 	andcs	r0, r0, ip, lsr r0

080007d8 <EXTI4_IRQHandler>:
 80007d8:	b580      	push	{r7, lr}
 80007da:	af00      	add	r7, sp, #0
 80007dc:	4b05      	ldr	r3, [pc, #20]	; (80007f4 <EXTI4_IRQHandler+0x1c>)
 80007de:	695b      	ldr	r3, [r3, #20]
 80007e0:	4a04      	ldr	r2, [pc, #16]	; (80007f4 <EXTI4_IRQHandler+0x1c>)
 80007e2:	f043 0310 	orr.w	r3, r3, #16
 80007e6:	6153      	str	r3, [r2, #20]
 80007e8:	4b03      	ldr	r3, [pc, #12]	; (80007f8 <EXTI4_IRQHandler+0x20>)
 80007ea:	691b      	ldr	r3, [r3, #16]
 80007ec:	4798      	blx	r3
 80007ee:	bf00      	nop
 80007f0:	bd80      	pop	{r7, pc}
 80007f2:	bf00      	nop
 80007f4:	40010400 	andmi	r0, r1, r0, lsl #8
 80007f8:	2000003c 	andcs	r0, r0, ip, lsr r0

080007fc <EXTI9_5_IRQHandler>:
 80007fc:	b580      	push	{r7, lr}
 80007fe:	af00      	add	r7, sp, #0
 8000800:	4b26      	ldr	r3, [pc, #152]	; (800089c <EXTI9_5_IRQHandler+0xa0>)
 8000802:	695b      	ldr	r3, [r3, #20]
 8000804:	f003 0320 	and.w	r3, r3, #32
 8000808:	2b00      	cmp	r3, #0
 800080a:	d008      	beq.n	800081e <EXTI9_5_IRQHandler+0x22>
 800080c:	4b23      	ldr	r3, [pc, #140]	; (800089c <EXTI9_5_IRQHandler+0xa0>)
 800080e:	695b      	ldr	r3, [r3, #20]
 8000810:	4a22      	ldr	r2, [pc, #136]	; (800089c <EXTI9_5_IRQHandler+0xa0>)
 8000812:	f043 0320 	orr.w	r3, r3, #32
 8000816:	6153      	str	r3, [r2, #20]
 8000818:	4b21      	ldr	r3, [pc, #132]	; (80008a0 <EXTI9_5_IRQHandler+0xa4>)
 800081a:	695b      	ldr	r3, [r3, #20]
 800081c:	4798      	blx	r3
 800081e:	4b1f      	ldr	r3, [pc, #124]	; (800089c <EXTI9_5_IRQHandler+0xa0>)
 8000820:	695b      	ldr	r3, [r3, #20]
 8000822:	f003 0340 	and.w	r3, r3, #64	; 0x40
 8000826:	2b00      	cmp	r3, #0
 8000828:	d008      	beq.n	800083c <EXTI9_5_IRQHandler+0x40>
 800082a:	4b1c      	ldr	r3, [pc, #112]	; (800089c <EXTI9_5_IRQHandler+0xa0>)
 800082c:	695b      	ldr	r3, [r3, #20]
 800082e:	4a1b      	ldr	r2, [pc, #108]	; (800089c <EXTI9_5_IRQHandler+0xa0>)
 8000830:	f043 0340 	orr.w	r3, r3, #64	; 0x40
 8000834:	6153      	str	r3, [r2, #20]
 8000836:	4b1a      	ldr	r3, [pc, #104]	; (80008a0 <EXTI9_5_IRQHandler+0xa4>)
 8000838:	699b      	ldr	r3, [r3, #24]
 800083a:	4798      	blx	r3
 800083c:	4b17      	ldr	r3, [pc, #92]	; (800089c <EXTI9_5_IRQHandler+0xa0>)
 800083e:	695b      	ldr	r3, [r3, #20]
 8000840:	f003 0380 	and.w	r3, r3, #128	; 0x80
 8000844:	2b00      	cmp	r3, #0
 8000846:	d008      	beq.n	800085a <EXTI9_5_IRQHandler+0x5e>
 8000848:	4b14      	ldr	r3, [pc, #80]	; (800089c <EXTI9_5_IRQHandler+0xa0>)
 800084a:	695b      	ldr	r3, [r3, #20]
 800084c:	4a13      	ldr	r2, [pc, #76]	; (800089c <EXTI9_5_IRQHandler+0xa0>)
 800084e:	f043 0380 	orr.w	r3, r3, #128	; 0x80
 8000852:	6153      	str	r3, [r2, #20]
 8000854:	4b12      	ldr	r3, [pc, #72]	; (80008a0 <EXTI9_5_IRQHandler+0xa4>)
 8000856:	69db      	ldr	r3, [r3, #28]
 8000858:	4798      	blx	r3
 800085a:	4b10      	ldr	r3, [pc, #64]	; (800089c <EXTI9_5_IRQHandler+0xa0>)
 800085c:	695b      	ldr	r3, [r3, #20]
 800085e:	f403 7380 	and.w	r3, r3, #256	; 0x100
 8000862:	2b00      	cmp	r3, #0
 8000864:	d008      	beq.n	8000878 <EXTI9_5_IRQHandler+0x7c>
 8000866:	4b0d      	ldr	r3, [pc, #52]	; (800089c <EXTI9_5_IRQHandler+0xa0>)
 8000868:	695b      	ldr	r3, [r3, #20]
 800086a:	4a0c      	ldr	r2, [pc, #48]	; (800089c <EXTI9_5_IRQHandler+0xa0>)
 800086c:	f443 7380 	orr.w	r3, r3, #256	; 0x100
 8000870:	6153      	str	r3, [r2, #20]
 8000872:	4b0b      	ldr	r3, [pc, #44]	; (80008a0 <EXTI9_5_IRQHandler+0xa4>)
 8000874:	6a1b      	ldr	r3, [r3, #32]
 8000876:	4798      	blx	r3
 8000878:	4b08      	ldr	r3, [pc, #32]	; (800089c <EXTI9_5_IRQHandler+0xa0>)
 800087a:	695b      	ldr	r3, [r3, #20]
 800087c:	f403 7300 	and.w	r3, r3, #512	; 0x200
 8000880:	2b00      	cmp	r3, #0
 8000882:	d008      	beq.n	8000896 <EXTI9_5_IRQHandler+0x9a>
 8000884:	4b05      	ldr	r3, [pc, #20]	; (800089c <EXTI9_5_IRQHandler+0xa0>)
 8000886:	695b      	ldr	r3, [r3, #20]
 8000888:	4a04      	ldr	r2, [pc, #16]	; (800089c <EXTI9_5_IRQHandler+0xa0>)
 800088a:	f443 7300 	orr.w	r3, r3, #512	; 0x200
 800088e:	6153      	str	r3, [r2, #20]
 8000890:	4b03      	ldr	r3, [pc, #12]	; (80008a0 <EXTI9_5_IRQHandler+0xa4>)
 8000892:	6a5b      	ldr	r3, [r3, #36]	; 0x24
 8000894:	4798      	blx	r3
 8000896:	bf00      	nop
 8000898:	bd80      	pop	{r7, pc}
 800089a:	bf00      	nop
 800089c:	40010400 	andmi	r0, r1, r0, lsl #8
 80008a0:	2000003c 	andcs	r0, r0, ip, lsr r0

080008a4 <EXTI15_10_IRQHandler>:
 80008a4:	b580      	push	{r7, lr}
 80008a6:	af00      	add	r7, sp, #0
 80008a8:	4b2d      	ldr	r3, [pc, #180]	; (8000960 <EXTI15_10_IRQHandler+0xbc>)
 80008aa:	695b      	ldr	r3, [r3, #20]
 80008ac:	f403 6380 	and.w	r3, r3, #1024	; 0x400
 80008b0:	2b00      	cmp	r3, #0
 80008b2:	d008      	beq.n	80008c6 <EXTI15_10_IRQHandler+0x22>
 80008b4:	4b2a      	ldr	r3, [pc, #168]	; (8000960 <EXTI15_10_IRQHandler+0xbc>)
 80008b6:	695b      	ldr	r3, [r3, #20]
 80008b8:	4a29      	ldr	r2, [pc, #164]	; (8000960 <EXTI15_10_IRQHandler+0xbc>)
 80008ba:	f443 6380 	orr.w	r3, r3, #1024	; 0x400
 80008be:	6153      	str	r3, [r2, #20]
 80008c0:	4b28      	ldr	r3, [pc, #160]	; (8000964 <EXTI15_10_IRQHandler+0xc0>)
 80008c2:	6a9b      	ldr	r3, [r3, #40]	; 0x28
 80008c4:	4798      	blx	r3
 80008c6:	4b26      	ldr	r3, [pc, #152]	; (8000960 <EXTI15_10_IRQHandler+0xbc>)
 80008c8:	695b      	ldr	r3, [r3, #20]
 80008ca:	f403 6300 	and.w	r3, r3, #2048	; 0x800
 80008ce:	2b00      	cmp	r3, #0
 80008d0:	d008      	beq.n	80008e4 <EXTI15_10_IRQHandler+0x40>
 80008d2:	4b23      	ldr	r3, [pc, #140]	; (8000960 <EXTI15_10_IRQHandler+0xbc>)
 80008d4:	695b      	ldr	r3, [r3, #20]
 80008d6:	4a22      	ldr	r2, [pc, #136]	; (8000960 <EXTI15_10_IRQHandler+0xbc>)
 80008d8:	f443 6300 	orr.w	r3, r3, #2048	; 0x800
 80008dc:	6153      	str	r3, [r2, #20]
 80008de:	4b21      	ldr	r3, [pc, #132]	; (8000964 <EXTI15_10_IRQHandler+0xc0>)
 80008e0:	6adb      	ldr	r3, [r3, #44]	; 0x2c
 80008e2:	4798      	blx	r3
 80008e4:	4b1e      	ldr	r3, [pc, #120]	; (8000960 <EXTI15_10_IRQHandler+0xbc>)
 80008e6:	695b      	ldr	r3, [r3, #20]
 80008e8:	f403 5380 	and.w	r3, r3, #4096	; 0x1000
 80008ec:	2b00      	cmp	r3, #0
 80008ee:	d008      	beq.n	8000902 <EXTI15_10_IRQHandler+0x5e>
 80008f0:	4b1b      	ldr	r3, [pc, #108]	; (8000960 <EXTI15_10_IRQHandler+0xbc>)
 80008f2:	695b      	ldr	r3, [r3, #20]
 80008f4:	4a1a      	ldr	r2, [pc, #104]	; (8000960 <EXTI15_10_IRQHandler+0xbc>)
 80008f6:	f443 5380 	orr.w	r3, r3, #4096	; 0x1000
 80008fa:	6153      	str	r3, [r2, #20]
 80008fc:	4b19      	ldr	r3, [pc, #100]	; (8000964 <EXTI15_10_IRQHandler+0xc0>)
 80008fe:	6b1b      	ldr	r3, [r3, #48]	; 0x30
 8000900:	4798      	blx	r3
 8000902:	4b17      	ldr	r3, [pc, #92]	; (8000960 <EXTI15_10_IRQHandler+0xbc>)
 8000904:	695b      	ldr	r3, [r3, #20]
 8000906:	f403 5300 	and.w	r3, r3, #8192	; 0x2000
 800090a:	2b00      	cmp	r3, #0
 800090c:	d008      	beq.n	8000920 <EXTI15_10_IRQHandler+0x7c>
 800090e:	4b14      	ldr	r3, [pc, #80]	; (8000960 <EXTI15_10_IRQHandler+0xbc>)
 8000910:	695b      	ldr	r3, [r3, #20]
 8000912:	4a13      	ldr	r2, [pc, #76]	; (8000960 <EXTI15_10_IRQHandler+0xbc>)
 8000914:	f443 5300 	orr.w	r3, r3, #8192	; 0x2000
 8000918:	6153      	str	r3, [r2, #20]
 800091a:	4b12      	ldr	r3, [pc, #72]	; (8000964 <EXTI15_10_IRQHandler+0xc0>)
 800091c:	6b5b      	ldr	r3, [r3, #52]	; 0x34
 800091e:	4798      	blx	r3
 8000920:	4b0f      	ldr	r3, [pc, #60]	; (8000960 <EXTI15_10_IRQHandler+0xbc>)
 8000922:	695b      	ldr	r3, [r3, #20]
 8000924:	f403 4380 	and.w	r3, r3, #16384	; 0x4000
 8000928:	2b00      	cmp	r3, #0
 800092a:	d008      	beq.n	800093e <EXTI15_10_IRQHandler+0x9a>
 800092c:	4b0c      	ldr	r3, [pc, #48]	; (8000960 <EXTI15_10_IRQHandler+0xbc>)
 800092e:	695b      	ldr	r3, [r3, #20]
 8000930:	4a0b      	ldr	r2, [pc, #44]	; (8000960 <EXTI15_10_IRQHandler+0xbc>)
 8000932:	f443 4380 	orr.w	r3, r3, #16384	; 0x4000
 8000936:	6153      	str	r3, [r2, #20]
 8000938:	4b0a      	ldr	r3, [pc, #40]	; (8000964 <EXTI15_10_IRQHandler+0xc0>)
 800093a:	6b9b      	ldr	r3, [r3, #56]	; 0x38
 800093c:	4798      	blx	r3
 800093e:	4b08      	ldr	r3, [pc, #32]	; (8000960 <EXTI15_10_IRQHandler+0xbc>)
 8000940:	695b      	ldr	r3, [r3, #20]
 8000942:	f403 4300 	and.w	r3, r3, #32768	; 0x8000
 8000946:	2b00      	cmp	r3, #0
 8000948:	d008      	beq.n	800095c <EXTI15_10_IRQHandler+0xb8>
 800094a:	4b05      	ldr	r3, [pc, #20]	; (8000960 <EXTI15_10_IRQHandler+0xbc>)
 800094c:	695b      	ldr	r3, [r3, #20]
 800094e:	4a04      	ldr	r2, [pc, #16]	; (8000960 <EXTI15_10_IRQHandler+0xbc>)
 8000950:	f443 4300 	orr.w	r3, r3, #32768	; 0x8000
 8000954:	6153      	str	r3, [r2, #20]
 8000956:	4b03      	ldr	r3, [pc, #12]	; (8000964 <EXTI15_10_IRQHandler+0xc0>)
 8000958:	6bdb      	ldr	r3, [r3, #60]	; 0x3c
 800095a:	4798      	blx	r3
 800095c:	bf00      	nop
 800095e:	bd80      	pop	{r7, pc}
 8000960:	40010400 	andmi	r0, r1, r0, lsl #8
 8000964:	2000003c 	andcs	r0, r0, ip, lsr r0

08000968 <Get_CRLH_Position>:
 8000968:	b480      	push	{r7}
 800096a:	b083      	sub	sp, #12
 800096c:	af00      	add	r7, sp, #0
 800096e:	4603      	mov	r3, r0
 8000970:	80fb      	strh	r3, [r7, #6]
 8000972:	88fb      	ldrh	r3, [r7, #6]
 8000974:	2b80      	cmp	r3, #128	; 0x80
 8000976:	d042      	beq.n	80009fe <Get_CRLH_Position+0x96>
 8000978:	2b80      	cmp	r3, #128	; 0x80
 800097a:	dc11      	bgt.n	80009a0 <Get_CRLH_Position+0x38>
 800097c:	2b08      	cmp	r3, #8
 800097e:	d036      	beq.n	80009ee <Get_CRLH_Position+0x86>
 8000980:	2b08      	cmp	r3, #8
 8000982:	dc06      	bgt.n	8000992 <Get_CRLH_Position+0x2a>
 8000984:	2b02      	cmp	r3, #2
 8000986:	d02e      	beq.n	80009e6 <Get_CRLH_Position+0x7e>
 8000988:	2b04      	cmp	r3, #4
 800098a:	d02e      	beq.n	80009ea <Get_CRLH_Position+0x82>
 800098c:	2b01      	cmp	r3, #1
 800098e:	d028      	beq.n	80009e2 <Get_CRLH_Position+0x7a>
 8000990:	e047      	b.n	8000a22 <Get_CRLH_Position+0xba>
 8000992:	2b20      	cmp	r3, #32
 8000994:	d02f      	beq.n	80009f6 <Get_CRLH_Position+0x8e>
 8000996:	2b40      	cmp	r3, #64	; 0x40
 8000998:	d02f      	beq.n	80009fa <Get_CRLH_Position+0x92>
 800099a:	2b10      	cmp	r3, #16
 800099c:	d029      	beq.n	80009f2 <Get_CRLH_Position+0x8a>
 800099e:	e040      	b.n	8000a22 <Get_CRLH_Position+0xba>
 80009a0:	f5b3 6f00 	cmp.w	r3, #2048	; 0x800
 80009a4:	d033      	beq.n	8000a0e <Get_CRLH_Position+0xa6>
 80009a6:	f5b3 6f00 	cmp.w	r3, #2048	; 0x800
 80009aa:	dc09      	bgt.n	80009c0 <Get_CRLH_Position+0x58>
 80009ac:	f5b3 7f00 	cmp.w	r3, #512	; 0x200
 80009b0:	d029      	beq.n	8000a06 <Get_CRLH_Position+0x9e>
 80009b2:	f5b3 6f80 	cmp.w	r3, #1024	; 0x400
 80009b6:	d028      	beq.n	8000a0a <Get_CRLH_Position+0xa2>
 80009b8:	f5b3 7f80 	cmp.w	r3, #256	; 0x100
 80009bc:	d021      	beq.n	8000a02 <Get_CRLH_Position+0x9a>
 80009be:	e030      	b.n	8000a22 <Get_CRLH_Position+0xba>
 80009c0:	f5b3 5f00 	cmp.w	r3, #8192	; 0x2000
 80009c4:	d027      	beq.n	8000a16 <Get_CRLH_Position+0xae>
 80009c6:	f5b3 5f00 	cmp.w	r3, #8192	; 0x2000
 80009ca:	dc03      	bgt.n	80009d4 <Get_CRLH_Position+0x6c>
 80009cc:	f5b3 5f80 	cmp.w	r3, #4096	; 0x1000
 80009d0:	d01f      	beq.n	8000a12 <Get_CRLH_Position+0xaa>
 80009d2:	e026      	b.n	8000a22 <Get_CRLH_Position+0xba>
 80009d4:	f5b3 4f80 	cmp.w	r3, #16384	; 0x4000
 80009d8:	d01f      	beq.n	8000a1a <Get_CRLH_Position+0xb2>
 80009da:	f5b3 4f00 	cmp.w	r3, #32768	; 0x8000
 80009de:	d01e      	beq.n	8000a1e <Get_CRLH_Position+0xb6>
 80009e0:	e01f      	b.n	8000a22 <Get_CRLH_Position+0xba>
 80009e2:	2300      	movs	r3, #0
 80009e4:	e01e      	b.n	8000a24 <Get_CRLH_Position+0xbc>
 80009e6:	2304      	movs	r3, #4
 80009e8:	e01c      	b.n	8000a24 <Get_CRLH_Position+0xbc>
 80009ea:	2308      	movs	r3, #8
 80009ec:	e01a      	b.n	8000a24 <Get_CRLH_Position+0xbc>
 80009ee:	230c      	movs	r3, #12
 80009f0:	e018      	b.n	8000a24 <Get_CRLH_Position+0xbc>
 80009f2:	2310      	movs	r3, #16
 80009f4:	e016      	b.n	8000a24 <Get_CRLH_Position+0xbc>
 80009f6:	2314      	movs	r3, #20
 80009f8:	e014      	b.n	8000a24 <Get_CRLH_Position+0xbc>
 80009fa:	2318      	movs	r3, #24
 80009fc:	e012      	b.n	8000a24 <Get_CRLH_Position+0xbc>
 80009fe:	231c      	movs	r3, #28
 8000a00:	e010      	b.n	8000a24 <Get_CRLH_Position+0xbc>
 8000a02:	2300      	movs	r3, #0
 8000a04:	e00e      	b.n	8000a24 <Get_CRLH_Position+0xbc>
 8000a06:	2304      	movs	r3, #4
 8000a08:	e00c      	b.n	8000a24 <Get_CRLH_Position+0xbc>
 8000a0a:	2308      	movs	r3, #8
 8000a0c:	e00a      	b.n	8000a24 <Get_CRLH_Position+0xbc>
 8000a0e:	230c      	movs	r3, #12
 8000a10:	e008      	b.n	8000a24 <Get_CRLH_Position+0xbc>
 8000a12:	2310      	movs	r3, #16
 8000a14:	e006      	b.n	8000a24 <Get_CRLH_Position+0xbc>
 8000a16:	2314      	movs	r3, #20
 8000a18:	e004      	b.n	8000a24 <Get_CRLH_Position+0xbc>
 8000a1a:	2318      	movs	r3, #24
 8000a1c:	e002      	b.n	8000a24 <Get_CRLH_Position+0xbc>
 8000a1e:	231c      	movs	r3, #28
 8000a20:	e000      	b.n	8000a24 <Get_CRLH_Position+0xbc>
 8000a22:	2300      	movs	r3, #0
 8000a24:	4618      	mov	r0, r3
 8000a26:	370c      	adds	r7, #12
 8000a28:	46bd      	mov	sp, r7
 8000a2a:	bc80      	pop	{r7}
 8000a2c:	4770      	bx	lr

08000a2e <MCAL_GPIO_Init>:
 8000a2e:	b590      	push	{r4, r7, lr}
 8000a30:	b085      	sub	sp, #20
 8000a32:	af00      	add	r7, sp, #0
 8000a34:	6078      	str	r0, [r7, #4]
 8000a36:	6039      	str	r1, [r7, #0]
 8000a38:	2300      	movs	r3, #0
 8000a3a:	60bb      	str	r3, [r7, #8]
 8000a3c:	2300      	movs	r3, #0
 8000a3e:	73fb      	strb	r3, [r7, #15]
 8000a40:	683b      	ldr	r3, [r7, #0]
 8000a42:	881b      	ldrh	r3, [r3, #0]
 8000a44:	2bff      	cmp	r3, #255	; 0xff
 8000a46:	d801      	bhi.n	8000a4c <MCAL_GPIO_Init+0x1e>
 8000a48:	687b      	ldr	r3, [r7, #4]
 8000a4a:	e001      	b.n	8000a50 <MCAL_GPIO_Init+0x22>
 8000a4c:	687b      	ldr	r3, [r7, #4]
 8000a4e:	3304      	adds	r3, #4
 8000a50:	60bb      	str	r3, [r7, #8]
 8000a52:	683b      	ldr	r3, [r7, #0]
 8000a54:	881b      	ldrh	r3, [r3, #0]
 8000a56:	4618      	mov	r0, r3
 8000a58:	f7ff ff86 	bl	8000968 <Get_CRLH_Position>
 8000a5c:	4603      	mov	r3, r0
 8000a5e:	461a      	mov	r2, r3
 8000a60:	230f      	movs	r3, #15
 8000a62:	4093      	lsls	r3, r2
 8000a64:	43da      	mvns	r2, r3
 8000a66:	68bb      	ldr	r3, [r7, #8]
 8000a68:	681b      	ldr	r3, [r3, #0]
 8000a6a:	401a      	ands	r2, r3
 8000a6c:	68bb      	ldr	r3, [r7, #8]
 8000a6e:	601a      	str	r2, [r3, #0]
 8000a70:	683b      	ldr	r3, [r7, #0]
 8000a72:	789b      	ldrb	r3, [r3, #2]
 8000a74:	2b07      	cmp	r3, #7
 8000a76:	d00b      	beq.n	8000a90 <MCAL_GPIO_Init+0x62>
 8000a78:	683b      	ldr	r3, [r7, #0]
 8000a7a:	789b      	ldrb	r3, [r3, #2]
 8000a7c:	2b06      	cmp	r3, #6
 8000a7e:	d007      	beq.n	8000a90 <MCAL_GPIO_Init+0x62>
 8000a80:	683b      	ldr	r3, [r7, #0]
 8000a82:	789b      	ldrb	r3, [r3, #2]
 8000a84:	2b05      	cmp	r3, #5
 8000a86:	d003      	beq.n	8000a90 <MCAL_GPIO_Init+0x62>
 8000a88:	683b      	ldr	r3, [r7, #0]
 8000a8a:	789b      	ldrb	r3, [r3, #2]
 8000a8c:	2b04      	cmp	r3, #4
 8000a8e:	d10e      	bne.n	8000aae <MCAL_GPIO_Init+0x80>
 8000a90:	683b      	ldr	r3, [r7, #0]
 8000a92:	789b      	ldrb	r3, [r3, #2]
 8000a94:	3b04      	subs	r3, #4
 8000a96:	009b      	lsls	r3, r3, #2
 8000a98:	b25a      	sxtb	r2, r3
 8000a9a:	683b      	ldr	r3, [r7, #0]
 8000a9c:	78db      	ldrb	r3, [r3, #3]
 8000a9e:	b25b      	sxtb	r3, r3
 8000aa0:	4313      	orrs	r3, r2
 8000aa2:	b25b      	sxtb	r3, r3
 8000aa4:	b2db      	uxtb	r3, r3
 8000aa6:	f003 030f 	and.w	r3, r3, #15
 8000aaa:	73fb      	strb	r3, [r7, #15]
 8000aac:	e02c      	b.n	8000b08 <MCAL_GPIO_Init+0xda>
 8000aae:	683b      	ldr	r3, [r7, #0]
 8000ab0:	789b      	ldrb	r3, [r3, #2]
 8000ab2:	2b01      	cmp	r3, #1
 8000ab4:	d003      	beq.n	8000abe <MCAL_GPIO_Init+0x90>
 8000ab6:	683b      	ldr	r3, [r7, #0]
 8000ab8:	789b      	ldrb	r3, [r3, #2]
 8000aba:	2b00      	cmp	r3, #0
 8000abc:	d107      	bne.n	8000ace <MCAL_GPIO_Init+0xa0>
 8000abe:	683b      	ldr	r3, [r7, #0]
 8000ac0:	789b      	ldrb	r3, [r3, #2]
 8000ac2:	009b      	lsls	r3, r3, #2
 8000ac4:	b2db      	uxtb	r3, r3
 8000ac6:	f003 030f 	and.w	r3, r3, #15
 8000aca:	73fb      	strb	r3, [r7, #15]
 8000acc:	e01c      	b.n	8000b08 <MCAL_GPIO_Init+0xda>
 8000ace:	683b      	ldr	r3, [r7, #0]
 8000ad0:	789b      	ldrb	r3, [r3, #2]
 8000ad2:	2b08      	cmp	r3, #8
 8000ad4:	d102      	bne.n	8000adc <MCAL_GPIO_Init+0xae>
 8000ad6:	2304      	movs	r3, #4
 8000ad8:	73fb      	strb	r3, [r7, #15]
 8000ada:	e015      	b.n	8000b08 <MCAL_GPIO_Init+0xda>
 8000adc:	2308      	movs	r3, #8
 8000ade:	73fb      	strb	r3, [r7, #15]
 8000ae0:	683b      	ldr	r3, [r7, #0]
 8000ae2:	789b      	ldrb	r3, [r3, #2]
 8000ae4:	2b02      	cmp	r3, #2
 8000ae6:	d107      	bne.n	8000af8 <MCAL_GPIO_Init+0xca>
 8000ae8:	687b      	ldr	r3, [r7, #4]
 8000aea:	68db      	ldr	r3, [r3, #12]
 8000aec:	683a      	ldr	r2, [r7, #0]
 8000aee:	8812      	ldrh	r2, [r2, #0]
 8000af0:	431a      	orrs	r2, r3
 8000af2:	687b      	ldr	r3, [r7, #4]
 8000af4:	60da      	str	r2, [r3, #12]
 8000af6:	e007      	b.n	8000b08 <MCAL_GPIO_Init+0xda>
 8000af8:	687b      	ldr	r3, [r7, #4]
 8000afa:	68db      	ldr	r3, [r3, #12]
 8000afc:	683a      	ldr	r2, [r7, #0]
 8000afe:	8812      	ldrh	r2, [r2, #0]
 8000b00:	43d2      	mvns	r2, r2
 8000b02:	401a      	ands	r2, r3
 8000b04:	687b      	ldr	r3, [r7, #4]
 8000b06:	60da      	str	r2, [r3, #12]
 8000b08:	7bfc      	ldrb	r4, [r7, #15]
 8000b0a:	683b      	ldr	r3, [r7, #0]
 8000b0c:	881b      	ldrh	r3, [r3, #0]
 8000b0e:	4618      	mov	r0, r3
 8000b10:	f7ff ff2a 	bl	8000968 <Get_CRLH_Position>
 8000b14:	4603      	mov	r3, r0
 8000b16:	fa04 f203 	lsl.w	r2, r4, r3
 8000b1a:	68bb      	ldr	r3, [r7, #8]
 8000b1c:	681b      	ldr	r3, [r3, #0]
 8000b1e:	431a      	orrs	r2, r3
 8000b20:	68bb      	ldr	r3, [r7, #8]
 8000b22:	601a      	str	r2, [r3, #0]
 8000b24:	bf00      	nop
 8000b26:	3714      	adds	r7, #20
 8000b28:	46bd      	mov	sp, r7
 8000b2a:	bd90      	pop	{r4, r7, pc}

08000b2c <__libc_init_array>:
 8000b2c:	b570      	push	{r4, r5, r6, lr}
 8000b2e:	2500      	movs	r5, #0
 8000b30:	4e0c      	ldr	r6, [pc, #48]	; (8000b64 <__libc_init_array+0x38>)
 8000b32:	4c0d      	ldr	r4, [pc, #52]	; (8000b68 <__libc_init_array+0x3c>)
 8000b34:	1ba4      	subs	r4, r4, r6
 8000b36:	10a4      	asrs	r4, r4, #2
 8000b38:	42a5      	cmp	r5, r4
 8000b3a:	d109      	bne.n	8000b50 <__libc_init_array+0x24>
 8000b3c:	f000 f81a 	bl	8000b74 <_init>
 8000b40:	2500      	movs	r5, #0
 8000b42:	4e0a      	ldr	r6, [pc, #40]	; (8000b6c <__libc_init_array+0x40>)
 8000b44:	4c0a      	ldr	r4, [pc, #40]	; (8000b70 <__libc_init_array+0x44>)
 8000b46:	1ba4      	subs	r4, r4, r6
 8000b48:	10a4      	asrs	r4, r4, #2
 8000b4a:	42a5      	cmp	r5, r4
 8000b4c:	d105      	bne.n	8000b5a <__libc_init_array+0x2e>
 8000b4e:	bd70      	pop	{r4, r5, r6, pc}
 8000b50:	f856 3025 	ldr.w	r3, [r6, r5, lsl #2]
 8000b54:	4798      	blx	r3
 8000b56:	3501      	adds	r5, #1
 8000b58:	e7ee      	b.n	8000b38 <__libc_init_array+0xc>
 8000b5a:	f856 3025 	ldr.w	r3, [r6, r5, lsl #2]
 8000b5e:	4798      	blx	r3
 8000b60:	3501      	adds	r5, #1
 8000b62:	e7f2      	b.n	8000b4a <__libc_init_array+0x1e>
 8000b64:	08000b98 	stmdaeq	r0, {r3, r4, r7, r8, r9, fp}
 8000b68:	08000b98 	stmdaeq	r0, {r3, r4, r7, r8, r9, fp}
 8000b6c:	08000b98 	stmdaeq	r0, {r3, r4, r7, r8, r9, fp}
 8000b70:	08000b9c 	stmdaeq	r0, {r2, r3, r4, r7, r8, r9, fp}

08000b74 <_init>:
 8000b74:	b5f8      	push	{r3, r4, r5, r6, r7, lr}
 8000b76:	bf00      	nop
 8000b78:	bcf8      	pop	{r3, r4, r5, r6, r7}
 8000b7a:	bc08      	pop	{r3}
 8000b7c:	469e      	mov	lr, r3
 8000b7e:	4770      	bx	lr

08000b80 <_fini>:
 8000b80:	b5f8      	push	{r3, r4, r5, r6, r7, lr}
 8000b82:	bf00      	nop
 8000b84:	bcf8      	pop	{r3, r4, r5, r6, r7}
 8000b86:	bc08      	pop	{r3}
 8000b88:	469e      	mov	lr, r3
 8000b8a:	4770      	bx	lr
