
Drivers2_EXTI.axf:     file format elf32-littlearm


Disassembly of section .isr_vector:

08000000 <g_pfnVectors>:
 8000000:	20002800 	andcs	r2, r0, r0, lsl #16
 8000004:	0800036d 	stmdaeq	r0, {r0, r2, r3, r5, r6, r8, r9}
 8000008:	080003bd 	stmdaeq	r0, {r0, r2, r3, r4, r5, r7, r8, r9}
 800000c:	080003bd 	stmdaeq	r0, {r0, r2, r3, r4, r5, r7, r8, r9}
 8000010:	080003bd 	stmdaeq	r0, {r0, r2, r3, r4, r5, r7, r8, r9}
 8000014:	080003bd 	stmdaeq	r0, {r0, r2, r3, r4, r5, r7, r8, r9}
 8000018:	080003bd 	stmdaeq	r0, {r0, r2, r3, r4, r5, r7, r8, r9}
	...
 800002c:	08000171 	stmdaeq	r0, {r0, r4, r5, r6, r8}
 8000030:	080003bd 	stmdaeq	r0, {r0, r2, r3, r4, r5, r7, r8, r9}
 8000034:	00000000 	andeq	r0, r0, r0
 8000038:	080003bd 	stmdaeq	r0, {r0, r2, r3, r4, r5, r7, r8, r9}
 800003c:	080003bd 	stmdaeq	r0, {r0, r2, r3, r4, r5, r7, r8, r9}
 8000040:	080003bd 	stmdaeq	r0, {r0, r2, r3, r4, r5, r7, r8, r9}
 8000044:	080003bd 	stmdaeq	r0, {r0, r2, r3, r4, r5, r7, r8, r9}
 8000048:	080003bd 	stmdaeq	r0, {r0, r2, r3, r4, r5, r7, r8, r9}
 800004c:	080003bd 	stmdaeq	r0, {r0, r2, r3, r4, r5, r7, r8, r9}
 8000050:	080003bd 	stmdaeq	r0, {r0, r2, r3, r4, r5, r7, r8, r9}
 8000054:	080003bd 	stmdaeq	r0, {r0, r2, r3, r4, r5, r7, r8, r9}
 8000058:	08000749 	stmdaeq	r0, {r0, r3, r6, r8, r9, sl}
 800005c:	0800076d 	stmdaeq	r0, {r0, r2, r3, r5, r6, r8, r9, sl}
 8000060:	08000791 	stmdaeq	r0, {r0, r4, r7, r8, r9, sl}
 8000064:	080007b5 	stmdaeq	r0, {r0, r2, r4, r5, r7, r8, r9, sl}
 8000068:	080007d9 	stmdaeq	r0, {r0, r3, r4, r6, r7, r8, r9, sl}
 800006c:	080003bd 	stmdaeq	r0, {r0, r2, r3, r4, r5, r7, r8, r9}
 8000070:	080003bd 	stmdaeq	r0, {r0, r2, r3, r4, r5, r7, r8, r9}
 8000074:	080003bd 	stmdaeq	r0, {r0, r2, r3, r4, r5, r7, r8, r9}
 8000078:	080003bd 	stmdaeq	r0, {r0, r2, r3, r4, r5, r7, r8, r9}
 800007c:	080003bd 	stmdaeq	r0, {r0, r2, r3, r4, r5, r7, r8, r9}
 8000080:	080003bd 	stmdaeq	r0, {r0, r2, r3, r4, r5, r7, r8, r9}
 8000084:	080003bd 	stmdaeq	r0, {r0, r2, r3, r4, r5, r7, r8, r9}
 8000088:	080003bd 	stmdaeq	r0, {r0, r2, r3, r4, r5, r7, r8, r9}
 800008c:	080003bd 	stmdaeq	r0, {r0, r2, r3, r4, r5, r7, r8, r9}
 8000090:	080003bd 	stmdaeq	r0, {r0, r2, r3, r4, r5, r7, r8, r9}
 8000094:	080003bd 	stmdaeq	r0, {r0, r2, r3, r4, r5, r7, r8, r9}
 8000098:	080003bd 	stmdaeq	r0, {r0, r2, r3, r4, r5, r7, r8, r9}
 800009c:	080007fd 	stmdaeq	r0, {r0, r2, r3, r4, r5, r6, r7, r8, r9, sl}
 80000a0:	080003bd 	stmdaeq	r0, {r0, r2, r3, r4, r5, r7, r8, r9}
 80000a4:	080003bd 	stmdaeq	r0, {r0, r2, r3, r4, r5, r7, r8, r9}
 80000a8:	080003bd 	stmdaeq	r0, {r0, r2, r3, r4, r5, r7, r8, r9}
 80000ac:	080003bd 	stmdaeq	r0, {r0, r2, r3, r4, r5, r7, r8, r9}
 80000b0:	080003bd 	stmdaeq	r0, {r0, r2, r3, r4, r5, r7, r8, r9}
 80000b4:	080003bd 	stmdaeq	r0, {r0, r2, r3, r4, r5, r7, r8, r9}
 80000b8:	080003bd 	stmdaeq	r0, {r0, r2, r3, r4, r5, r7, r8, r9}
 80000bc:	080003bd 	stmdaeq	r0, {r0, r2, r3, r4, r5, r7, r8, r9}
 80000c0:	080003bd 	stmdaeq	r0, {r0, r2, r3, r4, r5, r7, r8, r9}
 80000c4:	080003bd 	stmdaeq	r0, {r0, r2, r3, r4, r5, r7, r8, r9}
 80000c8:	080003bd 	stmdaeq	r0, {r0, r2, r3, r4, r5, r7, r8, r9}
 80000cc:	080003bd 	stmdaeq	r0, {r0, r2, r3, r4, r5, r7, r8, r9}
 80000d0:	080003bd 	stmdaeq	r0, {r0, r2, r3, r4, r5, r7, r8, r9}
 80000d4:	080003bd 	stmdaeq	r0, {r0, r2, r3, r4, r5, r7, r8, r9}
 80000d8:	080003bd 	stmdaeq	r0, {r0, r2, r3, r4, r5, r7, r8, r9}
 80000dc:	080003bd 	stmdaeq	r0, {r0, r2, r3, r4, r5, r7, r8, r9}
 80000e0:	080008a5 	stmdaeq	r0, {r0, r2, r5, r7, fp}
 80000e4:	080003bd 	stmdaeq	r0, {r0, r2, r3, r4, r5, r7, r8, r9}
 80000e8:	00000000 	andeq	r0, r0, r0
 80000ec:	080003bd 	stmdaeq	r0, {r0, r2, r3, r4, r5, r7, r8, r9}
 80000f0:	080003bd 	stmdaeq	r0, {r0, r2, r3, r4, r5, r7, r8, r9}
 80000f4:	080003bd 	stmdaeq	r0, {r0, r2, r3, r4, r5, r7, r8, r9}
 80000f8:	080003bd 	stmdaeq	r0, {r0, r2, r3, r4, r5, r7, r8, r9}
 80000fc:	080003bd 	stmdaeq	r0, {r0, r2, r3, r4, r5, r7, r8, r9}
 8000100:	080003bd 	stmdaeq	r0, {r0, r2, r3, r4, r5, r7, r8, r9}
 8000104:	080003bd 	stmdaeq	r0, {r0, r2, r3, r4, r5, r7, r8, r9}
 8000108:	080003bd 	stmdaeq	r0, {r0, r2, r3, r4, r5, r7, r8, r9}
 800010c:	080003bd 	stmdaeq	r0, {r0, r2, r3, r4, r5, r7, r8, r9}
 8000110:	080003bd 	stmdaeq	r0, {r0, r2, r3, r4, r5, r7, r8, r9}
 8000114:	080003bd 	stmdaeq	r0, {r0, r2, r3, r4, r5, r7, r8, r9}
 8000118:	080003bd 	stmdaeq	r0, {r0, r2, r3, r4, r5, r7, r8, r9}
 800011c:	080003bd 	stmdaeq	r0, {r0, r2, r3, r4, r5, r7, r8, r9}
 8000120:	080003bd 	stmdaeq	r0, {r0, r2, r3, r4, r5, r7, r8, r9}
 8000124:	080003bd 	stmdaeq	r0, {r0, r2, r3, r4, r5, r7, r8, r9}
 8000128:	080003bd 	stmdaeq	r0, {r0, r2, r3, r4, r5, r7, r8, r9}
 800012c:	080003bd 	stmdaeq	r0, {r0, r2, r3, r4, r5, r7, r8, r9}

Disassembly of section .text:

08000130 <__do_global_dtors_aux>:
 8000130:	b510      	push	{r4, lr}
 8000132:	4c05      	ldr	r4, [pc, #20]	; (8000148 <__do_global_dtors_aux+0x18>)
 8000134:	7823      	ldrb	r3, [r4, #0]
 8000136:	b933      	cbnz	r3, 8000146 <__do_global_dtors_aux+0x16>
 8000138:	4b04      	ldr	r3, [pc, #16]	; (800014c <__do_global_dtors_aux+0x1c>)
 800013a:	b113      	cbz	r3, 8000142 <__do_global_dtors_aux+0x12>
 800013c:	4804      	ldr	r0, [pc, #16]	; (8000150 <__do_global_dtors_aux+0x20>)
 800013e:	f3af 8000 	nop.w
 8000142:	2301      	movs	r3, #1
 8000144:	7023      	strb	r3, [r4, #0]
 8000146:	bd10      	pop	{r4, pc}
 8000148:	20000004 	andcs	r0, r0, r4
 800014c:	00000000 	andeq	r0, r0, r0
 8000150:	08000b74 	stmdaeq	r0, {r2, r4, r5, r6, r8, r9, fp}

08000154 <frame_dummy>:
 8000154:	b508      	push	{r3, lr}
 8000156:	4b03      	ldr	r3, [pc, #12]	; (8000164 <frame_dummy+0x10>)
 8000158:	b11b      	cbz	r3, 8000162 <frame_dummy+0xe>
 800015a:	4903      	ldr	r1, [pc, #12]	; (8000168 <frame_dummy+0x14>)
 800015c:	4803      	ldr	r0, [pc, #12]	; (800016c <frame_dummy+0x18>)
 800015e:	f3af 8000 	nop.w
 8000162:	bd08      	pop	{r3, pc}
 8000164:	00000000 	andeq	r0, r0, r0
 8000168:	20000008 	andcs	r0, r0, r8
 800016c:	08000b74 	stmdaeq	r0, {r2, r4, r5, r6, r8, r9, fp}

08000170 <SVC_Handler>:
 8000170:	b480      	push	{r7}
 8000172:	af00      	add	r7, sp, #0
 8000174:	f3ef 8314 	mrs	r3, CONTROL
 8000178:	ea4f 0353 	mov.w	r3, r3, lsr #1
 800017c:	ea4f 0343 	mov.w	r3, r3, lsl #1
 8000180:	f383 8814 	msr	CONTROL, r3
 8000184:	bf00      	nop
 8000186:	46bd      	mov	sp, r7
 8000188:	bc80      	pop	{r7}
 800018a:	4770      	bx	lr

0800018c <EXTI9_CallBack>:
 800018c:	b480      	push	{r7}
 800018e:	af00      	add	r7, sp, #0
 8000190:	4b0c      	ldr	r3, [pc, #48]	; (80001c4 <EXTI9_CallBack+0x38>)
 8000192:	881b      	ldrh	r3, [r3, #0]
 8000194:	2b00      	cmp	r3, #0
 8000196:	d106      	bne.n	80001a6 <EXTI9_CallBack+0x1a>
 8000198:	4b0b      	ldr	r3, [pc, #44]	; (80001c8 <EXTI9_CallBack+0x3c>)
 800019a:	2201      	movs	r2, #1
 800019c:	801a      	strh	r2, [r3, #0]
 800019e:	4b09      	ldr	r3, [pc, #36]	; (80001c4 <EXTI9_CallBack+0x38>)
 80001a0:	2201      	movs	r2, #1
 80001a2:	801a      	strh	r2, [r3, #0]
 80001a4:	e009      	b.n	80001ba <EXTI9_CallBack+0x2e>
 80001a6:	4b07      	ldr	r3, [pc, #28]	; (80001c4 <EXTI9_CallBack+0x38>)
 80001a8:	881b      	ldrh	r3, [r3, #0]
 80001aa:	2b01      	cmp	r3, #1
 80001ac:	d105      	bne.n	80001ba <EXTI9_CallBack+0x2e>
 80001ae:	4b07      	ldr	r3, [pc, #28]	; (80001cc <EXTI9_CallBack+0x40>)
 80001b0:	2201      	movs	r2, #1
 80001b2:	801a      	strh	r2, [r3, #0]
 80001b4:	4b03      	ldr	r3, [pc, #12]	; (80001c4 <EXTI9_CallBack+0x38>)
 80001b6:	2200      	movs	r2, #0
 80001b8:	801a      	strh	r2, [r3, #0]
 80001ba:	bf00      	nop
 80001bc:	46bd      	mov	sp, r7
 80001be:	bc80      	pop	{r7}
 80001c0:	4770      	bx	lr
 80001c2:	bf00      	nop
 80001c4:	20000020 	andcs	r0, r0, r0, lsr #32
 80001c8:	2000002c 	andcs	r0, r0, ip, lsr #32
 80001cc:	2000002e 	andcs	r0, r0, lr, lsr #32

080001d0 <TaskA>:
 80001d0:	b480      	push	{r7}
 80001d2:	b085      	sub	sp, #20
 80001d4:	af00      	add	r7, sp, #0
 80001d6:	60f8      	str	r0, [r7, #12]
 80001d8:	60b9      	str	r1, [r7, #8]
 80001da:	607a      	str	r2, [r7, #4]
 80001dc:	68fa      	ldr	r2, [r7, #12]
 80001de:	68bb      	ldr	r3, [r7, #8]
 80001e0:	441a      	add	r2, r3
 80001e2:	687b      	ldr	r3, [r7, #4]
 80001e4:	4413      	add	r3, r2
 80001e6:	4618      	mov	r0, r3
 80001e8:	3714      	adds	r7, #20
 80001ea:	46bd      	mov	sp, r7
 80001ec:	bc80      	pop	{r7}
 80001ee:	4770      	bx	lr

080001f0 <TaskB>:
 80001f0:	b480      	push	{r7}
 80001f2:	b085      	sub	sp, #20
 80001f4:	af00      	add	r7, sp, #0
 80001f6:	60f8      	str	r0, [r7, #12]
 80001f8:	60b9      	str	r1, [r7, #8]
 80001fa:	607a      	str	r2, [r7, #4]
 80001fc:	603b      	str	r3, [r7, #0]
 80001fe:	68fa      	ldr	r2, [r7, #12]
 8000200:	68bb      	ldr	r3, [r7, #8]
 8000202:	441a      	add	r2, r3
 8000204:	687b      	ldr	r3, [r7, #4]
 8000206:	441a      	add	r2, r3
 8000208:	683b      	ldr	r3, [r7, #0]
 800020a:	4413      	add	r3, r2
 800020c:	4618      	mov	r0, r3
 800020e:	3714      	adds	r7, #20
 8000210:	46bd      	mov	sp, r7
 8000212:	bc80      	pop	{r7}
 8000214:	4770      	bx	lr
	...

08000218 <Main_OS>:
 8000218:	b580      	push	{r7, lr}
 800021a:	af00      	add	r7, sp, #0
 800021c:	4b35      	ldr	r3, [pc, #212]	; (80002f4 <Main_OS+0xdc>)
 800021e:	681b      	ldr	r3, [r3, #0]
 8000220:	f5a3 7300 	sub.w	r3, r3, #512	; 0x200
 8000224:	4a34      	ldr	r2, [pc, #208]	; (80002f8 <Main_OS+0xe0>)
 8000226:	6013      	str	r3, [r2, #0]
 8000228:	4b33      	ldr	r3, [pc, #204]	; (80002f8 <Main_OS+0xe0>)
 800022a:	681b      	ldr	r3, [r3, #0]
 800022c:	3b08      	subs	r3, #8
 800022e:	4a33      	ldr	r2, [pc, #204]	; (80002fc <Main_OS+0xe4>)
 8000230:	6013      	str	r3, [r2, #0]
 8000232:	4b32      	ldr	r3, [pc, #200]	; (80002fc <Main_OS+0xe4>)
 8000234:	681b      	ldr	r3, [r3, #0]
 8000236:	3b64      	subs	r3, #100	; 0x64
 8000238:	4a31      	ldr	r2, [pc, #196]	; (8000300 <Main_OS+0xe8>)
 800023a:	6013      	str	r3, [r2, #0]
 800023c:	4b30      	ldr	r3, [pc, #192]	; (8000300 <Main_OS+0xe8>)
 800023e:	681b      	ldr	r3, [r3, #0]
 8000240:	3b08      	subs	r3, #8
 8000242:	4a30      	ldr	r2, [pc, #192]	; (8000304 <Main_OS+0xec>)
 8000244:	6013      	str	r3, [r2, #0]
 8000246:	4b2f      	ldr	r3, [pc, #188]	; (8000304 <Main_OS+0xec>)
 8000248:	681b      	ldr	r3, [r3, #0]
 800024a:	3b64      	subs	r3, #100	; 0x64
 800024c:	4a2e      	ldr	r2, [pc, #184]	; (8000308 <Main_OS+0xf0>)
 800024e:	6013      	str	r3, [r2, #0]
 8000250:	bf00      	nop
 8000252:	4b2e      	ldr	r3, [pc, #184]	; (800030c <Main_OS+0xf4>)
 8000254:	881b      	ldrh	r3, [r3, #0]
 8000256:	2b01      	cmp	r3, #1
 8000258:	d123      	bne.n	80002a2 <Main_OS+0x8a>
 800025a:	4b28      	ldr	r3, [pc, #160]	; (80002fc <Main_OS+0xe4>)
 800025c:	681b      	ldr	r3, [r3, #0]
 800025e:	4618      	mov	r0, r3
 8000260:	f380 8809 	msr	PSP, r0
 8000264:	f3ef 8014 	mrs	r0, CONTROL
 8000268:	f040 0002 	orr.w	r0, r0, #2
 800026c:	f380 8814 	msr	CONTROL, r0
 8000270:	f3ef 8314 	mrs	r3, CONTROL
 8000274:	f043 0301 	orr.w	r3, r3, #1
 8000278:	f383 8814 	msr	CONTROL, r3
 800027c:	2203      	movs	r2, #3
 800027e:	2102      	movs	r1, #2
 8000280:	2001      	movs	r0, #1
 8000282:	f7ff ffa5 	bl	80001d0 <TaskA>
 8000286:	4603      	mov	r3, r0
 8000288:	b29a      	uxth	r2, r3
 800028a:	4b20      	ldr	r3, [pc, #128]	; (800030c <Main_OS+0xf4>)
 800028c:	801a      	strh	r2, [r3, #0]
 800028e:	df03      	svc	3
 8000290:	f3ef 8014 	mrs	r0, CONTROL
 8000294:	f04f 0105 	mov.w	r1, #5
 8000298:	ea00 0001 	and.w	r0, r0, r1
 800029c:	f380 8814 	msr	CONTROL, r0
 80002a0:	e7d6      	b.n	8000250 <Main_OS+0x38>
 80002a2:	4b1b      	ldr	r3, [pc, #108]	; (8000310 <Main_OS+0xf8>)
 80002a4:	881b      	ldrh	r3, [r3, #0]
 80002a6:	2b01      	cmp	r3, #1
 80002a8:	d1d2      	bne.n	8000250 <Main_OS+0x38>
 80002aa:	4b16      	ldr	r3, [pc, #88]	; (8000304 <Main_OS+0xec>)
 80002ac:	681b      	ldr	r3, [r3, #0]
 80002ae:	4618      	mov	r0, r3
 80002b0:	f380 8809 	msr	PSP, r0
 80002b4:	f3ef 8014 	mrs	r0, CONTROL
 80002b8:	f040 0002 	orr.w	r0, r0, #2
 80002bc:	f380 8814 	msr	CONTROL, r0
 80002c0:	f3ef 8314 	mrs	r3, CONTROL
 80002c4:	f043 0301 	orr.w	r3, r3, #1
 80002c8:	f383 8814 	msr	CONTROL, r3
 80002cc:	2304      	movs	r3, #4
 80002ce:	2203      	movs	r2, #3
 80002d0:	2102      	movs	r1, #2
 80002d2:	2001      	movs	r0, #1
 80002d4:	f7ff ff8c 	bl	80001f0 <TaskB>
 80002d8:	4603      	mov	r3, r0
 80002da:	b29a      	uxth	r2, r3
 80002dc:	4b0c      	ldr	r3, [pc, #48]	; (8000310 <Main_OS+0xf8>)
 80002de:	801a      	strh	r2, [r3, #0]
 80002e0:	df03      	svc	3
 80002e2:	f3ef 8014 	mrs	r0, CONTROL
 80002e6:	f04f 0105 	mov.w	r1, #5
 80002ea:	ea00 0001 	and.w	r0, r0, r1
 80002ee:	f380 8814 	msr	CONTROL, r0
 80002f2:	e7ad      	b.n	8000250 <Main_OS+0x38>
 80002f4:	20000000 	andcs	r0, r0, r0
 80002f8:	20000024 	andcs	r0, r0, r4, lsr #32
 80002fc:	20000028 	andcs	r0, r0, r8, lsr #32
 8000300:	20000038 	andcs	r0, r0, r8, lsr r0
 8000304:	20000030 	andcs	r0, r0, r0, lsr r0
 8000308:	20000034 	andcs	r0, r0, r4, lsr r0
 800030c:	2000002c 	andcs	r0, r0, ip, lsr #32
 8000310:	2000002e 	andcs	r0, r0, lr, lsr #32

08000314 <main>:
 8000314:	b580      	push	{r7, lr}
 8000316:	b086      	sub	sp, #24
 8000318:	af00      	add	r7, sp, #0
 800031a:	4b11      	ldr	r3, [pc, #68]	; (8000360 <main+0x4c>)
 800031c:	699b      	ldr	r3, [r3, #24]
 800031e:	4a10      	ldr	r2, [pc, #64]	; (8000360 <main+0x4c>)
 8000320:	f043 0308 	orr.w	r3, r3, #8
 8000324:	6193      	str	r3, [r2, #24]
 8000326:	4b0e      	ldr	r3, [pc, #56]	; (8000360 <main+0x4c>)
 8000328:	699b      	ldr	r3, [r3, #24]
 800032a:	4a0d      	ldr	r2, [pc, #52]	; (8000360 <main+0x4c>)
 800032c:	f043 0301 	orr.w	r3, r3, #1
 8000330:	6193      	str	r3, [r2, #24]
 8000332:	4a0c      	ldr	r2, [pc, #48]	; (8000364 <main+0x50>)
 8000334:	1d3b      	adds	r3, r7, #4
 8000336:	ca07      	ldmia	r2, {r0, r1, r2}
 8000338:	e883 0007 	stmia.w	r3, {r0, r1, r2}
 800033c:	2300      	movs	r3, #0
 800033e:	743b      	strb	r3, [r7, #16]
 8000340:	4b09      	ldr	r3, [pc, #36]	; (8000368 <main+0x54>)
 8000342:	617b      	str	r3, [r7, #20]
 8000344:	2301      	movs	r3, #1
 8000346:	747b      	strb	r3, [r7, #17]
 8000348:	1d3b      	adds	r3, r7, #4
 800034a:	4618      	mov	r0, r3
 800034c:	f000 f9f0 	bl	8000730 <MCAL_EXTI_GPIO_Init>
 8000350:	f7ff ff62 	bl	8000218 <Main_OS>
 8000354:	2300      	movs	r3, #0
 8000356:	4618      	mov	r0, r3
 8000358:	3718      	adds	r7, #24
 800035a:	46bd      	mov	sp, r7
 800035c:	bd80      	pop	{r7, pc}
 800035e:	bf00      	nop
 8000360:	40021000 	andmi	r1, r2, r0
 8000364:	08000b8c 	stmdaeq	r0, {r2, r3, r7, r8, r9, fp}
 8000368:	0800018d 	stmdaeq	r0, {r0, r2, r3, r7, r8}

0800036c <Reset_Handler>:
 800036c:	480d      	ldr	r0, [pc, #52]	; (80003a4 <LoopForever+0x2>)
 800036e:	4685      	mov	sp, r0
 8000370:	f3af 8000 	nop.w
 8000374:	480c      	ldr	r0, [pc, #48]	; (80003a8 <LoopForever+0x6>)
 8000376:	490d      	ldr	r1, [pc, #52]	; (80003ac <LoopForever+0xa>)
 8000378:	4a0d      	ldr	r2, [pc, #52]	; (80003b0 <LoopForever+0xe>)
 800037a:	2300      	movs	r3, #0
 800037c:	e002      	b.n	8000384 <LoopCopyDataInit>

0800037e <CopyDataInit>:
 800037e:	58d4      	ldr	r4, [r2, r3]
 8000380:	50c4      	str	r4, [r0, r3]
 8000382:	3304      	adds	r3, #4

08000384 <LoopCopyDataInit>:
 8000384:	18c4      	adds	r4, r0, r3
 8000386:	428c      	cmp	r4, r1
 8000388:	d3f9      	bcc.n	800037e <CopyDataInit>
 800038a:	4a0a      	ldr	r2, [pc, #40]	; (80003b4 <LoopForever+0x12>)
 800038c:	4c0a      	ldr	r4, [pc, #40]	; (80003b8 <LoopForever+0x16>)
 800038e:	2300      	movs	r3, #0
 8000390:	e001      	b.n	8000396 <LoopFillZerobss>

08000392 <FillZerobss>:
 8000392:	6013      	str	r3, [r2, #0]
 8000394:	3204      	adds	r2, #4

08000396 <LoopFillZerobss>:
 8000396:	42a2      	cmp	r2, r4
 8000398:	d3fb      	bcc.n	8000392 <FillZerobss>
 800039a:	f000 fbc7 	bl	8000b2c <__libc_init_array>
 800039e:	f7ff ffb9 	bl	8000314 <main>

080003a2 <LoopForever>:
 80003a2:	e7fe      	b.n	80003a2 <LoopForever>
 80003a4:	20002800 	andcs	r2, r0, r0, lsl #16
 80003a8:	20000000 	andcs	r0, r0, r0
 80003ac:	20000004 	andcs	r0, r0, r4
 80003b0:	08000ba0 	stmdaeq	r0, {r5, r7, r8, r9, fp}
 80003b4:	20000004 	andcs	r0, r0, r4
 80003b8:	20000078 	andcs	r0, r0, r8, ror r0

080003bc <ADC1_2_IRQHandler>:
 80003bc:	e7fe      	b.n	80003bc <ADC1_2_IRQHandler>
	...

080003c0 <Enable_NVIC>:
 80003c0:	b480      	push	{r7}
 80003c2:	b083      	sub	sp, #12
 80003c4:	af00      	add	r7, sp, #0
 80003c6:	4603      	mov	r3, r0
 80003c8:	80fb      	strh	r3, [r7, #6]
 80003ca:	88fb      	ldrh	r3, [r7, #6]
 80003cc:	2b0f      	cmp	r3, #15
 80003ce:	d854      	bhi.n	800047a <Enable_NVIC+0xba>
 80003d0:	a201      	add	r2, pc, #4	; (adr r2, 80003d8 <Enable_NVIC+0x18>)
 80003d2:	f852 f023 	ldr.w	pc, [r2, r3, lsl #2]
 80003d6:	bf00      	nop
 80003d8:	08000419 	stmdaeq	r0, {r0, r3, r4, sl}
 80003dc:	08000427 	stmdaeq	r0, {r0, r1, r2, r5, sl}
 80003e0:	08000435 	stmdaeq	r0, {r0, r2, r4, r5, sl}
 80003e4:	08000443 	stmdaeq	r0, {r0, r1, r6, sl}
 80003e8:	08000451 	stmdaeq	r0, {r0, r4, r6, sl}
 80003ec:	0800045f 	stmdaeq	r0, {r0, r1, r2, r3, r4, r6, sl}
 80003f0:	0800045f 	stmdaeq	r0, {r0, r1, r2, r3, r4, r6, sl}
 80003f4:	0800045f 	stmdaeq	r0, {r0, r1, r2, r3, r4, r6, sl}
 80003f8:	0800045f 	stmdaeq	r0, {r0, r1, r2, r3, r4, r6, sl}
 80003fc:	0800045f 	stmdaeq	r0, {r0, r1, r2, r3, r4, r6, sl}
 8000400:	0800046d 	stmdaeq	r0, {r0, r2, r3, r5, r6, sl}
 8000404:	0800046d 	stmdaeq	r0, {r0, r2, r3, r5, r6, sl}
 8000408:	0800046d 	stmdaeq	r0, {r0, r2, r3, r5, r6, sl}
 800040c:	0800046d 	stmdaeq	r0, {r0, r2, r3, r5, r6, sl}
 8000410:	0800046d 	stmdaeq	r0, {r0, r2, r3, r5, r6, sl}
 8000414:	0800046d 	stmdaeq	r0, {r0, r2, r3, r5, r6, sl}
 8000418:	4b1a      	ldr	r3, [pc, #104]	; (8000484 <Enable_NVIC+0xc4>)
 800041a:	681b      	ldr	r3, [r3, #0]
 800041c:	4a19      	ldr	r2, [pc, #100]	; (8000484 <Enable_NVIC+0xc4>)
 800041e:	f043 0340 	orr.w	r3, r3, #64	; 0x40
 8000422:	6013      	str	r3, [r2, #0]
 8000424:	e029      	b.n	800047a <Enable_NVIC+0xba>
 8000426:	4b17      	ldr	r3, [pc, #92]	; (8000484 <Enable_NVIC+0xc4>)
 8000428:	681b      	ldr	r3, [r3, #0]
 800042a:	4a16      	ldr	r2, [pc, #88]	; (8000484 <Enable_NVIC+0xc4>)
 800042c:	f043 0380 	orr.w	r3, r3, #128	; 0x80
 8000430:	6013      	str	r3, [r2, #0]
 8000432:	e022      	b.n	800047a <Enable_NVIC+0xba>
 8000434:	4b13      	ldr	r3, [pc, #76]	; (8000484 <Enable_NVIC+0xc4>)
 8000436:	681b      	ldr	r3, [r3, #0]
 8000438:	4a12      	ldr	r2, [pc, #72]	; (8000484 <Enable_NVIC+0xc4>)
 800043a:	f443 7380 	orr.w	r3, r3, #256	; 0x100
 800043e:	6013      	str	r3, [r2, #0]
 8000440:	e01b      	b.n	800047a <Enable_NVIC+0xba>
 8000442:	4b10      	ldr	r3, [pc, #64]	; (8000484 <Enable_NVIC+0xc4>)
 8000444:	681b      	ldr	r3, [r3, #0]
 8000446:	4a0f      	ldr	r2, [pc, #60]	; (8000484 <Enable_NVIC+0xc4>)
 8000448:	f443 7300 	orr.w	r3, r3, #512	; 0x200
 800044c:	6013      	str	r3, [r2, #0]
 800044e:	e014      	b.n	800047a <Enable_NVIC+0xba>
 8000450:	4b0c      	ldr	r3, [pc, #48]	; (8000484 <Enable_NVIC+0xc4>)
 8000452:	681b      	ldr	r3, [r3, #0]
 8000454:	4a0b      	ldr	r2, [pc, #44]	; (8000484 <Enable_NVIC+0xc4>)
 8000456:	f443 6380 	orr.w	r3, r3, #1024	; 0x400
 800045a:	6013      	str	r3, [r2, #0]
 800045c:	e00d      	b.n	800047a <Enable_NVIC+0xba>
 800045e:	4b09      	ldr	r3, [pc, #36]	; (8000484 <Enable_NVIC+0xc4>)
 8000460:	681b      	ldr	r3, [r3, #0]
 8000462:	4a08      	ldr	r2, [pc, #32]	; (8000484 <Enable_NVIC+0xc4>)
 8000464:	f443 0300 	orr.w	r3, r3, #8388608	; 0x800000
 8000468:	6013      	str	r3, [r2, #0]
 800046a:	e006      	b.n	800047a <Enable_NVIC+0xba>
 800046c:	4b06      	ldr	r3, [pc, #24]	; (8000488 <Enable_NVIC+0xc8>)
 800046e:	681b      	ldr	r3, [r3, #0]
 8000470:	4a05      	ldr	r2, [pc, #20]	; (8000488 <Enable_NVIC+0xc8>)
 8000472:	f443 7380 	orr.w	r3, r3, #256	; 0x100
 8000476:	6013      	str	r3, [r2, #0]
 8000478:	bf00      	nop
 800047a:	bf00      	nop
 800047c:	370c      	adds	r7, #12
 800047e:	46bd      	mov	sp, r7
 8000480:	bc80      	pop	{r7}
 8000482:	4770      	bx	lr
 8000484:	e000e100 	and	lr, r0, r0, lsl #2
 8000488:	e000e104 	and	lr, r0, r4, lsl #2

0800048c <Disable_NVIC>:
 800048c:	b480      	push	{r7}
 800048e:	b083      	sub	sp, #12
 8000490:	af00      	add	r7, sp, #0
 8000492:	4603      	mov	r3, r0
 8000494:	80fb      	strh	r3, [r7, #6]
 8000496:	88fb      	ldrh	r3, [r7, #6]
 8000498:	2b0f      	cmp	r3, #15
 800049a:	d854      	bhi.n	8000546 <Disable_NVIC+0xba>
 800049c:	a201      	add	r2, pc, #4	; (adr r2, 80004a4 <Disable_NVIC+0x18>)
 800049e:	f852 f023 	ldr.w	pc, [r2, r3, lsl #2]
 80004a2:	bf00      	nop
 80004a4:	080004e5 	stmdaeq	r0, {r0, r2, r5, r6, r7, sl}
 80004a8:	080004f3 	stmdaeq	r0, {r0, r1, r4, r5, r6, r7, sl}
 80004ac:	08000501 	stmdaeq	r0, {r0, r8, sl}
 80004b0:	0800050f 	stmdaeq	r0, {r0, r1, r2, r3, r8, sl}
 80004b4:	0800051d 	stmdaeq	r0, {r0, r2, r3, r4, r8, sl}
 80004b8:	0800052b 	stmdaeq	r0, {r0, r1, r3, r5, r8, sl}
 80004bc:	0800052b 	stmdaeq	r0, {r0, r1, r3, r5, r8, sl}
 80004c0:	0800052b 	stmdaeq	r0, {r0, r1, r3, r5, r8, sl}
 80004c4:	0800052b 	stmdaeq	r0, {r0, r1, r3, r5, r8, sl}
 80004c8:	0800052b 	stmdaeq	r0, {r0, r1, r3, r5, r8, sl}
 80004cc:	08000539 	stmdaeq	r0, {r0, r3, r4, r5, r8, sl}
 80004d0:	08000539 	stmdaeq	r0, {r0, r3, r4, r5, r8, sl}
 80004d4:	08000539 	stmdaeq	r0, {r0, r3, r4, r5, r8, sl}
 80004d8:	08000539 	stmdaeq	r0, {r0, r3, r4, r5, r8, sl}
 80004dc:	08000539 	stmdaeq	r0, {r0, r3, r4, r5, r8, sl}
 80004e0:	08000539 	stmdaeq	r0, {r0, r3, r4, r5, r8, sl}
 80004e4:	4b1a      	ldr	r3, [pc, #104]	; (8000550 <Disable_NVIC+0xc4>)
 80004e6:	681b      	ldr	r3, [r3, #0]
 80004e8:	4a19      	ldr	r2, [pc, #100]	; (8000550 <Disable_NVIC+0xc4>)
 80004ea:	f043 0340 	orr.w	r3, r3, #64	; 0x40
 80004ee:	6013      	str	r3, [r2, #0]
 80004f0:	e029      	b.n	8000546 <Disable_NVIC+0xba>
 80004f2:	4b17      	ldr	r3, [pc, #92]	; (8000550 <Disable_NVIC+0xc4>)
 80004f4:	681b      	ldr	r3, [r3, #0]
 80004f6:	4a16      	ldr	r2, [pc, #88]	; (8000550 <Disable_NVIC+0xc4>)
 80004f8:	f043 0380 	orr.w	r3, r3, #128	; 0x80
 80004fc:	6013      	str	r3, [r2, #0]
 80004fe:	e022      	b.n	8000546 <Disable_NVIC+0xba>
 8000500:	4b13      	ldr	r3, [pc, #76]	; (8000550 <Disable_NVIC+0xc4>)
 8000502:	681b      	ldr	r3, [r3, #0]
 8000504:	4a12      	ldr	r2, [pc, #72]	; (8000550 <Disable_NVIC+0xc4>)
 8000506:	f443 7380 	orr.w	r3, r3, #256	; 0x100
 800050a:	6013      	str	r3, [r2, #0]
 800050c:	e01b      	b.n	8000546 <Disable_NVIC+0xba>
 800050e:	4b10      	ldr	r3, [pc, #64]	; (8000550 <Disable_NVIC+0xc4>)
 8000510:	681b      	ldr	r3, [r3, #0]
 8000512:	4a0f      	ldr	r2, [pc, #60]	; (8000550 <Disable_NVIC+0xc4>)
 8000514:	f443 7300 	orr.w	r3, r3, #512	; 0x200
 8000518:	6013      	str	r3, [r2, #0]
 800051a:	e014      	b.n	8000546 <Disable_NVIC+0xba>
 800051c:	4b0c      	ldr	r3, [pc, #48]	; (8000550 <Disable_NVIC+0xc4>)
 800051e:	681b      	ldr	r3, [r3, #0]
 8000520:	4a0b      	ldr	r2, [pc, #44]	; (8000550 <Disable_NVIC+0xc4>)
 8000522:	f443 6380 	orr.w	r3, r3, #1024	; 0x400
 8000526:	6013      	str	r3, [r2, #0]
 8000528:	e00d      	b.n	8000546 <Disable_NVIC+0xba>
 800052a:	4b09      	ldr	r3, [pc, #36]	; (8000550 <Disable_NVIC+0xc4>)
 800052c:	681b      	ldr	r3, [r3, #0]
 800052e:	4a08      	ldr	r2, [pc, #32]	; (8000550 <Disable_NVIC+0xc4>)
 8000530:	f443 0300 	orr.w	r3, r3, #8388608	; 0x800000
 8000534:	6013      	str	r3, [r2, #0]
 8000536:	e006      	b.n	8000546 <Disable_NVIC+0xba>
 8000538:	4b06      	ldr	r3, [pc, #24]	; (8000554 <Disable_NVIC+0xc8>)
 800053a:	681b      	ldr	r3, [r3, #0]
 800053c:	4a05      	ldr	r2, [pc, #20]	; (8000554 <Disable_NVIC+0xc8>)
 800053e:	f443 7380 	orr.w	r3, r3, #256	; 0x100
 8000542:	6013      	str	r3, [r2, #0]
 8000544:	bf00      	nop
 8000546:	bf00      	nop
 8000548:	370c      	adds	r7, #12
 800054a:	46bd      	mov	sp, r7
 800054c:	bc80      	pop	{r7}
 800054e:	4770      	bx	lr
 8000550:	e000e180 	and	lr, r0, r0, lsl #3
 8000554:	e000e184 	and	lr, r0, r4, lsl #3

08000558 <Update_EXTI>:
 8000558:	b580      	push	{r7, lr}
 800055a:	b084      	sub	sp, #16
 800055c:	af00      	add	r7, sp, #0
 800055e:	6078      	str	r0, [r7, #4]
 8000560:	687b      	ldr	r3, [r7, #4]
 8000562:	891b      	ldrh	r3, [r3, #8]
 8000564:	813b      	strh	r3, [r7, #8]
 8000566:	2308      	movs	r3, #8
 8000568:	72bb      	strb	r3, [r7, #10]
 800056a:	687b      	ldr	r3, [r7, #4]
 800056c:	685b      	ldr	r3, [r3, #4]
 800056e:	f107 0208 	add.w	r2, r7, #8
 8000572:	4611      	mov	r1, r2
 8000574:	4618      	mov	r0, r3
 8000576:	f000 fa5a 	bl	8000a2e <MCAL_GPIO_Init>
 800057a:	687b      	ldr	r3, [r7, #4]
 800057c:	881b      	ldrh	r3, [r3, #0]
 800057e:	089b      	lsrs	r3, r3, #2
 8000580:	b29b      	uxth	r3, r3
 8000582:	73fb      	strb	r3, [r7, #15]
 8000584:	687b      	ldr	r3, [r7, #4]
 8000586:	881b      	ldrh	r3, [r3, #0]
 8000588:	b2db      	uxtb	r3, r3
 800058a:	f003 0303 	and.w	r3, r3, #3
 800058e:	b2db      	uxtb	r3, r3
 8000590:	009b      	lsls	r3, r3, #2
 8000592:	73bb      	strb	r3, [r7, #14]
 8000594:	4a5f      	ldr	r2, [pc, #380]	; (8000714 <Update_EXTI+0x1bc>)
 8000596:	7bfb      	ldrb	r3, [r7, #15]
 8000598:	3302      	adds	r3, #2
 800059a:	f852 2023 	ldr.w	r2, [r2, r3, lsl #2]
 800059e:	7bbb      	ldrb	r3, [r7, #14]
 80005a0:	210f      	movs	r1, #15
 80005a2:	fa01 f303 	lsl.w	r3, r1, r3
 80005a6:	43db      	mvns	r3, r3
 80005a8:	4618      	mov	r0, r3
 80005aa:	495a      	ldr	r1, [pc, #360]	; (8000714 <Update_EXTI+0x1bc>)
 80005ac:	7bfb      	ldrb	r3, [r7, #15]
 80005ae:	4002      	ands	r2, r0
 80005b0:	3302      	adds	r3, #2
 80005b2:	f841 2023 	str.w	r2, [r1, r3, lsl #2]
 80005b6:	4a57      	ldr	r2, [pc, #348]	; (8000714 <Update_EXTI+0x1bc>)
 80005b8:	7bfb      	ldrb	r3, [r7, #15]
 80005ba:	3302      	adds	r3, #2
 80005bc:	f852 2023 	ldr.w	r2, [r2, r3, lsl #2]
 80005c0:	687b      	ldr	r3, [r7, #4]
 80005c2:	685b      	ldr	r3, [r3, #4]
 80005c4:	4954      	ldr	r1, [pc, #336]	; (8000718 <Update_EXTI+0x1c0>)
 80005c6:	428b      	cmp	r3, r1
 80005c8:	d016      	beq.n	80005f8 <Update_EXTI+0xa0>
 80005ca:	687b      	ldr	r3, [r7, #4]
 80005cc:	685b      	ldr	r3, [r3, #4]
 80005ce:	4953      	ldr	r1, [pc, #332]	; (800071c <Update_EXTI+0x1c4>)
 80005d0:	428b      	cmp	r3, r1
 80005d2:	d00f      	beq.n	80005f4 <Update_EXTI+0x9c>
 80005d4:	687b      	ldr	r3, [r7, #4]
 80005d6:	685b      	ldr	r3, [r3, #4]
 80005d8:	4951      	ldr	r1, [pc, #324]	; (8000720 <Update_EXTI+0x1c8>)
 80005da:	428b      	cmp	r3, r1
 80005dc:	d008      	beq.n	80005f0 <Update_EXTI+0x98>
 80005de:	687b      	ldr	r3, [r7, #4]
 80005e0:	685b      	ldr	r3, [r3, #4]
 80005e2:	4950      	ldr	r1, [pc, #320]	; (8000724 <Update_EXTI+0x1cc>)
 80005e4:	428b      	cmp	r3, r1
 80005e6:	d101      	bne.n	80005ec <Update_EXTI+0x94>
 80005e8:	2303      	movs	r3, #3
 80005ea:	e006      	b.n	80005fa <Update_EXTI+0xa2>
 80005ec:	2300      	movs	r3, #0
 80005ee:	e004      	b.n	80005fa <Update_EXTI+0xa2>
 80005f0:	2302      	movs	r3, #2
 80005f2:	e002      	b.n	80005fa <Update_EXTI+0xa2>
 80005f4:	2301      	movs	r3, #1
 80005f6:	e000      	b.n	80005fa <Update_EXTI+0xa2>
 80005f8:	2300      	movs	r3, #0
 80005fa:	7bb9      	ldrb	r1, [r7, #14]
 80005fc:	408b      	lsls	r3, r1
 80005fe:	4618      	mov	r0, r3
 8000600:	4944      	ldr	r1, [pc, #272]	; (8000714 <Update_EXTI+0x1bc>)
 8000602:	7bfb      	ldrb	r3, [r7, #15]
 8000604:	4302      	orrs	r2, r0
 8000606:	3302      	adds	r3, #2
 8000608:	f841 2023 	str.w	r2, [r1, r3, lsl #2]
 800060c:	4b46      	ldr	r3, [pc, #280]	; (8000728 <Update_EXTI+0x1d0>)
 800060e:	689b      	ldr	r3, [r3, #8]
 8000610:	687a      	ldr	r2, [r7, #4]
 8000612:	8812      	ldrh	r2, [r2, #0]
 8000614:	4611      	mov	r1, r2
 8000616:	2201      	movs	r2, #1
 8000618:	408a      	lsls	r2, r1
 800061a:	43d2      	mvns	r2, r2
 800061c:	4611      	mov	r1, r2
 800061e:	4a42      	ldr	r2, [pc, #264]	; (8000728 <Update_EXTI+0x1d0>)
 8000620:	400b      	ands	r3, r1
 8000622:	6093      	str	r3, [r2, #8]
 8000624:	4b40      	ldr	r3, [pc, #256]	; (8000728 <Update_EXTI+0x1d0>)
 8000626:	68db      	ldr	r3, [r3, #12]
 8000628:	687a      	ldr	r2, [r7, #4]
 800062a:	8812      	ldrh	r2, [r2, #0]
 800062c:	4611      	mov	r1, r2
 800062e:	2201      	movs	r2, #1
 8000630:	408a      	lsls	r2, r1
 8000632:	43d2      	mvns	r2, r2
 8000634:	4611      	mov	r1, r2
 8000636:	4a3c      	ldr	r2, [pc, #240]	; (8000728 <Update_EXTI+0x1d0>)
 8000638:	400b      	ands	r3, r1
 800063a:	60d3      	str	r3, [r2, #12]
 800063c:	687b      	ldr	r3, [r7, #4]
 800063e:	7b1b      	ldrb	r3, [r3, #12]
 8000640:	2b00      	cmp	r3, #0
 8000642:	d10b      	bne.n	800065c <Update_EXTI+0x104>
 8000644:	4b38      	ldr	r3, [pc, #224]	; (8000728 <Update_EXTI+0x1d0>)
 8000646:	689b      	ldr	r3, [r3, #8]
 8000648:	687a      	ldr	r2, [r7, #4]
 800064a:	8812      	ldrh	r2, [r2, #0]
 800064c:	4611      	mov	r1, r2
 800064e:	2201      	movs	r2, #1
 8000650:	408a      	lsls	r2, r1
 8000652:	4611      	mov	r1, r2
 8000654:	4a34      	ldr	r2, [pc, #208]	; (8000728 <Update_EXTI+0x1d0>)
 8000656:	430b      	orrs	r3, r1
 8000658:	6093      	str	r3, [r2, #8]
 800065a:	e029      	b.n	80006b0 <Update_EXTI+0x158>
 800065c:	687b      	ldr	r3, [r7, #4]
 800065e:	7b1b      	ldrb	r3, [r3, #12]
 8000660:	2b01      	cmp	r3, #1
 8000662:	d10b      	bne.n	800067c <Update_EXTI+0x124>
 8000664:	4b30      	ldr	r3, [pc, #192]	; (8000728 <Update_EXTI+0x1d0>)
 8000666:	68db      	ldr	r3, [r3, #12]
 8000668:	687a      	ldr	r2, [r7, #4]
 800066a:	8812      	ldrh	r2, [r2, #0]
 800066c:	4611      	mov	r1, r2
 800066e:	2201      	movs	r2, #1
 8000670:	408a      	lsls	r2, r1
 8000672:	4611      	mov	r1, r2
 8000674:	4a2c      	ldr	r2, [pc, #176]	; (8000728 <Update_EXTI+0x1d0>)
 8000676:	430b      	orrs	r3, r1
 8000678:	60d3      	str	r3, [r2, #12]
 800067a:	e019      	b.n	80006b0 <Update_EXTI+0x158>
 800067c:	687b      	ldr	r3, [r7, #4]
 800067e:	7b1b      	ldrb	r3, [r3, #12]
 8000680:	2b02      	cmp	r3, #2
 8000682:	d115      	bne.n	80006b0 <Update_EXTI+0x158>
 8000684:	4b28      	ldr	r3, [pc, #160]	; (8000728 <Update_EXTI+0x1d0>)
 8000686:	689b      	ldr	r3, [r3, #8]
 8000688:	687a      	ldr	r2, [r7, #4]
 800068a:	8812      	ldrh	r2, [r2, #0]
 800068c:	4611      	mov	r1, r2
 800068e:	2201      	movs	r2, #1
 8000690:	408a      	lsls	r2, r1
 8000692:	4611      	mov	r1, r2
 8000694:	4a24      	ldr	r2, [pc, #144]	; (8000728 <Update_EXTI+0x1d0>)
 8000696:	430b      	orrs	r3, r1
 8000698:	6093      	str	r3, [r2, #8]
 800069a:	4b23      	ldr	r3, [pc, #140]	; (8000728 <Update_EXTI+0x1d0>)
 800069c:	68db      	ldr	r3, [r3, #12]
 800069e:	687a      	ldr	r2, [r7, #4]
 80006a0:	8812      	ldrh	r2, [r2, #0]
 80006a2:	4611      	mov	r1, r2
 80006a4:	2201      	movs	r2, #1
 80006a6:	408a      	lsls	r2, r1
 80006a8:	4611      	mov	r1, r2
 80006aa:	4a1f      	ldr	r2, [pc, #124]	; (8000728 <Update_EXTI+0x1d0>)
 80006ac:	430b      	orrs	r3, r1
 80006ae:	60d3      	str	r3, [r2, #12]
 80006b0:	687b      	ldr	r3, [r7, #4]
 80006b2:	881b      	ldrh	r3, [r3, #0]
 80006b4:	4619      	mov	r1, r3
 80006b6:	687b      	ldr	r3, [r7, #4]
 80006b8:	691b      	ldr	r3, [r3, #16]
 80006ba:	4a1c      	ldr	r2, [pc, #112]	; (800072c <Update_EXTI+0x1d4>)
 80006bc:	f842 3021 	str.w	r3, [r2, r1, lsl #2]
 80006c0:	687b      	ldr	r3, [r7, #4]
 80006c2:	7b5b      	ldrb	r3, [r3, #13]
 80006c4:	2b01      	cmp	r3, #1
 80006c6:	d110      	bne.n	80006ea <Update_EXTI+0x192>
 80006c8:	4b17      	ldr	r3, [pc, #92]	; (8000728 <Update_EXTI+0x1d0>)
 80006ca:	681b      	ldr	r3, [r3, #0]
 80006cc:	687a      	ldr	r2, [r7, #4]
 80006ce:	8812      	ldrh	r2, [r2, #0]
 80006d0:	4611      	mov	r1, r2
 80006d2:	2201      	movs	r2, #1
 80006d4:	408a      	lsls	r2, r1
 80006d6:	4611      	mov	r1, r2
 80006d8:	4a13      	ldr	r2, [pc, #76]	; (8000728 <Update_EXTI+0x1d0>)
 80006da:	430b      	orrs	r3, r1
 80006dc:	6013      	str	r3, [r2, #0]
 80006de:	687b      	ldr	r3, [r7, #4]
 80006e0:	881b      	ldrh	r3, [r3, #0]
 80006e2:	4618      	mov	r0, r3
 80006e4:	f7ff fe6c 	bl	80003c0 <Enable_NVIC>
 80006e8:	e010      	b.n	800070c <Update_EXTI+0x1b4>
 80006ea:	4b0f      	ldr	r3, [pc, #60]	; (8000728 <Update_EXTI+0x1d0>)
 80006ec:	681b      	ldr	r3, [r3, #0]
 80006ee:	687a      	ldr	r2, [r7, #4]
 80006f0:	8812      	ldrh	r2, [r2, #0]
 80006f2:	4611      	mov	r1, r2
 80006f4:	2201      	movs	r2, #1
 80006f6:	408a      	lsls	r2, r1
 80006f8:	43d2      	mvns	r2, r2
 80006fa:	4611      	mov	r1, r2
 80006fc:	4a0a      	ldr	r2, [pc, #40]	; (8000728 <Update_EXTI+0x1d0>)
 80006fe:	400b      	ands	r3, r1
 8000700:	6013      	str	r3, [r2, #0]
 8000702:	687b      	ldr	r3, [r7, #4]
 8000704:	881b      	ldrh	r3, [r3, #0]
 8000706:	4618      	mov	r0, r3
 8000708:	f7ff fec0 	bl	800048c <Disable_NVIC>
 800070c:	bf00      	nop
 800070e:	3710      	adds	r7, #16
 8000710:	46bd      	mov	sp, r7
 8000712:	bd80      	pop	{r7, pc}
 8000714:	40010000 	andmi	r0, r1, r0
 8000718:	40010800 	andmi	r0, r1, r0, lsl #16
 800071c:	40010c00 	andmi	r0, r1, r0, lsl #24
 8000720:	40011000 	andmi	r1, r1, r0
 8000724:	40011400 	andmi	r1, r1, r0, lsl #8
 8000728:	40010400 	andmi	r0, r1, r0, lsl #8
 800072c:	2000003c 	andcs	r0, r0, ip, lsr r0

08000730 <MCAL_EXTI_GPIO_Init>:
 8000730:	b580      	push	{r7, lr}
 8000732:	b082      	sub	sp, #8
 8000734:	af00      	add	r7, sp, #0
 8000736:	6078      	str	r0, [r7, #4]
 8000738:	6878      	ldr	r0, [r7, #4]
 800073a:	f7ff ff0d 	bl	8000558 <Update_EXTI>
 800073e:	bf00      	nop
 8000740:	3708      	adds	r7, #8
 8000742:	46bd      	mov	sp, r7
 8000744:	bd80      	pop	{r7, pc}
	...

08000748 <EXTI0_IRQHandler>:
 8000748:	b580      	push	{r7, lr}
 800074a:	af00      	add	r7, sp, #0
 800074c:	4b05      	ldr	r3, [pc, #20]	; (8000764 <EXTI0_IRQHandler+0x1c>)
 800074e:	695b      	ldr	r3, [r3, #20]
 8000750:	4a04      	ldr	r2, [pc, #16]	; (8000764 <EXTI0_IRQHandler+0x1c>)
 8000752:	f043 0301 	orr.w	r3, r3, #1
 8000756:	6153      	str	r3, [r2, #20]
 8000758:	4b03      	ldr	r3, [pc, #12]	; (8000768 <EXTI0_IRQHandler+0x20>)
 800075a:	681b      	ldr	r3, [r3, #0]
 800075c:	4798      	blx	r3
 800075e:	bf00      	nop
 8000760:	bd80      	pop	{r7, pc}
 8000762:	bf00      	nop
 8000764:	40010400 	andmi	r0, r1, r0, lsl #8
 8000768:	2000003c 	andcs	r0, r0, ip, lsr r0

0800076c <EXTI1_IRQHandler>:
 800076c:	b580      	push	{r7, lr}
 800076e:	af00      	add	r7, sp, #0
 8000770:	4b05      	ldr	r3, [pc, #20]	; (8000788 <EXTI1_IRQHandler+0x1c>)
 8000772:	695b      	ldr	r3, [r3, #20]
 8000774:	4a04      	ldr	r2, [pc, #16]	; (8000788 <EXTI1_IRQHandler+0x1c>)
 8000776:	f043 0302 	orr.w	r3, r3, #2
 800077a:	6153      	str	r3, [r2, #20]
 800077c:	4b03      	ldr	r3, [pc, #12]	; (800078c <EXTI1_IRQHandler+0x20>)
 800077e:	685b      	ldr	r3, [r3, #4]
 8000780:	4798      	blx	r3
 8000782:	bf00      	nop
 8000784:	bd80      	pop	{r7, pc}
 8000786:	bf00      	nop
 8000788:	40010400 	andmi	r0, r1, r0, lsl #8
 800078c:	2000003c 	andcs	r0, r0, ip, lsr r0

08000790 <EXTI2_IRQHandler>:
 8000790:	b580      	push	{r7, lr}
 8000792:	af00      	add	r7, sp, #0
 8000794:	4b05      	ldr	r3, [pc, #20]	; (80007ac <EXTI2_IRQHandler+0x1c>)
 8000796:	695b      	ldr	r3, [r3, #20]
 8000798:	4a04      	ldr	r2, [pc, #16]	; (80007ac <EXTI2_IRQHandler+0x1c>)
 800079a:	f043 0304 	orr.w	r3, r3, #4
 800079e:	6153      	str	r3, [r2, #20]
 80007a0:	4b03      	ldr	r3, [pc, #12]	; (80007b0 <EXTI2_IRQHandler+0x20>)
 80007a2:	689b      	ldr	r3, [r3, #8]
 80007a4:	4798      	blx	r3
 80007a6:	bf00      	nop
 80007a8:	bd80      	pop	{r7, pc}
 80007aa:	bf00      	nop
 80007ac:	40010400 	andmi	r0, r1, r0, lsl #8
 80007b0:	2000003c 	andcs	r0, r0, ip, lsr r0

080007b4 <EXTI3_IRQHandler>:
 80007b4:	b580      	push	{r7, lr}
 80007b6:	af00      	add	r7, sp, #0
 80007b8:	4b05      	ldr	r3, [pc, #20]	; (80007d0 <EXTI3_IRQHandler+0x1c>)
 80007ba:	695b      	ldr	r3, [r3, #20]
 80007bc:	4a04      	ldr	r2, [pc, #16]	; (80007d0 <EXTI3_IRQHandler+0x1c>)
 80007be:	f043 0308 	orr.w	r3, r3, #8
 80007c2:	6153      	str	r3, [r2, #20]
 80007c4:	4b03      	ldr	r3, [pc, #12]	; (80007d4 <EXTI3_IRQHandler+0x20>)
 80007c6:	68db      	ldr	r3, [r3, #12]
 80007c8:	4798      	blx	r3
 80007ca:	bf00      	nop
 80007cc:	bd80      	pop	{r7, pc}
 80007ce:	bf00      	nop
 80007d0:	40010400 	andmi	r0, r1, r0, lsl #8
 80007d4:	2000003c 	andcs	r0, r0, ip, lsr r0

080007d8 <EXTI4_IRQHandler>:
 80007d8:	b580      	push	{r7, lr}
 80007da:	af00      	add	r7, sp, #0
 80007dc:	4b05      	ldr	r3, [pc, #20]	; (80007f4 <EXTI4_IRQHandler+0x1c>)
 80007de:	695b      	ldr	r3, [r3, #20]
 80007e0:	4a04      	ldr	r2, [pc, #16]	; (80007f4 <EXTI4_IRQHandler+0x1c>)
 80007e2:	f043 0310 	orr.w	r3, r3, #16
 80007e6:	6153      	str	r3, [r2, #20]
 80007e8:	4b03      	ldr	r3, [pc, #12]	; (80007f8 <EXTI4_IRQHandler+0x20>)
 80007ea:	691b      	ldr	r3, [r3, #16]
 80007ec:	4798      	blx	r3
 80007ee:	bf00      	nop
 80007f0:	bd80      	pop	{r7, pc}
 80007f2:	bf00      	nop
 80007f4:	40010400 	andmi	r0, r1, r0, lsl #8
 80007f8:	2000003c 	andcs	r0, r0, ip, lsr r0

080007fc <EXTI9_5_IRQHandler>:
 80007fc:	b580      	push	{r7, lr}
 80007fe:	af00      	add	r7, sp, #0
 8000800:	4b26      	ldr	r3, [pc, #152]	; (800089c <EXTI9_5_IRQHandler+0xa0>)
 8000802:	695b      	ldr	r3, [r3, #20]
 8000804:	f003 0320 	and.w	r3, r3, #32
 8000808:	2b00      	cmp	r3, #0
 800080a:	d008      	beq.n	800081e <EXTI9_5_IRQHandler+0x22>
 800080c:	4b23      	ldr	r3, [pc, #140]	; (800089c <EXTI9_5_IRQHandler+0xa0>)
 800080e:	695b      	ldr	r3, [r3, #20]
 8000810:	4a22      	ldr	r2, [pc, #136]	; (800089c <EXTI9_5_IRQHandler+0xa0>)
 8000812:	f043 0320 	orr.w	r3, r3, #32
 8000816:	6153      	str	r3, [r2, #20]
 8000818:	4b21      	ldr	r3, [pc, #132]	; (80008a0 <EXTI9_5_IRQHandler+0xa4>)
 800081a:	695b      	ldr	r3, [r3, #20]
 800081c:	4798      	blx	r3
 800081e:	4b1f      	ldr	r3, [pc, #124]	; (800089c <EXTI9_5_IRQHandler+0xa0>)
 8000820:	695b      	ldr	r3, [r3, #20]
 8000822:	f003 0340 	and.w	r3, r3, #64	; 0x40
 8000826:	2b00      	cmp	r3, #0
 8000828:	d008      	beq.n	800083c <EXTI9_5_IRQHandler+0x40>
 800082a:	4b1c      	ldr	r3, [pc, #112]	; (800089c <EXTI9_5_IRQHandler+0xa0>)
 800082c:	695b      	ldr	r3, [r3, #20]
 800082e:	4a1b      	ldr	r2, [pc, #108]	; (800089c <EXTI9_5_IRQHandler+0xa0>)
 8000830:	f043 0340 	orr.w	r3, r3, #64	; 0x40
 8000834:	6153      	str	r3, [r2, #20]
 8000836:	4b1a      	ldr	r3, [pc, #104]	; (80008a0 <EXTI9_5_IRQHandler+0xa4>)
 8000838:	699b      	ldr	r3, [r3, #24]
 800083a:	4798      	blx	r3
 800083c:	4b17      	ldr	r3, [pc, #92]	; (800089c <EXTI9_5_IRQHandler+0xa0>)
 800083e:	695b      	ldr	r3, [r3, #20]
 8000840:	f003 0380 	and.w	r3, r3, #128	; 0x80
 8000844:	2b00      	cmp	r3, #0
 8000846:	d008      	beq.n	800085a <EXTI9_5_IRQHandler+0x5e>
 8000848:	4b14      	ldr	r3, [pc, #80]	; (800089c <EXTI9_5_IRQHandler+0xa0>)
 800084a:	695b      	ldr	r3, [r3, #20]
 800084c:	4a13      	ldr	r2, [pc, #76]	; (800089c <EXTI9_5_IRQHandler+0xa0>)
 800084e:	f043 0380 	orr.w	r3, r3, #128	; 0x80
 8000852:	6153      	str	r3, [r2, #20]
 8000854:	4b12      	ldr	r3, [pc, #72]	; (80008a0 <EXTI9_5_IRQHandler+0xa4>)
 8000856:	69db      	ldr	r3, [r3, #28]
 8000858:	4798      	blx	r3
 800085a:	4b10      	ldr	r3, [pc, #64]	; (800089c <EXTI9_5_IRQHandler+0xa0>)
 800085c:	695b      	ldr	r3, [r3, #20]
 800085e:	f403 7380 	and.w	r3, r3, #256	; 0x100
 8000862:	2b00      	cmp	r3, #0
 8000864:	d008      	beq.n	8000878 <EXTI9_5_IRQHandler+0x7c>
 8000866:	4b0d      	ldr	r3, [pc, #52]	; (800089c <EXTI9_5_IRQHandler+0xa0>)
 8000868:	695b      	ldr	r3, [r3, #20]
 800086a:	4a0c      	ldr	r2, [pc, #48]	; (800089c <EXTI9_5_IRQHandler+0xa0>)
 800086c:	f443 7380 	orr.w	r3, r3, #256	; 0x100
 8000870:	6153      	str	r3, [r2, #20]
 8000872:	4b0b      	ldr	r3, [pc, #44]	; (80008a0 <EXTI9_5_IRQHandler+0xa4>)
 8000874:	6a1b      	ldr	r3, [r3, #32]
 8000876:	4798      	blx	r3
 8000878:	4b08      	ldr	r3, [pc, #32]	; (800089c <EXTI9_5_IRQHandler+0xa0>)
 800087a:	695b      	ldr	r3, [r3, #20]
 800087c:	f403 7300 	and.w	r3, r3, #512	; 0x200
 8000880:	2b00      	cmp	r3, #0
 8000882:	d008      	beq.n	8000896 <EXTI9_5_IRQHandler+0x9a>
 8000884:	4b05      	ldr	r3, [pc, #20]	; (800089c <EXTI9_5_IRQHandler+0xa0>)
 8000886:	695b      	ldr	r3, [r3, #20]
 8000888:	4a04      	ldr	r2, [pc, #16]	; (800089c <EXTI9_5_IRQHandler+0xa0>)
 800088a:	f443 7300 	orr.w	r3, r3, #512	; 0x200
 800088e:	6153      	str	r3, [r2, #20]
 8000890:	4b03      	ldr	r3, [pc, #12]	; (80008a0 <EXTI9_5_IRQHandler+0xa4>)
 8000892:	6a5b      	ldr	r3, [r3, #36]	; 0x24
 8000894:	4798      	blx	r3
 8000896:	bf00      	nop
 8000898:	bd80      	pop	{r7, pc}
 800089a:	bf00      	nop
 800089c:	40010400 	andmi	r0, r1, r0, lsl #8
 80008a0:	2000003c 	andcs	r0, r0, ip, lsr r0

080008a4 <EXTI15_10_IRQHandler>:
 80008a4:	b580      	push	{r7, lr}
 80008a6:	af00      	add	r7, sp, #0
 80008a8:	4b2d      	ldr	r3, [pc, #180]	; (8000960 <EXTI15_10_IRQHandler+0xbc>)
 80008aa:	695b      	ldr	r3, [r3, #20]
 80008ac:	f403 6380 	and.w	r3, r3, #1024	; 0x400
 80008b0:	2b00      	cmp	r3, #0
 80008b2:	d008      	beq.n	80008c6 <EXTI15_10_IRQHandler+0x22>
 80008b4:	4b2a      	ldr	r3, [pc, #168]	; (8000960 <EXTI15_10_IRQHandler+0xbc>)
 80008b6:	695b      	ldr	r3, [r3, #20]
 80008b8:	4a29      	ldr	r2, [pc, #164]	; (8000960 <EXTI15_10_IRQHandler+0xbc>)
 80008ba:	f443 6380 	orr.w	r3, r3, #1024	; 0x400
 80008be:	6153      	str	r3, [r2, #20]
 80008c0:	4b28      	ldr	r3, [pc, #160]	; (8000964 <EXTI15_10_IRQHandler+0xc0>)
 80008c2:	6a9b      	ldr	r3, [r3, #40]	; 0x28
 80008c4:	4798      	blx	r3
 80008c6:	4b26      	ldr	r3, [pc, #152]	; (8000960 <EXTI15_10_IRQHandler+0xbc>)
 80008c8:	695b      	ldr	r3, [r3, #20]
 80008ca:	f403 6300 	and.w	r3, r3, #2048	; 0x800
 80008ce:	2b00      	cmp	r3, #0
 80008d0:	d008      	beq.n	80008e4 <EXTI15_10_IRQHandler+0x40>
 80008d2:	4b23      	ldr	r3, [pc, #140]	; (8000960 <EXTI15_10_IRQHandler+0xbc>)
 80008d4:	695b      	ldr	r3, [r3, #20]
 80008d6:	4a22      	ldr	r2, [pc, #136]	; (8000960 <EXTI15_10_IRQHandler+0xbc>)
 80008d8:	f443 6300 	orr.w	r3, r3, #2048	; 0x800
 80008dc:	6153      	str	r3, [r2, #20]
 80008de:	4b21      	ldr	r3, [pc, #132]	; (8000964 <EXTI15_10_IRQHandler+0xc0>)
 80008e0:	6adb      	ldr	r3, [r3, #44]	; 0x2c
 80008e2:	4798      	blx	r3
 80008e4:	4b1e      	ldr	r3, [pc, #120]	; (8000960 <EXTI15_10_IRQHandler+0xbc>)
 80008e6:	695b      	ldr	r3, [r3, #20]
 80008e8:	f403 5380 	and.w	r3, r3, #4096	; 0x1000
 80008ec:	2b00      	cmp	r3, #0
 80008ee:	d008      	beq.n	8000902 <EXTI15_10_IRQHandler+0x5e>
 80008f0:	4b1b      	ldr	r3, [pc, #108]	; (8000960 <EXTI15_10_IRQHandler+0xbc>)
 80008f2:	695b      	ldr	r3, [r3, #20]
 80008f4:	4a1a      	ldr	r2, [pc, #104]	; (8000960 <EXTI15_10_IRQHandler+0xbc>)
 80008f6:	f443 5380 	orr.w	r3, r3, #4096	; 0x1000
 80008fa:	6153      	str	r3, [r2, #20]
 80008fc:	4b19      	ldr	r3, [pc, #100]	; (8000964 <EXTI15_10_IRQHandler+0xc0>)
 80008fe:	6b1b      	ldr	r3, [r3, #48]	; 0x30
 8000900:	4798      	blx	r3
 8000902:	4b17      	ldr	r3, [pc, #92]	; (8000960 <EXTI15_10_IRQHandler+0xbc>)
 8000904:	695b      	ldr	r3, [r3, #20]
 8000906:	f403 5300 	and.w	r3, r3, #8192	; 0x2000
 800090a:	2b00      	cmp	r3, #0
 800090c:	d008      	beq.n	8000920 <EXTI15_10_IRQHandler+0x7c>
 800090e:	4b14      	ldr	r3, [pc, #80]	; (8000960 <EXTI15_10_IRQHandler+0xbc>)
 8000910:	695b      	ldr	r3, [r3, #20]
 8000912:	4a13      	ldr	r2, [pc, #76]	; (8000960 <EXTI15_10_IRQHandler+0xbc>)
 8000914:	f443 5300 	orr.w	r3, r3, #8192	; 0x2000
 8000918:	6153      	str	r3, [r2, #20]
 800091a:	4b12      	ldr	r3, [pc, #72]	; (8000964 <EXTI15_10_IRQHandler+0xc0>)
 800091c:	6b5b      	ldr	r3, [r3, #52]	; 0x34
 800091e:	4798      	blx	r3
 8000920:	4b0f      	ldr	r3, [pc, #60]	; (8000960 <EXTI15_10_IRQHandler+0xbc>)
 8000922:	695b      	ldr	r3, [r3, #20]
 8000924:	f403 4380 	and.w	r3, r3, #16384	; 0x4000
 8000928:	2b00      	cmp	r3, #0
 800092a:	d008      	beq.n	800093e <EXTI15_10_IRQHandler+0x9a>
 800092c:	4b0c      	ldr	r3, [pc, #48]	; (8000960 <EXTI15_10_IRQHandler+0xbc>)
 800092e:	695b      	ldr	r3, [r3, #20]
 8000930:	4a0b      	ldr	r2, [pc, #44]	; (8000960 <EXTI15_10_IRQHandler+0xbc>)
 8000932:	f443 4380 	orr.w	r3, r3, #16384	; 0x4000
 8000936:	6153      	str	r3, [r2, #20]
 8000938:	4b0a      	ldr	r3, [pc, #40]	; (8000964 <EXTI15_10_IRQHandler+0xc0>)
 800093a:	6b9b      	ldr	r3, [r3, #56]	; 0x38
 800093c:	4798      	blx	r3
 800093e:	4b08      	ldr	r3, [pc, #32]	; (8000960 <EXTI15_10_IRQHandler+0xbc>)
 8000940:	695b      	ldr	r3, [r3, #20]
 8000942:	f403 4300 	and.w	r3, r3, #32768	; 0x8000
 8000946:	2b00      	cmp	r3, #0
 8000948:	d008      	beq.n	800095c <EXTI15_10_IRQHandler+0xb8>
 800094a:	4b05      	ldr	r3, [pc, #20]	; (8000960 <EXTI15_10_IRQHandler+0xbc>)
 800094c:	695b      	ldr	r3, [r3, #20]
 800094e:	4a04      	ldr	r2, [pc, #16]	; (8000960 <EXTI15_10_IRQHandler+0xbc>)
 8000950:	f443 4300 	orr.w	r3, r3, #32768	; 0x8000
 8000954:	6153      	str	r3, [r2, #20]
 8000956:	4b03      	ldr	r3, [pc, #12]	; (8000964 <EXTI15_10_IRQHandler+0xc0>)
 8000958:	6bdb      	ldr	r3, [r3, #60]	; 0x3c
 800095a:	4798      	blx	r3
 800095c:	bf00      	nop
 800095e:	bd80      	pop	{r7, pc}
 8000960:	40010400 	andmi	r0, r1, r0, lsl #8
 8000964:	2000003c 	andcs	r0, r0, ip, lsr r0

08000968 <Get_CRLH_Position>:
 8000968:	b480      	push	{r7}
 800096a:	b083      	sub	sp, #12
 800096c:	af00      	add	r7, sp, #0
 800096e:	4603      	mov	r3, r0
 8000970:	80fb      	strh	r3, [r7, #6]
 8000972:	88fb      	ldrh	r3, [r7, #6]
 8000974:	2b80      	cmp	r3, #128	; 0x80
 8000976:	d042      	beq.n	80009fe <Get_CRLH_Position+0x96>
 8000978:	2b80      	cmp	r3, #128	; 0x80
 800097a:	dc11      	bgt.n	80009a0 <Get_CRLH_Position+0x38>
 800097c:	2b08      	cmp	r3, #8
 800097e:	d036      	beq.n	80009ee <Get_CRLH_Position+0x86>
 8000980:	2b08      	cmp	r3, #8
 8000982:	dc06      	bgt.n	8000992 <Get_CRLH_Position+0x2a>
 8000984:	2b02      	cmp	r3, #2
 8000986:	d02e      	beq.n	80009e6 <Get_CRLH_Position+0x7e>
 8000988:	2b04      	cmp	r3, #4
 800098a:	d02e      	beq.n	80009ea <Get_CRLH_Position+0x82>
 800098c:	2b01      	cmp	r3, #1
 800098e:	d028      	beq.n	80009e2 <Get_CRLH_Position+0x7a>
 8000990:	e047      	b.n	8000a22 <Get_CRLH_Position+0xba>
 8000992:	2b20      	cmp	r3, #32
 8000994:	d02f      	beq.n	80009f6 <Get_CRLH_Position+0x8e>
 8000996:	2b40      	cmp	r3, #64	; 0x40
 8000998:	d02f      	beq.n	80009fa <Get_CRLH_Position+0x92>
 800099a:	2b10      	cmp	r3, #16
 800099c:	d029      	beq.n	80009f2 <Get_CRLH_Position+0x8a>
 800099e:	e040      	b.n	8000a22 <Get_CRLH_Position+0xba>
 80009a0:	f5b3 6f00 	cmp.w	r3, #2048	; 0x800
 80009a4:	d033      	beq.n	8000a0e <Get_CRLH_Position+0xa6>
 80009a6:	f5b3 6f00 	cmp.w	r3, #2048	; 0x800
 80009aa:	dc09      	bgt.n	80009c0 <Get_CRLH_Position+0x58>
 80009ac:	f5b3 7f00 	cmp.w	r3, #512	; 0x200
 80009b0:	d029      	beq.n	8000a06 <Get_CRLH_Position+0x9e>
 80009b2:	f5b3 6f80 	cmp.w	r3, #1024	; 0x400
 80009b6:	d028      	beq.n	8000a0a <Get_CRLH_Position+0xa2>
 80009b8:	f5b3 7f80 	cmp.w	r3, #256	; 0x100
 80009bc:	d021      	beq.n	8000a02 <Get_CRLH_Position+0x9a>
 80009be:	e030      	b.n	8000a22 <Get_CRLH_Position+0xba>
 80009c0:	f5b3 5f00 	cmp.w	r3, #8192	; 0x2000
 80009c4:	d027      	beq.n	8000a16 <Get_CRLH_Position+0xae>
 80009c6:	f5b3 5f00 	cmp.w	r3, #8192	; 0x2000
 80009ca:	dc03      	bgt.n	80009d4 <Get_CRLH_Position+0x6c>
 80009cc:	f5b3 5f80 	cmp.w	r3, #4096	; 0x1000
 80009d0:	d01f      	beq.n	8000a12 <Get_CRLH_Position+0xaa>
 80009d2:	e026      	b.n	8000a22 <Get_CRLH_Position+0xba>
 80009d4:	f5b3 4f80 	cmp.w	r3, #16384	; 0x4000
 80009d8:	d01f      	beq.n	8000a1a <Get_CRLH_Position+0xb2>
 80009da:	f5b3 4f00 	cmp.w	r3, #32768	; 0x8000
 80009de:	d01e      	beq.n	8000a1e <Get_CRLH_Position+0xb6>
 80009e0:	e01f      	b.n	8000a22 <Get_CRLH_Position+0xba>
 80009e2:	2300      	movs	r3, #0
 80009e4:	e01e      	b.n	8000a24 <Get_CRLH_Position+0xbc>
 80009e6:	2304      	movs	r3, #4
 80009e8:	e01c      	b.n	8000a24 <Get_CRLH_Position+0xbc>
 80009ea:	2308      	movs	r3, #8
 80009ec:	e01a      	b.n	8000a24 <Get_CRLH_Position+0xbc>
 80009ee:	230c      	movs	r3, #12
 80009f0:	e018      	b.n	8000a24 <Get_CRLH_Position+0xbc>
 80009f2:	2310      	movs	r3, #16
 80009f4:	e016      	b.n	8000a24 <Get_CRLH_Position+0xbc>
 80009f6:	2314      	movs	r3, #20
 80009f8:	e014      	b.n	8000a24 <Get_CRLH_Position+0xbc>
 80009fa:	2318      	movs	r3, #24
 80009fc:	e012      	b.n	8000a24 <Get_CRLH_Position+0xbc>
 80009fe:	231c      	movs	r3, #28
 8000a00:	e010      	b.n	8000a24 <Get_CRLH_Position+0xbc>
 8000a02:	2300      	movs	r3, #0
 8000a04:	e00e      	b.n	8000a24 <Get_CRLH_Position+0xbc>
 8000a06:	2304      	movs	r3, #4
 8000a08:	e00c      	b.n	8000a24 <Get_CRLH_Position+0xbc>
 8000a0a:	2308      	movs	r3, #8
 8000a0c:	e00a      	b.n	8000a24 <Get_CRLH_Position+0xbc>
 8000a0e:	230c      	movs	r3, #12
 8000a10:	e008      	b.n	8000a24 <Get_CRLH_Position+0xbc>
 8000a12:	2310      	movs	r3, #16
 8000a14:	e006      	b.n	8000a24 <Get_CRLH_Position+0xbc>
 8000a16:	2314      	movs	r3, #20
 8000a18:	e004      	b.n	8000a24 <Get_CRLH_Position+0xbc>
 8000a1a:	2318      	movs	r3, #24
 8000a1c:	e002      	b.n	8000a24 <Get_CRLH_Position+0xbc>
 8000a1e:	231c      	movs	r3, #28
 8000a20:	e000      	b.n	8000a24 <Get_CRLH_Position+0xbc>
 8000a22:	2300      	movs	r3, #0
 8000a24:	4618      	mov	r0, r3
 8000a26:	370c      	adds	r7, #12
 8000a28:	46bd      	mov	sp, r7
 8000a2a:	bc80      	pop	{r7}
 8000a2c:	4770      	bx	lr

08000a2e <MCAL_GPIO_Init>:
 8000a2e:	b590      	push	{r4, r7, lr}
 8000a30:	b085      	sub	sp, #20
 8000a32:	af00      	add	r7, sp, #0
 8000a34:	6078      	str	r0, [r7, #4]
 8000a36:	6039      	str	r1, [r7, #0]
 8000a38:	2300      	movs	r3, #0
 8000a3a:	60bb      	str	r3, [r7, #8]
 8000a3c:	2300      	movs	r3, #0
 8000a3e:	73fb      	strb	r3, [r7, #15]
 8000a40:	683b      	ldr	r3, [r7, #0]
 8000a42:	881b      	ldrh	r3, [r3, #0]
 8000a44:	2bff      	cmp	r3, #255	; 0xff
 8000a46:	d801      	bhi.n	8000a4c <MCAL_GPIO_Init+0x1e>
 8000a48:	687b      	ldr	r3, [r7, #4]
 8000a4a:	e001      	b.n	8000a50 <MCAL_GPIO_Init+0x22>
 8000a4c:	687b      	ldr	r3, [r7, #4]
 8000a4e:	3304      	adds	r3, #4
 8000a50:	60bb      	str	r3, [r7, #8]
 8000a52:	683b      	ldr	r3, [r7, #0]
 8000a54:	881b      	ldrh	r3, [r3, #0]
 8000a56:	4618      	mov	r0, r3
 8000a58:	f7ff ff86 	bl	8000968 <Get_CRLH_Position>
 8000a5c:	4603      	mov	r3, r0
 8000a5e:	461a      	mov	r2, r3
 8000a60:	230f      	movs	r3, #15
 8000a62:	4093      	lsls	r3, r2
 8000a64:	43da      	mvns	r2, r3
 8000a66:	68bb      	ldr	r3, [r7, #8]
 8000a68:	681b      	ldr	r3, [r3, #0]
 8000a6a:	401a      	ands	r2, r3
 8000a6c:	68bb      	ldr	r3, [r7, #8]
 8000a6e:	601a      	str	r2, [r3, #0]
 8000a70:	683b      	ldr	r3, [r7, #0]
 8000a72:	789b      	ldrb	r3, [r3, #2]
 8000a74:	2b07      	cmp	r3, #7
 8000a76:	d00b      	beq.n	8000a90 <MCAL_GPIO_Init+0x62>
 8000a78:	683b      	ldr	r3, [r7, #0]
 8000a7a:	789b      	ldrb	r3, [r3, #2]
 8000a7c:	2b06      	cmp	r3, #6
 8000a7e:	d007      	beq.n	8000a90 <MCAL_GPIO_Init+0x62>
 8000a80:	683b      	ldr	r3, [r7, #0]
 8000a82:	789b      	ldrb	r3, [r3, #2]
 8000a84:	2b05      	cmp	r3, #5
 8000a86:	d003      	beq.n	8000a90 <MCAL_GPIO_Init+0x62>
 8000a88:	683b      	ldr	r3, [r7, #0]
 8000a8a:	789b      	ldrb	r3, [r3, #2]
 8000a8c:	2b04      	cmp	r3, #4
 8000a8e:	d10e      	bne.n	8000aae <MCAL_GPIO_Init+0x80>
 8000a90:	683b      	ldr	r3, [r7, #0]
 8000a92:	789b      	ldrb	r3, [r3, #2]
 8000a94:	3b04      	subs	r3, #4
 8000a96:	009b      	lsls	r3, r3, #2
 8000a98:	b25a      	sxtb	r2, r3
 8000a9a:	683b      	ldr	r3, [r7, #0]
 8000a9c:	78db      	ldrb	r3, [r3, #3]
 8000a9e:	b25b      	sxtb	r3, r3
 8000aa0:	4313      	orrs	r3, r2
 8000aa2:	b25b      	sxtb	r3, r3
 8000aa4:	b2db      	uxtb	r3, r3
 8000aa6:	f003 030f 	and.w	r3, r3, #15
 8000aaa:	73fb      	strb	r3, [r7, #15]
 8000aac:	e02c      	b.n	8000b08 <MCAL_GPIO_Init+0xda>
 8000aae:	683b      	ldr	r3, [r7, #0]
 8000ab0:	789b      	ldrb	r3, [r3, #2]
 8000ab2:	2b01      	cmp	r3, #1
 8000ab4:	d003      	beq.n	8000abe <MCAL_GPIO_Init+0x90>
 8000ab6:	683b      	ldr	r3, [r7, #0]
 8000ab8:	789b      	ldrb	r3, [r3, #2]
 8000aba:	2b00      	cmp	r3, #0
 8000abc:	d107      	bne.n	8000ace <MCAL_GPIO_Init+0xa0>
 8000abe:	683b      	ldr	r3, [r7, #0]
 8000ac0:	789b      	ldrb	r3, [r3, #2]
 8000ac2:	009b      	lsls	r3, r3, #2
 8000ac4:	b2db      	uxtb	r3, r3
 8000ac6:	f003 030f 	and.w	r3, r3, #15
 8000aca:	73fb      	strb	r3, [r7, #15]
 8000acc:	e01c      	b.n	8000b08 <MCAL_GPIO_Init+0xda>
 8000ace:	683b      	ldr	r3, [r7, #0]
 8000ad0:	789b      	ldrb	r3, [r3, #2]
 8000ad2:	2b08      	cmp	r3, #8
 8000ad4:	d102      	bne.n	8000adc <MCAL_GPIO_Init+0xae>
 8000ad6:	2304      	movs	r3, #4
 8000ad8:	73fb      	strb	r3, [r7, #15]
 8000ada:	e015      	b.n	8000b08 <MCAL_GPIO_Init+0xda>
 8000adc:	2308      	movs	r3, #8
 8000ade:	73fb      	strb	r3, [r7, #15]
 8000ae0:	683b      	ldr	r3, [r7, #0]
 8000ae2:	789b      	ldrb	r3, [r3, #2]
 8000ae4:	2b02      	cmp	r3, #2
 8000ae6:	d107      	bne.n	8000af8 <MCAL_GPIO_Init+0xca>
 8000ae8:	687b      	ldr	r3, [r7, #4]
 8000aea:	68db      	ldr	r3, [r3, #12]
 8000aec:	683a      	ldr	r2, [r7, #0]
 8000aee:	8812      	ldrh	r2, [r2, #0]
 8000af0:	431a      	orrs	r2, r3
 8000af2:	687b      	ldr	r3, [r7, #4]
 8000af4:	60da      	str	r2, [r3, #12]
 8000af6:	e007      	b.n	8000b08 <MCAL_GPIO_Init+0xda>
 8000af8:	687b      	ldr	r3, [r7, #4]
 8000afa:	68db      	ldr	r3, [r3, #12]
 8000afc:	683a      	ldr	r2, [r7, #0]
 8000afe:	8812      	ldrh	r2, [r2, #0]
 8000b00:	43d2      	mvns	r2, r2
 8000b02:	401a      	ands	r2, r3
 8000b04:	687b      	ldr	r3, [r7, #4]
 8000b06:	60da      	str	r2, [r3, #12]
 8000b08:	7bfc      	ldrb	r4, [r7, #15]
 8000b0a:	683b      	ldr	r3, [r7, #0]
 8000b0c:	881b      	ldrh	r3, [r3, #0]
 8000b0e:	4618      	mov	r0, r3
 8000b10:	f7ff ff2a 	bl	8000968 <Get_CRLH_Position>
 8000b14:	4603      	mov	r3, r0
 8000b16:	fa04 f203 	lsl.w	r2, r4, r3
 8000b1a:	68bb      	ldr	r3, [r7, #8]
 8000b1c:	681b      	ldr	r3, [r3, #0]
 8000b1e:	431a      	orrs	r2, r3
 8000b20:	68bb      	ldr	r3, [r7, #8]
 8000b22:	601a      	str	r2, [r3, #0]
 8000b24:	bf00      	nop
 8000b26:	3714      	adds	r7, #20
 8000b28:	46bd      	mov	sp, r7
 8000b2a:	bd90      	pop	{r4, r7, pc}

08000b2c <__libc_init_array>:
 8000b2c:	b570      	push	{r4, r5, r6, lr}
 8000b2e:	2500      	movs	r5, #0
 8000b30:	4e0c      	ldr	r6, [pc, #48]	; (8000b64 <__libc_init_array+0x38>)
 8000b32:	4c0d      	ldr	r4, [pc, #52]	; (8000b68 <__libc_init_array+0x3c>)
 8000b34:	1ba4      	subs	r4, r4, r6
 8000b36:	10a4      	asrs	r4, r4, #2
 8000b38:	42a5      	cmp	r5, r4
 8000b3a:	d109      	bne.n	8000b50 <__libc_init_array+0x24>
 8000b3c:	f000 f81a 	bl	8000b74 <_init>
 8000b40:	2500      	movs	r5, #0
 8000b42:	4e0a      	ldr	r6, [pc, #40]	; (8000b6c <__libc_init_array+0x40>)
 8000b44:	4c0a      	ldr	r4, [pc, #40]	; (8000b70 <__libc_init_array+0x44>)
 8000b46:	1ba4      	subs	r4, r4, r6
 8000b48:	10a4      	asrs	r4, r4, #2
 8000b4a:	42a5      	cmp	r5, r4
 8000b4c:	d105      	bne.n	8000b5a <__libc_init_array+0x2e>
 8000b4e:	bd70      	pop	{r4, r5, r6, pc}
 8000b50:	f856 3025 	ldr.w	r3, [r6, r5, lsl #2]
 8000b54:	4798      	blx	r3
 8000b56:	3501      	adds	r5, #1
 8000b58:	e7ee      	b.n	8000b38 <__libc_init_array+0xc>
 8000b5a:	f856 3025 	ldr.w	r3, [r6, r5, lsl #2]
 8000b5e:	4798      	blx	r3
 8000b60:	3501      	adds	r5, #1
 8000b62:	e7f2      	b.n	8000b4a <__libc_init_array+0x1e>
 8000b64:	08000b98 	stmdaeq	r0, {r3, r4, r7, r8, r9, fp}
 8000b68:	08000b98 	stmdaeq	r0, {r3, r4, r7, r8, r9, fp}
 8000b6c:	08000b98 	stmdaeq	r0, {r3, r4, r7, r8, r9, fp}
 8000b70:	08000b9c 	stmdaeq	r0, {r2, r3, r4, r7, r8, r9, fp}

08000b74 <_init>:
 8000b74:	b5f8      	push	{r3, r4, r5, r6, r7, lr}
 8000b76:	bf00      	nop
 8000b78:	bcf8      	pop	{r3, r4, r5, r6, r7}
 8000b7a:	bc08      	pop	{r3}
 8000b7c:	469e      	mov	lr, r3
 8000b7e:	4770      	bx	lr

08000b80 <_fini>:
 8000b80:	b5f8      	push	{r3, r4, r5, r6, r7, lr}
 8000b82:	bf00      	nop
 8000b84:	bcf8      	pop	{r3, r4, r5, r6, r7}
 8000b86:	bc08      	pop	{r3}
 8000b88:	469e      	mov	lr, r3
 8000b8a:	4770      	bx	lr

Disassembly of section .rodata:

08000b8c <.rodata>:
 8000b8c:	00000009 	andeq	r0, r0, r9
 8000b90:	40010c00 	andmi	r0, r1, r0, lsl #24
 8000b94:	00170200 	andseq	r0, r7, r0, lsl #4

Disassembly of section .init_array:

08000b98 <__frame_dummy_init_array_entry>:
 8000b98:	08000155 	stmdaeq	r0, {r0, r2, r4, r6, r8}

Disassembly of section .fini_array:

08000b9c <__do_global_dtors_aux_fini_array_entry>:
 8000b9c:	08000131 	stmdaeq	r0, {r0, r4, r5, r8}

Disassembly of section .data:

20000000 <_S_MSP>:
20000000:	20002800 	andcs	r2, r0, r0, lsl #16

Disassembly of section .bss:

20000004 <__bss_start__>:
20000004:	00000000 	andeq	r0, r0, r0

20000008 <object.8661>:
	...

20000020 <IRQ_Flag>:
20000020:	00000000 	andeq	r0, r0, r0

20000024 <_E_MSP>:
20000024:	00000000 	andeq	r0, r0, r0

20000028 <_S_PSP_TA>:
20000028:	00000000 	andeq	r0, r0, r0

2000002c <TaskA_Flag>:
	...

2000002e <TaskB_Flag>:
	...

20000030 <_S_PSP_TB>:
20000030:	00000000 	andeq	r0, r0, r0

20000034 <_E_PSP_TB>:
20000034:	00000000 	andeq	r0, r0, r0

20000038 <_E_PSP_TA>:
20000038:	00000000 	andeq	r0, r0, r0

2000003c <GP_IRQ_CallBack>:
	...

Disassembly of section ._user_heap_stack:

20000078 <_end>:
	...

Disassembly of section .ARM.attributes:

00000000 <.ARM.attributes>:
   0:	00002841 	andeq	r2, r0, r1, asr #16
   4:	61656100 	cmnvs	r5, r0, lsl #2
   8:	01006962 	tsteq	r0, r2, ror #18
   c:	0000001e 	andeq	r0, r0, lr, lsl r0
  10:	4d2d3705 	stcmi	7, cr3, [sp, #-20]!	; 0xffffffec
  14:	070a0600 	streq	r0, [sl, -r0, lsl #12]
  18:	1202094d 	andne	r0, r2, #1261568	; 0x134000
  1c:	15011404 	strne	r1, [r1, #-1028]	; 0xfffffbfc
  20:	18031701 	stmdane	r3, {r0, r8, r9, sl, ip}
  24:	22011a01 	andcs	r1, r1, #4096	; 0x1000
  28:	Address 0x0000000000000028 is out of bounds.


Disassembly of section .debug_info:

00000000 <.debug_info>:
       0:	00000d22 	andeq	r0, r0, r2, lsr #26
       4:	00000002 	andeq	r0, r0, r2
       8:	01040000 	mrseq	r0, (UNDEF: 4)
       c:	00008988 	andeq	r8, r0, r8, lsl #19
      10:	0031bb0c 	eorseq	fp, r1, ip, lsl #22
      14:	00370a00 	eorseq	r0, r7, r0, lsl #20
	...
      2c:	07040200 	streq	r0, [r4, -r0, lsl #4]
      30:	000021f4 	strdeq	r2, [r0], -r4
      34:	69050403 	stmdbvs	r5, {r0, r1, sl}
      38:	0200746e 	andeq	r7, r0, #1845493760	; 0x6e000000
      3c:	527a0508 	rsbspl	r0, sl, #8, 10	; 0x2000000
      40:	08020000 	stmdaeq	r2, {}	; <UNPREDICTABLE>
      44:	0002a004 	andeq	sl, r2, r4
      48:	06010200 	streq	r0, [r1], -r0, lsl #4
      4c:	000007d6 	ldrdeq	r0, [r0], -r6
      50:	0013c604 	andseq	ip, r3, r4, lsl #12
      54:	5b2b0200 	blpl	ac085c <_Min_Stack_Size+0xac045c>
      58:	02000000 	andeq	r0, r0, #0
      5c:	312f0801 			; <UNDEFINED> instruction: 0x312f0801
      60:	02020000 	andeq	r0, r2, #0
      64:	000a8305 	andeq	r8, sl, r5, lsl #6
      68:	2a540400 	bcs	1501070 <_Min_Stack_Size+0x1500c70>
      6c:	39020000 	stmdbcc	r2, {}	; <UNPREDICTABLE>
      70:	00000074 	andeq	r0, r0, r4, ror r0
      74:	77070202 	strvc	r0, [r7, -r2, lsl #4]
      78:	02000069 	andeq	r0, r0, #105	; 0x69
      7c:	6c600504 	cfstr64vs	mvdx0, [r0], #-16
      80:	7b040000 	blvc	100088 <_Min_Stack_Size+0xffc88>
      84:	02000042 	andeq	r0, r0, #66	; 0x42
      88:	00008d4f 	andeq	r8, r0, pc, asr #26
      8c:	07040200 	streq	r0, [r4, -r0, lsl #4]
      90:	00001a39 	andeq	r1, r0, r9, lsr sl
      94:	66070802 	strvs	r0, [r7], -r2, lsl #16
      98:	04000076 	streq	r0, [r0], #-118	; 0xffffff8a
      9c:	000044ef 	andeq	r4, r0, pc, ror #9
      a0:	00340c03 	eorseq	r0, r4, r3, lsl #24
      a4:	a1040000 	mrsge	r0, (UNDEF: 4)
      a8:	04000085 	streq	r0, [r0], #-133	; 0xffffff7b
      ac:	00007b2c 	andeq	r7, r0, ip, lsr #22
      b0:	64e40400 	strbtvs	r0, [r4], #1024	; 0x400
      b4:	72040000 	andvc	r0, r4, #0
      b8:	0000007b 	andeq	r0, r0, fp, ror r0
      bc:	00240b05 	eoreq	r0, r4, r5, lsl #22
      c0:	01650500 	cmneq	r5, r0, lsl #10
      c4:	0000002d 	andeq	r0, r0, sp, lsr #32
      c8:	a6040406 	strge	r0, [r4], -r6, lsl #8
      cc:	000000e7 	andeq	r0, r0, r7, ror #1
      d0:	00159307 	andseq	r9, r5, r7, lsl #6
      d4:	bca80400 	cfstrslt	mvf0, [r8]
      d8:	07000000 	streq	r0, [r0, -r0]
      dc:	0000726d 	andeq	r7, r0, sp, ror #4
      e0:	00e7a904 	rsceq	sl, r7, r4, lsl #18
      e4:	08000000 	stmdaeq	r0, {}	; <UNPREDICTABLE>
      e8:	0000005b 	andeq	r0, r0, fp, asr r0
      ec:	000000f7 	strdeq	r0, [r0], -r7
      f0:	00002d09 	andeq	r2, r0, r9, lsl #26
      f4:	0a000300 	beq	cfc <_Min_Stack_Size+0x8fc>
      f8:	1ca30408 	cfstrsne	mvf0, [r3], #32
      fc:	0b000001 	bleq	108 <_Min_Heap_Size-0xf8>
     100:	0000603f 	andeq	r6, r0, pc, lsr r0
     104:	0034a504 	eorseq	sl, r4, r4, lsl #10
     108:	23020000 	movwcs	r0, #8192	; 0x2000
     10c:	01ef0b00 	mvneq	r0, r0, lsl #22
     110:	aa040000 	bge	100118 <_Min_Stack_Size+0xffd18>
     114:	000000c8 	andeq	r0, r0, r8, asr #1
     118:	00042302 	andeq	r2, r4, r2, lsl #6
     11c:	00651304 	rsbeq	r1, r5, r4, lsl #6
     120:	f7ab0400 			; <UNDEFINED> instruction: 0xf7ab0400
     124:	04000000 	streq	r0, [r0], #-0
     128:	00006e2b 	andeq	r6, r0, fp, lsr #28
     12c:	009baf04 	addseq	sl, fp, r4, lsl #30
     130:	040c0000 	streq	r0, [ip], #-0
     134:	013a040d 	teqeq	sl, sp, lsl #8
     138:	01020000 	mrseq	r0, (UNDEF: 2)
     13c:	0007dd08 	andeq	sp, r7, r8, lsl #26
     140:	013a0e00 	teqeq	sl, r0, lsl #28
     144:	f5040000 			; <UNDEFINED> instruction: 0xf5040000
     148:	06000082 	streq	r0, [r0], -r2, lsl #1
     14c:	00008d16 	andeq	r8, r0, r6, lsl sp
     150:	495b0f00 	ldmdbmi	fp, {r8, r9, sl, fp}^
     154:	06180000 	ldreq	r0, [r8], -r0
     158:	0001b02f 	andeq	fp, r1, pc, lsr #32
     15c:	5c870b00 	vstmiapl	r7, {d0-d-1}
     160:	31060000 	mrscc	r0, (UNDEF: 6)
     164:	000001b0 			; <UNDEFINED> instruction: 0x000001b0
     168:	10002302 	andne	r2, r0, r2, lsl #6
     16c:	06006b5f 			; <UNDEFINED> instruction: 0x06006b5f
     170:	00003432 	andeq	r3, r0, r2, lsr r4
     174:	04230200 	strteq	r0, [r3], #-512	; 0xfffffe00
     178:	007be00b 	rsbseq	lr, fp, fp
     17c:	34320600 	ldrtcc	r0, [r2], #-1536	; 0xfffffa00
     180:	02000000 	andeq	r0, r0, #0
     184:	7c0b0823 	stcvc	8, cr0, [fp], {35}	; 0x23
     188:	06000054 			; <UNDEFINED> instruction: 0x06000054
     18c:	00003432 	andeq	r3, r0, r2, lsr r4
     190:	0c230200 	sfmeq	f0, 4, [r3], #-0
     194:	00367c0b 	eorseq	r7, r6, fp, lsl #24
     198:	34320600 	ldrtcc	r0, [r2], #-1536	; 0xfffffa00
     19c:	02000000 	andeq	r0, r0, #0
     1a0:	5f101023 	svcpl	0x00101023
     1a4:	33060078 	movwcc	r0, #24696	; 0x6078
     1a8:	000001b6 			; <UNDEFINED> instruction: 0x000001b6
     1ac:	00142302 	andseq	r2, r4, r2, lsl #6
     1b0:	0151040d 	cmpeq	r1, sp, lsl #8
     1b4:	46080000 	strmi	r0, [r8], -r0
     1b8:	c6000001 	strgt	r0, [r0], -r1
     1bc:	09000001 	stmdbeq	r0, {r0}
     1c0:	0000002d 	andeq	r0, r0, sp, lsr #32
     1c4:	ef0f0000 	svc	0x000f0000
     1c8:	24000009 	strcs	r0, [r0], #-9
     1cc:	02513706 	subseq	r3, r1, #1572864	; 0x180000
     1d0:	0b0b0000 	bleq	2c01d8 <_Min_Stack_Size+0x2bfdd8>
     1d4:	0600000a 	streq	r0, [r0], -sl
     1d8:	00003439 	andeq	r3, r0, r9, lsr r4
     1dc:	00230200 	eoreq	r0, r3, r0, lsl #4
     1e0:	008ee90b 	addeq	lr, lr, fp, lsl #18
     1e4:	343a0600 	ldrtcc	r0, [sl], #-1536	; 0xfffffa00
     1e8:	02000000 	andeq	r0, r0, #0
     1ec:	fb0b0423 	blx	2c1282 <_Min_Stack_Size+0x2c0e82>
     1f0:	06000086 	streq	r0, [r0], -r6, lsl #1
     1f4:	0000343b 	andeq	r3, r0, fp, lsr r4
     1f8:	08230200 	stmdaeq	r3!, {r9}
     1fc:	005ab00b 	subseq	fp, sl, fp
     200:	343c0600 	ldrtcc	r0, [ip], #-1536	; 0xfffffa00
     204:	02000000 	andeq	r0, r0, #0
     208:	ec0b0c23 	stc	12, cr0, [fp], {35}	; 0x23
     20c:	0600001a 			; <UNDEFINED> instruction: 0x0600001a
     210:	0000343d 	andeq	r3, r0, sp, lsr r4
     214:	10230200 	eorne	r0, r3, r0, lsl #4
     218:	007c580b 	rsbseq	r5, ip, fp, lsl #16
     21c:	343e0600 	ldrtcc	r0, [lr], #-1536	; 0xfffffa00
     220:	02000000 	andeq	r0, r0, #0
     224:	db0b1423 	blle	2c52b8 <_Min_Stack_Size+0x2c4eb8>
     228:	06000061 	streq	r0, [r0], -r1, rrx
     22c:	0000343f 	andeq	r3, r0, pc, lsr r4
     230:	18230200 	stmdane	r3!, {r9}
     234:	00629f0b 	rsbeq	r9, r2, fp, lsl #30
     238:	34400600 	strbcc	r0, [r0], #-1536	; 0xfffffa00
     23c:	02000000 	andeq	r0, r0, #0
     240:	fb0b1c23 	blx	2c72d6 <_Min_Stack_Size+0x2c6ed6>
     244:	0600008c 	streq	r0, [r0], -ip, lsl #1
     248:	00003441 	andeq	r3, r0, r1, asr #8
     24c:	20230200 	eorcs	r0, r3, r0, lsl #4
     250:	14b01100 	ldrtne	r1, [r0], #256	; 0x100
     254:	01080000 	mrseq	r0, (UNDEF: 8)
     258:	029a4a06 	addseq	r4, sl, #24576	; 0x6000
     25c:	3d0b0000 	stccc	0, cr0, [fp, #-0]
     260:	0600000d 	streq	r0, [r0], -sp
     264:	00029a4b 	andeq	r9, r2, fp, asr #20
     268:	00230200 	eoreq	r0, r3, r0, lsl #4
     26c:	0068370b 	rsbeq	r3, r8, fp, lsl #14
     270:	9a4c0600 	bls	1301a78 <_Min_Stack_Size+0x1301678>
     274:	03000002 	movweq	r0, #2
     278:	0b018023 	bleq	6030c <_Min_Stack_Size+0x5ff0c>
     27c:	000019d9 	ldrdeq	r1, [r0], -r9
     280:	01464e06 	cmpeq	r6, r6, lsl #28
     284:	23030000 	movwcs	r0, #12288	; 0x3000
     288:	aa0b0280 	bge	2c0c90 <_Min_Stack_Size+0x2c0890>
     28c:	06000081 	streq	r0, [r0], -r1, lsl #1
     290:	00014651 	andeq	r4, r1, r1, asr r6
     294:	84230300 	strthi	r0, [r3], #-768	; 0xfffffd00
     298:	32080002 	andcc	r0, r8, #2
     29c:	aa000001 	bge	2a8 <_Min_Heap_Size+0xa8>
     2a0:	09000002 	stmdbeq	r0, {r1}
     2a4:	0000002d 	andeq	r0, r0, sp, lsr #32
     2a8:	b00f001f 	andlt	r0, pc, pc, lsl r0	; <UNPREDICTABLE>
     2ac:	8c000048 	stchi	0, cr0, [r0], {72}	; 0x48
     2b0:	02f05506 	rscseq	r5, r0, #25165824	; 0x1800000
     2b4:	870b0000 	strhi	r0, [fp, -r0]
     2b8:	0600005c 			; <UNDEFINED> instruction: 0x0600005c
     2bc:	0002f056 	andeq	pc, r2, r6, asr r0	; <UNPREDICTABLE>
     2c0:	00230200 	eoreq	r0, r3, r0, lsl #4
     2c4:	0026640b 	eoreq	r6, r6, fp, lsl #8
     2c8:	34570600 	ldrbcc	r0, [r7], #-1536	; 0xfffffa00
     2cc:	02000000 	andeq	r0, r0, #0
     2d0:	4d0b0423 	cfstrsmi	mvf0, [fp, #-140]	; 0xffffff74
     2d4:	06000028 	streq	r0, [r0], -r8, lsr #32
     2d8:	0002f658 	andeq	pc, r2, r8, asr r6	; <UNPREDICTABLE>
     2dc:	08230200 	stmdaeq	r3!, {r9}
     2e0:	002dd50b 	eoreq	sp, sp, fp, lsl #10
     2e4:	0e590600 	cdpeq	6, 5, cr0, cr9, cr0, {0}
     2e8:	03000003 	movweq	r0, #3
     2ec:	00018823 	andeq	r8, r1, r3, lsr #16
     2f0:	02aa040d 	adceq	r0, sl, #218103808	; 0xd000000
     2f4:	06080000 	streq	r0, [r8], -r0
     2f8:	06000003 	streq	r0, [r0], -r3
     2fc:	09000003 	stmdbeq	r0, {r0, r1}
     300:	0000002d 	andeq	r0, r0, sp, lsr #32
     304:	040d001f 	streq	r0, [sp], #-31	; 0xffffffe1
     308:	0000030c 	andeq	r0, r0, ip, lsl #6
     30c:	040d0112 	streq	r0, [sp], #-274	; 0xfffffeee
     310:	00000251 	andeq	r0, r0, r1, asr r2
     314:	0002df0f 	andeq	sp, r2, pc, lsl #30
     318:	75060800 	strvc	r0, [r6, #-2048]	; 0xfffff800
     31c:	0000033d 	andeq	r0, r0, sp, lsr r3
     320:	006b040b 	rsbeq	r0, fp, fp, lsl #8
     324:	3d760600 	ldclcc	6, cr0, [r6, #-0]
     328:	02000003 	andeq	r0, r0, #3
     32c:	010b0023 	tsteq	fp, r3, lsr #32
     330:	06000018 			; <UNDEFINED> instruction: 0x06000018
     334:	00003477 	andeq	r3, r0, r7, ror r4
     338:	04230200 	strteq	r0, [r3], #-512	; 0xfffffe00
     33c:	5b040d00 	blpl	103744 <_Min_Stack_Size+0x103344>
     340:	0f000000 	svceq	0x00000000
     344:	00003647 	andeq	r3, r0, r7, asr #12
     348:	bd990620 	ldclt	6, cr0, [r9, #128]	; 0x80
     34c:	10000003 	andne	r0, r0, r3
     350:	0600705f 			; <UNDEFINED> instruction: 0x0600705f
     354:	00033d9a 	muleq	r3, sl, sp
     358:	00230200 	eoreq	r0, r3, r0, lsl #4
     35c:	00725f10 	rsbseq	r5, r2, r0, lsl pc
     360:	00349b06 	eorseq	r9, r4, r6, lsl #22
     364:	23020000 	movwcs	r0, #8192	; 0x2000
     368:	775f1004 	ldrbvc	r1, [pc, -r4]
     36c:	349c0600 	ldrcc	r0, [ip], #1536	; 0x600
     370:	02000000 	andeq	r0, r0, #0
     374:	a50b0823 	strge	r0, [fp, #-2083]	; 0xfffff7dd
     378:	0600005c 			; <UNDEFINED> instruction: 0x0600005c
     37c:	0000629d 	muleq	r0, sp, r2
     380:	0c230200 	sfmeq	f0, 4, [r3], #-0
     384:	00145f0b 	andseq	r5, r4, fp, lsl #30
     388:	629e0600 	addsvs	r0, lr, #0, 12
     38c:	02000000 	andeq	r0, r0, #0
     390:	5f100e23 	svcpl	0x00100e23
     394:	06006662 	streq	r6, [r0], -r2, ror #12
     398:	0003149f 	muleq	r3, pc, r4	; <UNPREDICTABLE>
     39c:	10230200 	eorne	r0, r3, r0, lsl #4
     3a0:	0080140b 	addeq	r1, r0, fp, lsl #8
     3a4:	34a00600 	strtcc	r0, [r0], #1536	; 0x600
     3a8:	02000000 	andeq	r0, r0, #0
     3ac:	ad0b1823 	stcge	8, cr1, [fp, #-140]	; 0xffffff74
     3b0:	06000070 			; <UNDEFINED> instruction: 0x06000070
     3b4:	00051aa2 	andeq	r1, r5, r2, lsr #21
     3b8:	1c230200 	sfmne	f0, 4, [r3], #-0
     3bc:	03430e00 	movteq	r0, #15872	; 0x3e00
     3c0:	24130000 	ldrcs	r0, [r3], #-0
     3c4:	6000000c 	andvs	r0, r0, ip
     3c8:	1a017406 	bne	5d3e8 <_Min_Stack_Size+0x5cfe8>
     3cc:	14000005 	strne	r0, [r0], #-5
     3d0:	00004617 	andeq	r4, r0, r7, lsl r6
     3d4:	34017806 	strcc	r7, [r1], #-2054	; 0xfffff7fa
     3d8:	02000000 	andeq	r0, r0, #0
     3dc:	d0140023 	andsle	r0, r4, r3, lsr #32
     3e0:	0600001e 			; <UNDEFINED> instruction: 0x0600001e
     3e4:	077c017d 			; <UNDEFINED> instruction: 0x077c017d
     3e8:	23020000 	movwcs	r0, #8192	; 0x2000
     3ec:	56ee1404 	strbtpl	r1, [lr], r4, lsl #8
     3f0:	7d060000 	stcvc	0, cr0, [r6, #-0]
     3f4:	00077c01 	andeq	r7, r7, r1, lsl #24
     3f8:	08230200 	stmdaeq	r3!, {r9}
     3fc:	00457914 	subeq	r7, r5, r4, lsl r9
     400:	017d0600 	cmneq	sp, r0, lsl #12
     404:	0000077c 	andeq	r0, r0, ip, ror r7
     408:	140c2302 	strne	r2, [ip], #-770	; 0xfffffcfe
     40c:	0000265f 	andeq	r2, r0, pc, asr r6
     410:	34017f06 	strcc	r7, [r1], #-3846	; 0xfffff0fa
     414:	02000000 	andeq	r0, r0, #0
     418:	70141023 	andsvc	r1, r4, r3, lsr #32
     41c:	06000057 			; <UNDEFINED> instruction: 0x06000057
     420:	01340181 	teqeq	r4, r1, lsl #3
     424:	23020000 	movwcs	r0, #8192	; 0x2000
     428:	43021414 	movwmi	r1, #9236	; 0x2414
     42c:	83060000 	movwhi	r0, #24576	; 0x6000
     430:	00003401 	andeq	r3, r0, r1, lsl #8
     434:	18230200 	stmdane	r3!, {r9}
     438:	0023eb14 	eoreq	lr, r3, r4, lsl fp
     43c:	01850600 	orreq	r0, r5, r0, lsl #12
     440:	00000034 	andeq	r0, r0, r4, lsr r0
     444:	141c2302 	ldrne	r2, [ip], #-770	; 0xfffffcfe
     448:	000082ed 	andeq	r8, r0, sp, ror #5
     44c:	f5018606 			; <UNDEFINED> instruction: 0xf5018606
     450:	02000008 	andeq	r0, r0, #8
     454:	5f152023 	svcpl	0x00152023
     458:	0600706d 	streq	r7, [r0], -sp, rrx
     45c:	08fb0188 	ldmeq	fp!, {r3, r7, r8}^
     460:	23020000 	movwcs	r0, #8192	; 0x2000
     464:	4b3a1424 	blmi	e854fc <_Min_Stack_Size+0xe850fc>
     468:	8a060000 	bhi	180470 <_Min_Stack_Size+0x180070>
     46c:	00090d01 	andeq	r0, r9, r1, lsl #26
     470:	28230200 	stmdacs	r3!, {r9}
     474:	00522a14 	subseq	r2, r2, r4, lsl sl
     478:	018c0600 	orreq	r0, ip, r0, lsl #12
     47c:	00000034 	andeq	r0, r0, r4, lsr r0
     480:	142c2302 	strtne	r2, [ip], #-770	; 0xfffffcfe
     484:	0000061b 	andeq	r0, r0, fp, lsl r6
     488:	34018f06 	strcc	r8, [r1], #-3846	; 0xfffff0fa
     48c:	02000000 	andeq	r0, r0, #0
     490:	fb143023 	blx	50c526 <_Min_Stack_Size+0x50c126>
     494:	06000038 			; <UNDEFINED> instruction: 0x06000038
     498:	01340190 	teqeq	r4, r0	; <illegal shifter operand>
     49c:	23020000 	movwcs	r0, #8192	; 0x2000
     4a0:	6f5c1434 	svcvs	0x005c1434
     4a4:	92060000 	andls	r0, r6, #0
     4a8:	00091301 	andeq	r1, r9, r1, lsl #6
     4ac:	38230200 	stmdacc	r3!, {r9}
     4b0:	0018ca14 	andseq	ip, r8, r4, lsl sl
     4b4:	01930600 	orrseq	r0, r3, r0, lsl #12
     4b8:	00000919 	andeq	r0, r0, r9, lsl r9
     4bc:	143c2302 	ldrtne	r2, [ip], #-770	; 0xfffffcfe
     4c0:	000005f7 	strdeq	r0, [r0], -r7
     4c4:	34019406 	strcc	r9, [r1], #-1030	; 0xfffffbfa
     4c8:	02000001 	andeq	r0, r0, #1
     4cc:	81144023 	tsthi	r4, r3, lsr #32
     4d0:	06000037 			; <UNDEFINED> instruction: 0x06000037
     4d4:	092b0197 	stmdbeq	fp!, {r0, r1, r2, r4, r7, r8}
     4d8:	23020000 	movwcs	r0, #8192	; 0x2000
     4dc:	8bd81444 	blhi	ff6055f4 <_estack+0xdf602df4>
     4e0:	9f060000 	svcls	0x00060000
     4e4:	00073b01 	andeq	r3, r7, r1, lsl #22
     4e8:	48230200 	stmdami	r3!, {r9}
     4ec:	00027314 	andeq	r7, r2, r4, lsl r3
     4f0:	01a00600 	lsleq	r0, r0, #12
     4f4:	0000077c 	andeq	r0, r0, ip, ror r7
     4f8:	14542302 	ldrbne	r2, [r4], #-770	; 0xfffffcfe
     4fc:	000082c3 	andeq	r8, r0, r3, asr #5
     500:	3701a106 	strcc	sl, [r1, -r6, lsl #2]
     504:	02000009 	andeq	r0, r0, #9
     508:	f4145823 			; <UNDEFINED> instruction: 0xf4145823
     50c:	06000047 	streq	r0, [r0], -r7, asr #32
     510:	013401a2 	teqeq	r4, r2, lsr #3
     514:	23020000 	movwcs	r0, #8192	; 0x2000
     518:	040d005c 	streq	r0, [sp], #-92	; 0xffffffa4
     51c:	000003c2 	andeq	r0, r0, r2, asr #7
     520:	00051a0e 	andeq	r1, r5, lr, lsl #20
     524:	42fa0f00 	rscsmi	r0, sl, #0, 30
     528:	06680000 	strbteq	r0, [r8], -r0
     52c:	00067fb5 			; <UNDEFINED> instruction: 0x00067fb5
     530:	705f1000 	subsvc	r1, pc, r0
     534:	3db60600 	ldccc	6, cr0, [r6]
     538:	02000003 	andeq	r0, r0, #3
     53c:	5f100023 	svcpl	0x00100023
     540:	b7060072 	smlsdxlt	r6, r2, r0, r0
     544:	00000034 	andeq	r0, r0, r4, lsr r0
     548:	10042302 	andne	r2, r4, r2, lsl #6
     54c:	0600775f 			; <UNDEFINED> instruction: 0x0600775f
     550:	000034b8 			; <UNDEFINED> instruction: 0x000034b8
     554:	08230200 	stmdaeq	r3!, {r9}
     558:	005ca50b 	subseq	sl, ip, fp, lsl #10
     55c:	62b90600 	adcsvs	r0, r9, #0, 12
     560:	02000000 	andeq	r0, r0, #0
     564:	5f0b0c23 	svcpl	0x000b0c23
     568:	06000014 			; <UNDEFINED> instruction: 0x06000014
     56c:	000062ba 			; <UNDEFINED> instruction: 0x000062ba
     570:	0e230200 	cdpeq	2, 2, cr0, cr3, cr0, {0}
     574:	66625f10 	uqadd16vs	r5, r2, r0
     578:	14bb0600 	ldrtne	r0, [fp], #1536	; 0x600
     57c:	02000003 	andeq	r0, r0, #3
     580:	140b1023 	strne	r1, [fp], #-35	; 0xffffffdd
     584:	06000080 	streq	r0, [r0], -r0, lsl #1
     588:	000034bc 			; <UNDEFINED> instruction: 0x000034bc
     58c:	18230200 	stmdane	r3!, {r9}
     590:	0070ad0b 	rsbseq	sl, r0, fp, lsl #26
     594:	1abf0600 	bne	fefc1d9c <_estack+0xdefbf59c>
     598:	02000005 	andeq	r0, r0, #5
     59c:	f00b1c23 			; <UNDEFINED> instruction: 0xf00b1c23
     5a0:	06000035 			; <UNDEFINED> instruction: 0x06000035
     5a4:	000132c3 	andeq	r3, r1, r3, asr #5
     5a8:	20230200 	eorcs	r0, r3, r0, lsl #4
     5ac:	0002e60b 	andeq	lr, r2, fp, lsl #12
     5b0:	9ec50600 	cdpls	6, 12, cr0, cr5, cr0, {0}
     5b4:	02000006 	andeq	r0, r0, #6
     5b8:	c60b2423 	strgt	r2, [fp], -r3, lsr #8
     5bc:	06000004 	streq	r0, [r0], -r4
     5c0:	0006c9c7 	andeq	ip, r6, r7, asr #19
     5c4:	28230200 	stmdacs	r3!, {r9}
     5c8:	0064460b 	rsbeq	r4, r4, fp, lsl #12
     5cc:	eeca0600 	cdp	6, 12, cr0, cr10, cr0, {0}
     5d0:	02000006 	andeq	r0, r0, #6
     5d4:	5a0b2c23 	bpl	2cb668 <_Min_Stack_Size+0x2cb268>
     5d8:	06000062 	streq	r0, [r0], -r2, rrx
     5dc:	000709cb 	andeq	r0, r7, fp, asr #19
     5e0:	30230200 	eorcc	r0, r3, r0, lsl #4
     5e4:	62755f10 	rsbsvs	r5, r5, #16, 30	; 0x40
     5e8:	14ce0600 	strbne	r0, [lr], #1536	; 0x600
     5ec:	02000003 	andeq	r0, r0, #3
     5f0:	5f103423 	svcpl	0x00103423
     5f4:	06007075 			; <UNDEFINED> instruction: 0x06007075
     5f8:	00033dcf 	andeq	r3, r3, pc, asr #27
     5fc:	3c230200 	sfmcc	f0, 4, [r3], #-0
     600:	72755f10 	rsbsvc	r5, r5, #16, 30	; 0x40
     604:	34d00600 	ldrbcc	r0, [r0], #1536	; 0x600
     608:	02000000 	andeq	r0, r0, #0
     60c:	460b4023 	strmi	r4, [fp], -r3, lsr #32
     610:	0600005b 			; <UNDEFINED> instruction: 0x0600005b
     614:	00070fd3 	ldrdeq	r0, [r7], -r3
     618:	44230200 	strtmi	r0, [r3], #-512	; 0xfffffe00
     61c:	000a050b 	andeq	r0, sl, fp, lsl #10
     620:	1fd40600 	svcne	0x00d40600
     624:	02000007 	andeq	r0, r0, #7
     628:	5f104723 	svcpl	0x00104723
     62c:	0600626c 	streq	r6, [r0], -ip, ror #4
     630:	000314d7 	ldrdeq	r1, [r3], -r7
     634:	48230200 	stmdami	r3!, {r9}
     638:	006ab30b 	rsbeq	fp, sl, fp, lsl #6
     63c:	34da0600 	ldrbcc	r0, [sl], #1536	; 0x600
     640:	02000000 	andeq	r0, r0, #0
     644:	e20b5023 	and	r5, fp, #35	; 0x23
     648:	06000038 			; <UNDEFINED> instruction: 0x06000038
     64c:	0000a6db 	ldrdeq	sl, [r0], -fp
     650:	54230200 	strtpl	r0, [r3], #-512	; 0xfffffe00
     654:	000d450b 	andeq	r4, sp, fp, lsl #10
     658:	27e20600 	strbcs	r0, [r2, r0, lsl #12]!
     65c:	02000001 	andeq	r0, r0, #1
     660:	130b5823 	movwne	r5, #47139	; 0xb823
     664:	0600005c 			; <UNDEFINED> instruction: 0x0600005c
     668:	00011ce4 	andeq	r1, r1, r4, ror #25
     66c:	5c230200 	sfmpl	f0, 4, [r3], #-0
     670:	00572c0b 	subseq	r2, r7, fp, lsl #24
     674:	34e50600 	strbtcc	r0, [r5], #1536	; 0x600
     678:	02000000 	andeq	r0, r0, #0
     67c:	16006423 	strne	r6, [r0], -r3, lsr #8
     680:	00003401 	andeq	r3, r0, r1, lsl #8
     684:	00069e00 	andeq	r9, r6, r0, lsl #28
     688:	051a1700 	ldreq	r1, [sl, #-1792]	; 0xfffff900
     68c:	32170000 	andscc	r0, r7, #0
     690:	17000001 	strne	r0, [r0, -r1]
     694:	00000134 	andeq	r0, r0, r4, lsr r1
     698:	00003417 	andeq	r3, r0, r7, lsl r4
     69c:	040d0000 	streq	r0, [sp], #-0
     6a0:	0000067f 	andeq	r0, r0, pc, ror r6
     6a4:	00340116 	eorseq	r0, r4, r6, lsl r1
     6a8:	06c30000 	strbeq	r0, [r3], r0
     6ac:	1a170000 	bne	5c06b4 <_Min_Stack_Size+0x5c02b4>
     6b0:	17000005 	strne	r0, [r0, -r5]
     6b4:	00000132 	andeq	r0, r0, r2, lsr r1
     6b8:	0006c317 	andeq	ip, r6, r7, lsl r3
     6bc:	00341700 	eorseq	r1, r4, r0, lsl #14
     6c0:	0d000000 	stceq	0, cr0, [r0, #-0]
     6c4:	00014104 	andeq	r4, r1, r4, lsl #2
     6c8:	a4040d00 	strge	r0, [r4], #-3328	; 0xfffff300
     6cc:	16000006 	strne	r0, [r0], -r6
     6d0:	0000b101 	andeq	fp, r0, r1, lsl #2
     6d4:	0006ee00 	andeq	lr, r6, r0, lsl #28
     6d8:	051a1700 	ldreq	r1, [sl, #-1792]	; 0xfffff900
     6dc:	32170000 	andscc	r0, r7, #0
     6e0:	17000001 	strne	r0, [r0, -r1]
     6e4:	000000b1 	strheq	r0, [r0], -r1
     6e8:	00003417 	andeq	r3, r0, r7, lsl r4
     6ec:	040d0000 	streq	r0, [sp], #-0
     6f0:	000006cf 	andeq	r0, r0, pc, asr #13
     6f4:	00340116 	eorseq	r0, r4, r6, lsl r1
     6f8:	07090000 	streq	r0, [r9, -r0]
     6fc:	1a170000 	bne	5c0704 <_Min_Stack_Size+0x5c0304>
     700:	17000005 	strne	r0, [r0, -r5]
     704:	00000132 	andeq	r0, r0, r2, lsr r1
     708:	f4040d00 			; <UNDEFINED> instruction: 0xf4040d00
     70c:	08000006 	stmdaeq	r0, {r1, r2}
     710:	0000005b 	andeq	r0, r0, fp, asr r0
     714:	0000071f 	andeq	r0, r0, pc, lsl r7
     718:	00002d09 	andeq	r2, r0, r9, lsl #26
     71c:	08000200 	stmdaeq	r0, {r9}
     720:	0000005b 	andeq	r0, r0, fp, asr r0
     724:	0000072f 	andeq	r0, r0, pc, lsr #14
     728:	00002d09 	andeq	r2, r0, r9, lsl #26
     72c:	05000000 	streq	r0, [r0, #-0]
     730:	00006e34 	andeq	r6, r0, r4, lsr lr
     734:	25011f06 	strcs	r1, [r1, #-3846]	; 0xfffff0fa
     738:	13000005 	movwne	r0, #5
     73c:	00005422 	andeq	r5, r0, r2, lsr #8
     740:	0123060c 			; <UNDEFINED> instruction: 0x0123060c
     744:	00000776 	andeq	r0, r0, r6, ror r7
     748:	005c8714 	subseq	r8, ip, r4, lsl r7
     74c:	01250600 			; <UNDEFINED> instruction: 0x01250600
     750:	00000776 	andeq	r0, r0, r6, ror r7
     754:	14002302 	strne	r2, [r0], #-770	; 0xfffffcfe
     758:	00002c77 	andeq	r2, r0, r7, ror ip
     75c:	34012606 	strcc	r2, [r1], #-1542	; 0xfffff9fa
     760:	02000000 	andeq	r0, r0, #0
     764:	de140423 	cfmuldle	mvd0, mvd4, mvd3
     768:	06000053 			; <UNDEFINED> instruction: 0x06000053
     76c:	077c0127 	ldrbeq	r0, [ip, -r7, lsr #2]!
     770:	23020000 	movwcs	r0, #8192	; 0x2000
     774:	040d0008 	streq	r0, [sp], #-8
     778:	0000073b 	andeq	r0, r0, fp, lsr r7
     77c:	072f040d 	streq	r0, [pc, -sp, lsl #8]!
     780:	fc130000 	ldc2	0, cr0, [r3], {-0}
     784:	18000068 	stmdane	r0, {r3, r5, r6}
     788:	cc013f06 	stcgt	15, cr3, [r1], {6}
     78c:	14000007 	strne	r0, [r0], #-7
     790:	000063ef 	andeq	r6, r0, pc, ror #7
     794:	cc014006 	stcgt	0, cr4, [r1], {6}
     798:	02000007 	andeq	r0, r0, #7
     79c:	09140023 	ldmdbeq	r4, {r0, r1, r5}
     7a0:	0600000f 	streq	r0, [r0], -pc
     7a4:	07cc0141 	strbeq	r0, [ip, r1, asr #2]
     7a8:	23020000 	movwcs	r0, #8192	; 0x2000
     7ac:	866e1406 	strbthi	r1, [lr], -r6, lsl #8
     7b0:	42060000 	andmi	r0, r6, #0
     7b4:	00007401 	andeq	r7, r0, r1, lsl #8
     7b8:	0c230200 	sfmeq	f0, 4, [r3], #-0
     7bc:	005c8214 	subseq	r8, ip, r4, lsl r2
     7c0:	01450600 	cmpeq	r5, r0, lsl #12
     7c4:	00000094 	muleq	r0, r4, r0
     7c8:	00102302 	andseq	r2, r0, r2, lsl #6
     7cc:	00007408 	andeq	r7, r0, r8, lsl #8
     7d0:	0007dc00 	andeq	sp, r7, r0, lsl #24
     7d4:	002d0900 	eoreq	r0, sp, r0, lsl #18
     7d8:	00020000 	andeq	r0, r2, r0
     7dc:	00827a13 	addeq	r7, r2, r3, lsl sl
     7e0:	58061000 	stmdapl	r6, {ip}
     7e4:	00082601 	andeq	r2, r8, r1, lsl #12
     7e8:	84251400 	strthi	r1, [r5], #-1024	; 0xfffffc00
     7ec:	5b060000 	blpl	1807f4 <_Min_Stack_Size+0x1803f4>
     7f0:	0001b001 	andeq	fp, r1, r1
     7f4:	00230200 	eoreq	r0, r3, r0, lsl #4
     7f8:	00175314 	andseq	r5, r7, r4, lsl r3
     7fc:	015c0600 	cmpeq	ip, r0, lsl #12
     800:	00000034 	andeq	r0, r0, r4, lsr r0
     804:	14042302 	strne	r2, [r4], #-770	; 0xfffffcfe
     808:	0000360b 	andeq	r3, r0, fp, lsl #12
     80c:	b0015d06 	andlt	r5, r1, r6, lsl #26
     810:	02000001 	andeq	r0, r0, #1
     814:	80140823 	andshi	r0, r4, r3, lsr #16
     818:	06000053 			; <UNDEFINED> instruction: 0x06000053
     81c:	0826015e 	stmdaeq	r6!, {r1, r2, r3, r4, r6, r8}
     820:	23020000 	movwcs	r0, #8192	; 0x2000
     824:	040d000c 	streq	r0, [sp], #-12
     828:	000001b0 			; <UNDEFINED> instruction: 0x000001b0
     82c:	000c1f13 	andeq	r1, ip, r3, lsl pc
     830:	62065000 	andvs	r5, r6, #0
     834:	0008df01 	andeq	sp, r8, r1, lsl #30
     838:	6c1f1400 	cfldrsvs	mvf1, [pc], {-0}
     83c:	65060000 	strvs	r0, [r6, #-0]
     840:	00013401 	andeq	r3, r1, r1, lsl #8
     844:	00230200 	eoreq	r0, r3, r0, lsl #4
     848:	0077a614 	rsbseq	sl, r7, r4, lsl r6
     84c:	01660600 	cmneq	r6, r0, lsl #12
     850:	0000011c 	andeq	r0, r0, ip, lsl r1
     854:	14042302 	strne	r2, [r4], #-770	; 0xfffffcfe
     858:	00005beb 	andeq	r5, r0, fp, ror #23
     85c:	1c016706 	stcne	7, cr6, [r1], {6}
     860:	02000001 	andeq	r0, r0, #1
     864:	a2140c23 	andsge	r0, r4, #8960	; 0x2300
     868:	06000065 	streq	r0, [r0], -r5, rrx
     86c:	011c0168 	tsteq	ip, r8, ror #2
     870:	23020000 	movwcs	r0, #8192	; 0x2000
     874:	0b071414 	bleq	1c58cc <_Min_Stack_Size+0x1c54cc>
     878:	69060000 	stmdbvs	r6, {}	; <UNPREDICTABLE>
     87c:	0008df01 	andeq	sp, r8, r1, lsl #30
     880:	1c230200 	sfmne	f0, 4, [r3], #-0
     884:	000efc14 	andeq	pc, lr, r4, lsl ip	; <UNPREDICTABLE>
     888:	016a0600 	cmneq	sl, r0, lsl #12
     88c:	00000034 	andeq	r0, r0, r4, lsr r0
     890:	14242302 	strtne	r2, [r4], #-770	; 0xfffffcfe
     894:	000016e5 	andeq	r1, r0, r5, ror #13
     898:	1c016b06 			; <UNDEFINED> instruction: 0x1c016b06
     89c:	02000001 	andeq	r0, r0, #1
     8a0:	82142823 	andshi	r2, r4, #2293760	; 0x230000
     8a4:	0600006c 	streq	r0, [r0], -ip, rrx
     8a8:	011c016c 	tsteq	ip, ip, ror #2
     8ac:	23020000 	movwcs	r0, #8192	; 0x2000
     8b0:	889e1430 	ldmhi	lr, {r4, r5, sl, ip}
     8b4:	6d060000 	stcvs	0, cr0, [r6, #-0]
     8b8:	00011c01 	andeq	r1, r1, r1, lsl #24
     8bc:	38230200 	stmdacc	r3!, {r9}
     8c0:	005a2a14 	subseq	r2, sl, r4, lsl sl
     8c4:	016e0600 	cmneq	lr, r0, lsl #12
     8c8:	0000011c 	andeq	r0, r0, ip, lsl r1
     8cc:	14402302 	strbne	r2, [r0], #-770	; 0xfffffcfe
     8d0:	000009f4 	strdeq	r0, [r0], -r4
     8d4:	1c016f06 	stcne	15, cr6, [r1], {6}
     8d8:	02000001 	andeq	r0, r0, #1
     8dc:	08004823 	stmdaeq	r0, {r0, r1, r5, fp, lr}
     8e0:	0000013a 	andeq	r0, r0, sl, lsr r1
     8e4:	000008ef 	andeq	r0, r0, pc, ror #17
     8e8:	00002d09 	andeq	r2, r0, r9, lsl #26
     8ec:	18000700 	stmdane	r0, {r8, r9, sl}
     8f0:	000001cb 	andeq	r0, r0, fp, asr #3
     8f4:	ef040d01 	svc	0x00040d01
     8f8:	0d000008 	stceq	0, cr0, [r0, #-32]	; 0xffffffe0
     8fc:	0007dc04 	andeq	sp, r7, r4, lsl #24
     900:	0d011900 	vstreq.16	s2, [r1, #-0]	; <UNPREDICTABLE>
     904:	17000009 	strne	r0, [r0, -r9]
     908:	0000051a 	andeq	r0, r0, sl, lsl r5
     90c:	01040d00 	tsteq	r4, r0, lsl #26
     910:	0d000009 	stceq	0, cr0, [r0, #-36]	; 0xffffffdc
     914:	00078204 	andeq	r8, r7, r4, lsl #4
     918:	c6040d00 	strgt	r0, [r4], -r0, lsl #26
     91c:	19000001 	stmdbne	r0, {r0}
     920:	00092b01 	andeq	r2, r9, r1, lsl #22
     924:	00341700 	eorseq	r1, r4, r0, lsl #14
     928:	0d000000 	stceq	0, cr0, [r0, #-0]
     92c:	00093104 	andeq	r3, r9, r4, lsl #2
     930:	1f040d00 	svcne	0x00040d00
     934:	0d000009 	stceq	0, cr0, [r0, #-36]	; 0xffffffdc
     938:	00082c04 	andeq	r2, r8, r4, lsl #24
     93c:	1ec71a00 	vdivne.f32	s3, s14, s0
     940:	ca060000 	bgt	180948 <_Min_Stack_Size+0x180548>
     944:	0003bd01 	andeq	fp, r3, r1, lsl #26
     948:	1a010100 	bne	40d50 <_Min_Stack_Size+0x40950>
     94c:	000056e5 	andeq	r5, r0, r5, ror #13
     950:	bd01cb06 	vstrlt	d12, [r1, #-24]	; 0xffffffe8
     954:	01000003 	tsteq	r0, r3
     958:	45701a01 	ldrbmi	r1, [r0, #-2561]!	; 0xfffff5ff
     95c:	cc060000 	stcgt	0, cr0, [r6], {-0}
     960:	0003bd01 	andeq	fp, r3, r1, lsl #26
     964:	1a010100 	bne	40d6c <_Min_Stack_Size+0x4096c>
     968:	00002bd2 	ldrdeq	r2, [r0], -r2	; <UNPREDICTABLE>
     96c:	1a032e06 	bne	cc18c <_Min_Stack_Size+0xcbd8c>
     970:	01000005 	tsteq	r0, r5
     974:	7c2f1a01 			; <UNDEFINED> instruction: 0x7c2f1a01
     978:	2f060000 	svccs	0x00060000
     97c:	00052003 	andeq	r2, r5, r3
     980:	1a010100 	bne	40d88 <_Min_Stack_Size+0x40988>
     984:	000048a9 	andeq	r4, r0, r9, lsr #17
     988:	f0034106 			; <UNDEFINED> instruction: 0xf0034106
     98c:	01000002 	tsteq	r0, r2
     990:	7b441b01 	blvc	110759c <_Min_Stack_Size+0x110719c>
     994:	63070000 	movwvs	r0, #28672	; 0x7000
     998:	00000134 	andeq	r0, r0, r4, lsr r1
     99c:	c8040101 	stmdagt	r4, {r0, r8}
     9a0:	08000013 	stmdaeq	r0, {r0, r1, r4}
     9a4:	00005018 	andeq	r5, r0, r8, lsl r0
     9a8:	2a560400 	bcs	15819b0 <_Min_Stack_Size+0x15815b0>
     9ac:	24080000 	strcs	r0, [r8], #-0
     9b0:	00000069 	andeq	r0, r0, r9, rrx
     9b4:	00427d04 	subeq	r7, r2, r4, lsl #26
     9b8:	82300800 	eorshi	r0, r0, #0, 16
     9bc:	1c000000 	stcne	0, cr0, [r0], {-0}
     9c0:	000009b4 			; <UNDEFINED> instruction: 0x000009b4
     9c4:	6e091c0a 	cdpvs	12, 0, cr1, cr9, cr10, {0}
     9c8:	00000a2f 	andeq	r0, r0, pc, lsr #20
     9cc:	4c524310 	mrrcmi	3, 1, r4, r2, cr0
     9d0:	bf700900 	svclt	0x00700900
     9d4:	02000009 	andeq	r0, r0, #9
     9d8:	43100023 	tstmi	r0, #35	; 0x23
     9dc:	09004852 	stmdbeq	r0, {r1, r4, r6, fp, lr}
     9e0:	0009bf71 	andeq	fp, r9, r1, ror pc
     9e4:	04230200 	strteq	r0, [r3], #-512	; 0xfffffe00
     9e8:	52444910 	subpl	r4, r4, #16, 18	; 0x40000
     9ec:	bf720900 	svclt	0x00720900
     9f0:	02000009 	andeq	r0, r0, #9
     9f4:	4f100823 	svcmi	0x00100823
     9f8:	09005244 	stmdbeq	r0, {r2, r6, r9, ip, lr}
     9fc:	0009bf73 	andeq	fp, r9, r3, ror pc
     a00:	0c230200 	sfmeq	f0, 4, [r3], #-0
     a04:	007e790b 	rsbseq	r7, lr, fp, lsl #18
     a08:	bf740900 	svclt	0x00740900
     a0c:	02000009 	andeq	r0, r0, #9
     a10:	42101023 	andsmi	r1, r0, #35	; 0x23
     a14:	09005252 	stmdbeq	r0, {r1, r4, r6, r9, ip, lr}
     a18:	0009bf75 	andeq	fp, r9, r5, ror pc
     a1c:	14230200 	strtne	r0, [r3], #-512	; 0xfffffe00
     a20:	0048000b 	subeq	r0, r8, fp
     a24:	bf760900 	svclt	0x00760900
     a28:	02000009 	andeq	r0, r0, #9
     a2c:	04001823 	streq	r1, [r0], #-2083	; 0xfffff7dd
     a30:	00007fbe 			; <UNDEFINED> instruction: 0x00007fbe
     a34:	09c47709 	stmibeq	r4, {r0, r3, r8, r9, sl, ip, sp, lr}^
     a38:	280a0000 	stmdacs	sl, {}	; <UNPREDICTABLE>
     a3c:	0ace7d09 	beq	ff39fe68 <_estack+0xdf39d668>
     a40:	43100000 	tstmi	r0, #0
     a44:	7f090052 	svcvc	0x00090052
     a48:	000009bf 			; <UNDEFINED> instruction: 0x000009bf
     a4c:	0b002302 	bleq	965c <_Min_Stack_Size+0x925c>
     a50:	000038a0 	andeq	r3, r0, r0, lsr #17
     a54:	09bf8009 	ldmibeq	pc!, {r0, r3, pc}	; <UNPREDICTABLE>
     a58:	23020000 	movwcs	r0, #8192	; 0x2000
     a5c:	49431004 	stmdbmi	r3, {r2, ip}^
     a60:	81090052 	qaddhi	r0, r2, r9
     a64:	000009bf 			; <UNDEFINED> instruction: 0x000009bf
     a68:	0b082302 	bleq	209678 <_Min_Stack_Size+0x209278>
     a6c:	00005239 	andeq	r5, r0, r9, lsr r2
     a70:	09bf8209 	ldmibeq	pc!, {r0, r3, r9, pc}	; <UNPREDICTABLE>
     a74:	23020000 	movwcs	r0, #8192	; 0x2000
     a78:	650a0b0c 	strvs	r0, [sl, #-2828]	; 0xfffff4f4
     a7c:	83090000 	movwhi	r0, #36864	; 0x9000
     a80:	000009bf 			; <UNDEFINED> instruction: 0x000009bf
     a84:	0b102302 	bleq	409694 <_Min_Stack_Size+0x409294>
     a88:	00007c62 	andeq	r7, r0, r2, ror #24
     a8c:	09bf8409 	ldmibeq	pc!, {r0, r3, sl, pc}	; <UNPREDICTABLE>
     a90:	23020000 	movwcs	r0, #8192	; 0x2000
     a94:	1b220b14 	blne	8836ec <_Min_Stack_Size+0x8832ec>
     a98:	85090000 	strhi	r0, [r9, #-0]
     a9c:	000009bf 			; <UNDEFINED> instruction: 0x000009bf
     aa0:	0b182302 	bleq	6096b0 <_Min_Stack_Size+0x6092b0>
     aa4:	00006586 	andeq	r6, r0, r6, lsl #11
     aa8:	09bf8609 	ldmibeq	pc!, {r0, r3, r9, sl, pc}	; <UNPREDICTABLE>
     aac:	23020000 	movwcs	r0, #8192	; 0x2000
     ab0:	325a0b1c 	subscc	r0, sl, #28, 22	; 0x7000
     ab4:	87090000 	strhi	r0, [r9, -r0]
     ab8:	000009bf 			; <UNDEFINED> instruction: 0x000009bf
     abc:	10202302 	eorne	r2, r0, r2, lsl #6
     ac0:	00525343 	subseq	r5, r2, r3, asr #6
     ac4:	09bf8809 	ldmibeq	pc!, {r0, r3, fp, pc}	; <UNPREDICTABLE>
     ac8:	23020000 	movwcs	r0, #8192	; 0x2000
     acc:	7a040024 	bvc	100b64 <_Min_Stack_Size+0x100764>
     ad0:	09000077 	stmdbeq	r0, {r0, r1, r2, r4, r5, r6}
     ad4:	000a3a89 	andeq	r3, sl, r9, lsl #21
     ad8:	0a0c0a00 	beq	3032e0 <_Min_Stack_Size+0x302ee0>
     adc:	000b1a13 	andeq	r1, fp, r3, lsl sl
     ae0:	4b440b00 	blmi	11036e8 <_Min_Stack_Size+0x11032e8>
     ae4:	150a0000 	strne	r0, [sl, #-0]
     ae8:	000009a9 	andeq	r0, r0, r9, lsr #19
     aec:	0b002302 	bleq	96fc <_Min_Stack_Size+0x92fc>
     af0:	0000698a 	andeq	r6, r0, sl, lsl #19
     af4:	0b1a160a 	bleq	686324 <_Min_Stack_Size+0x685f24>
     af8:	23020000 	movwcs	r0, #8192	; 0x2000
     afc:	744f0b04 	strbvc	r0, [pc], #-2820	; b04 <_Min_Stack_Size+0x704>
     b00:	170a0000 	strne	r0, [sl, -r0]
     b04:	000009a9 	andeq	r0, r0, r9, lsr #19
     b08:	0b082302 	bleq	209718 <_Min_Stack_Size+0x209318>
     b0c:	00008c0c 	andeq	r8, r0, ip, lsl #24
     b10:	099e180a 	ldmibeq	lr, {r1, r3, fp, ip}
     b14:	23020000 	movwcs	r0, #8192	; 0x2000
     b18:	040d000a 	streq	r0, [sp], #-10
     b1c:	00000a2f 	andeq	r0, r0, pc, lsr #20
     b20:	000e8804 	andeq	r8, lr, r4, lsl #16
     b24:	d9190a00 	ldmdble	r9, {r9, fp}
     b28:	0a00000a 	beq	b58 <_Min_Stack_Size+0x758>
     b2c:	6c1c0a14 			; <UNDEFINED> instruction: 0x6c1c0a14
     b30:	0b00000b 	bleq	b64 <_Min_Stack_Size+0x764>
     b34:	000052d7 	ldrdeq	r5, [r0], -r7
     b38:	0b201e0a 	bleq	808368 <_Min_Stack_Size+0x807f68>
     b3c:	23020000 	movwcs	r0, #8192	; 0x2000
     b40:	8e450b00 	vmlahi.f64	d16, d5, d0
     b44:	210a0000 	mrscs	r0, (UNDEF: 10)
     b48:	0000099e 	muleq	r0, lr, r9
     b4c:	0b0c2302 	bleq	30975c <_Min_Stack_Size+0x30935c>
     b50:	000001f7 	strdeq	r0, [r0], -r7
     b54:	099e240a 	ldmibeq	lr, {r1, r3, sl, sp}
     b58:	23020000 	movwcs	r0, #8192	; 0x2000
     b5c:	92350b0d 	eorsls	r0, r5, #13312	; 0x3400
     b60:	280a0000 	stmdacs	sl, {}	; <UNPREDICTABLE>
     b64:	00000306 	andeq	r0, r0, r6, lsl #6
     b68:	00102302 	andseq	r2, r0, r2, lsl #6
     b6c:	002bf404 	eoreq	pc, fp, r4, lsl #8
     b70:	2b2b0a00 	blcs	ac3378 <_Min_Stack_Size+0xac2f78>
     b74:	1d00000b 	stcne	0, cr0, [r0, #-44]	; 0xffffffd4
     b78:	000086f0 	strdeq	r8, [r0], -r0
     b7c:	09a92101 	stmibeq	r9!, {r0, r8, sp}
     b80:	05010000 	streq	r0, [r1, #-0]
     b84:	00002c03 	andeq	r2, r0, r3, lsl #24
     b88:	2a5f1d20 	bcs	17c8010 <_Min_Stack_Size+0x17c7c10>
     b8c:	21010000 	mrscs	r0, (UNDEF: 1)
     b90:	000009a9 	andeq	r0, r0, r9, lsr #19
     b94:	2e030501 	cfsh32cs	mvfx0, mvfx3, #1
     b98:	1d200000 	stcne	0, cr0, [r0, #-0]
     b9c:	000030ad 	andeq	r3, r0, sp, lsr #1
     ba0:	09a92101 	stmibeq	r9!, {r0, r8, sp}
     ba4:	05010000 	streq	r0, [r1, #-0]
     ba8:	00002003 	andeq	r2, r0, r3
     bac:	4af41b20 	bmi	ffd07834 <_estack+0xdfd05034>
     bb0:	24010000 	strcs	r0, [r1], #-0
     bb4:	0000002d 	andeq	r0, r0, sp, lsr #32
     bb8:	a31d0101 	tstge	sp, #1073741824	; 0x40000000
     bbc:	01000028 	tsteq	r0, r8, lsr #32
     bc0:	00002d2a 	andeq	r2, r0, sl, lsr #26
     bc4:	03050100 	movweq	r0, #20736	; 0x5100
     bc8:	20000000 	andcs	r0, r0, r0
     bcc:	00466d1d 	subeq	r6, r6, sp, lsl sp
     bd0:	2d2b0100 	stfcss	f0, [fp, #-0]
     bd4:	01000000 	mrseq	r0, (UNDEF: 0)
     bd8:	00240305 	eoreq	r0, r4, r5, lsl #6
     bdc:	611d2000 	tstvs	sp, r0
     be0:	01000084 	smlabbeq	r0, r4, r0, r0
     be4:	00002d2f 	andeq	r2, r0, pc, lsr #26
     be8:	03050100 	movweq	r0, #20736	; 0x5100
     bec:	20000028 	andcs	r0, r0, r8, lsr #32
     bf0:	00658e1d 	rsbeq	r8, r5, sp, lsl lr
     bf4:	2d300100 	ldfcss	f0, [r0, #-0]
     bf8:	01000000 	mrseq	r0, (UNDEF: 0)
     bfc:	00380305 	eorseq	r0, r8, r5, lsl #6
     c00:	2d1d2000 	ldccs	0, cr2, [sp, #-0]
     c04:	01000047 	tsteq	r0, r7, asr #32
     c08:	00002d33 	andeq	r2, r0, r3, lsr sp
     c0c:	03050100 	movweq	r0, #20736	; 0x5100
     c10:	20000030 	andcs	r0, r0, r0, lsr r0
     c14:	0065981d 	rsbeq	r9, r5, sp, lsl r8
     c18:	2d340100 	ldfcss	f0, [r4, #-0]
     c1c:	01000000 	mrseq	r0, (UNDEF: 0)
     c20:	00340305 	eorseq	r0, r4, r5, lsl #6
     c24:	011e2000 	tsteq	lr, r0
     c28:	0000196f 	andeq	r1, r0, pc, ror #18
     c2c:	3401bf01 	strcc	fp, [r1], #-3841	; 0xfffff0ff
     c30:	14000000 	strne	r0, [r0], #-0
     c34:	6c080003 	stcvs	0, cr0, [r8], {3}
     c38:	00080003 	andeq	r0, r8, r3
     c3c:	01000000 	mrseq	r0, (UNDEF: 0)
     c40:	00000c53 	andeq	r0, r0, r3, asr ip
     c44:	0080411f 	addeq	r4, r0, pc, lsl r1
     c48:	6cc60100 	stfvse	f0, [r6], {0}
     c4c:	0200000b 	andeq	r0, r0, #11
     c50:	20006491 	mulcs	r0, r1, r4
     c54:	0030b601 	eorseq	fp, r0, r1, lsl #12
     c58:	18790100 	ldmdane	r9!, {r8}^
     c5c:	14080002 	strne	r0, [r8], #-2
     c60:	50080003 	andpl	r0, r8, r3
     c64:	01000000 	mrseq	r0, (UNDEF: 0)
     c68:	289d0121 	ldmcs	sp, {r0, r5, r8}
     c6c:	74010000 	strvc	r0, [r1], #-0
     c70:	00003401 	andeq	r3, r0, r1, lsl #8
     c74:	0001f000 	andeq	pc, r1, r0
     c78:	00021608 	andeq	r1, r2, r8, lsl #12
     c7c:	00007c08 	andeq	r7, r0, r8, lsl #24
     c80:	0cb70100 	ldfeqs	f0, [r7]
     c84:	61220000 			; <UNDEFINED> instruction: 0x61220000
     c88:	34740100 	ldrbtcc	r0, [r4], #-256	; 0xffffff00
     c8c:	02000000 	andeq	r0, r0, #0
     c90:	62227491 	eorvs	r7, r2, #-1862270976	; 0x91000000
     c94:	34740100 	ldrbtcc	r0, [r4], #-256	; 0xffffff00
     c98:	02000000 	andeq	r0, r0, #0
     c9c:	63227091 			; <UNDEFINED> instruction: 0x63227091
     ca0:	34740100 	ldrbtcc	r0, [r4], #-256	; 0xffffff00
     ca4:	02000000 	andeq	r0, r0, #0
     ca8:	64226c91 	strtvs	r6, [r2], #-3217	; 0xfffff36f
     cac:	34740100 	ldrbtcc	r0, [r4], #-256	; 0xffffff00
     cb0:	02000000 	andeq	r0, r0, #0
     cb4:	21006891 			; <UNDEFINED> instruction: 0x21006891
     cb8:	00289701 	eoreq	r9, r8, r1, lsl #14
     cbc:	016f0100 	cmneq	pc, r0, lsl #2
     cc0:	00000034 	andeq	r0, r0, r4, lsr r0
     cc4:	080001d0 	stmdaeq	r0, {r4, r6, r7, r8}
     cc8:	080001f0 	stmdaeq	r0, {r4, r5, r6, r7, r8}
     ccc:	000000d8 	ldrdeq	r0, [r0], -r8
     cd0:	000cfa01 	andeq	pc, ip, r1, lsl #20
     cd4:	00612200 	rsbeq	r2, r1, r0, lsl #4
     cd8:	00346f01 	eorseq	r6, r4, r1, lsl #30
     cdc:	91020000 	mrsls	r0, (UNDEF: 2)
     ce0:	00622274 	rsbeq	r2, r2, r4, ror r2
     ce4:	00346f01 	eorseq	r6, r4, r1, lsl #30
     ce8:	91020000 	mrsls	r0, (UNDEF: 2)
     cec:	00632270 	rsbeq	r2, r3, r0, ror r2
     cf0:	00346f01 	eorseq	r6, r4, r1, lsl #30
     cf4:	91020000 	mrsls	r0, (UNDEF: 2)
     cf8:	0123006c 			; <UNDEFINED> instruction: 0x0123006c
     cfc:	000088fa 	strdeq	r8, [r0], -sl
     d00:	8c016501 	cfstr32hi	mvfx6, [r1], {1}
     d04:	d0080001 	andle	r0, r8, r1
     d08:	34080001 	strcc	r0, [r8], #-1
     d0c:	01000001 	tsteq	r0, r1
     d10:	894d0124 	stmdbhi	sp, {r2, r5, r8}^
     d14:	5c010000 	stcpl	0, cr0, [r1], {-0}
     d18:	08000170 	stmdaeq	r0, {r4, r5, r6, r8}
     d1c:	0800018c 	stmdaeq	r0, {r2, r3, r7, r8}
     d20:	00000178 	andeq	r0, r0, r8, ror r1
     d24:	001e0001 	andseq	r0, lr, r1
     d28:	00020000 	andeq	r0, r2, r0
     d2c:	00000201 	andeq	r0, r0, r1, lsl #4
     d30:	06780104 	ldrbteq	r0, [r8], -r4, lsl #2
     d34:	00380000 	eorseq	r0, r8, r0
     d38:	90c10000 	sbcls	r0, r1, r0
     d3c:	370a0000 	strcc	r0, [sl, -r0]
     d40:	90e40000 	rscls	r0, r4, r0
     d44:	80010000 	andhi	r0, r1, r0
     d48:	00000dbb 			; <UNDEFINED> instruction: 0x00000dbb
     d4c:	02130002 	andseq	r0, r3, #2
     d50:	01040000 	mrseq	r0, (UNDEF: 4)
     d54:	00008988 	andeq	r8, r0, r8, lsl #19
     d58:	00928b0c 	addseq	r8, r2, ip, lsl #22
     d5c:	00370a00 	eorseq	r0, r7, r0, lsl #20
     d60:	00005800 	andeq	r5, r0, r0, lsl #16
	...
     d6c:	0006fc00 	andeq	pc, r6, r0, lsl #24
     d70:	0003e500 	andeq	lr, r3, r0, lsl #10
     d74:	07040200 	streq	r0, [r4, -r0, lsl #4]
     d78:	000021f4 	strdeq	r2, [r0], -r4
     d7c:	69050403 	stmdbvs	r5, {r0, r1, sl}
     d80:	0200746e 	andeq	r7, r0, #1845493760	; 0x6e000000
     d84:	527a0508 	rsbspl	r0, sl, #8, 10	; 0x2000000
     d88:	08020000 	stmdaeq	r2, {}	; <UNPREDICTABLE>
     d8c:	0002a004 	andeq	sl, r2, r4
     d90:	06010200 	streq	r0, [r1], -r0, lsl #4
     d94:	000007d6 	ldrdeq	r0, [r0], -r6
     d98:	0013c604 	andseq	ip, r3, r4, lsl #12
     d9c:	5b2b0200 	blpl	ac15a4 <_Min_Stack_Size+0xac11a4>
     da0:	02000000 	andeq	r0, r0, #0
     da4:	312f0801 			; <UNDEFINED> instruction: 0x312f0801
     da8:	02020000 	andeq	r0, r2, #0
     dac:	000a8305 	andeq	r8, sl, r5, lsl #6
     db0:	2a540400 	bcs	1501db8 <_Min_Stack_Size+0x15019b8>
     db4:	39020000 	stmdbcc	r2, {}	; <UNPREDICTABLE>
     db8:	00000074 	andeq	r0, r0, r4, ror r0
     dbc:	77070202 	strvc	r0, [r7, -r2, lsl #4]
     dc0:	02000069 	andeq	r0, r0, #105	; 0x69
     dc4:	6c600504 	cfstr64vs	mvdx0, [r0], #-16
     dc8:	7b040000 	blvc	100dd0 <_Min_Stack_Size+0x1009d0>
     dcc:	02000042 	andeq	r0, r0, #66	; 0x42
     dd0:	00008d4f 	andeq	r8, r0, pc, asr #26
     dd4:	07040200 	streq	r0, [r4, -r0, lsl #4]
     dd8:	00001a39 	andeq	r1, r0, r9, lsr sl
     ddc:	66070802 	strvs	r0, [r7], -r2, lsl #16
     de0:	04000076 	streq	r0, [r0], #-118	; 0xffffff8a
     de4:	000044ef 	andeq	r4, r0, pc, ror #9
     de8:	00340c03 	eorseq	r0, r4, r3, lsl #24
     dec:	a1040000 	mrsge	r0, (UNDEF: 4)
     df0:	04000085 	streq	r0, [r0], #-133	; 0xffffff7b
     df4:	00007b2c 	andeq	r7, r0, ip, lsr #22
     df8:	64e40400 	strbtvs	r0, [r4], #1024	; 0x400
     dfc:	72040000 	andvc	r0, r4, #0
     e00:	0000007b 	andeq	r0, r0, fp, ror r0
     e04:	00240b05 	eoreq	r0, r4, r5, lsl #22
     e08:	01650500 	cmneq	r5, r0, lsl #10
     e0c:	0000002d 	andeq	r0, r0, sp, lsr #32
     e10:	a6040406 	strge	r0, [r4], -r6, lsl #8
     e14:	000000e7 	andeq	r0, r0, r7, ror #1
     e18:	00159307 	andseq	r9, r5, r7, lsl #6
     e1c:	bca80400 	cfstrslt	mvf0, [r8]
     e20:	07000000 	streq	r0, [r0, -r0]
     e24:	0000726d 	andeq	r7, r0, sp, ror #4
     e28:	00e7a904 	rsceq	sl, r7, r4, lsl #18
     e2c:	08000000 	stmdaeq	r0, {}	; <UNPREDICTABLE>
     e30:	0000005b 	andeq	r0, r0, fp, asr r0
     e34:	000000f7 	strdeq	r0, [r0], -r7
     e38:	00002d09 	andeq	r2, r0, r9, lsl #26
     e3c:	0a000300 	beq	1a44 <_Min_Stack_Size+0x1644>
     e40:	1ca30408 	cfstrsne	mvf0, [r3], #32
     e44:	0b000001 	bleq	e50 <_Min_Stack_Size+0xa50>
     e48:	0000603f 	andeq	r6, r0, pc, lsr r0
     e4c:	0034a504 	eorseq	sl, r4, r4, lsl #10
     e50:	23020000 	movwcs	r0, #8192	; 0x2000
     e54:	01ef0b00 	mvneq	r0, r0, lsl #22
     e58:	aa040000 	bge	100e60 <_Min_Stack_Size+0x100a60>
     e5c:	000000c8 	andeq	r0, r0, r8, asr #1
     e60:	00042302 	andeq	r2, r4, r2, lsl #6
     e64:	00651304 	rsbeq	r1, r5, r4, lsl #6
     e68:	f7ab0400 			; <UNDEFINED> instruction: 0xf7ab0400
     e6c:	04000000 	streq	r0, [r0], #-0
     e70:	00006e2b 	andeq	r6, r0, fp, lsr #28
     e74:	009baf04 	addseq	sl, fp, r4, lsl #30
     e78:	040c0000 	streq	r0, [ip], #-0
     e7c:	013a040d 	teqeq	sl, sp, lsl #8
     e80:	01020000 	mrseq	r0, (UNDEF: 2)
     e84:	0007dd08 	andeq	sp, r7, r8, lsl #26
     e88:	013a0e00 	teqeq	sl, r0, lsl #28
     e8c:	f5040000 			; <UNDEFINED> instruction: 0xf5040000
     e90:	06000082 	streq	r0, [r0], -r2, lsl #1
     e94:	00008d16 	andeq	r8, r0, r6, lsl sp
     e98:	495b0f00 	ldmdbmi	fp, {r8, r9, sl, fp}^
     e9c:	06180000 	ldreq	r0, [r8], -r0
     ea0:	0001b02f 	andeq	fp, r1, pc, lsr #32
     ea4:	5c870b00 	vstmiapl	r7, {d0-d-1}
     ea8:	31060000 	mrscc	r0, (UNDEF: 6)
     eac:	000001b0 			; <UNDEFINED> instruction: 0x000001b0
     eb0:	10002302 	andne	r2, r0, r2, lsl #6
     eb4:	06006b5f 			; <UNDEFINED> instruction: 0x06006b5f
     eb8:	00003432 	andeq	r3, r0, r2, lsr r4
     ebc:	04230200 	strteq	r0, [r3], #-512	; 0xfffffe00
     ec0:	007be00b 	rsbseq	lr, fp, fp
     ec4:	34320600 	ldrtcc	r0, [r2], #-1536	; 0xfffffa00
     ec8:	02000000 	andeq	r0, r0, #0
     ecc:	7c0b0823 	stcvc	8, cr0, [fp], {35}	; 0x23
     ed0:	06000054 			; <UNDEFINED> instruction: 0x06000054
     ed4:	00003432 	andeq	r3, r0, r2, lsr r4
     ed8:	0c230200 	sfmeq	f0, 4, [r3], #-0
     edc:	00367c0b 	eorseq	r7, r6, fp, lsl #24
     ee0:	34320600 	ldrtcc	r0, [r2], #-1536	; 0xfffffa00
     ee4:	02000000 	andeq	r0, r0, #0
     ee8:	5f101023 	svcpl	0x00101023
     eec:	33060078 	movwcc	r0, #24696	; 0x6078
     ef0:	000001b6 			; <UNDEFINED> instruction: 0x000001b6
     ef4:	00142302 	andseq	r2, r4, r2, lsl #6
     ef8:	0151040d 	cmpeq	r1, sp, lsl #8
     efc:	46080000 	strmi	r0, [r8], -r0
     f00:	c6000001 	strgt	r0, [r0], -r1
     f04:	09000001 	stmdbeq	r0, {r0}
     f08:	0000002d 	andeq	r0, r0, sp, lsr #32
     f0c:	ef0f0000 	svc	0x000f0000
     f10:	24000009 	strcs	r0, [r0], #-9
     f14:	02513706 	subseq	r3, r1, #1572864	; 0x180000
     f18:	0b0b0000 	bleq	2c0f20 <_Min_Stack_Size+0x2c0b20>
     f1c:	0600000a 	streq	r0, [r0], -sl
     f20:	00003439 	andeq	r3, r0, r9, lsr r4
     f24:	00230200 	eoreq	r0, r3, r0, lsl #4
     f28:	008ee90b 	addeq	lr, lr, fp, lsl #18
     f2c:	343a0600 	ldrtcc	r0, [sl], #-1536	; 0xfffffa00
     f30:	02000000 	andeq	r0, r0, #0
     f34:	fb0b0423 	blx	2c1fca <_Min_Stack_Size+0x2c1bca>
     f38:	06000086 	streq	r0, [r0], -r6, lsl #1
     f3c:	0000343b 	andeq	r3, r0, fp, lsr r4
     f40:	08230200 	stmdaeq	r3!, {r9}
     f44:	005ab00b 	subseq	fp, sl, fp
     f48:	343c0600 	ldrtcc	r0, [ip], #-1536	; 0xfffffa00
     f4c:	02000000 	andeq	r0, r0, #0
     f50:	ec0b0c23 	stc	12, cr0, [fp], {35}	; 0x23
     f54:	0600001a 			; <UNDEFINED> instruction: 0x0600001a
     f58:	0000343d 	andeq	r3, r0, sp, lsr r4
     f5c:	10230200 	eorne	r0, r3, r0, lsl #4
     f60:	007c580b 	rsbseq	r5, ip, fp, lsl #16
     f64:	343e0600 	ldrtcc	r0, [lr], #-1536	; 0xfffffa00
     f68:	02000000 	andeq	r0, r0, #0
     f6c:	db0b1423 	blle	2c6000 <_Min_Stack_Size+0x2c5c00>
     f70:	06000061 	streq	r0, [r0], -r1, rrx
     f74:	0000343f 	andeq	r3, r0, pc, lsr r4
     f78:	18230200 	stmdane	r3!, {r9}
     f7c:	00629f0b 	rsbeq	r9, r2, fp, lsl #30
     f80:	34400600 	strbcc	r0, [r0], #-1536	; 0xfffffa00
     f84:	02000000 	andeq	r0, r0, #0
     f88:	fb0b1c23 	blx	2c801e <_Min_Stack_Size+0x2c7c1e>
     f8c:	0600008c 	streq	r0, [r0], -ip, lsl #1
     f90:	00003441 	andeq	r3, r0, r1, asr #8
     f94:	20230200 	eorcs	r0, r3, r0, lsl #4
     f98:	14b01100 	ldrtne	r1, [r0], #256	; 0x100
     f9c:	01080000 	mrseq	r0, (UNDEF: 8)
     fa0:	029a4a06 	addseq	r4, sl, #24576	; 0x6000
     fa4:	3d0b0000 	stccc	0, cr0, [fp, #-0]
     fa8:	0600000d 	streq	r0, [r0], -sp
     fac:	00029a4b 	andeq	r9, r2, fp, asr #20
     fb0:	00230200 	eoreq	r0, r3, r0, lsl #4
     fb4:	0068370b 	rsbeq	r3, r8, fp, lsl #14
     fb8:	9a4c0600 	bls	13027c0 <_Min_Stack_Size+0x13023c0>
     fbc:	03000002 	movweq	r0, #2
     fc0:	0b018023 	bleq	61054 <_Min_Stack_Size+0x60c54>
     fc4:	000019d9 	ldrdeq	r1, [r0], -r9
     fc8:	01464e06 	cmpeq	r6, r6, lsl #28
     fcc:	23030000 	movwcs	r0, #12288	; 0x3000
     fd0:	aa0b0280 	bge	2c19d8 <_Min_Stack_Size+0x2c15d8>
     fd4:	06000081 	streq	r0, [r0], -r1, lsl #1
     fd8:	00014651 	andeq	r4, r1, r1, asr r6
     fdc:	84230300 	strthi	r0, [r3], #-768	; 0xfffffd00
     fe0:	32080002 	andcc	r0, r8, #2
     fe4:	aa000001 	bge	ff0 <_Min_Stack_Size+0xbf0>
     fe8:	09000002 	stmdbeq	r0, {r1}
     fec:	0000002d 	andeq	r0, r0, sp, lsr #32
     ff0:	b00f001f 	andlt	r0, pc, pc, lsl r0	; <UNPREDICTABLE>
     ff4:	8c000048 	stchi	0, cr0, [r0], {72}	; 0x48
     ff8:	02f05506 	rscseq	r5, r0, #25165824	; 0x1800000
     ffc:	870b0000 	strhi	r0, [fp, -r0]
    1000:	0600005c 			; <UNDEFINED> instruction: 0x0600005c
    1004:	0002f056 	andeq	pc, r2, r6, asr r0	; <UNPREDICTABLE>
    1008:	00230200 	eoreq	r0, r3, r0, lsl #4
    100c:	0026640b 	eoreq	r6, r6, fp, lsl #8
    1010:	34570600 	ldrbcc	r0, [r7], #-1536	; 0xfffffa00
    1014:	02000000 	andeq	r0, r0, #0
    1018:	4d0b0423 	cfstrsmi	mvf0, [fp, #-140]	; 0xffffff74
    101c:	06000028 	streq	r0, [r0], -r8, lsr #32
    1020:	0002f658 	andeq	pc, r2, r8, asr r6	; <UNPREDICTABLE>
    1024:	08230200 	stmdaeq	r3!, {r9}
    1028:	002dd50b 	eoreq	sp, sp, fp, lsl #10
    102c:	0e590600 	cdpeq	6, 5, cr0, cr9, cr0, {0}
    1030:	03000003 	movweq	r0, #3
    1034:	00018823 	andeq	r8, r1, r3, lsr #16
    1038:	02aa040d 	adceq	r0, sl, #218103808	; 0xd000000
    103c:	06080000 	streq	r0, [r8], -r0
    1040:	06000003 	streq	r0, [r0], -r3
    1044:	09000003 	stmdbeq	r0, {r0, r1}
    1048:	0000002d 	andeq	r0, r0, sp, lsr #32
    104c:	040d001f 	streq	r0, [sp], #-31	; 0xffffffe1
    1050:	0000030c 	andeq	r0, r0, ip, lsl #6
    1054:	040d0112 	streq	r0, [sp], #-274	; 0xfffffeee
    1058:	00000251 	andeq	r0, r0, r1, asr r2
    105c:	0002df0f 	andeq	sp, r2, pc, lsl #30
    1060:	75060800 	strvc	r0, [r6, #-2048]	; 0xfffff800
    1064:	0000033d 	andeq	r0, r0, sp, lsr r3
    1068:	006b040b 	rsbeq	r0, fp, fp, lsl #8
    106c:	3d760600 	ldclcc	6, cr0, [r6, #-0]
    1070:	02000003 	andeq	r0, r0, #3
    1074:	010b0023 	tsteq	fp, r3, lsr #32
    1078:	06000018 			; <UNDEFINED> instruction: 0x06000018
    107c:	00003477 	andeq	r3, r0, r7, ror r4
    1080:	04230200 	strteq	r0, [r3], #-512	; 0xfffffe00
    1084:	5b040d00 	blpl	10448c <_Min_Stack_Size+0x10408c>
    1088:	0f000000 	svceq	0x00000000
    108c:	00003647 	andeq	r3, r0, r7, asr #12
    1090:	bd990620 	ldclt	6, cr0, [r9, #128]	; 0x80
    1094:	10000003 	andne	r0, r0, r3
    1098:	0600705f 			; <UNDEFINED> instruction: 0x0600705f
    109c:	00033d9a 	muleq	r3, sl, sp
    10a0:	00230200 	eoreq	r0, r3, r0, lsl #4
    10a4:	00725f10 	rsbseq	r5, r2, r0, lsl pc
    10a8:	00349b06 	eorseq	r9, r4, r6, lsl #22
    10ac:	23020000 	movwcs	r0, #8192	; 0x2000
    10b0:	775f1004 	ldrbvc	r1, [pc, -r4]
    10b4:	349c0600 	ldrcc	r0, [ip], #1536	; 0x600
    10b8:	02000000 	andeq	r0, r0, #0
    10bc:	a50b0823 	strge	r0, [fp, #-2083]	; 0xfffff7dd
    10c0:	0600005c 			; <UNDEFINED> instruction: 0x0600005c
    10c4:	0000629d 	muleq	r0, sp, r2
    10c8:	0c230200 	sfmeq	f0, 4, [r3], #-0
    10cc:	00145f0b 	andseq	r5, r4, fp, lsl #30
    10d0:	629e0600 	addsvs	r0, lr, #0, 12
    10d4:	02000000 	andeq	r0, r0, #0
    10d8:	5f100e23 	svcpl	0x00100e23
    10dc:	06006662 	streq	r6, [r0], -r2, ror #12
    10e0:	0003149f 	muleq	r3, pc, r4	; <UNPREDICTABLE>
    10e4:	10230200 	eorne	r0, r3, r0, lsl #4
    10e8:	0080140b 	addeq	r1, r0, fp, lsl #8
    10ec:	34a00600 	strtcc	r0, [r0], #1536	; 0x600
    10f0:	02000000 	andeq	r0, r0, #0
    10f4:	ad0b1823 	stcge	8, cr1, [fp, #-140]	; 0xffffff74
    10f8:	06000070 			; <UNDEFINED> instruction: 0x06000070
    10fc:	00051aa2 	andeq	r1, r5, r2, lsr #21
    1100:	1c230200 	sfmne	f0, 4, [r3], #-0
    1104:	03430e00 	movteq	r0, #15872	; 0x3e00
    1108:	24130000 	ldrcs	r0, [r3], #-0
    110c:	6000000c 	andvs	r0, r0, ip
    1110:	1a017406 	bne	5e130 <_Min_Stack_Size+0x5dd30>
    1114:	14000005 	strne	r0, [r0], #-5
    1118:	00004617 	andeq	r4, r0, r7, lsl r6
    111c:	34017806 	strcc	r7, [r1], #-2054	; 0xfffff7fa
    1120:	02000000 	andeq	r0, r0, #0
    1124:	d0140023 	andsle	r0, r4, r3, lsr #32
    1128:	0600001e 			; <UNDEFINED> instruction: 0x0600001e
    112c:	077c017d 			; <UNDEFINED> instruction: 0x077c017d
    1130:	23020000 	movwcs	r0, #8192	; 0x2000
    1134:	56ee1404 	strbtpl	r1, [lr], r4, lsl #8
    1138:	7d060000 	stcvc	0, cr0, [r6, #-0]
    113c:	00077c01 	andeq	r7, r7, r1, lsl #24
    1140:	08230200 	stmdaeq	r3!, {r9}
    1144:	00457914 	subeq	r7, r5, r4, lsl r9
    1148:	017d0600 	cmneq	sp, r0, lsl #12
    114c:	0000077c 	andeq	r0, r0, ip, ror r7
    1150:	140c2302 	strne	r2, [ip], #-770	; 0xfffffcfe
    1154:	0000265f 	andeq	r2, r0, pc, asr r6
    1158:	34017f06 	strcc	r7, [r1], #-3846	; 0xfffff0fa
    115c:	02000000 	andeq	r0, r0, #0
    1160:	70141023 	andsvc	r1, r4, r3, lsr #32
    1164:	06000057 			; <UNDEFINED> instruction: 0x06000057
    1168:	01340181 	teqeq	r4, r1, lsl #3
    116c:	23020000 	movwcs	r0, #8192	; 0x2000
    1170:	43021414 	movwmi	r1, #9236	; 0x2414
    1174:	83060000 	movwhi	r0, #24576	; 0x6000
    1178:	00003401 	andeq	r3, r0, r1, lsl #8
    117c:	18230200 	stmdane	r3!, {r9}
    1180:	0023eb14 	eoreq	lr, r3, r4, lsl fp
    1184:	01850600 	orreq	r0, r5, r0, lsl #12
    1188:	00000034 	andeq	r0, r0, r4, lsr r0
    118c:	141c2302 	ldrne	r2, [ip], #-770	; 0xfffffcfe
    1190:	000082ed 	andeq	r8, r0, sp, ror #5
    1194:	f5018606 			; <UNDEFINED> instruction: 0xf5018606
    1198:	02000008 	andeq	r0, r0, #8
    119c:	5f152023 	svcpl	0x00152023
    11a0:	0600706d 	streq	r7, [r0], -sp, rrx
    11a4:	08fb0188 	ldmeq	fp!, {r3, r7, r8}^
    11a8:	23020000 	movwcs	r0, #8192	; 0x2000
    11ac:	4b3a1424 	blmi	e86244 <_Min_Stack_Size+0xe85e44>
    11b0:	8a060000 	bhi	1811b8 <_Min_Stack_Size+0x180db8>
    11b4:	00090d01 	andeq	r0, r9, r1, lsl #26
    11b8:	28230200 	stmdacs	r3!, {r9}
    11bc:	00522a14 	subseq	r2, r2, r4, lsl sl
    11c0:	018c0600 	orreq	r0, ip, r0, lsl #12
    11c4:	00000034 	andeq	r0, r0, r4, lsr r0
    11c8:	142c2302 	strtne	r2, [ip], #-770	; 0xfffffcfe
    11cc:	0000061b 	andeq	r0, r0, fp, lsl r6
    11d0:	34018f06 	strcc	r8, [r1], #-3846	; 0xfffff0fa
    11d4:	02000000 	andeq	r0, r0, #0
    11d8:	fb143023 	blx	50d26e <_Min_Stack_Size+0x50ce6e>
    11dc:	06000038 			; <UNDEFINED> instruction: 0x06000038
    11e0:	01340190 	teqeq	r4, r0	; <illegal shifter operand>
    11e4:	23020000 	movwcs	r0, #8192	; 0x2000
    11e8:	6f5c1434 	svcvs	0x005c1434
    11ec:	92060000 	andls	r0, r6, #0
    11f0:	00091301 	andeq	r1, r9, r1, lsl #6
    11f4:	38230200 	stmdacc	r3!, {r9}
    11f8:	0018ca14 	andseq	ip, r8, r4, lsl sl
    11fc:	01930600 	orrseq	r0, r3, r0, lsl #12
    1200:	00000919 	andeq	r0, r0, r9, lsl r9
    1204:	143c2302 	ldrtne	r2, [ip], #-770	; 0xfffffcfe
    1208:	000005f7 	strdeq	r0, [r0], -r7
    120c:	34019406 	strcc	r9, [r1], #-1030	; 0xfffffbfa
    1210:	02000001 	andeq	r0, r0, #1
    1214:	81144023 	tsthi	r4, r3, lsr #32
    1218:	06000037 			; <UNDEFINED> instruction: 0x06000037
    121c:	092b0197 	stmdbeq	fp!, {r0, r1, r2, r4, r7, r8}
    1220:	23020000 	movwcs	r0, #8192	; 0x2000
    1224:	8bd81444 	blhi	ff60633c <_estack+0xdf603b3c>
    1228:	9f060000 	svcls	0x00060000
    122c:	00073b01 	andeq	r3, r7, r1, lsl #22
    1230:	48230200 	stmdami	r3!, {r9}
    1234:	00027314 	andeq	r7, r2, r4, lsl r3
    1238:	01a00600 	lsleq	r0, r0, #12
    123c:	0000077c 	andeq	r0, r0, ip, ror r7
    1240:	14542302 	ldrbne	r2, [r4], #-770	; 0xfffffcfe
    1244:	000082c3 	andeq	r8, r0, r3, asr #5
    1248:	3701a106 	strcc	sl, [r1, -r6, lsl #2]
    124c:	02000009 	andeq	r0, r0, #9
    1250:	f4145823 			; <UNDEFINED> instruction: 0xf4145823
    1254:	06000047 	streq	r0, [r0], -r7, asr #32
    1258:	013401a2 	teqeq	r4, r2, lsr #3
    125c:	23020000 	movwcs	r0, #8192	; 0x2000
    1260:	040d005c 	streq	r0, [sp], #-92	; 0xffffffa4
    1264:	000003c2 	andeq	r0, r0, r2, asr #7
    1268:	00051a0e 	andeq	r1, r5, lr, lsl #20
    126c:	42fa0f00 	rscsmi	r0, sl, #0, 30
    1270:	06680000 	strbteq	r0, [r8], -r0
    1274:	00067fb5 			; <UNDEFINED> instruction: 0x00067fb5
    1278:	705f1000 	subsvc	r1, pc, r0
    127c:	3db60600 	ldccc	6, cr0, [r6]
    1280:	02000003 	andeq	r0, r0, #3
    1284:	5f100023 	svcpl	0x00100023
    1288:	b7060072 	smlsdxlt	r6, r2, r0, r0
    128c:	00000034 	andeq	r0, r0, r4, lsr r0
    1290:	10042302 	andne	r2, r4, r2, lsl #6
    1294:	0600775f 			; <UNDEFINED> instruction: 0x0600775f
    1298:	000034b8 			; <UNDEFINED> instruction: 0x000034b8
    129c:	08230200 	stmdaeq	r3!, {r9}
    12a0:	005ca50b 	subseq	sl, ip, fp, lsl #10
    12a4:	62b90600 	adcsvs	r0, r9, #0, 12
    12a8:	02000000 	andeq	r0, r0, #0
    12ac:	5f0b0c23 	svcpl	0x000b0c23
    12b0:	06000014 			; <UNDEFINED> instruction: 0x06000014
    12b4:	000062ba 			; <UNDEFINED> instruction: 0x000062ba
    12b8:	0e230200 	cdpeq	2, 2, cr0, cr3, cr0, {0}
    12bc:	66625f10 	uqadd16vs	r5, r2, r0
    12c0:	14bb0600 	ldrtne	r0, [fp], #1536	; 0x600
    12c4:	02000003 	andeq	r0, r0, #3
    12c8:	140b1023 	strne	r1, [fp], #-35	; 0xffffffdd
    12cc:	06000080 	streq	r0, [r0], -r0, lsl #1
    12d0:	000034bc 			; <UNDEFINED> instruction: 0x000034bc
    12d4:	18230200 	stmdane	r3!, {r9}
    12d8:	0070ad0b 	rsbseq	sl, r0, fp, lsl #26
    12dc:	1abf0600 	bne	fefc2ae4 <_estack+0xdefc02e4>
    12e0:	02000005 	andeq	r0, r0, #5
    12e4:	f00b1c23 			; <UNDEFINED> instruction: 0xf00b1c23
    12e8:	06000035 			; <UNDEFINED> instruction: 0x06000035
    12ec:	000132c3 	andeq	r3, r1, r3, asr #5
    12f0:	20230200 	eorcs	r0, r3, r0, lsl #4
    12f4:	0002e60b 	andeq	lr, r2, fp, lsl #12
    12f8:	9ec50600 	cdpls	6, 12, cr0, cr5, cr0, {0}
    12fc:	02000006 	andeq	r0, r0, #6
    1300:	c60b2423 	strgt	r2, [fp], -r3, lsr #8
    1304:	06000004 	streq	r0, [r0], -r4
    1308:	0006c9c7 	andeq	ip, r6, r7, asr #19
    130c:	28230200 	stmdacs	r3!, {r9}
    1310:	0064460b 	rsbeq	r4, r4, fp, lsl #12
    1314:	eeca0600 	cdp	6, 12, cr0, cr10, cr0, {0}
    1318:	02000006 	andeq	r0, r0, #6
    131c:	5a0b2c23 	bpl	2cc3b0 <_Min_Stack_Size+0x2cbfb0>
    1320:	06000062 	streq	r0, [r0], -r2, rrx
    1324:	000709cb 	andeq	r0, r7, fp, asr #19
    1328:	30230200 	eorcc	r0, r3, r0, lsl #4
    132c:	62755f10 	rsbsvs	r5, r5, #16, 30	; 0x40
    1330:	14ce0600 	strbne	r0, [lr], #1536	; 0x600
    1334:	02000003 	andeq	r0, r0, #3
    1338:	5f103423 	svcpl	0x00103423
    133c:	06007075 			; <UNDEFINED> instruction: 0x06007075
    1340:	00033dcf 	andeq	r3, r3, pc, asr #27
    1344:	3c230200 	sfmcc	f0, 4, [r3], #-0
    1348:	72755f10 	rsbsvc	r5, r5, #16, 30	; 0x40
    134c:	34d00600 	ldrbcc	r0, [r0], #1536	; 0x600
    1350:	02000000 	andeq	r0, r0, #0
    1354:	460b4023 	strmi	r4, [fp], -r3, lsr #32
    1358:	0600005b 			; <UNDEFINED> instruction: 0x0600005b
    135c:	00070fd3 	ldrdeq	r0, [r7], -r3
    1360:	44230200 	strtmi	r0, [r3], #-512	; 0xfffffe00
    1364:	000a050b 	andeq	r0, sl, fp, lsl #10
    1368:	1fd40600 	svcne	0x00d40600
    136c:	02000007 	andeq	r0, r0, #7
    1370:	5f104723 	svcpl	0x00104723
    1374:	0600626c 	streq	r6, [r0], -ip, ror #4
    1378:	000314d7 	ldrdeq	r1, [r3], -r7
    137c:	48230200 	stmdami	r3!, {r9}
    1380:	006ab30b 	rsbeq	fp, sl, fp, lsl #6
    1384:	34da0600 	ldrbcc	r0, [sl], #1536	; 0x600
    1388:	02000000 	andeq	r0, r0, #0
    138c:	e20b5023 	and	r5, fp, #35	; 0x23
    1390:	06000038 			; <UNDEFINED> instruction: 0x06000038
    1394:	0000a6db 	ldrdeq	sl, [r0], -fp
    1398:	54230200 	strtpl	r0, [r3], #-512	; 0xfffffe00
    139c:	000d450b 	andeq	r4, sp, fp, lsl #10
    13a0:	27e20600 	strbcs	r0, [r2, r0, lsl #12]!
    13a4:	02000001 	andeq	r0, r0, #1
    13a8:	130b5823 	movwne	r5, #47139	; 0xb823
    13ac:	0600005c 			; <UNDEFINED> instruction: 0x0600005c
    13b0:	00011ce4 	andeq	r1, r1, r4, ror #25
    13b4:	5c230200 	sfmpl	f0, 4, [r3], #-0
    13b8:	00572c0b 	subseq	r2, r7, fp, lsl #24
    13bc:	34e50600 	strbtcc	r0, [r5], #1536	; 0x600
    13c0:	02000000 	andeq	r0, r0, #0
    13c4:	16006423 	strne	r6, [r0], -r3, lsr #8
    13c8:	00003401 	andeq	r3, r0, r1, lsl #8
    13cc:	00069e00 	andeq	r9, r6, r0, lsl #28
    13d0:	051a1700 	ldreq	r1, [sl, #-1792]	; 0xfffff900
    13d4:	32170000 	andscc	r0, r7, #0
    13d8:	17000001 	strne	r0, [r0, -r1]
    13dc:	00000134 	andeq	r0, r0, r4, lsr r1
    13e0:	00003417 	andeq	r3, r0, r7, lsl r4
    13e4:	040d0000 	streq	r0, [sp], #-0
    13e8:	0000067f 	andeq	r0, r0, pc, ror r6
    13ec:	00340116 	eorseq	r0, r4, r6, lsl r1
    13f0:	06c30000 	strbeq	r0, [r3], r0
    13f4:	1a170000 	bne	5c13fc <_Min_Stack_Size+0x5c0ffc>
    13f8:	17000005 	strne	r0, [r0, -r5]
    13fc:	00000132 	andeq	r0, r0, r2, lsr r1
    1400:	0006c317 	andeq	ip, r6, r7, lsl r3
    1404:	00341700 	eorseq	r1, r4, r0, lsl #14
    1408:	0d000000 	stceq	0, cr0, [r0, #-0]
    140c:	00014104 	andeq	r4, r1, r4, lsl #2
    1410:	a4040d00 	strge	r0, [r4], #-3328	; 0xfffff300
    1414:	16000006 	strne	r0, [r0], -r6
    1418:	0000b101 	andeq	fp, r0, r1, lsl #2
    141c:	0006ee00 	andeq	lr, r6, r0, lsl #28
    1420:	051a1700 	ldreq	r1, [sl, #-1792]	; 0xfffff900
    1424:	32170000 	andscc	r0, r7, #0
    1428:	17000001 	strne	r0, [r0, -r1]
    142c:	000000b1 	strheq	r0, [r0], -r1
    1430:	00003417 	andeq	r3, r0, r7, lsl r4
    1434:	040d0000 	streq	r0, [sp], #-0
    1438:	000006cf 	andeq	r0, r0, pc, asr #13
    143c:	00340116 	eorseq	r0, r4, r6, lsl r1
    1440:	07090000 	streq	r0, [r9, -r0]
    1444:	1a170000 	bne	5c144c <_Min_Stack_Size+0x5c104c>
    1448:	17000005 	strne	r0, [r0, -r5]
    144c:	00000132 	andeq	r0, r0, r2, lsr r1
    1450:	f4040d00 			; <UNDEFINED> instruction: 0xf4040d00
    1454:	08000006 	stmdaeq	r0, {r1, r2}
    1458:	0000005b 	andeq	r0, r0, fp, asr r0
    145c:	0000071f 	andeq	r0, r0, pc, lsl r7
    1460:	00002d09 	andeq	r2, r0, r9, lsl #26
    1464:	08000200 	stmdaeq	r0, {r9}
    1468:	0000005b 	andeq	r0, r0, fp, asr r0
    146c:	0000072f 	andeq	r0, r0, pc, lsr #14
    1470:	00002d09 	andeq	r2, r0, r9, lsl #26
    1474:	05000000 	streq	r0, [r0, #-0]
    1478:	00006e34 	andeq	r6, r0, r4, lsr lr
    147c:	25011f06 	strcs	r1, [r1, #-3846]	; 0xfffff0fa
    1480:	13000005 	movwne	r0, #5
    1484:	00005422 	andeq	r5, r0, r2, lsr #8
    1488:	0123060c 			; <UNDEFINED> instruction: 0x0123060c
    148c:	00000776 	andeq	r0, r0, r6, ror r7
    1490:	005c8714 	subseq	r8, ip, r4, lsl r7
    1494:	01250600 			; <UNDEFINED> instruction: 0x01250600
    1498:	00000776 	andeq	r0, r0, r6, ror r7
    149c:	14002302 	strne	r2, [r0], #-770	; 0xfffffcfe
    14a0:	00002c77 	andeq	r2, r0, r7, ror ip
    14a4:	34012606 	strcc	r2, [r1], #-1542	; 0xfffff9fa
    14a8:	02000000 	andeq	r0, r0, #0
    14ac:	de140423 	cfmuldle	mvd0, mvd4, mvd3
    14b0:	06000053 			; <UNDEFINED> instruction: 0x06000053
    14b4:	077c0127 	ldrbeq	r0, [ip, -r7, lsr #2]!
    14b8:	23020000 	movwcs	r0, #8192	; 0x2000
    14bc:	040d0008 	streq	r0, [sp], #-8
    14c0:	0000073b 	andeq	r0, r0, fp, lsr r7
    14c4:	072f040d 	streq	r0, [pc, -sp, lsl #8]!
    14c8:	fc130000 	ldc2	0, cr0, [r3], {-0}
    14cc:	18000068 	stmdane	r0, {r3, r5, r6}
    14d0:	cc013f06 	stcgt	15, cr3, [r1], {6}
    14d4:	14000007 	strne	r0, [r0], #-7
    14d8:	000063ef 	andeq	r6, r0, pc, ror #7
    14dc:	cc014006 	stcgt	0, cr4, [r1], {6}
    14e0:	02000007 	andeq	r0, r0, #7
    14e4:	09140023 	ldmdbeq	r4, {r0, r1, r5}
    14e8:	0600000f 	streq	r0, [r0], -pc
    14ec:	07cc0141 	strbeq	r0, [ip, r1, asr #2]
    14f0:	23020000 	movwcs	r0, #8192	; 0x2000
    14f4:	866e1406 	strbthi	r1, [lr], -r6, lsl #8
    14f8:	42060000 	andmi	r0, r6, #0
    14fc:	00007401 	andeq	r7, r0, r1, lsl #8
    1500:	0c230200 	sfmeq	f0, 4, [r3], #-0
    1504:	005c8214 	subseq	r8, ip, r4, lsl r2
    1508:	01450600 	cmpeq	r5, r0, lsl #12
    150c:	00000094 	muleq	r0, r4, r0
    1510:	00102302 	andseq	r2, r0, r2, lsl #6
    1514:	00007408 	andeq	r7, r0, r8, lsl #8
    1518:	0007dc00 	andeq	sp, r7, r0, lsl #24
    151c:	002d0900 	eoreq	r0, sp, r0, lsl #18
    1520:	00020000 	andeq	r0, r2, r0
    1524:	00827a13 	addeq	r7, r2, r3, lsl sl
    1528:	58061000 	stmdapl	r6, {ip}
    152c:	00082601 	andeq	r2, r8, r1, lsl #12
    1530:	84251400 	strthi	r1, [r5], #-1024	; 0xfffffc00
    1534:	5b060000 	blpl	18153c <_Min_Stack_Size+0x18113c>
    1538:	0001b001 	andeq	fp, r1, r1
    153c:	00230200 	eoreq	r0, r3, r0, lsl #4
    1540:	00175314 	andseq	r5, r7, r4, lsl r3
    1544:	015c0600 	cmpeq	ip, r0, lsl #12
    1548:	00000034 	andeq	r0, r0, r4, lsr r0
    154c:	14042302 	strne	r2, [r4], #-770	; 0xfffffcfe
    1550:	0000360b 	andeq	r3, r0, fp, lsl #12
    1554:	b0015d06 	andlt	r5, r1, r6, lsl #26
    1558:	02000001 	andeq	r0, r0, #1
    155c:	80140823 	andshi	r0, r4, r3, lsr #16
    1560:	06000053 			; <UNDEFINED> instruction: 0x06000053
    1564:	0826015e 	stmdaeq	r6!, {r1, r2, r3, r4, r6, r8}
    1568:	23020000 	movwcs	r0, #8192	; 0x2000
    156c:	040d000c 	streq	r0, [sp], #-12
    1570:	000001b0 			; <UNDEFINED> instruction: 0x000001b0
    1574:	000c1f13 	andeq	r1, ip, r3, lsl pc
    1578:	62065000 	andvs	r5, r6, #0
    157c:	0008df01 	andeq	sp, r8, r1, lsl #30
    1580:	6c1f1400 	cfldrsvs	mvf1, [pc], {-0}
    1584:	65060000 	strvs	r0, [r6, #-0]
    1588:	00013401 	andeq	r3, r1, r1, lsl #8
    158c:	00230200 	eoreq	r0, r3, r0, lsl #4
    1590:	0077a614 	rsbseq	sl, r7, r4, lsl r6
    1594:	01660600 	cmneq	r6, r0, lsl #12
    1598:	0000011c 	andeq	r0, r0, ip, lsl r1
    159c:	14042302 	strne	r2, [r4], #-770	; 0xfffffcfe
    15a0:	00005beb 	andeq	r5, r0, fp, ror #23
    15a4:	1c016706 	stcne	7, cr6, [r1], {6}
    15a8:	02000001 	andeq	r0, r0, #1
    15ac:	a2140c23 	andsge	r0, r4, #8960	; 0x2300
    15b0:	06000065 	streq	r0, [r0], -r5, rrx
    15b4:	011c0168 	tsteq	ip, r8, ror #2
    15b8:	23020000 	movwcs	r0, #8192	; 0x2000
    15bc:	0b071414 	bleq	1c6614 <_Min_Stack_Size+0x1c6214>
    15c0:	69060000 	stmdbvs	r6, {}	; <UNPREDICTABLE>
    15c4:	0008df01 	andeq	sp, r8, r1, lsl #30
    15c8:	1c230200 	sfmne	f0, 4, [r3], #-0
    15cc:	000efc14 	andeq	pc, lr, r4, lsl ip	; <UNPREDICTABLE>
    15d0:	016a0600 	cmneq	sl, r0, lsl #12
    15d4:	00000034 	andeq	r0, r0, r4, lsr r0
    15d8:	14242302 	strtne	r2, [r4], #-770	; 0xfffffcfe
    15dc:	000016e5 	andeq	r1, r0, r5, ror #13
    15e0:	1c016b06 			; <UNDEFINED> instruction: 0x1c016b06
    15e4:	02000001 	andeq	r0, r0, #1
    15e8:	82142823 	andshi	r2, r4, #2293760	; 0x230000
    15ec:	0600006c 	streq	r0, [r0], -ip, rrx
    15f0:	011c016c 	tsteq	ip, ip, ror #2
    15f4:	23020000 	movwcs	r0, #8192	; 0x2000
    15f8:	889e1430 	ldmhi	lr, {r4, r5, sl, ip}
    15fc:	6d060000 	stcvs	0, cr0, [r6, #-0]
    1600:	00011c01 	andeq	r1, r1, r1, lsl #24
    1604:	38230200 	stmdacc	r3!, {r9}
    1608:	005a2a14 	subseq	r2, sl, r4, lsl sl
    160c:	016e0600 	cmneq	lr, r0, lsl #12
    1610:	0000011c 	andeq	r0, r0, ip, lsl r1
    1614:	14402302 	strbne	r2, [r0], #-770	; 0xfffffcfe
    1618:	000009f4 	strdeq	r0, [r0], -r4
    161c:	1c016f06 	stcne	15, cr6, [r1], {6}
    1620:	02000001 	andeq	r0, r0, #1
    1624:	08004823 	stmdaeq	r0, {r0, r1, r5, fp, lr}
    1628:	0000013a 	andeq	r0, r0, sl, lsr r1
    162c:	000008ef 	andeq	r0, r0, pc, ror #17
    1630:	00002d09 	andeq	r2, r0, r9, lsl #26
    1634:	18000700 	stmdane	r0, {r8, r9, sl}
    1638:	000001cb 	andeq	r0, r0, fp, asr #3
    163c:	ef040d01 	svc	0x00040d01
    1640:	0d000008 	stceq	0, cr0, [r0, #-32]	; 0xffffffe0
    1644:	0007dc04 	andeq	sp, r7, r4, lsl #24
    1648:	0d011900 	vstreq.16	s2, [r1, #-0]	; <UNPREDICTABLE>
    164c:	17000009 	strne	r0, [r0, -r9]
    1650:	0000051a 	andeq	r0, r0, sl, lsl r5
    1654:	01040d00 	tsteq	r4, r0, lsl #26
    1658:	0d000009 	stceq	0, cr0, [r0, #-36]	; 0xffffffdc
    165c:	00078204 	andeq	r8, r7, r4, lsl #4
    1660:	c6040d00 	strgt	r0, [r4], -r0, lsl #26
    1664:	19000001 	stmdbne	r0, {r0}
    1668:	00092b01 	andeq	r2, r9, r1, lsl #22
    166c:	00341700 	eorseq	r1, r4, r0, lsl #14
    1670:	0d000000 	stceq	0, cr0, [r0, #-0]
    1674:	00093104 	andeq	r3, r9, r4, lsl #2
    1678:	1f040d00 	svcne	0x00040d00
    167c:	0d000009 	stceq	0, cr0, [r0, #-36]	; 0xffffffdc
    1680:	00082c04 	andeq	r2, r8, r4, lsl #24
    1684:	1ec71a00 	vdivne.f32	s3, s14, s0
    1688:	ca060000 	bgt	181690 <_Min_Stack_Size+0x181290>
    168c:	0003bd01 	andeq	fp, r3, r1, lsl #26
    1690:	1a010100 	bne	41a98 <_Min_Stack_Size+0x41698>
    1694:	000056e5 	andeq	r5, r0, r5, ror #13
    1698:	bd01cb06 	vstrlt	d12, [r1, #-24]	; 0xffffffe8
    169c:	01000003 	tsteq	r0, r3
    16a0:	45701a01 	ldrbmi	r1, [r0, #-2561]!	; 0xfffff5ff
    16a4:	cc060000 	stcgt	0, cr0, [r6], {-0}
    16a8:	0003bd01 	andeq	fp, r3, r1, lsl #26
    16ac:	1a010100 	bne	41ab4 <_Min_Stack_Size+0x416b4>
    16b0:	00002bd2 	ldrdeq	r2, [r0], -r2	; <UNPREDICTABLE>
    16b4:	1a032e06 	bne	cced4 <_Min_Stack_Size+0xccad4>
    16b8:	01000005 	tsteq	r0, r5
    16bc:	7c2f1a01 			; <UNDEFINED> instruction: 0x7c2f1a01
    16c0:	2f060000 	svccs	0x00060000
    16c4:	00052003 	andeq	r2, r5, r3
    16c8:	1a010100 	bne	41ad0 <_Min_Stack_Size+0x416d0>
    16cc:	000048a9 	andeq	r4, r0, r9, lsr #17
    16d0:	f0034106 			; <UNDEFINED> instruction: 0xf0034106
    16d4:	01000002 	tsteq	r0, r2
    16d8:	7b441b01 	blvc	11082e4 <_Min_Stack_Size+0x1107ee4>
    16dc:	63070000 	movwvs	r0, #28672	; 0x7000
    16e0:	00000134 	andeq	r0, r0, r4, lsr r1
    16e4:	c8040101 	stmdagt	r4, {r0, r8}
    16e8:	08000013 	stmdaeq	r0, {r0, r1, r4}
    16ec:	00005018 	andeq	r5, r0, r8, lsl r0
    16f0:	2a560400 	bcs	15826f8 <_Min_Stack_Size+0x15822f8>
    16f4:	24080000 	strcs	r0, [r8], #-0
    16f8:	00000069 	andeq	r0, r0, r9, rrx
    16fc:	00427d04 	subeq	r7, r2, r4, lsl #26
    1700:	82300800 	eorshi	r0, r0, #0, 16
    1704:	1c000000 	stcne	0, cr0, [r0], {-0}
    1708:	000009b4 			; <UNDEFINED> instruction: 0x000009b4
    170c:	6e091c0a 	cdpvs	12, 0, cr1, cr9, cr10, {0}
    1710:	00000a2f 	andeq	r0, r0, pc, lsr #20
    1714:	4c524310 	mrrcmi	3, 1, r4, r2, cr0
    1718:	bf700900 	svclt	0x00700900
    171c:	02000009 	andeq	r0, r0, #9
    1720:	43100023 	tstmi	r0, #35	; 0x23
    1724:	09004852 	stmdbeq	r0, {r1, r4, r6, fp, lr}
    1728:	0009bf71 	andeq	fp, r9, r1, ror pc
    172c:	04230200 	strteq	r0, [r3], #-512	; 0xfffffe00
    1730:	52444910 	subpl	r4, r4, #16, 18	; 0x40000
    1734:	bf720900 	svclt	0x00720900
    1738:	02000009 	andeq	r0, r0, #9
    173c:	4f100823 	svcmi	0x00100823
    1740:	09005244 	stmdbeq	r0, {r2, r6, r9, ip, lr}
    1744:	0009bf73 	andeq	fp, r9, r3, ror pc
    1748:	0c230200 	sfmeq	f0, 4, [r3], #-0
    174c:	007e790b 	rsbseq	r7, lr, fp, lsl #18
    1750:	bf740900 	svclt	0x00740900
    1754:	02000009 	andeq	r0, r0, #9
    1758:	42101023 	andsmi	r1, r0, #35	; 0x23
    175c:	09005252 	stmdbeq	r0, {r1, r4, r6, r9, ip, lr}
    1760:	0009bf75 	andeq	fp, r9, r5, ror pc
    1764:	14230200 	strtne	r0, [r3], #-512	; 0xfffffe00
    1768:	0048000b 	subeq	r0, r8, fp
    176c:	bf760900 	svclt	0x00760900
    1770:	02000009 	andeq	r0, r0, #9
    1774:	04001823 	streq	r1, [r0], #-2083	; 0xfffff7dd
    1778:	00007fbe 			; <UNDEFINED> instruction: 0x00007fbe
    177c:	09c47709 	stmibeq	r4, {r0, r3, r8, r9, sl, ip, sp, lr}^
    1780:	180a0000 	stmdane	sl, {}	; <UNPREDICTABLE>
    1784:	0a969109 	beq	fe5a5bb0 <_estack+0xde5a33b0>
    1788:	49100000 	ldmdbmi	r0, {}	; <UNPREDICTABLE>
    178c:	0900524d 	stmdbeq	r0, {r0, r2, r3, r6, r9, ip, lr}
    1790:	0009bf93 	muleq	r9, r3, pc	; <UNPREDICTABLE>
    1794:	00230200 	eoreq	r0, r3, r0, lsl #4
    1798:	524d4510 	subpl	r4, sp, #16, 10	; 0x4000000
    179c:	bf940900 	svclt	0x00940900
    17a0:	02000009 	andeq	r0, r0, #9
    17a4:	3a0b0423 	bcc	2c2838 <_Min_Stack_Size+0x2c2438>
    17a8:	09000091 	stmdbeq	r0, {r0, r4, r7}
    17ac:	0009bf95 	muleq	r9, r5, pc	; <UNPREDICTABLE>
    17b0:	08230200 	stmdaeq	r3!, {r9}
    17b4:	0091290b 	addseq	r2, r1, fp, lsl #18
    17b8:	bf960900 	svclt	0x00960900
    17bc:	02000009 	andeq	r0, r0, #9
    17c0:	280b0c23 	stmdacs	fp, {r0, r1, r5, sl, fp}
    17c4:	09000092 	stmdbeq	r0, {r1, r4, r7}
    17c8:	0009bf97 	muleq	r9, r7, pc	; <UNPREDICTABLE>
    17cc:	10230200 	eorne	r0, r3, r0, lsl #4
    17d0:	00525010 	subseq	r5, r2, r0, lsl r0
    17d4:	09bf9809 	ldmibeq	pc!, {r0, r3, fp, ip, pc}	; <UNPREDICTABLE>
    17d8:	23020000 	movwcs	r0, #8192	; 0x2000
    17dc:	44040014 	strmi	r0, [r4], #-20	; 0xffffffec
    17e0:	09000092 	stmdbeq	r0, {r1, r4, r7}
    17e4:	000a3a99 	muleq	sl, r9, sl
    17e8:	09200a00 	stmdbeq	r0!, {r9, fp}
    17ec:	000af0a0 	andeq	pc, sl, r0, lsr #1
    17f0:	92f50b00 	rscsls	r0, r5, #0, 22
    17f4:	a2090000 	andge	r0, r9, #0
    17f8:	000009bf 			; <UNDEFINED> instruction: 0x000009bf
    17fc:	0b002302 	bleq	a40c <_Min_Stack_Size+0xa00c>
    1800:	00009251 	andeq	r9, r0, r1, asr r2
    1804:	09bfa309 	ldmibeq	pc!, {r0, r3, r8, r9, sp, pc}	; <UNPREDICTABLE>
    1808:	23020000 	movwcs	r0, #8192	; 0x2000
    180c:	90f20b04 	rscsls	r0, r2, r4, lsl #22
    1810:	a4090000 	strge	r0, [r9], #-0
    1814:	00000b00 	andeq	r0, r0, r0, lsl #22
    1818:	0b082302 	bleq	20a428 <_Min_Stack_Size+0x20a028>
    181c:	000091a7 	andeq	r9, r0, r7, lsr #3
    1820:	09b4a509 	ldmibeq	r4!, {r0, r3, r8, sl, sp, pc}
    1824:	23020000 	movwcs	r0, #8192	; 0x2000
    1828:	922e0b18 	eorls	r0, lr, #24, 22	; 0x6000
    182c:	a6090000 	strge	r0, [r9], -r0
    1830:	000009bf 			; <UNDEFINED> instruction: 0x000009bf
    1834:	001c2302 	andseq	r2, ip, r2, lsl #6
    1838:	0009bf08 	andeq	fp, r9, r8, lsl #30
    183c:	000b0000 	andeq	r0, fp, r0
    1840:	002d0900 	eoreq	r0, sp, r0, lsl #18
    1844:	00030000 	andeq	r0, r3, r0
    1848:	000af01c 	andeq	pc, sl, ip, lsl r0	; <UNPREDICTABLE>
    184c:	91df0400 	bicsls	r0, pc, r0, lsl #8
    1850:	a7090000 	strge	r0, [r9, -r0]
    1854:	00000aa1 	andeq	r0, r0, r1, lsr #21
    1858:	170a040a 	strne	r0, [sl, -sl, lsl #8]
    185c:	00000b43 	andeq	r0, r0, r3, asr #22
    1860:	0092e60b 	addseq	lr, r2, fp, lsl #12
    1864:	a91a0a00 	ldmdbge	sl, {r9, fp}
    1868:	02000009 	andeq	r0, r0, #9
    186c:	9d0b0023 	stcls	0, cr0, [fp, #-140]	; 0xffffff74
    1870:	0a000091 	beq	1abc <_Min_Stack_Size+0x16bc>
    1874:	00099e1d 	andeq	r9, r9, sp, lsl lr
    1878:	02230200 	eoreq	r0, r3, #0, 4
    187c:	0092160b 	addseq	r1, r2, fp, lsl #12
    1880:	9e200a00 	vmulls.f32	s0, s0, s0
    1884:	02000009 	andeq	r0, r0, #9
    1888:	04000323 	streq	r0, [r0], #-803	; 0xfffffcdd
    188c:	000091ce 	andeq	r9, r0, lr, asr #3
    1890:	0b10220a 	bleq	40a0c0 <_Min_Stack_Size+0x409cc0>
    1894:	0c0a0000 	stceq	0, cr0, [sl], {-0}
    1898:	0b8f130b 	bleq	fe3c64cc <_estack+0xde3c3ccc>
    189c:	440b0000 	strmi	r0, [fp], #-0
    18a0:	0b00004b 	bleq	19d4 <_Min_Stack_Size+0x15d4>
    18a4:	0009a915 	andeq	sl, r9, r5, lsl r9
    18a8:	00230200 	eoreq	r0, r3, r0, lsl #4
    18ac:	00698a0b 	rsbeq	r8, r9, fp, lsl #20
    18b0:	8f160b00 	svchi	0x00160b00
    18b4:	0200000b 	andeq	r0, r0, #11
    18b8:	4f0b0423 	svcmi	0x000b0423
    18bc:	0b000074 	bleq	1a94 <_Min_Stack_Size+0x1694>
    18c0:	0009a917 	andeq	sl, r9, r7, lsl r9
    18c4:	08230200 	stmdaeq	r3!, {r9}
    18c8:	008c0c0b 	addeq	r0, ip, fp, lsl #24
    18cc:	9e180b00 	vnmlsls.f64	d0, d8, d0
    18d0:	02000009 	andeq	r0, r0, #9
    18d4:	0d000a23 	vstreq	s0, [r0, #-140]	; 0xffffff74
    18d8:	000a2f04 	andeq	r2, sl, r4, lsl #30
    18dc:	0e880400 	cdpeq	4, 8, cr0, cr8, cr0, {0}
    18e0:	190b0000 	stmdbne	fp, {}	; <UNPREDICTABLE>
    18e4:	00000b4e 	andeq	r0, r0, lr, asr #22
    18e8:	1c0b140a 	cfstrsne	mvf1, [fp], {10}
    18ec:	00000be1 	andeq	r0, r0, r1, ror #23
    18f0:	0052d70b 	subseq	sp, r2, fp, lsl #14
    18f4:	951e0b00 	ldrls	r0, [lr, #-2816]	; 0xfffff500
    18f8:	0200000b 	andeq	r0, r0, #11
    18fc:	450b0023 	strmi	r0, [fp, #-35]	; 0xffffffdd
    1900:	0b00008e 	bleq	1b40 <_Min_Stack_Size+0x1740>
    1904:	00099e21 	andeq	r9, r9, r1, lsr #28
    1908:	0c230200 	sfmeq	f0, 4, [r3], #-0
    190c:	0001f70b 	andeq	pc, r1, fp, lsl #14
    1910:	9e240b00 	vmulls.f64	d0, d4, d0
    1914:	02000009 	andeq	r0, r0, #9
    1918:	350b0d23 	strcc	r0, [fp, #-3363]	; 0xfffff2dd
    191c:	0b000092 	bleq	1b6c <_Min_Stack_Size+0x176c>
    1920:	00030628 	andeq	r0, r3, r8, lsr #12
    1924:	10230200 	eorne	r0, r3, r0, lsl #4
    1928:	2bf40400 	blcs	ffd02930 <_estack+0xdfd00130>
    192c:	2b0b0000 	blcs	2c1934 <_Min_Stack_Size+0x2c1534>
    1930:	00000ba0 	andeq	r0, r0, r0, lsr #23
    1934:	00030608 	andeq	r0, r3, r8, lsl #12
    1938:	000bfc00 	andeq	pc, fp, r0, lsl #24
    193c:	002d0900 	eoreq	r0, sp, r0, lsl #18
    1940:	000e0000 	andeq	r0, lr, r0
    1944:	0092341d 	addseq	r3, r2, sp, lsl r4
    1948:	ec140100 	ldfs	f0, [r4], {-0}
    194c:	0100000b 	tsteq	r0, fp
    1950:	003c0305 	eorseq	r0, ip, r5, lsl #6
    1954:	011e2000 	tsteq	lr, r0
    1958:	000092fa 	strdeq	r9, [r0], -sl
    195c:	01014d01 	tsteq	r1, r1, lsl #26
    1960:	080008a4 	stmdaeq	r0, {r2, r5, r7, fp}
    1964:	08000968 	stmdaeq	r0, {r3, r5, r6, r8, fp}
    1968:	000001bc 			; <UNDEFINED> instruction: 0x000001bc
    196c:	67011e01 	strvs	r1, [r1, -r1, lsl #28]
    1970:	01000092 	swpeq	r0, r2, [r0]	; <UNPREDICTABLE>
    1974:	fc010141 	stc2	1, cr0, [r1], {65}	; 0x41
    1978:	a4080007 	strge	r0, [r8], #-7
    197c:	e8080008 	stmda	r8, {r3}
    1980:	01000001 	tsteq	r0, r1
    1984:	91b1011e 			; <UNDEFINED> instruction: 0x91b1011e
    1988:	36010000 	strcc	r0, [r1], -r0
    198c:	07d80101 	ldrbeq	r0, [r8, r1, lsl #2]
    1990:	07fc0800 	ldrbeq	r0, [ip, r0, lsl #16]!
    1994:	02140800 	andseq	r0, r4, #0, 16
    1998:	1e010000 	cdpne	0, 0, cr0, cr1, cr0, {0}
    199c:	00927a01 	addseq	r7, r2, r1, lsl #20
    19a0:	012b0100 			; <UNDEFINED> instruction: 0x012b0100
    19a4:	0007b401 	andeq	fp, r7, r1, lsl #8
    19a8:	0007d808 	andeq	sp, r7, r8, lsl #16
    19ac:	00024008 	andeq	r4, r2, r8
    19b0:	011e0100 	tsteq	lr, r0, lsl #2
    19b4:	00009256 	andeq	r9, r0, r6, asr r2
    19b8:	01012001 	tsteq	r1, r1
    19bc:	08000790 	stmdaeq	r0, {r4, r7, r8, r9, sl}
    19c0:	080007b4 	stmdaeq	r0, {r2, r4, r5, r7, r8, r9, sl}
    19c4:	0000026c 	andeq	r0, r0, ip, ror #4
    19c8:	1c011e01 	stcne	14, cr1, [r1], {1}
    19cc:	01000093 	swpeq	r0, r3, [r0]	; <UNPREDICTABLE>
    19d0:	6c010116 	stfvss	f0, [r1], {22}
    19d4:	90080007 	andls	r0, r8, r7
    19d8:	98080007 	stmdals	r8, {r0, r1, r2}
    19dc:	01000002 	tsteq	r0, r2
    19e0:	92d5011e 	sbcsls	r0, r5, #-2147483641	; 0x80000007
    19e4:	0a010000 	beq	419ec <_Min_Stack_Size+0x415ec>
    19e8:	07480101 	strbeq	r0, [r8, -r1, lsl #2]
    19ec:	076c0800 	strbeq	r0, [ip, -r0, lsl #16]!
    19f0:	02c40800 	sbceq	r0, r4, #0, 16
    19f4:	1f010000 	svcne	0x00010000
    19f8:	0090f901 	addseq	pc, r0, r1, lsl #18
    19fc:	01fc0100 	mvnseq	r0, r0, lsl #2
	...
    1a08:	000002f0 	strdeq	r0, [r0], -r0	; <UNPREDICTABLE>
    1a0c:	000cd801 	andeq	sp, ip, r1, lsl #16
    1a10:	91c22000 	bicls	r2, r2, r0
    1a14:	fc010000 	stc2	0, cr0, [r1], {-0}
    1a18:	00000cd8 	ldrdeq	r0, [r0], -r8
    1a1c:	00749102 	rsbseq	r9, r4, r2, lsl #2
    1a20:	0be1040d 	bleq	ff842a5c <_estack+0xdf84025c>
    1a24:	011f0000 	tsteq	pc, r0
    1a28:	00009202 	andeq	r9, r0, r2, lsl #4
    1a2c:	3001ec01 	andcc	lr, r1, r1, lsl #24
    1a30:	46080007 	strmi	r0, [r8], -r7
    1a34:	40080007 	andmi	r0, r8, r7
    1a38:	01000003 	tsteq	r0, r3
    1a3c:	00000d07 	andeq	r0, r0, r7, lsl #26
    1a40:	0091c220 	addseq	ip, r1, r0, lsr #4
    1a44:	d8ec0100 	stmiale	ip!, {r8}^
    1a48:	0200000c 	andeq	r0, r0, #12
    1a4c:	21007491 			; <UNDEFINED> instruction: 0x21007491
    1a50:	0091ec01 	addseq	lr, r1, r1, lsl #24
    1a54:	01ca0100 	biceq	r0, sl, r0, lsl #2
	...
    1a60:	00000390 	muleq	r0, r0, r3
    1a64:	2e011f01 	cdpcs	15, 0, cr1, cr1, cr1, {0}
    1a68:	01000091 	swpeq	r0, r1, [r0]	; <UNPREDICTABLE>
    1a6c:	05580176 	ldrbeq	r0, [r8, #-374]	; 0xfffffe8a
    1a70:	07300800 	ldreq	r0, [r0, -r0, lsl #16]!
    1a74:	03d40800 	bicseq	r0, r4, #0, 16
    1a78:	70010000 	andvc	r0, r1, r0
    1a7c:	2000000d 	andcs	r0, r0, sp
    1a80:	000091c2 	andeq	r9, r0, r2, asr #3
    1a84:	0cd87601 	ldcleq	6, cr7, [r8], {1}
    1a88:	91020000 	mrsls	r0, (UNDEF: 2)
    1a8c:	9196226c 	orrsls	r2, r6, ip, ror #4
    1a90:	7a010000 	bvc	41a98 <_Min_Stack_Size+0x41698>
    1a94:	00000b43 	andeq	r0, r0, r3, asr #22
    1a98:	22709102 	rsbscs	r9, r0, #-2147483648	; 0x80000000
    1a9c:	000092c3 	andeq	r9, r0, r3, asr #5
    1aa0:	099e8301 	ldmibeq	lr, {r0, r8, r9, pc}
    1aa4:	91020000 	mrsls	r0, (UNDEF: 2)
    1aa8:	910f2277 	tstls	pc, r7, ror r2	; <UNPREDICTABLE>
    1aac:	85010000 	strhi	r0, [r1, #-0]
    1ab0:	0000099e 	muleq	r0, lr, r9
    1ab4:	00769102 	rsbseq	r9, r6, r2, lsl #2
    1ab8:	930f0123 	movwls	r0, #61731	; 0xf123
    1abc:	4f010000 	svcmi	0x00010000
    1ac0:	00048c01 	andeq	r8, r4, r1, lsl #24
    1ac4:	00055808 	andeq	r5, r5, r8, lsl #16
    1ac8:	00042408 	andeq	r2, r4, r8, lsl #8
    1acc:	0d990100 	ldfeqs	f0, [r9]
    1ad0:	49240000 	stmdbmi	r4!, {}	; <UNPREDICTABLE>
    1ad4:	01005152 	tsteq	r0, r2, asr r1
    1ad8:	0009a94f 	andeq	sl, r9, pc, asr #18
    1adc:	76910200 	ldrvc	r0, [r1], r0, lsl #4
    1ae0:	2d012500 	cfstr32cs	mvfx2, [r1, #-0]
    1ae4:	01000093 	swpeq	r0, r3, [r0]	; <UNPREDICTABLE>
    1ae8:	03c00129 	biceq	r0, r0, #1073741834	; 0x4000000a
    1aec:	048c0800 	streq	r0, [ip], #2048	; 0x800
    1af0:	04800800 	streq	r0, [r0], #2048	; 0x800
    1af4:	24010000 	strcs	r0, [r1], #-0
    1af8:	00515249 	subseq	r5, r1, r9, asr #4
    1afc:	09a92901 	stmibeq	r9!, {r0, r8, fp, sp}
    1b00:	91020000 	mrsls	r0, (UNDEF: 2)
    1b04:	55000076 	strpl	r0, [r0, #-118]	; 0xffffff8a
    1b08:	0200000d 	andeq	r0, r0, #13
    1b0c:	00042300 	andeq	r2, r4, r0, lsl #6
    1b10:	88010400 	stmdahi	r1, {sl}
    1b14:	0c000089 	stceq	0, cr0, [r0], {137}	; 0x89
    1b18:	00009339 	andeq	r9, r0, r9, lsr r3
    1b1c:	0000370a 	andeq	r3, r0, sl, lsl #14
    1b20:	000000c8 	andeq	r0, r0, r8, asr #1
	...
    1b2c:	00000e4f 	andeq	r0, r0, pc, asr #28
    1b30:	0000060d 	andeq	r0, r0, sp, lsl #12
    1b34:	f4070402 	vst3.8	{d0-d2}, [r7], r2
    1b38:	03000021 	movweq	r0, #33	; 0x21
    1b3c:	6e690504 	cdpvs	5, 6, cr0, cr9, cr4, {0}
    1b40:	08020074 	stmdaeq	r2, {r2, r4, r5, r6}
    1b44:	00527a05 	subseq	r7, r2, r5, lsl #20
    1b48:	04080200 	streq	r0, [r8], #-512	; 0xfffffe00
    1b4c:	000002a0 	andeq	r0, r0, r0, lsr #5
    1b50:	d6060102 	strle	r0, [r6], -r2, lsl #2
    1b54:	04000007 	streq	r0, [r0], #-7
    1b58:	000013c6 	andeq	r1, r0, r6, asr #7
    1b5c:	005b2b02 	subseq	r2, fp, r2, lsl #22
    1b60:	01020000 	mrseq	r0, (UNDEF: 2)
    1b64:	00312f08 	eorseq	r2, r1, r8, lsl #30
    1b68:	05020200 	streq	r0, [r2, #-512]	; 0xfffffe00
    1b6c:	00000a83 	andeq	r0, r0, r3, lsl #21
    1b70:	002a5404 	eoreq	r5, sl, r4, lsl #8
    1b74:	74390200 	ldrtvc	r0, [r9], #-512	; 0xfffffe00
    1b78:	02000000 	andeq	r0, r0, #0
    1b7c:	69770702 	ldmdbvs	r7!, {r1, r8, r9, sl}^
    1b80:	04020000 	streq	r0, [r2], #-0
    1b84:	006c6005 	rsbeq	r6, ip, r5
    1b88:	427b0400 	rsbsmi	r0, fp, #0, 8
    1b8c:	4f020000 	svcmi	0x00020000
    1b90:	0000008d 	andeq	r0, r0, sp, lsl #1
    1b94:	39070402 	stmdbcc	r7, {r1, sl}
    1b98:	0200001a 	andeq	r0, r0, #26
    1b9c:	76660708 	strbtvc	r0, [r6], -r8, lsl #14
    1ba0:	ef040000 	svc	0x00040000
    1ba4:	03000044 	movweq	r0, #68	; 0x44
    1ba8:	0000340c 	andeq	r3, r0, ip, lsl #8
    1bac:	85a10400 	strhi	r0, [r1, #1024]!	; 0x400
    1bb0:	2c040000 	stccs	0, cr0, [r4], {-0}
    1bb4:	0000007b 	andeq	r0, r0, fp, ror r0
    1bb8:	0064e404 	rsbeq	lr, r4, r4, lsl #8
    1bbc:	7b720400 	blvc	1c82bc4 <_Min_Stack_Size+0x1c827c4>
    1bc0:	05000000 	streq	r0, [r0, #-0]
    1bc4:	0000240b 	andeq	r2, r0, fp, lsl #8
    1bc8:	2d016505 	cfstr32cs	mvfx6, [r1, #-20]	; 0xffffffec
    1bcc:	06000000 	streq	r0, [r0], -r0
    1bd0:	e7a60404 	str	r0, [r6, r4, lsl #8]!
    1bd4:	07000000 	streq	r0, [r0, -r0]
    1bd8:	00001593 	muleq	r0, r3, r5
    1bdc:	00bca804 	adcseq	sl, ip, r4, lsl #16
    1be0:	6d070000 	stcvs	0, cr0, [r7, #-0]
    1be4:	04000072 	streq	r0, [r0], #-114	; 0xffffff8e
    1be8:	0000e7a9 	andeq	lr, r0, r9, lsr #15
    1bec:	5b080000 	blpl	201bf4 <_Min_Stack_Size+0x2017f4>
    1bf0:	f7000000 			; <UNDEFINED> instruction: 0xf7000000
    1bf4:	09000000 	stmdbeq	r0, {}	; <UNPREDICTABLE>
    1bf8:	0000002d 	andeq	r0, r0, sp, lsr #32
    1bfc:	080a0003 	stmdaeq	sl, {r0, r1}
    1c00:	011ca304 	tsteq	ip, r4, lsl #6
    1c04:	3f0b0000 	svccc	0x000b0000
    1c08:	04000060 	streq	r0, [r0], #-96	; 0xffffffa0
    1c0c:	000034a5 	andeq	r3, r0, r5, lsr #9
    1c10:	00230200 	eoreq	r0, r3, r0, lsl #4
    1c14:	0001ef0b 	andeq	lr, r1, fp, lsl #30
    1c18:	c8aa0400 	stmiagt	sl!, {sl}
    1c1c:	02000000 	andeq	r0, r0, #0
    1c20:	04000423 	streq	r0, [r0], #-1059	; 0xfffffbdd
    1c24:	00006513 	andeq	r6, r0, r3, lsl r5
    1c28:	00f7ab04 	rscseq	sl, r7, r4, lsl #22
    1c2c:	2b040000 	blcs	101c34 <_Min_Stack_Size+0x101834>
    1c30:	0400006e 	streq	r0, [r0], #-110	; 0xffffff92
    1c34:	00009baf 	andeq	r9, r0, pc, lsr #23
    1c38:	0d040c00 	stceq	12, cr0, [r4, #-0]
    1c3c:	00013a04 	andeq	r3, r1, r4, lsl #20
    1c40:	08010200 	stmdaeq	r1, {r9}
    1c44:	000007dd 	ldrdeq	r0, [r0], -sp
    1c48:	00013a0e 	andeq	r3, r1, lr, lsl #20
    1c4c:	82f50400 	rscshi	r0, r5, #0, 8
    1c50:	16060000 	strne	r0, [r6], -r0
    1c54:	0000008d 	andeq	r0, r0, sp, lsl #1
    1c58:	00495b0f 	subeq	r5, r9, pc, lsl #22
    1c5c:	2f061800 	svccs	0x00061800
    1c60:	000001b0 			; <UNDEFINED> instruction: 0x000001b0
    1c64:	005c870b 	subseq	r8, ip, fp, lsl #14
    1c68:	b0310600 	eorslt	r0, r1, r0, lsl #12
    1c6c:	02000001 	andeq	r0, r0, #1
    1c70:	5f100023 	svcpl	0x00100023
    1c74:	3206006b 	andcc	r0, r6, #107	; 0x6b
    1c78:	00000034 	andeq	r0, r0, r4, lsr r0
    1c7c:	0b042302 	bleq	10a88c <_Min_Stack_Size+0x10a48c>
    1c80:	00007be0 	andeq	r7, r0, r0, ror #23
    1c84:	00343206 	eorseq	r3, r4, r6, lsl #4
    1c88:	23020000 	movwcs	r0, #8192	; 0x2000
    1c8c:	547c0b08 	ldrbtpl	r0, [ip], #-2824	; 0xfffff4f8
    1c90:	32060000 	andcc	r0, r6, #0
    1c94:	00000034 	andeq	r0, r0, r4, lsr r0
    1c98:	0b0c2302 	bleq	30a8a8 <_Min_Stack_Size+0x30a4a8>
    1c9c:	0000367c 	andeq	r3, r0, ip, ror r6
    1ca0:	00343206 	eorseq	r3, r4, r6, lsl #4
    1ca4:	23020000 	movwcs	r0, #8192	; 0x2000
    1ca8:	785f1010 	ldmdavc	pc, {r4, ip}^	; <UNPREDICTABLE>
    1cac:	b6330600 	ldrtlt	r0, [r3], -r0, lsl #12
    1cb0:	02000001 	andeq	r0, r0, #1
    1cb4:	0d001423 	cfstrseq	mvf1, [r0, #-140]	; 0xffffff74
    1cb8:	00015104 	andeq	r5, r1, r4, lsl #2
    1cbc:	01460800 	cmpeq	r6, r0, lsl #16
    1cc0:	01c60000 	biceq	r0, r6, r0
    1cc4:	2d090000 	stccs	0, cr0, [r9, #-0]
    1cc8:	00000000 	andeq	r0, r0, r0
    1ccc:	09ef0f00 	stmibeq	pc!, {r8, r9, sl, fp}^	; <UNPREDICTABLE>
    1cd0:	06240000 	strteq	r0, [r4], -r0
    1cd4:	00025137 	andeq	r5, r2, r7, lsr r1
    1cd8:	0a0b0b00 	beq	2c48e0 <_Min_Stack_Size+0x2c44e0>
    1cdc:	39060000 	stmdbcc	r6, {}	; <UNPREDICTABLE>
    1ce0:	00000034 	andeq	r0, r0, r4, lsr r0
    1ce4:	0b002302 	bleq	a8f4 <_Min_Stack_Size+0xa4f4>
    1ce8:	00008ee9 	andeq	r8, r0, r9, ror #29
    1cec:	00343a06 	eorseq	r3, r4, r6, lsl #20
    1cf0:	23020000 	movwcs	r0, #8192	; 0x2000
    1cf4:	86fb0b04 	ldrbthi	r0, [fp], r4, lsl #22
    1cf8:	3b060000 	blcc	181d00 <_Min_Stack_Size+0x181900>
    1cfc:	00000034 	andeq	r0, r0, r4, lsr r0
    1d00:	0b082302 	bleq	20a910 <_Min_Stack_Size+0x20a510>
    1d04:	00005ab0 			; <UNDEFINED> instruction: 0x00005ab0
    1d08:	00343c06 	eorseq	r3, r4, r6, lsl #24
    1d0c:	23020000 	movwcs	r0, #8192	; 0x2000
    1d10:	1aec0b0c 	bne	ffb04948 <_estack+0xdfb02148>
    1d14:	3d060000 	stccc	0, cr0, [r6, #-0]
    1d18:	00000034 	andeq	r0, r0, r4, lsr r0
    1d1c:	0b102302 	bleq	40a92c <_Min_Stack_Size+0x40a52c>
    1d20:	00007c58 	andeq	r7, r0, r8, asr ip
    1d24:	00343e06 	eorseq	r3, r4, r6, lsl #28
    1d28:	23020000 	movwcs	r0, #8192	; 0x2000
    1d2c:	61db0b14 	bicsvs	r0, fp, r4, lsl fp
    1d30:	3f060000 	svccc	0x00060000
    1d34:	00000034 	andeq	r0, r0, r4, lsr r0
    1d38:	0b182302 	bleq	60a948 <_Min_Stack_Size+0x60a548>
    1d3c:	0000629f 	muleq	r0, pc, r2	; <UNPREDICTABLE>
    1d40:	00344006 	eorseq	r4, r4, r6
    1d44:	23020000 	movwcs	r0, #8192	; 0x2000
    1d48:	8cfb0b1c 	vldmiahi	fp!, {d16-d29}
    1d4c:	41060000 	mrsmi	r0, (UNDEF: 6)
    1d50:	00000034 	andeq	r0, r0, r4, lsr r0
    1d54:	00202302 	eoreq	r2, r0, r2, lsl #6
    1d58:	0014b011 	andseq	fp, r4, r1, lsl r0
    1d5c:	06010800 	streq	r0, [r1], -r0, lsl #16
    1d60:	00029a4a 	andeq	r9, r2, sl, asr #20
    1d64:	0d3d0b00 	vldmdbeq	sp!, {d0-d-1}
    1d68:	4b060000 	blmi	181d70 <_Min_Stack_Size+0x181970>
    1d6c:	0000029a 	muleq	r0, sl, r2
    1d70:	0b002302 	bleq	a980 <_Min_Stack_Size+0xa580>
    1d74:	00006837 	andeq	r6, r0, r7, lsr r8
    1d78:	029a4c06 	addseq	r4, sl, #1536	; 0x600
    1d7c:	23030000 	movwcs	r0, #12288	; 0x3000
    1d80:	d90b0180 	stmdble	fp, {r7, r8}
    1d84:	06000019 			; <UNDEFINED> instruction: 0x06000019
    1d88:	0001464e 	andeq	r4, r1, lr, asr #12
    1d8c:	80230300 	eorhi	r0, r3, r0, lsl #6
    1d90:	81aa0b02 			; <UNDEFINED> instruction: 0x81aa0b02
    1d94:	51060000 	mrspl	r0, (UNDEF: 6)
    1d98:	00000146 	andeq	r0, r0, r6, asr #2
    1d9c:	02842303 	addeq	r2, r4, #201326592	; 0xc000000
    1da0:	01320800 	teqeq	r2, r0, lsl #16
    1da4:	02aa0000 	adceq	r0, sl, #0
    1da8:	2d090000 	stccs	0, cr0, [r9, #-0]
    1dac:	1f000000 	svcne	0x00000000
    1db0:	48b00f00 	ldmmi	r0!, {r8, r9, sl, fp}
    1db4:	068c0000 	streq	r0, [ip], r0
    1db8:	0002f055 	andeq	pc, r2, r5, asr r0	; <UNPREDICTABLE>
    1dbc:	5c870b00 	vstmiapl	r7, {d0-d-1}
    1dc0:	56060000 	strpl	r0, [r6], -r0
    1dc4:	000002f0 	strdeq	r0, [r0], -r0	; <UNPREDICTABLE>
    1dc8:	0b002302 	bleq	a9d8 <_Min_Stack_Size+0xa5d8>
    1dcc:	00002664 	andeq	r2, r0, r4, ror #12
    1dd0:	00345706 	eorseq	r5, r4, r6, lsl #14
    1dd4:	23020000 	movwcs	r0, #8192	; 0x2000
    1dd8:	284d0b04 	stmdacs	sp, {r2, r8, r9, fp}^
    1ddc:	58060000 	stmdapl	r6, {}	; <UNPREDICTABLE>
    1de0:	000002f6 	strdeq	r0, [r0], -r6
    1de4:	0b082302 	bleq	20a9f4 <_Min_Stack_Size+0x20a5f4>
    1de8:	00002dd5 	ldrdeq	r2, [r0], -r5
    1dec:	030e5906 	movweq	r5, #59654	; 0xe906
    1df0:	23030000 	movwcs	r0, #12288	; 0x3000
    1df4:	0d000188 	stfeqs	f0, [r0, #-544]	; 0xfffffde0
    1df8:	0002aa04 	andeq	sl, r2, r4, lsl #20
    1dfc:	03060800 	movweq	r0, #26624	; 0x6800
    1e00:	03060000 	movweq	r0, #24576	; 0x6000
    1e04:	2d090000 	stccs	0, cr0, [r9, #-0]
    1e08:	1f000000 	svcne	0x00000000
    1e0c:	0c040d00 	stceq	13, cr0, [r4], {-0}
    1e10:	12000003 	andne	r0, r0, #3
    1e14:	51040d01 	tstpl	r4, r1, lsl #26
    1e18:	0f000002 	svceq	0x00000002
    1e1c:	000002df 	ldrdeq	r0, [r0], -pc	; <UNPREDICTABLE>
    1e20:	3d750608 	ldclcc	6, cr0, [r5, #-32]!	; 0xffffffe0
    1e24:	0b000003 	bleq	1e38 <_Min_Stack_Size+0x1a38>
    1e28:	00006b04 	andeq	r6, r0, r4, lsl #22
    1e2c:	033d7606 	teqeq	sp, #6291456	; 0x600000
    1e30:	23020000 	movwcs	r0, #8192	; 0x2000
    1e34:	18010b00 	stmdane	r1, {r8, r9, fp}
    1e38:	77060000 	strvc	r0, [r6, -r0]
    1e3c:	00000034 	andeq	r0, r0, r4, lsr r0
    1e40:	00042302 	andeq	r2, r4, r2, lsl #6
    1e44:	005b040d 	subseq	r0, fp, sp, lsl #8
    1e48:	470f0000 	strmi	r0, [pc, -r0]
    1e4c:	20000036 	andcs	r0, r0, r6, lsr r0
    1e50:	03bd9906 			; <UNDEFINED> instruction: 0x03bd9906
    1e54:	5f100000 	svcpl	0x00100000
    1e58:	9a060070 	bls	182020 <_Min_Stack_Size+0x181c20>
    1e5c:	0000033d 	andeq	r0, r0, sp, lsr r3
    1e60:	10002302 	andne	r2, r0, r2, lsl #6
    1e64:	0600725f 			; <UNDEFINED> instruction: 0x0600725f
    1e68:	0000349b 	muleq	r0, fp, r4
    1e6c:	04230200 	strteq	r0, [r3], #-512	; 0xfffffe00
    1e70:	00775f10 	rsbseq	r5, r7, r0, lsl pc
    1e74:	00349c06 	eorseq	r9, r4, r6, lsl #24
    1e78:	23020000 	movwcs	r0, #8192	; 0x2000
    1e7c:	5ca50b08 	vstmiapl	r5!, {d0-d3}
    1e80:	9d060000 	stcls	0, cr0, [r6, #-0]
    1e84:	00000062 	andeq	r0, r0, r2, rrx
    1e88:	0b0c2302 	bleq	30aa98 <_Min_Stack_Size+0x30a698>
    1e8c:	0000145f 	andeq	r1, r0, pc, asr r4
    1e90:	00629e06 	rsbeq	r9, r2, r6, lsl #28
    1e94:	23020000 	movwcs	r0, #8192	; 0x2000
    1e98:	625f100e 	subsvs	r1, pc, #14
    1e9c:	9f060066 	svcls	0x00060066
    1ea0:	00000314 	andeq	r0, r0, r4, lsl r3
    1ea4:	0b102302 	bleq	40aab4 <_Min_Stack_Size+0x40a6b4>
    1ea8:	00008014 	andeq	r8, r0, r4, lsl r0
    1eac:	0034a006 	eorseq	sl, r4, r6
    1eb0:	23020000 	movwcs	r0, #8192	; 0x2000
    1eb4:	70ad0b18 	adcvc	r0, sp, r8, lsl fp
    1eb8:	a2060000 	andge	r0, r6, #0
    1ebc:	0000051a 	andeq	r0, r0, sl, lsl r5
    1ec0:	001c2302 	andseq	r2, ip, r2, lsl #6
    1ec4:	0003430e 	andeq	r4, r3, lr, lsl #6
    1ec8:	0c241300 	stceq	3, cr1, [r4], #-0
    1ecc:	06600000 	strbteq	r0, [r0], -r0
    1ed0:	051a0174 	ldreq	r0, [sl, #-372]	; 0xfffffe8c
    1ed4:	17140000 	ldrne	r0, [r4, -r0]
    1ed8:	06000046 	streq	r0, [r0], -r6, asr #32
    1edc:	00340178 	eorseq	r0, r4, r8, ror r1
    1ee0:	23020000 	movwcs	r0, #8192	; 0x2000
    1ee4:	1ed01400 	cdpne	4, 13, cr1, cr0, cr0, {0}
    1ee8:	7d060000 	stcvc	0, cr0, [r6, #-0]
    1eec:	00077c01 	andeq	r7, r7, r1, lsl #24
    1ef0:	04230200 	strteq	r0, [r3], #-512	; 0xfffffe00
    1ef4:	0056ee14 	subseq	lr, r6, r4, lsl lr
    1ef8:	017d0600 	cmneq	sp, r0, lsl #12
    1efc:	0000077c 	andeq	r0, r0, ip, ror r7
    1f00:	14082302 	strne	r2, [r8], #-770	; 0xfffffcfe
    1f04:	00004579 	andeq	r4, r0, r9, ror r5
    1f08:	7c017d06 	stcvc	13, cr7, [r1], {6}
    1f0c:	02000007 	andeq	r0, r0, #7
    1f10:	5f140c23 	svcpl	0x00140c23
    1f14:	06000026 	streq	r0, [r0], -r6, lsr #32
    1f18:	0034017f 	eorseq	r0, r4, pc, ror r1
    1f1c:	23020000 	movwcs	r0, #8192	; 0x2000
    1f20:	57701410 			; <UNDEFINED> instruction: 0x57701410
    1f24:	81060000 	mrshi	r0, (UNDEF: 6)
    1f28:	00013401 	andeq	r3, r1, r1, lsl #8
    1f2c:	14230200 	strtne	r0, [r3], #-512	; 0xfffffe00
    1f30:	00430214 	subeq	r0, r3, r4, lsl r2
    1f34:	01830600 	orreq	r0, r3, r0, lsl #12
    1f38:	00000034 	andeq	r0, r0, r4, lsr r0
    1f3c:	14182302 	ldrne	r2, [r8], #-770	; 0xfffffcfe
    1f40:	000023eb 	andeq	r2, r0, fp, ror #7
    1f44:	34018506 	strcc	r8, [r1], #-1286	; 0xfffffafa
    1f48:	02000000 	andeq	r0, r0, #0
    1f4c:	ed141c23 	ldc	12, cr1, [r4, #-140]	; 0xffffff74
    1f50:	06000082 	streq	r0, [r0], -r2, lsl #1
    1f54:	08f50186 	ldmeq	r5!, {r1, r2, r7, r8}^
    1f58:	23020000 	movwcs	r0, #8192	; 0x2000
    1f5c:	6d5f1520 	cfldr64vs	mvdx1, [pc, #-128]	; 1ee4 <_Min_Stack_Size+0x1ae4>
    1f60:	88060070 	stmdahi	r6, {r4, r5, r6}
    1f64:	0008fb01 	andeq	pc, r8, r1, lsl #22
    1f68:	24230200 	strtcs	r0, [r3], #-512	; 0xfffffe00
    1f6c:	004b3a14 	subeq	r3, fp, r4, lsl sl
    1f70:	018a0600 	orreq	r0, sl, r0, lsl #12
    1f74:	0000090d 	andeq	r0, r0, sp, lsl #18
    1f78:	14282302 	strtne	r2, [r8], #-770	; 0xfffffcfe
    1f7c:	0000522a 	andeq	r5, r0, sl, lsr #4
    1f80:	34018c06 	strcc	r8, [r1], #-3078	; 0xfffff3fa
    1f84:	02000000 	andeq	r0, r0, #0
    1f88:	1b142c23 	blne	50d01c <_Min_Stack_Size+0x50cc1c>
    1f8c:	06000006 	streq	r0, [r0], -r6
    1f90:	0034018f 	eorseq	r0, r4, pc, lsl #3
    1f94:	23020000 	movwcs	r0, #8192	; 0x2000
    1f98:	38fb1430 	ldmcc	fp!, {r4, r5, sl, ip}^
    1f9c:	90060000 	andls	r0, r6, r0
    1fa0:	00013401 	andeq	r3, r1, r1, lsl #8
    1fa4:	34230200 	strtcc	r0, [r3], #-512	; 0xfffffe00
    1fa8:	006f5c14 	rsbeq	r5, pc, r4, lsl ip	; <UNPREDICTABLE>
    1fac:	01920600 	orrseq	r0, r2, r0, lsl #12
    1fb0:	00000913 	andeq	r0, r0, r3, lsl r9
    1fb4:	14382302 	ldrtne	r2, [r8], #-770	; 0xfffffcfe
    1fb8:	000018ca 	andeq	r1, r0, sl, asr #17
    1fbc:	19019306 	stmdbne	r1, {r1, r2, r8, r9, ip, pc}
    1fc0:	02000009 	andeq	r0, r0, #9
    1fc4:	f7143c23 			; <UNDEFINED> instruction: 0xf7143c23
    1fc8:	06000005 	streq	r0, [r0], -r5
    1fcc:	01340194 	teqeq	r4, r4	; <illegal shifter operand>
    1fd0:	23020000 	movwcs	r0, #8192	; 0x2000
    1fd4:	37811440 	strcc	r1, [r1, r0, asr #8]
    1fd8:	97060000 	strls	r0, [r6, -r0]
    1fdc:	00092b01 	andeq	r2, r9, r1, lsl #22
    1fe0:	44230200 	strtmi	r0, [r3], #-512	; 0xfffffe00
    1fe4:	008bd814 	addeq	sp, fp, r4, lsl r8
    1fe8:	019f0600 	orrseq	r0, pc, r0, lsl #12
    1fec:	0000073b 	andeq	r0, r0, fp, lsr r7
    1ff0:	14482302 	strbne	r2, [r8], #-770	; 0xfffffcfe
    1ff4:	00000273 	andeq	r0, r0, r3, ror r2
    1ff8:	7c01a006 	stcvc	0, cr10, [r1], {6}
    1ffc:	02000007 	andeq	r0, r0, #7
    2000:	c3145423 	tstgt	r4, #587202560	; 0x23000000
    2004:	06000082 	streq	r0, [r0], -r2, lsl #1
    2008:	093701a1 	ldmdbeq	r7!, {r0, r5, r7, r8}
    200c:	23020000 	movwcs	r0, #8192	; 0x2000
    2010:	47f41458 	ubfxmi	r1, r8, #8, #21
    2014:	a2060000 	andge	r0, r6, #0
    2018:	00013401 	andeq	r3, r1, r1, lsl #8
    201c:	5c230200 	sfmpl	f0, 4, [r3], #-0
    2020:	c2040d00 	andgt	r0, r4, #0, 26
    2024:	0e000003 	cdpeq	0, 0, cr0, cr0, cr3, {0}
    2028:	0000051a 	andeq	r0, r0, sl, lsl r5
    202c:	0042fa0f 	subeq	pc, r2, pc, lsl #20
    2030:	b5066800 	strlt	r6, [r6, #-2048]	; 0xfffff800
    2034:	0000067f 	andeq	r0, r0, pc, ror r6
    2038:	00705f10 	rsbseq	r5, r0, r0, lsl pc
    203c:	033db606 	teqeq	sp, #6291456	; 0x600000
    2040:	23020000 	movwcs	r0, #8192	; 0x2000
    2044:	725f1000 	subsvc	r1, pc, #0
    2048:	34b70600 	ldrtcc	r0, [r7], #1536	; 0x600
    204c:	02000000 	andeq	r0, r0, #0
    2050:	5f100423 	svcpl	0x00100423
    2054:	b8060077 	stmdalt	r6, {r0, r1, r2, r4, r5, r6}
    2058:	00000034 	andeq	r0, r0, r4, lsr r0
    205c:	0b082302 	bleq	20ac6c <_Min_Stack_Size+0x20a86c>
    2060:	00005ca5 	andeq	r5, r0, r5, lsr #25
    2064:	0062b906 	rsbeq	fp, r2, r6, lsl #18
    2068:	23020000 	movwcs	r0, #8192	; 0x2000
    206c:	145f0b0c 	ldrbne	r0, [pc], #-2828	; 2074 <_Min_Stack_Size+0x1c74>
    2070:	ba060000 	blt	182078 <_Min_Stack_Size+0x181c78>
    2074:	00000062 	andeq	r0, r0, r2, rrx
    2078:	100e2302 	andne	r2, lr, r2, lsl #6
    207c:	0066625f 	rsbeq	r6, r6, pc, asr r2
    2080:	0314bb06 	tsteq	r4, #6144	; 0x1800
    2084:	23020000 	movwcs	r0, #8192	; 0x2000
    2088:	80140b10 	andshi	r0, r4, r0, lsl fp
    208c:	bc060000 	stclt	0, cr0, [r6], {-0}
    2090:	00000034 	andeq	r0, r0, r4, lsr r0
    2094:	0b182302 	bleq	60aca4 <_Min_Stack_Size+0x60a8a4>
    2098:	000070ad 	andeq	r7, r0, sp, lsr #1
    209c:	051abf06 	ldreq	fp, [sl, #-3846]	; 0xfffff0fa
    20a0:	23020000 	movwcs	r0, #8192	; 0x2000
    20a4:	35f00b1c 	ldrbcc	r0, [r0, #2844]!	; 0xb1c
    20a8:	c3060000 	movwgt	r0, #24576	; 0x6000
    20ac:	00000132 	andeq	r0, r0, r2, lsr r1
    20b0:	0b202302 	bleq	80acc0 <_Min_Stack_Size+0x80a8c0>
    20b4:	000002e6 	andeq	r0, r0, r6, ror #5
    20b8:	069ec506 	ldreq	ip, [lr], r6, lsl #10
    20bc:	23020000 	movwcs	r0, #8192	; 0x2000
    20c0:	04c60b24 	strbeq	r0, [r6], #2852	; 0xb24
    20c4:	c7060000 	strgt	r0, [r6, -r0]
    20c8:	000006c9 	andeq	r0, r0, r9, asr #13
    20cc:	0b282302 	bleq	a0acdc <_Min_Stack_Size+0xa0a8dc>
    20d0:	00006446 	andeq	r6, r0, r6, asr #8
    20d4:	06eeca06 	strbteq	ip, [lr], r6, lsl #20
    20d8:	23020000 	movwcs	r0, #8192	; 0x2000
    20dc:	625a0b2c 	subsvs	r0, sl, #44, 22	; 0xb000
    20e0:	cb060000 	blgt	1820e8 <_Min_Stack_Size+0x181ce8>
    20e4:	00000709 	andeq	r0, r0, r9, lsl #14
    20e8:	10302302 	eorsne	r2, r0, r2, lsl #6
    20ec:	0062755f 	rsbeq	r7, r2, pc, asr r5
    20f0:	0314ce06 	tsteq	r4, #6, 28	; 0x60
    20f4:	23020000 	movwcs	r0, #8192	; 0x2000
    20f8:	755f1034 	ldrbvc	r1, [pc, #-52]	; 20cc <_Min_Stack_Size+0x1ccc>
    20fc:	cf060070 	svcgt	0x00060070
    2100:	0000033d 	andeq	r0, r0, sp, lsr r3
    2104:	103c2302 	eorsne	r2, ip, r2, lsl #6
    2108:	0072755f 	rsbseq	r7, r2, pc, asr r5
    210c:	0034d006 	eorseq	sp, r4, r6
    2110:	23020000 	movwcs	r0, #8192	; 0x2000
    2114:	5b460b40 	blpl	1184e1c <_Min_Stack_Size+0x1184a1c>
    2118:	d3060000 	movwle	r0, #24576	; 0x6000
    211c:	0000070f 	andeq	r0, r0, pc, lsl #14
    2120:	0b442302 	bleq	110ad30 <_Min_Stack_Size+0x110a930>
    2124:	00000a05 	andeq	r0, r0, r5, lsl #20
    2128:	071fd406 	ldreq	sp, [pc, -r6, lsl #8]
    212c:	23020000 	movwcs	r0, #8192	; 0x2000
    2130:	6c5f1047 	mrrcvs	0, 4, r1, pc, cr7	; <UNPREDICTABLE>
    2134:	d7060062 	strle	r0, [r6, -r2, rrx]
    2138:	00000314 	andeq	r0, r0, r4, lsl r3
    213c:	0b482302 	bleq	120ad4c <_Min_Stack_Size+0x120a94c>
    2140:	00006ab3 			; <UNDEFINED> instruction: 0x00006ab3
    2144:	0034da06 	eorseq	sp, r4, r6, lsl #20
    2148:	23020000 	movwcs	r0, #8192	; 0x2000
    214c:	38e20b50 	stmiacc	r2!, {r4, r6, r8, r9, fp}^
    2150:	db060000 	blle	182158 <_Min_Stack_Size+0x181d58>
    2154:	000000a6 	andeq	r0, r0, r6, lsr #1
    2158:	0b542302 	bleq	150ad68 <_Min_Stack_Size+0x150a968>
    215c:	00000d45 	andeq	r0, r0, r5, asr #26
    2160:	0127e206 			; <UNDEFINED> instruction: 0x0127e206
    2164:	23020000 	movwcs	r0, #8192	; 0x2000
    2168:	5c130b58 			; <UNDEFINED> instruction: 0x5c130b58
    216c:	e4060000 	str	r0, [r6], #-0
    2170:	0000011c 	andeq	r0, r0, ip, lsl r1
    2174:	0b5c2302 	bleq	170ad84 <_Min_Stack_Size+0x170a984>
    2178:	0000572c 	andeq	r5, r0, ip, lsr #14
    217c:	0034e506 	eorseq	lr, r4, r6, lsl #10
    2180:	23020000 	movwcs	r0, #8192	; 0x2000
    2184:	01160064 	tsteq	r6, r4, rrx
    2188:	00000034 	andeq	r0, r0, r4, lsr r0
    218c:	0000069e 	muleq	r0, lr, r6
    2190:	00051a17 	andeq	r1, r5, r7, lsl sl
    2194:	01321700 	teqeq	r2, r0, lsl #14
    2198:	34170000 	ldrcc	r0, [r7], #-0
    219c:	17000001 	strne	r0, [r0, -r1]
    21a0:	00000034 	andeq	r0, r0, r4, lsr r0
    21a4:	7f040d00 	svcvc	0x00040d00
    21a8:	16000006 	strne	r0, [r0], -r6
    21ac:	00003401 	andeq	r3, r0, r1, lsl #8
    21b0:	0006c300 	andeq	ip, r6, r0, lsl #6
    21b4:	051a1700 	ldreq	r1, [sl, #-1792]	; 0xfffff900
    21b8:	32170000 	andscc	r0, r7, #0
    21bc:	17000001 	strne	r0, [r0, -r1]
    21c0:	000006c3 	andeq	r0, r0, r3, asr #13
    21c4:	00003417 	andeq	r3, r0, r7, lsl r4
    21c8:	040d0000 	streq	r0, [sp], #-0
    21cc:	00000141 	andeq	r0, r0, r1, asr #2
    21d0:	06a4040d 	strteq	r0, [r4], sp, lsl #8
    21d4:	01160000 	tsteq	r6, r0
    21d8:	000000b1 	strheq	r0, [r0], -r1
    21dc:	000006ee 	andeq	r0, r0, lr, ror #13
    21e0:	00051a17 	andeq	r1, r5, r7, lsl sl
    21e4:	01321700 	teqeq	r2, r0, lsl #14
    21e8:	b1170000 	tstlt	r7, r0
    21ec:	17000000 	strne	r0, [r0, -r0]
    21f0:	00000034 	andeq	r0, r0, r4, lsr r0
    21f4:	cf040d00 	svcgt	0x00040d00
    21f8:	16000006 	strne	r0, [r0], -r6
    21fc:	00003401 	andeq	r3, r0, r1, lsl #8
    2200:	00070900 	andeq	r0, r7, r0, lsl #18
    2204:	051a1700 	ldreq	r1, [sl, #-1792]	; 0xfffff900
    2208:	32170000 	andscc	r0, r7, #0
    220c:	00000001 	andeq	r0, r0, r1
    2210:	06f4040d 	ldrbteq	r0, [r4], sp, lsl #8
    2214:	5b080000 	blpl	20221c <_Min_Stack_Size+0x201e1c>
    2218:	1f000000 	svcne	0x00000000
    221c:	09000007 	stmdbeq	r0, {r0, r1, r2}
    2220:	0000002d 	andeq	r0, r0, sp, lsr #32
    2224:	5b080002 	blpl	202234 <_Min_Stack_Size+0x201e34>
    2228:	2f000000 	svccs	0x00000000
    222c:	09000007 	stmdbeq	r0, {r0, r1, r2}
    2230:	0000002d 	andeq	r0, r0, sp, lsr #32
    2234:	34050000 	strcc	r0, [r5], #-0
    2238:	0600006e 	streq	r0, [r0], -lr, rrx
    223c:	0525011f 	streq	r0, [r5, #-287]!	; 0xfffffee1
    2240:	22130000 	andscs	r0, r3, #0
    2244:	0c000054 	stceq	0, cr0, [r0], {84}	; 0x54
    2248:	76012306 	strvc	r2, [r1], -r6, lsl #6
    224c:	14000007 	strne	r0, [r0], #-7
    2250:	00005c87 	andeq	r5, r0, r7, lsl #25
    2254:	76012506 	strvc	r2, [r1], -r6, lsl #10
    2258:	02000007 	andeq	r0, r0, #7
    225c:	77140023 	ldrvc	r0, [r4, -r3, lsr #32]
    2260:	0600002c 	streq	r0, [r0], -ip, lsr #32
    2264:	00340126 	eorseq	r0, r4, r6, lsr #2
    2268:	23020000 	movwcs	r0, #8192	; 0x2000
    226c:	53de1404 	bicspl	r1, lr, #4, 8	; 0x4000000
    2270:	27060000 	strcs	r0, [r6, -r0]
    2274:	00077c01 	andeq	r7, r7, r1, lsl #24
    2278:	08230200 	stmdaeq	r3!, {r9}
    227c:	3b040d00 	blcc	105684 <_Min_Stack_Size+0x105284>
    2280:	0d000007 	stceq	0, cr0, [r0, #-28]	; 0xffffffe4
    2284:	00072f04 	andeq	r2, r7, r4, lsl #30
    2288:	68fc1300 	ldmvs	ip!, {r8, r9, ip}^
    228c:	06180000 	ldreq	r0, [r8], -r0
    2290:	07cc013f 			; <UNDEFINED> instruction: 0x07cc013f
    2294:	ef140000 	svc	0x00140000
    2298:	06000063 	streq	r0, [r0], -r3, rrx
    229c:	07cc0140 	strbeq	r0, [ip, r0, asr #2]
    22a0:	23020000 	movwcs	r0, #8192	; 0x2000
    22a4:	0f091400 	svceq	0x00091400
    22a8:	41060000 	mrsmi	r0, (UNDEF: 6)
    22ac:	0007cc01 	andeq	ip, r7, r1, lsl #24
    22b0:	06230200 	strteq	r0, [r3], -r0, lsl #4
    22b4:	00866e14 	addeq	r6, r6, r4, lsl lr
    22b8:	01420600 	cmpeq	r2, r0, lsl #12
    22bc:	00000074 	andeq	r0, r0, r4, ror r0
    22c0:	140c2302 	strne	r2, [ip], #-770	; 0xfffffcfe
    22c4:	00005c82 	andeq	r5, r0, r2, lsl #25
    22c8:	94014506 	strls	r4, [r1], #-1286	; 0xfffffafa
    22cc:	02000000 	andeq	r0, r0, #0
    22d0:	08001023 	stmdaeq	r0, {r0, r1, r5, ip}
    22d4:	00000074 	andeq	r0, r0, r4, ror r0
    22d8:	000007dc 	ldrdeq	r0, [r0], -ip
    22dc:	00002d09 	andeq	r2, r0, r9, lsl #26
    22e0:	13000200 	movwne	r0, #512	; 0x200
    22e4:	0000827a 	andeq	r8, r0, sl, ror r2
    22e8:	01580610 	cmpeq	r8, r0, lsl r6
    22ec:	00000826 	andeq	r0, r0, r6, lsr #16
    22f0:	00842514 	addeq	r2, r4, r4, lsl r5
    22f4:	015b0600 	cmpeq	fp, r0, lsl #12
    22f8:	000001b0 			; <UNDEFINED> instruction: 0x000001b0
    22fc:	14002302 	strne	r2, [r0], #-770	; 0xfffffcfe
    2300:	00001753 	andeq	r1, r0, r3, asr r7
    2304:	34015c06 	strcc	r5, [r1], #-3078	; 0xfffff3fa
    2308:	02000000 	andeq	r0, r0, #0
    230c:	0b140423 	bleq	5033a0 <_Min_Stack_Size+0x502fa0>
    2310:	06000036 			; <UNDEFINED> instruction: 0x06000036
    2314:	01b0015d 	asrseq	r0, sp, r1
    2318:	23020000 	movwcs	r0, #8192	; 0x2000
    231c:	53801408 	orrpl	r1, r0, #8, 8	; 0x8000000
    2320:	5e060000 	cdppl	0, 0, cr0, cr6, cr0, {0}
    2324:	00082601 	andeq	r2, r8, r1, lsl #12
    2328:	0c230200 	sfmeq	f0, 4, [r3], #-0
    232c:	b0040d00 	andlt	r0, r4, r0, lsl #26
    2330:	13000001 	movwne	r0, #1
    2334:	00000c1f 	andeq	r0, r0, pc, lsl ip
    2338:	01620650 	cmneq	r2, r0, asr r6
    233c:	000008df 	ldrdeq	r0, [r0], -pc	; <UNPREDICTABLE>
    2340:	006c1f14 	rsbeq	r1, ip, r4, lsl pc
    2344:	01650600 	cmneq	r5, r0, lsl #12
    2348:	00000134 	andeq	r0, r0, r4, lsr r1
    234c:	14002302 	strne	r2, [r0], #-770	; 0xfffffcfe
    2350:	000077a6 	andeq	r7, r0, r6, lsr #15
    2354:	1c016606 	stcne	6, cr6, [r1], {6}
    2358:	02000001 	andeq	r0, r0, #1
    235c:	eb140423 	bl	5033f0 <_Min_Stack_Size+0x502ff0>
    2360:	0600005b 			; <UNDEFINED> instruction: 0x0600005b
    2364:	011c0167 	tsteq	ip, r7, ror #2
    2368:	23020000 	movwcs	r0, #8192	; 0x2000
    236c:	65a2140c 	strvs	r1, [r2, #1036]!	; 0x40c
    2370:	68060000 	stmdavs	r6, {}	; <UNPREDICTABLE>
    2374:	00011c01 	andeq	r1, r1, r1, lsl #24
    2378:	14230200 	strtne	r0, [r3], #-512	; 0xfffffe00
    237c:	000b0714 	andeq	r0, fp, r4, lsl r7
    2380:	01690600 	cmneq	r9, r0, lsl #12
    2384:	000008df 	ldrdeq	r0, [r0], -pc	; <UNPREDICTABLE>
    2388:	141c2302 	ldrne	r2, [ip], #-770	; 0xfffffcfe
    238c:	00000efc 	strdeq	r0, [r0], -ip
    2390:	34016a06 	strcc	r6, [r1], #-2566	; 0xfffff5fa
    2394:	02000000 	andeq	r0, r0, #0
    2398:	e5142423 	ldr	r2, [r4, #-1059]	; 0xfffffbdd
    239c:	06000016 			; <UNDEFINED> instruction: 0x06000016
    23a0:	011c016b 	tsteq	ip, fp, ror #2
    23a4:	23020000 	movwcs	r0, #8192	; 0x2000
    23a8:	6c821428 	cfstrsvs	mvf1, [r2], {40}	; 0x28
    23ac:	6c060000 	stcvs	0, cr0, [r6], {-0}
    23b0:	00011c01 	andeq	r1, r1, r1, lsl #24
    23b4:	30230200 	eorcc	r0, r3, r0, lsl #4
    23b8:	00889e14 	addeq	r9, r8, r4, lsl lr
    23bc:	016d0600 	cmneq	sp, r0, lsl #12
    23c0:	0000011c 	andeq	r0, r0, ip, lsl r1
    23c4:	14382302 	ldrtne	r2, [r8], #-770	; 0xfffffcfe
    23c8:	00005a2a 	andeq	r5, r0, sl, lsr #20
    23cc:	1c016e06 	stcne	14, cr6, [r1], {6}
    23d0:	02000001 	andeq	r0, r0, #1
    23d4:	f4144023 			; <UNDEFINED> instruction: 0xf4144023
    23d8:	06000009 	streq	r0, [r0], -r9
    23dc:	011c016f 	tsteq	ip, pc, ror #2
    23e0:	23020000 	movwcs	r0, #8192	; 0x2000
    23e4:	3a080048 	bcc	20250c <_Min_Stack_Size+0x20210c>
    23e8:	ef000001 	svc	0x00000001
    23ec:	09000008 	stmdbeq	r0, {r3}
    23f0:	0000002d 	andeq	r0, r0, sp, lsr #32
    23f4:	cb180007 	blgt	602418 <_Min_Stack_Size+0x602018>
    23f8:	01000001 	tsteq	r0, r1
    23fc:	08ef040d 	stmiaeq	pc!, {r0, r2, r3, sl}^	; <UNPREDICTABLE>
    2400:	040d0000 	streq	r0, [sp], #-0
    2404:	000007dc 	ldrdeq	r0, [r0], -ip
    2408:	090d0119 	stmdbeq	sp, {r0, r3, r4, r8}
    240c:	1a170000 	bne	5c2414 <_Min_Stack_Size+0x5c2014>
    2410:	00000005 	andeq	r0, r0, r5
    2414:	0901040d 	stmdbeq	r1, {r0, r2, r3, sl}
    2418:	040d0000 	streq	r0, [sp], #-0
    241c:	00000782 	andeq	r0, r0, r2, lsl #15
    2420:	01c6040d 	biceq	r0, r6, sp, lsl #8
    2424:	01190000 	tsteq	r9, r0
    2428:	0000092b 	andeq	r0, r0, fp, lsr #18
    242c:	00003417 	andeq	r3, r0, r7, lsl r4
    2430:	040d0000 	streq	r0, [sp], #-0
    2434:	00000931 	andeq	r0, r0, r1, lsr r9
    2438:	091f040d 	ldmdbeq	pc, {r0, r2, r3, sl}	; <UNPREDICTABLE>
    243c:	040d0000 	streq	r0, [sp], #-0
    2440:	0000082c 	andeq	r0, r0, ip, lsr #16
    2444:	001ec71a 	andseq	ip, lr, sl, lsl r7
    2448:	01ca0600 	biceq	r0, sl, r0, lsl #12
    244c:	000003bd 			; <UNDEFINED> instruction: 0x000003bd
    2450:	e51a0101 	ldr	r0, [sl, #-257]	; 0xfffffeff
    2454:	06000056 			; <UNDEFINED> instruction: 0x06000056
    2458:	03bd01cb 			; <UNDEFINED> instruction: 0x03bd01cb
    245c:	01010000 	mrseq	r0, (UNDEF: 1)
    2460:	0045701a 	subeq	r7, r5, sl, lsl r0
    2464:	01cc0600 	biceq	r0, ip, r0, lsl #12
    2468:	000003bd 			; <UNDEFINED> instruction: 0x000003bd
    246c:	d21a0101 	andsle	r0, sl, #1073741824	; 0x40000000
    2470:	0600002b 	streq	r0, [r0], -fp, lsr #32
    2474:	051a032e 	ldreq	r0, [sl, #-814]	; 0xfffffcd2
    2478:	01010000 	mrseq	r0, (UNDEF: 1)
    247c:	007c2f1a 	rsbseq	r2, ip, sl, lsl pc
    2480:	032f0600 			; <UNDEFINED> instruction: 0x032f0600
    2484:	00000520 	andeq	r0, r0, r0, lsr #10
    2488:	a91a0101 	ldmdbge	sl, {r0, r8}
    248c:	06000048 	streq	r0, [r0], -r8, asr #32
    2490:	02f00341 	rscseq	r0, r0, #67108865	; 0x4000001
    2494:	01010000 	mrseq	r0, (UNDEF: 1)
    2498:	007b441b 	rsbseq	r4, fp, fp, lsl r4
    249c:	34630700 	strbtcc	r0, [r3], #-1792	; 0xfffff900
    24a0:	01000001 	tsteq	r0, r1
    24a4:	13c80401 	bicne	r0, r8, #16777216	; 0x1000000
    24a8:	18080000 	stmdane	r8, {}	; <UNPREDICTABLE>
    24ac:	00000050 	andeq	r0, r0, r0, asr r0
    24b0:	002a5604 	eoreq	r5, sl, r4, lsl #12
    24b4:	69240800 	stmdbvs	r4!, {fp}
    24b8:	04000000 	streq	r0, [r0], #-0
    24bc:	0000427d 	andeq	r4, r0, sp, ror r2
    24c0:	00823008 	addeq	r3, r2, r8
    24c4:	b41c0000 	ldrlt	r0, [ip], #-0
    24c8:	0a000009 	beq	24f4 <_Min_Stack_Size+0x20f4>
    24cc:	2f6e091c 	svccs	0x006e091c
    24d0:	1000000a 	andne	r0, r0, sl
    24d4:	004c5243 	subeq	r5, ip, r3, asr #4
    24d8:	09bf7009 	ldmibeq	pc!, {r0, r3, ip, sp, lr}	; <UNPREDICTABLE>
    24dc:	23020000 	movwcs	r0, #8192	; 0x2000
    24e0:	52431000 	subpl	r1, r3, #0
    24e4:	71090048 	tstvc	r9, r8, asr #32
    24e8:	000009bf 			; <UNDEFINED> instruction: 0x000009bf
    24ec:	10042302 	andne	r2, r4, r2, lsl #6
    24f0:	00524449 	subseq	r4, r2, r9, asr #8
    24f4:	09bf7209 	ldmibeq	pc!, {r0, r3, r9, ip, sp, lr}	; <UNPREDICTABLE>
    24f8:	23020000 	movwcs	r0, #8192	; 0x2000
    24fc:	444f1008 	strbmi	r1, [pc], #-8	; 2504 <_Min_Stack_Size+0x2104>
    2500:	73090052 	movwvc	r0, #36946	; 0x9052
    2504:	000009bf 			; <UNDEFINED> instruction: 0x000009bf
    2508:	0b0c2302 	bleq	30b118 <_Min_Stack_Size+0x30ad18>
    250c:	00007e79 	andeq	r7, r0, r9, ror lr
    2510:	09bf7409 	ldmibeq	pc!, {r0, r3, sl, ip, sp, lr}	; <UNPREDICTABLE>
    2514:	23020000 	movwcs	r0, #8192	; 0x2000
    2518:	52421010 	subpl	r1, r2, #16
    251c:	75090052 	strvc	r0, [r9, #-82]	; 0xffffffae
    2520:	000009bf 			; <UNDEFINED> instruction: 0x000009bf
    2524:	0b142302 	bleq	50b134 <_Min_Stack_Size+0x50ad34>
    2528:	00004800 	andeq	r4, r0, r0, lsl #16
    252c:	09bf7609 	ldmibeq	pc!, {r0, r3, r9, sl, ip, sp, lr}	; <UNPREDICTABLE>
    2530:	23020000 	movwcs	r0, #8192	; 0x2000
    2534:	be040018 	mcrlt	0, 0, r0, cr4, cr8, {0}
    2538:	0900007f 	stmdbeq	r0, {r0, r1, r2, r3, r4, r5, r6}
    253c:	0009c477 	andeq	ip, r9, r7, ror r4
    2540:	09280a00 	stmdbeq	r8!, {r9, fp}
    2544:	000ace7d 	andeq	ip, sl, sp, ror lr
    2548:	52431000 	subpl	r1, r3, #0
    254c:	bf7f0900 	svclt	0x007f0900
    2550:	02000009 	andeq	r0, r0, #9
    2554:	a00b0023 	andge	r0, fp, r3, lsr #32
    2558:	09000038 	stmdbeq	r0, {r3, r4, r5}
    255c:	0009bf80 	andeq	fp, r9, r0, lsl #31
    2560:	04230200 	strteq	r0, [r3], #-512	; 0xfffffe00
    2564:	52494310 	subpl	r4, r9, #16, 6	; 0x40000000
    2568:	bf810900 	svclt	0x00810900
    256c:	02000009 	andeq	r0, r0, #9
    2570:	390b0823 	stmdbcc	fp, {r0, r1, r5, fp}
    2574:	09000052 	stmdbeq	r0, {r1, r4, r6}
    2578:	0009bf82 	andeq	fp, r9, r2, lsl #31
    257c:	0c230200 	sfmeq	f0, 4, [r3], #-0
    2580:	00650a0b 	rsbeq	r0, r5, fp, lsl #20
    2584:	bf830900 	svclt	0x00830900
    2588:	02000009 	andeq	r0, r0, #9
    258c:	620b1023 	andvs	r1, fp, #35	; 0x23
    2590:	0900007c 	stmdbeq	r0, {r2, r3, r4, r5, r6}
    2594:	0009bf84 	andeq	fp, r9, r4, lsl #31
    2598:	14230200 	strtne	r0, [r3], #-512	; 0xfffffe00
    259c:	001b220b 	andseq	r2, fp, fp, lsl #4
    25a0:	bf850900 	svclt	0x00850900
    25a4:	02000009 	andeq	r0, r0, #9
    25a8:	860b1823 	strhi	r1, [fp], -r3, lsr #16
    25ac:	09000065 	stmdbeq	r0, {r0, r2, r5, r6}
    25b0:	0009bf86 	andeq	fp, r9, r6, lsl #31
    25b4:	1c230200 	sfmne	f0, 4, [r3], #-0
    25b8:	00325a0b 	eorseq	r5, r2, fp, lsl #20
    25bc:	bf870900 	svclt	0x00870900
    25c0:	02000009 	andeq	r0, r0, #9
    25c4:	43102023 	tstmi	r0, #35	; 0x23
    25c8:	09005253 	stmdbeq	r0, {r0, r1, r4, r6, r9, ip, lr}
    25cc:	0009bf88 	andeq	fp, r9, r8, lsl #31
    25d0:	24230200 	strtcs	r0, [r3], #-512	; 0xfffffe00
    25d4:	777a0400 	ldrbvc	r0, [sl, -r0, lsl #8]!
    25d8:	89090000 	stmdbhi	r9, {}	; <UNPREDICTABLE>
    25dc:	00000a3a 	andeq	r0, r0, sl, lsr sl
    25e0:	170a040a 	strne	r0, [sl, -sl, lsl #8]
    25e4:	00000b0c 	andeq	r0, r0, ip, lsl #22
    25e8:	0092e60b 	addseq	lr, r2, fp, lsl #12
    25ec:	a91a0a00 	ldmdbge	sl, {r9, fp}
    25f0:	02000009 	andeq	r0, r0, #9
    25f4:	9d0b0023 	stcls	0, cr0, [fp, #-140]	; 0xffffff74
    25f8:	0a000091 	beq	2844 <_Min_Stack_Size+0x2444>
    25fc:	00099e1d 	andeq	r9, r9, sp, lsl lr
    2600:	02230200 	eoreq	r0, r3, #0, 4
    2604:	0092160b 	addseq	r1, r2, fp, lsl #12
    2608:	9e200a00 	vmulls.f32	s0, s0, s0
    260c:	02000009 	andeq	r0, r0, #9
    2610:	04000323 	streq	r0, [r0], #-803	; 0xfffffcdd
    2614:	000091ce 	andeq	r9, r0, lr, asr #3
    2618:	0ad9220a 	beq	ff64ae48 <_estack+0xdf648648>
    261c:	011d0000 	tsteq	sp, r0
    2620:	000093d2 	ldrdeq	r9, [r0], -r2
    2624:	01012e01 	tsteq	r1, r1, lsl #28
    2628:	0000099e 	muleq	r0, lr, r9
	...
    2634:	000004dc 	ldrdeq	r0, [r0], -ip
    2638:	000b6401 	andeq	r6, fp, r1, lsl #8
    263c:	93b01e00 	movsls	r1, #0, 28
    2640:	2e010000 	cdpcs	0, 0, cr0, cr1, cr0, {0}
    2644:	000b6401 	andeq	r6, fp, r1, lsl #8
    2648:	6c910200 	lfmvs	f0, 4, [r1], {0}
    264c:	0092eb1e 	addseq	lr, r2, lr, lsl fp
    2650:	012e0100 			; <UNDEFINED> instruction: 0x012e0100
    2654:	000009a9 	andeq	r0, r0, r9, lsr #19
    2658:	1f6a9102 	svcne	0x006a9102
    265c:	00009453 	andeq	r9, r0, r3, asr r4
    2660:	bf014201 	svclt	0x00014201
    2664:	02000009 	andeq	r0, r0, #9
    2668:	0d007491 	cfstrseq	mvf7, [r0, #-580]	; 0xfffffdbc
    266c:	000a2f04 	andeq	r2, sl, r4, lsl #30
    2670:	9c012000 	stcls	0, cr2, [r1], {-0}
    2674:	01000093 	swpeq	r0, r3, [r0]	; <UNPREDICTABLE>
    2678:	0001011e 	andeq	r0, r1, lr, lsl r1
    267c:	00000000 	andeq	r0, r0, r0
    2680:	38000000 	stmdacc	r0, {}	; <UNPREDICTABLE>
    2684:	01000005 	tsteq	r0, r5
    2688:	00000ba4 	andeq	r0, r0, r4, lsr #23
    268c:	0093b01e 	addseq	fp, r3, lr, lsl r0
    2690:	011e0100 	tsteq	lr, r0, lsl #2
    2694:	00000b64 	andeq	r0, r0, r4, ror #22
    2698:	1e749102 	expnes	f1, f2
    269c:	000092eb 	andeq	r9, r0, fp, ror #5
    26a0:	a9011e01 	stmdbge	r1, {r0, r9, sl, fp, ip}
    26a4:	02000009 	andeq	r0, r0, #9
    26a8:	20007291 	mulcs	r0, r1, r2
    26ac:	00940701 	addseq	r0, r4, r1, lsl #14
    26b0:	010f0100 	mrseq	r0, (UNDEF: 31)
    26b4:	00000001 	andeq	r0, r0, r1
    26b8:	00000000 	andeq	r0, r0, r0
    26bc:	00059400 	andeq	r9, r5, r0, lsl #8
    26c0:	0bde0100 	bleq	ff782ac8 <_estack+0xdf7802c8>
    26c4:	b01e0000 	andslt	r0, lr, r0
    26c8:	01000093 	swpeq	r0, r3, [r0]	; <UNPREDICTABLE>
    26cc:	0b64010f 	bleq	1902b10 <_Min_Stack_Size+0x1902710>
    26d0:	91020000 	mrsls	r0, (UNDEF: 2)
    26d4:	941f1e74 	ldrls	r1, [pc], #-3700	; 26dc <_Min_Stack_Size+0x22dc>
    26d8:	0f010000 	svceq	0x00010000
    26dc:	0009a901 	andeq	sl, r9, r1, lsl #18
    26e0:	72910200 	addsvc	r0, r1, #0, 4
    26e4:	f4012100 	vst4.8	{d2,d4,d6,d8}, [r1], r0
    26e8:	01000093 	swpeq	r0, r3, [r0]	; <UNPREDICTABLE>
    26ec:	000001ed 	andeq	r0, r0, sp, ror #3
    26f0:	00000000 	andeq	r0, r0, r0
    26f4:	05f00000 	ldrbeq	r0, [r0, #0]!
    26f8:	23010000 	movwcs	r0, #4096	; 0x1000
    26fc:	2200000c 	andcs	r0, r0, #12
    2700:	000093b0 			; <UNDEFINED> instruction: 0x000093b0
    2704:	0b64ed01 	bleq	193db10 <_Min_Stack_Size+0x193d710>
    2708:	91020000 	mrsls	r0, (UNDEF: 2)
    270c:	92eb2274 	rscls	r2, fp, #116, 4	; 0x40000007
    2710:	ed010000 	stc	0, cr0, [r1, #-0]
    2714:	000009a9 	andeq	r0, r0, r9, lsr #19
    2718:	22729102 	rsbscs	r9, r2, #-2147483648	; 0x80000000
    271c:	0000941f 	andeq	r9, r0, pc, lsl r4
    2720:	099eed01 	ldmibeq	lr, {r0, r8, sl, fp, sp, lr, pc}
    2724:	91020000 	mrsls	r0, (UNDEF: 2)
    2728:	01230071 			; <UNDEFINED> instruction: 0x01230071
    272c:	00009436 	andeq	r9, r0, r6, lsr r4
    2730:	a901da01 	stmdbge	r1, {r0, r9, fp, ip, lr, pc}
    2734:	00000009 	andeq	r0, r0, r9
    2738:	00000000 	andeq	r0, r0, r0
    273c:	4c000000 	stcmi	0, cr0, [r0], {-0}
    2740:	01000006 	tsteq	r0, r6
    2744:	00000c5e 	andeq	r0, r0, lr, asr ip
    2748:	0093b022 	addseq	fp, r3, r2, lsr #32
    274c:	64da0100 	ldrbvs	r0, [sl], #256	; 0x100
    2750:	0200000b 	andeq	r0, r0, #11
    2754:	1b246c91 	blne	91d9a0 <_Min_Stack_Size+0x91d5a0>
    2758:	01000094 	swpeq	r0, r4, [r0]	; <UNPREDICTABLE>
    275c:	0009a9dc 	ldrdeq	sl, [r9], -ip
    2760:	76910200 	ldrvc	r0, [r1], r0, lsl #4
    2764:	b6012300 	strlt	r2, [r1], -r0, lsl #6
    2768:	01000093 	swpeq	r0, r3, [r0]	; <UNPREDICTABLE>
    276c:	099e01c2 	ldmibeq	lr, {r1, r6, r7, r8}
	...
    2778:	06a80000 	strteq	r0, [r8], r0
    277c:	a7010000 	strge	r0, [r1, -r0]
    2780:	2200000c 	andcs	r0, r0, #12
    2784:	000093b0 			; <UNDEFINED> instruction: 0x000093b0
    2788:	0b64c201 	bleq	1932f94 <_Min_Stack_Size+0x1932b94>
    278c:	91020000 	mrsls	r0, (UNDEF: 2)
    2790:	92eb226c 	rscls	r2, fp, #108, 4	; 0xc0000006
    2794:	c2010000 	andgt	r0, r1, #0
    2798:	000009a9 	andeq	r0, r0, r9, lsr #19
    279c:	246a9102 	strbtcs	r9, [sl], #-258	; 0xfffffefe
    27a0:	00009449 	andeq	r9, r0, r9, asr #8
    27a4:	099ec401 	ldmibeq	lr, {r0, sl, lr, pc}
    27a8:	91020000 	mrsls	r0, (UNDEF: 2)
    27ac:	01210077 			; <UNDEFINED> instruction: 0x01210077
    27b0:	00009425 	andeq	r9, r0, r5, lsr #8
    27b4:	00019601 	andeq	r9, r1, r1, lsl #12
    27b8:	00000000 	andeq	r0, r0, r0
    27bc:	04000000 	streq	r0, [r0], #-0
    27c0:	01000007 	tsteq	r0, r7
    27c4:	00000cd0 	ldrdeq	r0, [r0], -r0	; <UNPREDICTABLE>
    27c8:	0093b022 	addseq	fp, r3, r2, lsr #32
    27cc:	64960100 	ldrvs	r0, [r6], #256	; 0x100
    27d0:	0200000b 	andeq	r0, r0, #11
    27d4:	25007491 	strcs	r7, [r0, #-1169]	; 0xfffffb6f
    27d8:	00937101 	addseq	r7, r3, r1, lsl #2
    27dc:	01540100 	cmpeq	r4, r0, lsl #2
    27e0:	08000a2e 	stmdaeq	r0, {r1, r2, r3, r5, r9, fp}
    27e4:	08000b2c 	stmdaeq	r0, {r2, r3, r5, r8, r9, fp}
    27e8:	00000760 	andeq	r0, r0, r0, ror #14
    27ec:	000d2301 	andeq	r2, sp, r1, lsl #6
    27f0:	93b02200 	movsls	r2, #0, 4
    27f4:	54010000 	strpl	r0, [r1], #-0
    27f8:	00000b64 	andeq	r0, r0, r4, ror #22
    27fc:	22649102 	rsbcs	r9, r4, #-2147483648	; 0x80000000
    2800:	00009380 	andeq	r9, r0, r0, lsl #7
    2804:	0d235401 	cfstrseq	mvf5, [r3, #-4]!
    2808:	91020000 	mrsls	r0, (UNDEF: 2)
    280c:	93e42460 	mvnls	r2, #96, 8	; 0x60000000
    2810:	59010000 	stmdbpl	r1, {}	; <UNPREDICTABLE>
    2814:	00000d29 	andeq	r0, r0, r9, lsr #26
    2818:	24689102 	strbtcs	r9, [r8], #-258	; 0xfffffefe
    281c:	000093c8 	andeq	r9, r0, r8, asr #7
    2820:	099e5a01 	ldmibeq	lr, {r0, r9, fp, ip, lr}
    2824:	91020000 	mrsls	r0, (UNDEF: 2)
    2828:	040d006f 	streq	r0, [sp], #-111	; 0xffffff91
    282c:	00000b0c 	andeq	r0, r0, ip, lsl #22
    2830:	09bf040d 	ldmibeq	pc!, {r0, r2, r3, sl}	; <UNPREDICTABLE>
    2834:	01260000 			; <UNDEFINED> instruction: 0x01260000
    2838:	0000938a 	andeq	r9, r0, sl, lsl #7
    283c:	9e010d01 	cdpls	13, 0, cr0, cr1, cr1, {0}
    2840:	68000009 	stmdavs	r0, {r0, r3}
    2844:	2e080009 	cdpcs	0, 0, cr0, cr8, cr9, {0}
    2848:	b008000a 	andlt	r0, r8, sl
    284c:	01000007 	tsteq	r0, r7
    2850:	0092eb22 	addseq	lr, r2, r2, lsr #22
    2854:	a90d0100 	stmdbge	sp, {r8}
    2858:	02000009 	andeq	r0, r0, #9
    285c:	00007691 	muleq	r0, r1, r6

Disassembly of section .debug_abbrev:

00000000 <.debug_abbrev>:
   0:	25011101 	strcs	r1, [r1, #-257]	; 0xfffffeff
   4:	030b130e 	movweq	r1, #45838	; 0xb30e
   8:	550e1b0e 	strpl	r1, [lr, #-2830]	; 0xfffff4f2
   c:	52011106 	andpl	r1, r1, #-2147483647	; 0x80000001
  10:	99061001 	stmdbls	r6, {r0, ip}
  14:	00000642 	andeq	r0, r0, r2, asr #12
  18:	0b002402 	bleq	9028 <_Min_Stack_Size+0x8c28>
  1c:	030b3e0b 	movweq	r3, #48651	; 0xbe0b
  20:	0300000e 	movweq	r0, #14
  24:	0b0b0024 	bleq	2c00bc <_Min_Stack_Size+0x2bfcbc>
  28:	08030b3e 	stmdaeq	r3, {r1, r2, r3, r4, r5, r8, r9, fp}
  2c:	16040000 	strne	r0, [r4], -r0
  30:	3a0e0300 	bcc	380c38 <_Min_Stack_Size+0x380838>
  34:	490b3b0b 	stmdbmi	fp, {r0, r1, r3, r8, r9, fp, ip, sp}
  38:	05000013 	streq	r0, [r0, #-19]	; 0xffffffed
  3c:	0e030016 	mcreq	0, 0, r0, cr3, cr6, {0}
  40:	053b0b3a 	ldreq	r0, [fp, #-2874]!	; 0xfffff4c6
  44:	00001349 	andeq	r1, r0, r9, asr #6
  48:	0b011706 	bleq	45c68 <_Min_Stack_Size+0x45868>
  4c:	3b0b3a0b 	blcc	2ce880 <_Min_Stack_Size+0x2ce480>
  50:	0013010b 	andseq	r0, r3, fp, lsl #2
  54:	000d0700 	andeq	r0, sp, r0, lsl #14
  58:	0b3a0e03 	bleq	e8386c <_Min_Stack_Size+0xe8346c>
  5c:	13490b3b 	movtne	r0, #39739	; 0x9b3b
  60:	01080000 	mrseq	r0, (UNDEF: 8)
  64:	01134901 	tsteq	r3, r1, lsl #18
  68:	09000013 	stmdbeq	r0, {r0, r1, r4}
  6c:	13490021 	movtne	r0, #36897	; 0x9021
  70:	00000b2f 	andeq	r0, r0, pc, lsr #22
  74:	0b01130a 	bleq	44ca4 <_Min_Stack_Size+0x448a4>
  78:	3b0b3a0b 	blcc	2ce8ac <_Min_Stack_Size+0x2ce4ac>
  7c:	0013010b 	andseq	r0, r3, fp, lsl #2
  80:	000d0b00 	andeq	r0, sp, r0, lsl #22
  84:	0b3a0e03 	bleq	e83898 <_Min_Stack_Size+0xe83498>
  88:	13490b3b 	movtne	r0, #39739	; 0x9b3b
  8c:	00000a38 	andeq	r0, r0, r8, lsr sl
  90:	0b000f0c 	bleq	3cc8 <_Min_Stack_Size+0x38c8>
  94:	0d00000b 	stceq	0, cr0, [r0, #-44]	; 0xffffffd4
  98:	0b0b000f 	bleq	2c00dc <_Min_Stack_Size+0x2bfcdc>
  9c:	00001349 	andeq	r1, r0, r9, asr #6
  a0:	4900260e 	stmdbmi	r0, {r1, r2, r3, r9, sl, sp}
  a4:	0f000013 	svceq	0x00000013
  a8:	0e030113 	mcreq	1, 0, r0, cr3, cr3, {0}
  ac:	0b3a0b0b 	bleq	e82ce0 <_Min_Stack_Size+0xe828e0>
  b0:	13010b3b 	movwne	r0, #6971	; 0x1b3b
  b4:	0d100000 	ldceq	0, cr0, [r0, #-0]
  b8:	3a080300 	bcc	200cc0 <_Min_Stack_Size+0x2008c0>
  bc:	490b3b0b 	stmdbmi	fp, {r0, r1, r3, r8, r9, fp, ip, sp}
  c0:	000a3813 	andeq	r3, sl, r3, lsl r8
  c4:	01131100 	tsteq	r3, r0, lsl #2
  c8:	050b0e03 	streq	r0, [fp, #-3587]	; 0xfffff1fd
  cc:	0b3b0b3a 	bleq	ec2dbc <_Min_Stack_Size+0xec29bc>
  d0:	00001301 	andeq	r1, r0, r1, lsl #6
  d4:	27001512 	smladcs	r0, r2, r5, r1
  d8:	1300000c 	movwne	r0, #12
  dc:	0e030113 	mcreq	1, 0, r0, cr3, cr3, {0}
  e0:	0b3a0b0b 	bleq	e82d14 <_Min_Stack_Size+0xe82914>
  e4:	1301053b 	movwne	r0, #5435	; 0x153b
  e8:	0d140000 	ldceq	0, cr0, [r4, #-0]
  ec:	3a0e0300 	bcc	380cf4 <_Min_Stack_Size+0x3808f4>
  f0:	49053b0b 	stmdbmi	r5, {r0, r1, r3, r8, r9, fp, ip, sp}
  f4:	000a3813 	andeq	r3, sl, r3, lsl r8
  f8:	000d1500 	andeq	r1, sp, r0, lsl #10
  fc:	0b3a0803 	bleq	e82110 <_Min_Stack_Size+0xe81d10>
 100:	1349053b 	movtne	r0, #38203	; 0x953b
 104:	00000a38 	andeq	r0, r0, r8, lsr sl
 108:	27011516 	smladcs	r1, r6, r5, r1
 10c:	0113490c 	tsteq	r3, ip, lsl #18
 110:	17000013 	smladne	r0, r3, r0, r0
 114:	13490005 	movtne	r0, #36869	; 0x9005
 118:	13180000 	tstne	r8, #0
 11c:	3c0e0300 	stccc	3, cr0, [lr], {-0}
 120:	1900000c 	stmdbne	r0, {r2, r3}
 124:	0c270115 	stfeqs	f0, [r7], #-84	; 0xffffffac
 128:	00001301 	andeq	r1, r0, r1, lsl #6
 12c:	0300341a 	movweq	r3, #1050	; 0x41a
 130:	3b0b3a0e 	blcc	2ce970 <_Min_Stack_Size+0x2ce570>
 134:	3f134905 	svccc	0x00134905
 138:	000c3c0c 	andeq	r3, ip, ip, lsl #24
 13c:	00341b00 	eorseq	r1, r4, r0, lsl #22
 140:	0b3a0e03 	bleq	e83954 <_Min_Stack_Size+0xe83554>
 144:	13490b3b 	movtne	r0, #39739	; 0x9b3b
 148:	0c3c0c3f 	ldceq	12, cr0, [ip], #-252	; 0xffffff04
 14c:	351c0000 	ldrcc	r0, [ip, #-0]
 150:	00134900 	andseq	r4, r3, r0, lsl #18
 154:	00341d00 	eorseq	r1, r4, r0, lsl #26
 158:	0b3a0e03 	bleq	e8396c <_Min_Stack_Size+0xe8356c>
 15c:	13490b3b 	movtne	r0, #39739	; 0x9b3b
 160:	0a020c3f 	beq	83264 <_Min_Stack_Size+0x82e64>
 164:	2e1e0000 	cdpcs	0, 1, cr0, cr14, cr0, {0}
 168:	030c3f01 	movweq	r3, #52993	; 0xcf01
 16c:	3b0b3a0e 	blcc	2ce9ac <_Min_Stack_Size+0x2ce5ac>
 170:	490c270b 	stmdbmi	ip, {r0, r1, r3, r8, r9, sl, sp}
 174:	12011113 	andne	r1, r1, #-1073741820	; 0xc0000004
 178:	96064001 	strls	r4, [r6], -r1
 17c:	13010c42 	movwne	r0, #7234	; 0x1c42
 180:	341f0000 	ldrcc	r0, [pc], #-0	; 188 <_Min_Heap_Size-0x78>
 184:	3a0e0300 	bcc	380d8c <_Min_Stack_Size+0x38098c>
 188:	490b3b0b 	stmdbmi	fp, {r0, r1, r3, r8, r9, fp, ip, sp}
 18c:	000a0213 	andeq	r0, sl, r3, lsl r2
 190:	002e2000 	eoreq	r2, lr, r0
 194:	0e030c3f 	mcreq	12, 0, r0, cr3, cr15, {1}
 198:	0b3b0b3a 	bleq	ec2e88 <_Min_Stack_Size+0xec2a88>
 19c:	01120111 	tsteq	r2, r1, lsl r1
 1a0:	42960640 	addsmi	r0, r6, #64, 12	; 0x4000000
 1a4:	2100000c 	tstcs	r0, ip
 1a8:	0c3f012e 	ldfeqs	f0, [pc], #-184	; f8 <_Min_Heap_Size-0x108>
 1ac:	0b3a0e03 	bleq	e839c0 <_Min_Stack_Size+0xe835c0>
 1b0:	0c270b3b 			; <UNDEFINED> instruction: 0x0c270b3b
 1b4:	01111349 	tsteq	r1, r9, asr #6
 1b8:	06400112 			; <UNDEFINED> instruction: 0x06400112
 1bc:	010c4297 			; <UNDEFINED> instruction: 0x010c4297
 1c0:	22000013 	andcs	r0, r0, #19
 1c4:	08030005 	stmdaeq	r3, {r0, r2}
 1c8:	0b3b0b3a 	bleq	ec2eb8 <_Min_Stack_Size+0xec2ab8>
 1cc:	0a021349 	beq	84ef8 <_Min_Stack_Size+0x84af8>
 1d0:	2e230000 	cdpcs	0, 2, cr0, cr3, cr0, {0}
 1d4:	030c3f00 	movweq	r3, #52992	; 0xcf00
 1d8:	3b0b3a0e 	blcc	2cea18 <_Min_Stack_Size+0x2ce618>
 1dc:	110c270b 	tstne	ip, fp, lsl #14
 1e0:	40011201 	andmi	r1, r1, r1, lsl #4
 1e4:	0c429706 	mcrreq	7, 0, r9, r2, cr6
 1e8:	2e240000 	cdpcs	0, 2, cr0, cr4, cr0, {0}
 1ec:	030c3f00 	movweq	r3, #52992	; 0xcf00
 1f0:	3b0b3a0e 	blcc	2cea30 <_Min_Stack_Size+0x2ce630>
 1f4:	1201110b 	andne	r1, r1, #-1073741822	; 0xc0000002
 1f8:	97064001 	strls	r4, [r6, -r1]
 1fc:	00000c42 	andeq	r0, r0, r2, asr #24
 200:	00110100 	andseq	r0, r1, r0, lsl #2
 204:	06550610 			; <UNDEFINED> instruction: 0x06550610
 208:	0e1b0e03 	cdpeq	14, 1, cr0, cr11, cr3, {0}
 20c:	05130e25 	ldreq	r0, [r3, #-3621]	; 0xfffff1db
 210:	01000000 	mrseq	r0, (UNDEF: 0)
 214:	0e250111 	mcreq	1, 1, r0, cr5, cr1, {0}
 218:	0e030b13 	vmoveq.32	d3[0], r0
 21c:	06550e1b 			; <UNDEFINED> instruction: 0x06550e1b
 220:	01520111 	cmpeq	r2, r1, lsl r1
 224:	42990610 	addsmi	r0, r9, #16, 12	; 0x1000000
 228:	02000006 	andeq	r0, r0, #6
 22c:	0b0b0024 	bleq	2c02c4 <_Min_Stack_Size+0x2bfec4>
 230:	0e030b3e 	vmoveq.16	d3[0], r0
 234:	24030000 	strcs	r0, [r3], #-0
 238:	3e0b0b00 	vmlacc.f64	d0, d11, d0
 23c:	0008030b 	andeq	r0, r8, fp, lsl #6
 240:	00160400 	andseq	r0, r6, r0, lsl #8
 244:	0b3a0e03 	bleq	e83a58 <_Min_Stack_Size+0xe83658>
 248:	13490b3b 	movtne	r0, #39739	; 0x9b3b
 24c:	16050000 	strne	r0, [r5], -r0
 250:	3a0e0300 	bcc	380e58 <_Min_Stack_Size+0x380a58>
 254:	49053b0b 	stmdbmi	r5, {r0, r1, r3, r8, r9, fp, ip, sp}
 258:	06000013 			; <UNDEFINED> instruction: 0x06000013
 25c:	0b0b0117 	bleq	2c06c0 <_Min_Stack_Size+0x2c02c0>
 260:	0b3b0b3a 	bleq	ec2f50 <_Min_Stack_Size+0xec2b50>
 264:	00001301 	andeq	r1, r0, r1, lsl #6
 268:	03000d07 	movweq	r0, #3335	; 0xd07
 26c:	3b0b3a0e 	blcc	2ceaac <_Min_Stack_Size+0x2ce6ac>
 270:	0013490b 	andseq	r4, r3, fp, lsl #18
 274:	01010800 	tsteq	r1, r0, lsl #16
 278:	13011349 	movwne	r1, #4937	; 0x1349
 27c:	21090000 	mrscs	r0, (UNDEF: 9)
 280:	2f134900 	svccs	0x00134900
 284:	0a00000b 	beq	2b8 <_Min_Heap_Size+0xb8>
 288:	0b0b0113 	bleq	2c06dc <_Min_Stack_Size+0x2c02dc>
 28c:	0b3b0b3a 	bleq	ec2f7c <_Min_Stack_Size+0xec2b7c>
 290:	00001301 	andeq	r1, r0, r1, lsl #6
 294:	03000d0b 	movweq	r0, #3339	; 0xd0b
 298:	3b0b3a0e 	blcc	2cead8 <_Min_Stack_Size+0x2ce6d8>
 29c:	3813490b 	ldmdacc	r3, {r0, r1, r3, r8, fp, lr}
 2a0:	0c00000a 	stceq	0, cr0, [r0], {10}
 2a4:	0b0b000f 	bleq	2c02e8 <_Min_Stack_Size+0x2bfee8>
 2a8:	0f0d0000 	svceq	0x000d0000
 2ac:	490b0b00 	stmdbmi	fp, {r8, r9, fp}
 2b0:	0e000013 	mcreq	0, 0, r0, cr0, cr3, {0}
 2b4:	13490026 	movtne	r0, #36902	; 0x9026
 2b8:	130f0000 	movwne	r0, #61440	; 0xf000
 2bc:	0b0e0301 	bleq	380ec8 <_Min_Stack_Size+0x380ac8>
 2c0:	3b0b3a0b 	blcc	2ceaf4 <_Min_Stack_Size+0x2ce6f4>
 2c4:	0013010b 	andseq	r0, r3, fp, lsl #2
 2c8:	000d1000 	andeq	r1, sp, r0
 2cc:	0b3a0803 	bleq	e822e0 <_Min_Stack_Size+0xe81ee0>
 2d0:	13490b3b 	movtne	r0, #39739	; 0x9b3b
 2d4:	00000a38 	andeq	r0, r0, r8, lsr sl
 2d8:	03011311 	movweq	r1, #4881	; 0x1311
 2dc:	3a050b0e 	bcc	142f1c <_Min_Stack_Size+0x142b1c>
 2e0:	010b3b0b 	tsteq	fp, fp, lsl #22
 2e4:	12000013 	andne	r0, r0, #19
 2e8:	0c270015 	stceq	0, cr0, [r7], #-84	; 0xffffffac
 2ec:	13130000 	tstne	r3, #0
 2f0:	0b0e0301 	bleq	380efc <_Min_Stack_Size+0x380afc>
 2f4:	3b0b3a0b 	blcc	2ceb28 <_Min_Stack_Size+0x2ce728>
 2f8:	00130105 	andseq	r0, r3, r5, lsl #2
 2fc:	000d1400 	andeq	r1, sp, r0, lsl #8
 300:	0b3a0e03 	bleq	e83b14 <_Min_Stack_Size+0xe83714>
 304:	1349053b 	movtne	r0, #38203	; 0x953b
 308:	00000a38 	andeq	r0, r0, r8, lsr sl
 30c:	03000d15 	movweq	r0, #3349	; 0xd15
 310:	3b0b3a08 	blcc	2ceb38 <_Min_Stack_Size+0x2ce738>
 314:	38134905 	ldmdacc	r3, {r0, r2, r8, fp, lr}
 318:	1600000a 	strne	r0, [r0], -sl
 31c:	0c270115 	stfeqs	f0, [r7], #-84	; 0xffffffac
 320:	13011349 	movwne	r1, #4937	; 0x1349
 324:	05170000 	ldreq	r0, [r7, #-0]
 328:	00134900 	andseq	r4, r3, r0, lsl #18
 32c:	00131800 	andseq	r1, r3, r0, lsl #16
 330:	0c3c0e03 	ldceq	14, cr0, [ip], #-12
 334:	15190000 	ldrne	r0, [r9, #-0]
 338:	010c2701 	tsteq	ip, r1, lsl #14
 33c:	1a000013 	bne	390 <_Min_Heap_Size+0x190>
 340:	0e030034 	mcreq	0, 0, r0, cr3, cr4, {1}
 344:	053b0b3a 	ldreq	r0, [fp, #-2874]!	; 0xfffff4c6
 348:	0c3f1349 	ldceq	3, cr1, [pc], #-292	; 22c <_Min_Heap_Size+0x2c>
 34c:	00000c3c 	andeq	r0, r0, ip, lsr ip
 350:	0300341b 	movweq	r3, #1051	; 0x41b
 354:	3b0b3a0e 	blcc	2ceb94 <_Min_Stack_Size+0x2ce794>
 358:	3f13490b 	svccc	0x0013490b
 35c:	000c3c0c 	andeq	r3, ip, ip, lsl #24
 360:	00351c00 	eorseq	r1, r5, r0, lsl #24
 364:	00001349 	andeq	r1, r0, r9, asr #6
 368:	0300341d 	movweq	r3, #1053	; 0x41d
 36c:	3b0b3a0e 	blcc	2cebac <_Min_Stack_Size+0x2ce7ac>
 370:	3f13490b 	svccc	0x0013490b
 374:	000a020c 	andeq	r0, sl, ip, lsl #4
 378:	002e1e00 	eoreq	r1, lr, r0, lsl #28
 37c:	0e030c3f 	mcreq	12, 0, r0, cr3, cr15, {1}
 380:	053b0b3a 	ldreq	r0, [fp, #-2874]!	; 0xfffff4c6
 384:	01110c27 	tsteq	r1, r7, lsr #24
 388:	06400112 			; <UNDEFINED> instruction: 0x06400112
 38c:	000c4296 	muleq	ip, r6, r2
 390:	012e1f00 			; <UNDEFINED> instruction: 0x012e1f00
 394:	0e030c3f 	mcreq	12, 0, r0, cr3, cr15, {1}
 398:	0b3b0b3a 	bleq	ec3088 <_Min_Stack_Size+0xec2c88>
 39c:	01110c27 	tsteq	r1, r7, lsr #24
 3a0:	06400112 			; <UNDEFINED> instruction: 0x06400112
 3a4:	010c4296 			; <UNDEFINED> instruction: 0x010c4296
 3a8:	20000013 	andcs	r0, r0, r3, lsl r0
 3ac:	0e030005 	cdpeq	0, 0, cr0, cr3, cr5, {0}
 3b0:	0b3b0b3a 	bleq	ec30a0 <_Min_Stack_Size+0xec2ca0>
 3b4:	0a021349 	beq	850e0 <_Min_Stack_Size+0x84ce0>
 3b8:	2e210000 	cdpcs	0, 2, cr0, cr1, cr0, {0}
 3bc:	030c3f00 	movweq	r3, #52992	; 0xcf00
 3c0:	3b0b3a0e 	blcc	2cec00 <_Min_Stack_Size+0x2ce800>
 3c4:	110c270b 	tstne	ip, fp, lsl #14
 3c8:	40011201 	andmi	r1, r1, r1, lsl #4
 3cc:	0c429706 	mcrreq	7, 0, r9, r2, cr6
 3d0:	34220000 	strtcc	r0, [r2], #-0
 3d4:	3a0e0300 	bcc	380fdc <_Min_Stack_Size+0x380bdc>
 3d8:	490b3b0b 	stmdbmi	fp, {r0, r1, r3, r8, r9, fp, ip, sp}
 3dc:	000a0213 	andeq	r0, sl, r3, lsl r2
 3e0:	012e2300 			; <UNDEFINED> instruction: 0x012e2300
 3e4:	0e030c3f 	mcreq	12, 0, r0, cr3, cr15, {1}
 3e8:	0b3b0b3a 	bleq	ec30d8 <_Min_Stack_Size+0xec2cd8>
 3ec:	01110c27 	tsteq	r1, r7, lsr #24
 3f0:	06400112 			; <UNDEFINED> instruction: 0x06400112
 3f4:	010c4297 			; <UNDEFINED> instruction: 0x010c4297
 3f8:	24000013 	strcs	r0, [r0], #-19	; 0xffffffed
 3fc:	08030005 	stmdaeq	r3, {r0, r2}
 400:	0b3b0b3a 	bleq	ec30f0 <_Min_Stack_Size+0xec2cf0>
 404:	0a021349 	beq	85130 <_Min_Stack_Size+0x84d30>
 408:	2e250000 	cdpcs	0, 2, cr0, cr5, cr0, {0}
 40c:	030c3f01 	movweq	r3, #52993	; 0xcf01
 410:	3b0b3a0e 	blcc	2cec50 <_Min_Stack_Size+0x2ce850>
 414:	110c270b 	tstne	ip, fp, lsl #14
 418:	40011201 	andmi	r1, r1, r1, lsl #4
 41c:	0c429706 	mcrreq	7, 0, r9, r2, cr6
 420:	01000000 	mrseq	r0, (UNDEF: 0)
 424:	0e250111 	mcreq	1, 1, r0, cr5, cr1, {0}
 428:	0e030b13 	vmoveq.32	d3[0], r0
 42c:	06550e1b 			; <UNDEFINED> instruction: 0x06550e1b
 430:	01520111 	cmpeq	r2, r1, lsl r1
 434:	42990610 	addsmi	r0, r9, #16, 12	; 0x1000000
 438:	02000006 	andeq	r0, r0, #6
 43c:	0b0b0024 	bleq	2c04d4 <_Min_Stack_Size+0x2c00d4>
 440:	0e030b3e 	vmoveq.16	d3[0], r0
 444:	24030000 	strcs	r0, [r3], #-0
 448:	3e0b0b00 	vmlacc.f64	d0, d11, d0
 44c:	0008030b 	andeq	r0, r8, fp, lsl #6
 450:	00160400 	andseq	r0, r6, r0, lsl #8
 454:	0b3a0e03 	bleq	e83c68 <_Min_Stack_Size+0xe83868>
 458:	13490b3b 	movtne	r0, #39739	; 0x9b3b
 45c:	16050000 	strne	r0, [r5], -r0
 460:	3a0e0300 	bcc	381068 <_Min_Stack_Size+0x380c68>
 464:	49053b0b 	stmdbmi	r5, {r0, r1, r3, r8, r9, fp, ip, sp}
 468:	06000013 			; <UNDEFINED> instruction: 0x06000013
 46c:	0b0b0117 	bleq	2c08d0 <_Min_Stack_Size+0x2c04d0>
 470:	0b3b0b3a 	bleq	ec3160 <_Min_Stack_Size+0xec2d60>
 474:	00001301 	andeq	r1, r0, r1, lsl #6
 478:	03000d07 	movweq	r0, #3335	; 0xd07
 47c:	3b0b3a0e 	blcc	2cecbc <_Min_Stack_Size+0x2ce8bc>
 480:	0013490b 	andseq	r4, r3, fp, lsl #18
 484:	01010800 	tsteq	r1, r0, lsl #16
 488:	13011349 	movwne	r1, #4937	; 0x1349
 48c:	21090000 	mrscs	r0, (UNDEF: 9)
 490:	2f134900 	svccs	0x00134900
 494:	0a00000b 	beq	4c8 <_Min_Stack_Size+0xc8>
 498:	0b0b0113 	bleq	2c08ec <_Min_Stack_Size+0x2c04ec>
 49c:	0b3b0b3a 	bleq	ec318c <_Min_Stack_Size+0xec2d8c>
 4a0:	00001301 	andeq	r1, r0, r1, lsl #6
 4a4:	03000d0b 	movweq	r0, #3339	; 0xd0b
 4a8:	3b0b3a0e 	blcc	2cece8 <_Min_Stack_Size+0x2ce8e8>
 4ac:	3813490b 	ldmdacc	r3, {r0, r1, r3, r8, fp, lr}
 4b0:	0c00000a 	stceq	0, cr0, [r0], {10}
 4b4:	0b0b000f 	bleq	2c04f8 <_Min_Stack_Size+0x2c00f8>
 4b8:	0f0d0000 	svceq	0x000d0000
 4bc:	490b0b00 	stmdbmi	fp, {r8, r9, fp}
 4c0:	0e000013 	mcreq	0, 0, r0, cr0, cr3, {0}
 4c4:	13490026 	movtne	r0, #36902	; 0x9026
 4c8:	130f0000 	movwne	r0, #61440	; 0xf000
 4cc:	0b0e0301 	bleq	3810d8 <_Min_Stack_Size+0x380cd8>
 4d0:	3b0b3a0b 	blcc	2ced04 <_Min_Stack_Size+0x2ce904>
 4d4:	0013010b 	andseq	r0, r3, fp, lsl #2
 4d8:	000d1000 	andeq	r1, sp, r0
 4dc:	0b3a0803 	bleq	e824f0 <_Min_Stack_Size+0xe820f0>
 4e0:	13490b3b 	movtne	r0, #39739	; 0x9b3b
 4e4:	00000a38 	andeq	r0, r0, r8, lsr sl
 4e8:	03011311 	movweq	r1, #4881	; 0x1311
 4ec:	3a050b0e 	bcc	14312c <_Min_Stack_Size+0x142d2c>
 4f0:	010b3b0b 	tsteq	fp, fp, lsl #22
 4f4:	12000013 	andne	r0, r0, #19
 4f8:	0c270015 	stceq	0, cr0, [r7], #-84	; 0xffffffac
 4fc:	13130000 	tstne	r3, #0
 500:	0b0e0301 	bleq	38110c <_Min_Stack_Size+0x380d0c>
 504:	3b0b3a0b 	blcc	2ced38 <_Min_Stack_Size+0x2ce938>
 508:	00130105 	andseq	r0, r3, r5, lsl #2
 50c:	000d1400 	andeq	r1, sp, r0, lsl #8
 510:	0b3a0e03 	bleq	e83d24 <_Min_Stack_Size+0xe83924>
 514:	1349053b 	movtne	r0, #38203	; 0x953b
 518:	00000a38 	andeq	r0, r0, r8, lsr sl
 51c:	03000d15 	movweq	r0, #3349	; 0xd15
 520:	3b0b3a08 	blcc	2ced48 <_Min_Stack_Size+0x2ce948>
 524:	38134905 	ldmdacc	r3, {r0, r2, r8, fp, lr}
 528:	1600000a 	strne	r0, [r0], -sl
 52c:	0c270115 	stfeqs	f0, [r7], #-84	; 0xffffffac
 530:	13011349 	movwne	r1, #4937	; 0x1349
 534:	05170000 	ldreq	r0, [r7, #-0]
 538:	00134900 	andseq	r4, r3, r0, lsl #18
 53c:	00131800 	andseq	r1, r3, r0, lsl #16
 540:	0c3c0e03 	ldceq	14, cr0, [ip], #-12
 544:	15190000 	ldrne	r0, [r9, #-0]
 548:	010c2701 	tsteq	ip, r1, lsl #14
 54c:	1a000013 	bne	5a0 <_Min_Stack_Size+0x1a0>
 550:	0e030034 	mcreq	0, 0, r0, cr3, cr4, {1}
 554:	053b0b3a 	ldreq	r0, [fp, #-2874]!	; 0xfffff4c6
 558:	0c3f1349 	ldceq	3, cr1, [pc], #-292	; 43c <_Min_Stack_Size+0x3c>
 55c:	00000c3c 	andeq	r0, r0, ip, lsr ip
 560:	0300341b 	movweq	r3, #1051	; 0x41b
 564:	3b0b3a0e 	blcc	2ceda4 <_Min_Stack_Size+0x2ce9a4>
 568:	3f13490b 	svccc	0x0013490b
 56c:	000c3c0c 	andeq	r3, ip, ip, lsl #24
 570:	00351c00 	eorseq	r1, r5, r0, lsl #24
 574:	00001349 	andeq	r1, r0, r9, asr #6
 578:	3f012e1d 	svccc	0x00012e1d
 57c:	3a0e030c 	bcc	3811b4 <_Min_Stack_Size+0x380db4>
 580:	27053b0b 	strcs	r3, [r5, -fp, lsl #22]
 584:	1113490c 	tstne	r3, ip, lsl #18
 588:	40011201 	andmi	r1, r1, r1, lsl #4
 58c:	0c429706 	mcrreq	7, 0, r9, r2, cr6
 590:	00001301 	andeq	r1, r0, r1, lsl #6
 594:	0300051e 	movweq	r0, #1310	; 0x51e
 598:	3b0b3a0e 	blcc	2cedd8 <_Min_Stack_Size+0x2ce9d8>
 59c:	02134905 	andseq	r4, r3, #81920	; 0x14000
 5a0:	1f00000a 	svcne	0x0000000a
 5a4:	0e030034 	mcreq	0, 0, r0, cr3, cr4, {1}
 5a8:	053b0b3a 	ldreq	r0, [fp, #-2874]!	; 0xfffff4c6
 5ac:	0a021349 	beq	852d8 <_Min_Stack_Size+0x84ed8>
 5b0:	2e200000 	cdpcs	0, 2, cr0, cr0, cr0, {0}
 5b4:	030c3f01 	movweq	r3, #52993	; 0xcf01
 5b8:	3b0b3a0e 	blcc	2cedf8 <_Min_Stack_Size+0x2ce9f8>
 5bc:	110c2705 	tstne	ip, r5, lsl #14
 5c0:	40011201 	andmi	r1, r1, r1, lsl #4
 5c4:	0c429706 	mcrreq	7, 0, r9, r2, cr6
 5c8:	00001301 	andeq	r1, r0, r1, lsl #6
 5cc:	3f012e21 	svccc	0x00012e21
 5d0:	3a0e030c 	bcc	381208 <_Min_Stack_Size+0x380e08>
 5d4:	270b3b0b 	strcs	r3, [fp, -fp, lsl #22]
 5d8:	1201110c 	andne	r1, r1, #12, 2
 5dc:	97064001 	strls	r4, [r6, -r1]
 5e0:	13010c42 	movwne	r0, #7234	; 0x1c42
 5e4:	05220000 	streq	r0, [r2, #-0]!
 5e8:	3a0e0300 	bcc	3811f0 <_Min_Stack_Size+0x380df0>
 5ec:	490b3b0b 	stmdbmi	fp, {r0, r1, r3, r8, r9, fp, ip, sp}
 5f0:	000a0213 	andeq	r0, sl, r3, lsl r2
 5f4:	012e2300 			; <UNDEFINED> instruction: 0x012e2300
 5f8:	0e030c3f 	mcreq	12, 0, r0, cr3, cr15, {1}
 5fc:	0b3b0b3a 	bleq	ec32ec <_Min_Stack_Size+0xec2eec>
 600:	13490c27 	movtne	r0, #39975	; 0x9c27
 604:	01120111 	tsteq	r2, r1, lsl r1
 608:	42970640 	addsmi	r0, r7, #64, 12	; 0x4000000
 60c:	0013010c 	andseq	r0, r3, ip, lsl #2
 610:	00342400 	eorseq	r2, r4, r0, lsl #8
 614:	0b3a0e03 	bleq	e83e28 <_Min_Stack_Size+0xe83a28>
 618:	13490b3b 	movtne	r0, #39739	; 0x9b3b
 61c:	00000a02 	andeq	r0, r0, r2, lsl #20
 620:	3f012e25 	svccc	0x00012e25
 624:	3a0e030c 	bcc	38125c <_Min_Stack_Size+0x380e5c>
 628:	270b3b0b 	strcs	r3, [fp, -fp, lsl #22]
 62c:	1201110c 	andne	r1, r1, #12, 2
 630:	96064001 	strls	r4, [r6], -r1
 634:	13010c42 	movwne	r0, #7234	; 0x1c42
 638:	2e260000 	cdpcs	0, 2, cr0, cr6, cr0, {0}
 63c:	030c3f01 	movweq	r3, #52993	; 0xcf01
 640:	3b0b3a0e 	blcc	2cee80 <_Min_Stack_Size+0x2cea80>
 644:	490c270b 	stmdbmi	ip, {r0, r1, r3, r8, r9, sl, sp}
 648:	12011113 	andne	r1, r1, #-1073741820	; 0xc0000004
 64c:	97064001 	strls	r4, [r6, -r1]
 650:	00000c42 	andeq	r0, r0, r2, asr #24
	...

Disassembly of section .debug_loc:

00000000 <.debug_loc>:
   0:	08000314 	stmdaeq	r0, {r2, r4, r8, r9}
   4:	08000316 	stmdaeq	r0, {r1, r2, r4, r8, r9}
   8:	007d0002 	rsbseq	r0, sp, r2
   c:	08000316 	stmdaeq	r0, {r1, r2, r4, r8, r9}
  10:	08000318 	stmdaeq	r0, {r3, r4, r8, r9}
  14:	087d0002 	ldmdaeq	sp!, {r1}^
  18:	08000318 	stmdaeq	r0, {r3, r4, r8, r9}
  1c:	0800031a 	stmdaeq	r0, {r1, r3, r4, r8, r9}
  20:	207d0002 	rsbscs	r0, sp, r2
  24:	0800031a 	stmdaeq	r0, {r1, r3, r4, r8, r9}
  28:	0800035a 	stmdaeq	r0, {r1, r3, r4, r6, r8, r9}
  2c:	20770002 	rsbscs	r0, r7, r2
  30:	0800035a 	stmdaeq	r0, {r1, r3, r4, r6, r8, r9}
  34:	0800035c 	stmdaeq	r0, {r2, r3, r4, r6, r8, r9}
  38:	08770002 	ldmdaeq	r7!, {r1}^
  3c:	0800035c 	stmdaeq	r0, {r2, r3, r4, r6, r8, r9}
  40:	0800036c 	stmdaeq	r0, {r2, r3, r5, r6, r8, r9}
  44:	087d0002 	ldmdaeq	sp!, {r1}^
	...
  50:	08000218 	stmdaeq	r0, {r3, r4, r9}
  54:	0800021a 	stmdaeq	r0, {r1, r3, r4, r9}
  58:	007d0002 	rsbseq	r0, sp, r2
  5c:	0800021a 	stmdaeq	r0, {r1, r3, r4, r9}
  60:	0800021c 	stmdaeq	r0, {r2, r3, r4, r9}
  64:	087d0002 	ldmdaeq	sp!, {r1}^
  68:	0800021c 	stmdaeq	r0, {r2, r3, r4, r9}
  6c:	08000314 	stmdaeq	r0, {r2, r4, r8, r9}
  70:	08770002 	ldmdaeq	r7!, {r1}^
	...
  7c:	080001f0 	stmdaeq	r0, {r4, r5, r6, r7, r8}
  80:	080001f2 	stmdaeq	r0, {r1, r4, r5, r6, r7, r8}
  84:	007d0002 	rsbseq	r0, sp, r2
  88:	080001f2 	stmdaeq	r0, {r1, r4, r5, r6, r7, r8}
  8c:	080001f4 	stmdaeq	r0, {r2, r4, r5, r6, r7, r8}
  90:	047d0002 	ldrbteq	r0, [sp], #-2
  94:	080001f4 	stmdaeq	r0, {r2, r4, r5, r6, r7, r8}
  98:	080001f6 	stmdaeq	r0, {r1, r2, r4, r5, r6, r7, r8}
  9c:	187d0002 	ldmdane	sp!, {r1}^
  a0:	080001f6 	stmdaeq	r0, {r1, r2, r4, r5, r6, r7, r8}
  a4:	08000210 	stmdaeq	r0, {r4, r9}
  a8:	18770002 	ldmdane	r7!, {r1}^
  ac:	08000210 	stmdaeq	r0, {r4, r9}
  b0:	08000212 	stmdaeq	r0, {r1, r4, r9}
  b4:	04770002 	ldrbteq	r0, [r7], #-2
  b8:	08000212 	stmdaeq	r0, {r1, r4, r9}
  bc:	08000214 	stmdaeq	r0, {r2, r4, r9}
  c0:	047d0002 	ldrbteq	r0, [sp], #-2
  c4:	08000214 	stmdaeq	r0, {r2, r4, r9}
  c8:	08000216 	stmdaeq	r0, {r1, r2, r4, r9}
  cc:	007d0002 	rsbseq	r0, sp, r2
	...
  d8:	080001d0 	stmdaeq	r0, {r4, r6, r7, r8}
  dc:	080001d2 	stmdaeq	r0, {r1, r4, r6, r7, r8}
  e0:	007d0002 	rsbseq	r0, sp, r2
  e4:	080001d2 	stmdaeq	r0, {r1, r4, r6, r7, r8}
  e8:	080001d4 	stmdaeq	r0, {r2, r4, r6, r7, r8}
  ec:	047d0002 	ldrbteq	r0, [sp], #-2
  f0:	080001d4 	stmdaeq	r0, {r2, r4, r6, r7, r8}
  f4:	080001d6 	stmdaeq	r0, {r1, r2, r4, r6, r7, r8}
  f8:	187d0002 	ldmdane	sp!, {r1}^
  fc:	080001d6 	stmdaeq	r0, {r1, r2, r4, r6, r7, r8}
 100:	080001ea 	stmdaeq	r0, {r1, r3, r5, r6, r7, r8}
 104:	18770002 	ldmdane	r7!, {r1}^
 108:	080001ea 	stmdaeq	r0, {r1, r3, r5, r6, r7, r8}
 10c:	080001ec 	stmdaeq	r0, {r2, r3, r5, r6, r7, r8}
 110:	04770002 	ldrbteq	r0, [r7], #-2
 114:	080001ec 	stmdaeq	r0, {r2, r3, r5, r6, r7, r8}
 118:	080001ee 	stmdaeq	r0, {r1, r2, r3, r5, r6, r7, r8}
 11c:	047d0002 	ldrbteq	r0, [sp], #-2
 120:	080001ee 	stmdaeq	r0, {r1, r2, r3, r5, r6, r7, r8}
 124:	080001f0 	stmdaeq	r0, {r4, r5, r6, r7, r8}
 128:	007d0002 	rsbseq	r0, sp, r2
	...
 134:	0800018c 	stmdaeq	r0, {r2, r3, r7, r8}
 138:	0800018e 	stmdaeq	r0, {r1, r2, r3, r7, r8}
 13c:	007d0002 	rsbseq	r0, sp, r2
 140:	0800018e 	stmdaeq	r0, {r1, r2, r3, r7, r8}
 144:	08000190 	stmdaeq	r0, {r4, r7, r8}
 148:	047d0002 	ldrbteq	r0, [sp], #-2
 14c:	08000190 	stmdaeq	r0, {r4, r7, r8}
 150:	080001be 	stmdaeq	r0, {r1, r2, r3, r4, r5, r7, r8}
 154:	04770002 	ldrbteq	r0, [r7], #-2
 158:	080001be 	stmdaeq	r0, {r1, r2, r3, r4, r5, r7, r8}
 15c:	080001c0 	stmdaeq	r0, {r6, r7, r8}
 160:	047d0002 	ldrbteq	r0, [sp], #-2
 164:	080001c0 	stmdaeq	r0, {r6, r7, r8}
 168:	080001d0 	stmdaeq	r0, {r4, r6, r7, r8}
 16c:	007d0002 	rsbseq	r0, sp, r2
	...
 178:	08000170 	stmdaeq	r0, {r4, r5, r6, r8}
 17c:	08000172 	stmdaeq	r0, {r1, r4, r5, r6, r8}
 180:	007d0002 	rsbseq	r0, sp, r2
 184:	08000172 	stmdaeq	r0, {r1, r4, r5, r6, r8}
 188:	08000174 	stmdaeq	r0, {r2, r4, r5, r6, r8}
 18c:	047d0002 	ldrbteq	r0, [sp], #-2
 190:	08000174 	stmdaeq	r0, {r2, r4, r5, r6, r8}
 194:	08000188 	stmdaeq	r0, {r3, r7, r8}
 198:	04770002 	ldrbteq	r0, [r7], #-2
 19c:	08000188 	stmdaeq	r0, {r3, r7, r8}
 1a0:	0800018a 	stmdaeq	r0, {r1, r3, r7, r8}
 1a4:	047d0002 	ldrbteq	r0, [sp], #-2
 1a8:	0800018a 	stmdaeq	r0, {r1, r3, r7, r8}
 1ac:	0800018c 	stmdaeq	r0, {r2, r3, r7, r8}
 1b0:	007d0002 	rsbseq	r0, sp, r2
	...
 1bc:	080008a4 	stmdaeq	r0, {r2, r5, r7, fp}
 1c0:	080008a6 	stmdaeq	r0, {r1, r2, r5, r7, fp}
 1c4:	007d0002 	rsbseq	r0, sp, r2
 1c8:	080008a6 	stmdaeq	r0, {r1, r2, r5, r7, fp}
 1cc:	080008a8 	stmdaeq	r0, {r3, r5, r7, fp}
 1d0:	087d0002 	ldmdaeq	sp!, {r1}^
 1d4:	080008a8 	stmdaeq	r0, {r3, r5, r7, fp}
 1d8:	08000968 	stmdaeq	r0, {r3, r5, r6, r8, fp}
 1dc:	08770002 	ldmdaeq	r7!, {r1}^
	...
 1e8:	080007fc 	stmdaeq	r0, {r2, r3, r4, r5, r6, r7, r8, r9, sl}
 1ec:	080007fe 	stmdaeq	r0, {r1, r2, r3, r4, r5, r6, r7, r8, r9, sl}
 1f0:	007d0002 	rsbseq	r0, sp, r2
 1f4:	080007fe 	stmdaeq	r0, {r1, r2, r3, r4, r5, r6, r7, r8, r9, sl}
 1f8:	08000800 	stmdaeq	r0, {fp}
 1fc:	087d0002 	ldmdaeq	sp!, {r1}^
 200:	08000800 	stmdaeq	r0, {fp}
 204:	080008a4 	stmdaeq	r0, {r2, r5, r7, fp}
 208:	08770002 	ldmdaeq	r7!, {r1}^
	...
 214:	080007d8 	stmdaeq	r0, {r3, r4, r6, r7, r8, r9, sl}
 218:	080007da 	stmdaeq	r0, {r1, r3, r4, r6, r7, r8, r9, sl}
 21c:	007d0002 	rsbseq	r0, sp, r2
 220:	080007da 	stmdaeq	r0, {r1, r3, r4, r6, r7, r8, r9, sl}
 224:	080007dc 	stmdaeq	r0, {r2, r3, r4, r6, r7, r8, r9, sl}
 228:	087d0002 	ldmdaeq	sp!, {r1}^
 22c:	080007dc 	stmdaeq	r0, {r2, r3, r4, r6, r7, r8, r9, sl}
 230:	080007fc 	stmdaeq	r0, {r2, r3, r4, r5, r6, r7, r8, r9, sl}
 234:	08770002 	ldmdaeq	r7!, {r1}^
	...
 240:	080007b4 	stmdaeq	r0, {r2, r4, r5, r7, r8, r9, sl}
 244:	080007b6 	stmdaeq	r0, {r1, r2, r4, r5, r7, r8, r9, sl}
 248:	007d0002 	rsbseq	r0, sp, r2
 24c:	080007b6 	stmdaeq	r0, {r1, r2, r4, r5, r7, r8, r9, sl}
 250:	080007b8 	stmdaeq	r0, {r3, r4, r5, r7, r8, r9, sl}
 254:	087d0002 	ldmdaeq	sp!, {r1}^
 258:	080007b8 	stmdaeq	r0, {r3, r4, r5, r7, r8, r9, sl}
 25c:	080007d8 	stmdaeq	r0, {r3, r4, r6, r7, r8, r9, sl}
 260:	08770002 	ldmdaeq	r7!, {r1}^
	...
 26c:	08000790 	stmdaeq	r0, {r4, r7, r8, r9, sl}
 270:	08000792 	stmdaeq	r0, {r1, r4, r7, r8, r9, sl}
 274:	007d0002 	rsbseq	r0, sp, r2
 278:	08000792 	stmdaeq	r0, {r1, r4, r7, r8, r9, sl}
 27c:	08000794 	stmdaeq	r0, {r2, r4, r7, r8, r9, sl}
 280:	087d0002 	ldmdaeq	sp!, {r1}^
 284:	08000794 	stmdaeq	r0, {r2, r4, r7, r8, r9, sl}
 288:	080007b4 	stmdaeq	r0, {r2, r4, r5, r7, r8, r9, sl}
 28c:	08770002 	ldmdaeq	r7!, {r1}^
	...
 298:	0800076c 	stmdaeq	r0, {r2, r3, r5, r6, r8, r9, sl}
 29c:	0800076e 	stmdaeq	r0, {r1, r2, r3, r5, r6, r8, r9, sl}
 2a0:	007d0002 	rsbseq	r0, sp, r2
 2a4:	0800076e 	stmdaeq	r0, {r1, r2, r3, r5, r6, r8, r9, sl}
 2a8:	08000770 	stmdaeq	r0, {r4, r5, r6, r8, r9, sl}
 2ac:	087d0002 	ldmdaeq	sp!, {r1}^
 2b0:	08000770 	stmdaeq	r0, {r4, r5, r6, r8, r9, sl}
 2b4:	08000790 	stmdaeq	r0, {r4, r7, r8, r9, sl}
 2b8:	08770002 	ldmdaeq	r7!, {r1}^
	...
 2c4:	08000748 	stmdaeq	r0, {r3, r6, r8, r9, sl}
 2c8:	0800074a 	stmdaeq	r0, {r1, r3, r6, r8, r9, sl}
 2cc:	007d0002 	rsbseq	r0, sp, r2
 2d0:	0800074a 	stmdaeq	r0, {r1, r3, r6, r8, r9, sl}
 2d4:	0800074c 	stmdaeq	r0, {r2, r3, r6, r8, r9, sl}
 2d8:	087d0002 	ldmdaeq	sp!, {r1}^
 2dc:	0800074c 	stmdaeq	r0, {r2, r3, r6, r8, r9, sl}
 2e0:	0800076c 	stmdaeq	r0, {r2, r3, r5, r6, r8, r9, sl}
 2e4:	08770002 	ldmdaeq	r7!, {r1}^
	...
 2f8:	007d0002 	rsbseq	r0, sp, r2
	...
 304:	087d0002 	ldmdaeq	sp!, {r1}^
	...
 310:	107d0002 	rsbsne	r0, sp, r2
	...
 31c:	10770002 	rsbsne	r0, r7, r2
	...
 328:	08770002 	ldmdaeq	r7!, {r1}^
	...
 334:	087d0002 	ldmdaeq	sp!, {r1}^
	...
 340:	08000730 	stmdaeq	r0, {r4, r5, r8, r9, sl}
 344:	08000732 	stmdaeq	r0, {r1, r4, r5, r8, r9, sl}
 348:	007d0002 	rsbseq	r0, sp, r2
 34c:	08000732 	stmdaeq	r0, {r1, r4, r5, r8, r9, sl}
 350:	08000734 	stmdaeq	r0, {r2, r4, r5, r8, r9, sl}
 354:	087d0002 	ldmdaeq	sp!, {r1}^
 358:	08000734 	stmdaeq	r0, {r2, r4, r5, r8, r9, sl}
 35c:	08000736 	stmdaeq	r0, {r1, r2, r4, r5, r8, r9, sl}
 360:	107d0002 	rsbsne	r0, sp, r2
 364:	08000736 	stmdaeq	r0, {r1, r2, r4, r5, r8, r9, sl}
 368:	08000742 	stmdaeq	r0, {r1, r6, r8, r9, sl}
 36c:	10770002 	rsbsne	r0, r7, r2
 370:	08000742 	stmdaeq	r0, {r1, r6, r8, r9, sl}
 374:	08000744 	stmdaeq	r0, {r2, r6, r8, r9, sl}
 378:	08770002 	ldmdaeq	r7!, {r1}^
 37c:	08000744 	stmdaeq	r0, {r2, r6, r8, r9, sl}
 380:	08000746 	stmdaeq	r0, {r1, r2, r6, r8, r9, sl}
 384:	087d0002 	ldmdaeq	sp!, {r1}^
	...
 398:	007d0002 	rsbseq	r0, sp, r2
	...
 3a4:	047d0002 	ldrbteq	r0, [sp], #-2
	...
 3b0:	04770002 	ldrbteq	r0, [r7], #-2
	...
 3bc:	047d0002 	ldrbteq	r0, [sp], #-2
	...
 3c8:	007d0002 	rsbseq	r0, sp, r2
	...
 3d4:	08000558 	stmdaeq	r0, {r3, r4, r6, r8, sl}
 3d8:	0800055a 	stmdaeq	r0, {r1, r3, r4, r6, r8, sl}
 3dc:	007d0002 	rsbseq	r0, sp, r2
 3e0:	0800055a 	stmdaeq	r0, {r1, r3, r4, r6, r8, sl}
 3e4:	0800055c 	stmdaeq	r0, {r2, r3, r4, r6, r8, sl}
 3e8:	087d0002 	ldmdaeq	sp!, {r1}^
 3ec:	0800055c 	stmdaeq	r0, {r2, r3, r4, r6, r8, sl}
 3f0:	0800055e 	stmdaeq	r0, {r1, r2, r3, r4, r6, r8, sl}
 3f4:	187d0002 	ldmdane	sp!, {r1}^
 3f8:	0800055e 	stmdaeq	r0, {r1, r2, r3, r4, r6, r8, sl}
 3fc:	08000710 	stmdaeq	r0, {r4, r8, r9, sl}
 400:	18770002 	ldmdane	r7!, {r1}^
 404:	08000710 	stmdaeq	r0, {r4, r8, r9, sl}
 408:	08000712 	stmdaeq	r0, {r1, r4, r8, r9, sl}
 40c:	08770002 	ldmdaeq	r7!, {r1}^
 410:	08000712 	stmdaeq	r0, {r1, r4, r8, r9, sl}
 414:	08000730 	stmdaeq	r0, {r4, r5, r8, r9, sl}
 418:	087d0002 	ldmdaeq	sp!, {r1}^
	...
 424:	0800048c 	stmdaeq	r0, {r2, r3, r7, sl}
 428:	0800048e 	stmdaeq	r0, {r1, r2, r3, r7, sl}
 42c:	007d0002 	rsbseq	r0, sp, r2
 430:	0800048e 	stmdaeq	r0, {r1, r2, r3, r7, sl}
 434:	08000490 	stmdaeq	r0, {r4, r7, sl}
 438:	047d0002 	ldrbteq	r0, [sp], #-2
 43c:	08000490 	stmdaeq	r0, {r4, r7, sl}
 440:	08000492 	stmdaeq	r0, {r1, r4, r7, sl}
 444:	107d0002 	rsbsne	r0, sp, r2
 448:	08000492 	stmdaeq	r0, {r1, r4, r7, sl}
 44c:	0800054a 	stmdaeq	r0, {r1, r3, r6, r8, sl}
 450:	10770002 	rsbsne	r0, r7, r2
 454:	0800054a 	stmdaeq	r0, {r1, r3, r6, r8, sl}
 458:	0800054c 	stmdaeq	r0, {r2, r3, r6, r8, sl}
 45c:	04770002 	ldrbteq	r0, [r7], #-2
 460:	0800054c 	stmdaeq	r0, {r2, r3, r6, r8, sl}
 464:	0800054e 	stmdaeq	r0, {r1, r2, r3, r6, r8, sl}
 468:	047d0002 	ldrbteq	r0, [sp], #-2
 46c:	0800054e 	stmdaeq	r0, {r1, r2, r3, r6, r8, sl}
 470:	08000558 	stmdaeq	r0, {r3, r4, r6, r8, sl}
 474:	007d0002 	rsbseq	r0, sp, r2
	...
 480:	080003c0 	stmdaeq	r0, {r6, r7, r8, r9}
 484:	080003c2 	stmdaeq	r0, {r1, r6, r7, r8, r9}
 488:	007d0002 	rsbseq	r0, sp, r2
 48c:	080003c2 	stmdaeq	r0, {r1, r6, r7, r8, r9}
 490:	080003c4 	stmdaeq	r0, {r2, r6, r7, r8, r9}
 494:	047d0002 	ldrbteq	r0, [sp], #-2
 498:	080003c4 	stmdaeq	r0, {r2, r6, r7, r8, r9}
 49c:	080003c6 	stmdaeq	r0, {r1, r2, r6, r7, r8, r9}
 4a0:	107d0002 	rsbsne	r0, sp, r2
 4a4:	080003c6 	stmdaeq	r0, {r1, r2, r6, r7, r8, r9}
 4a8:	0800047e 	stmdaeq	r0, {r1, r2, r3, r4, r5, r6, sl}
 4ac:	10770002 	rsbsne	r0, r7, r2
 4b0:	0800047e 	stmdaeq	r0, {r1, r2, r3, r4, r5, r6, sl}
 4b4:	08000480 	stmdaeq	r0, {r7, sl}
 4b8:	04770002 	ldrbteq	r0, [r7], #-2
 4bc:	08000480 	stmdaeq	r0, {r7, sl}
 4c0:	08000482 	stmdaeq	r0, {r1, r7, sl}
 4c4:	047d0002 	ldrbteq	r0, [sp], #-2
 4c8:	08000482 	stmdaeq	r0, {r1, r7, sl}
 4cc:	0800048c 	stmdaeq	r0, {r2, r3, r7, sl}
 4d0:	007d0002 	rsbseq	r0, sp, r2
	...
 4e4:	007d0002 	rsbseq	r0, sp, r2
	...
 4f0:	047d0002 	ldrbteq	r0, [sp], #-2
	...
 4fc:	187d0002 	ldmdane	sp!, {r1}^
	...
 508:	18770002 	ldmdane	r7!, {r1}^
	...
 514:	04770002 	ldrbteq	r0, [r7], #-2
	...
 520:	047d0002 	ldrbteq	r0, [sp], #-2
	...
 52c:	007d0002 	rsbseq	r0, sp, r2
	...
 540:	007d0002 	rsbseq	r0, sp, r2
	...
 54c:	047d0002 	ldrbteq	r0, [sp], #-2
	...
 558:	107d0002 	rsbsne	r0, sp, r2
	...
 564:	10770002 	rsbsne	r0, r7, r2
	...
 570:	04770002 	ldrbteq	r0, [r7], #-2
	...
 57c:	047d0002 	ldrbteq	r0, [sp], #-2
	...
 588:	007d0002 	rsbseq	r0, sp, r2
	...
 59c:	007d0002 	rsbseq	r0, sp, r2
	...
 5a8:	047d0002 	ldrbteq	r0, [sp], #-2
	...
 5b4:	107d0002 	rsbsne	r0, sp, r2
	...
 5c0:	10770002 	rsbsne	r0, r7, r2
	...
 5cc:	04770002 	ldrbteq	r0, [r7], #-2
	...
 5d8:	047d0002 	ldrbteq	r0, [sp], #-2
	...
 5e4:	007d0002 	rsbseq	r0, sp, r2
	...
 5f8:	007d0002 	rsbseq	r0, sp, r2
	...
 604:	047d0002 	ldrbteq	r0, [sp], #-2
	...
 610:	107d0002 	rsbsne	r0, sp, r2
	...
 61c:	10770002 	rsbsne	r0, r7, r2
	...
 628:	04770002 	ldrbteq	r0, [r7], #-2
	...
 634:	047d0002 	ldrbteq	r0, [sp], #-2
	...
 640:	007d0002 	rsbseq	r0, sp, r2
	...
 654:	007d0002 	rsbseq	r0, sp, r2
	...
 660:	047d0002 	ldrbteq	r0, [sp], #-2
	...
 66c:	187d0002 	ldmdane	sp!, {r1}^
	...
 678:	18770002 	ldmdane	r7!, {r1}^
	...
 684:	04770002 	ldrbteq	r0, [r7], #-2
	...
 690:	047d0002 	ldrbteq	r0, [sp], #-2
	...
 69c:	007d0002 	rsbseq	r0, sp, r2
	...
 6b0:	007d0002 	rsbseq	r0, sp, r2
	...
 6bc:	047d0002 	ldrbteq	r0, [sp], #-2
	...
 6c8:	187d0002 	ldmdane	sp!, {r1}^
	...
 6d4:	18770002 	ldmdane	r7!, {r1}^
	...
 6e0:	04770002 	ldrbteq	r0, [r7], #-2
	...
 6ec:	047d0002 	ldrbteq	r0, [sp], #-2
	...
 6f8:	007d0002 	rsbseq	r0, sp, r2
	...
 70c:	007d0002 	rsbseq	r0, sp, r2
	...
 718:	047d0002 	ldrbteq	r0, [sp], #-2
	...
 724:	107d0002 	rsbsne	r0, sp, r2
	...
 730:	10770002 	rsbsne	r0, r7, r2
	...
 73c:	04770002 	ldrbteq	r0, [r7], #-2
	...
 748:	047d0002 	ldrbteq	r0, [sp], #-2
	...
 754:	007d0002 	rsbseq	r0, sp, r2
	...
 760:	08000a2e 	stmdaeq	r0, {r1, r2, r3, r5, r9, fp}
 764:	08000a30 	stmdaeq	r0, {r4, r5, r9, fp}
 768:	007d0002 	rsbseq	r0, sp, r2
 76c:	08000a30 	stmdaeq	r0, {r4, r5, r9, fp}
 770:	08000a32 	stmdaeq	r0, {r1, r4, r5, r9, fp}
 774:	0c7d0002 	ldcleq	0, cr0, [sp], #-8
 778:	08000a32 	stmdaeq	r0, {r1, r4, r5, r9, fp}
 77c:	08000a34 	stmdaeq	r0, {r2, r4, r5, r9, fp}
 780:	207d0002 	rsbscs	r0, sp, r2
 784:	08000a34 	stmdaeq	r0, {r2, r4, r5, r9, fp}
 788:	08000b28 	stmdaeq	r0, {r3, r5, r8, r9, fp}
 78c:	20770002 	rsbscs	r0, r7, r2
 790:	08000b28 	stmdaeq	r0, {r3, r5, r8, r9, fp}
 794:	08000b2a 	stmdaeq	r0, {r1, r3, r5, r8, r9, fp}
 798:	0c770002 	ldcleq	0, cr0, [r7], #-8
 79c:	08000b2a 	stmdaeq	r0, {r1, r3, r5, r8, r9, fp}
 7a0:	08000b2c 	stmdaeq	r0, {r2, r3, r5, r8, r9, fp}
 7a4:	0c7d0002 	ldcleq	0, cr0, [sp], #-8
	...
 7b0:	08000968 	stmdaeq	r0, {r3, r5, r6, r8, fp}
 7b4:	0800096a 	stmdaeq	r0, {r1, r3, r5, r6, r8, fp}
 7b8:	007d0002 	rsbseq	r0, sp, r2
 7bc:	0800096a 	stmdaeq	r0, {r1, r3, r5, r6, r8, fp}
 7c0:	0800096c 	stmdaeq	r0, {r2, r3, r5, r6, r8, fp}
 7c4:	047d0002 	ldrbteq	r0, [sp], #-2
 7c8:	0800096c 	stmdaeq	r0, {r2, r3, r5, r6, r8, fp}
 7cc:	0800096e 	stmdaeq	r0, {r1, r2, r3, r5, r6, r8, fp}
 7d0:	107d0002 	rsbsne	r0, sp, r2
 7d4:	0800096e 	stmdaeq	r0, {r1, r2, r3, r5, r6, r8, fp}
 7d8:	08000a28 	stmdaeq	r0, {r3, r5, r9, fp}
 7dc:	10770002 	rsbsne	r0, r7, r2
 7e0:	08000a28 	stmdaeq	r0, {r3, r5, r9, fp}
 7e4:	08000a2a 	stmdaeq	r0, {r1, r3, r5, r9, fp}
 7e8:	04770002 	ldrbteq	r0, [r7], #-2
 7ec:	08000a2a 	stmdaeq	r0, {r1, r3, r5, r9, fp}
 7f0:	08000a2c 	stmdaeq	r0, {r2, r3, r5, r9, fp}
 7f4:	047d0002 	ldrbteq	r0, [sp], #-2
 7f8:	08000a2c 	stmdaeq	r0, {r2, r3, r5, r9, fp}
 7fc:	08000a2e 	stmdaeq	r0, {r1, r2, r3, r5, r9, fp}
 800:	007d0002 	rsbseq	r0, sp, r2
	...

Disassembly of section .debug_aranges:

00000000 <.debug_aranges>:
   0:	00000044 	andeq	r0, r0, r4, asr #32
   4:	00000002 	andeq	r0, r0, r2
   8:	00040000 	andeq	r0, r4, r0
   c:	00000000 	andeq	r0, r0, r0
  10:	08000170 	stmdaeq	r0, {r4, r5, r6, r8}
  14:	0000001c 	andeq	r0, r0, ip, lsl r0
  18:	0800018c 	stmdaeq	r0, {r2, r3, r7, r8}
  1c:	00000044 	andeq	r0, r0, r4, asr #32
  20:	080001d0 	stmdaeq	r0, {r4, r6, r7, r8}
  24:	00000020 	andeq	r0, r0, r0, lsr #32
  28:	080001f0 	stmdaeq	r0, {r4, r5, r6, r7, r8}
  2c:	00000026 	andeq	r0, r0, r6, lsr #32
  30:	08000218 	stmdaeq	r0, {r3, r4, r9}
  34:	000000fc 	strdeq	r0, [r0], -ip
  38:	08000314 	stmdaeq	r0, {r2, r4, r8, r9}
  3c:	00000058 	andeq	r0, r0, r8, asr r0
	...
  48:	00000024 	andeq	r0, r0, r4, lsr #32
  4c:	0d260002 	stceq	0, cr0, [r6, #-8]!
  50:	00040000 	andeq	r0, r4, r0
  54:	00000000 	andeq	r0, r0, r0
  58:	0800036c 	stmdaeq	r0, {r2, r3, r5, r6, r8, r9}
  5c:	00000050 	andeq	r0, r0, r0, asr r0
  60:	080003bc 	stmdaeq	r0, {r2, r3, r4, r5, r7, r8, r9}
  64:	00000002 	andeq	r0, r0, r2
	...
  70:	0000007c 	andeq	r0, r0, ip, ror r0
  74:	0d480002 	stcleq	0, cr0, [r8, #-8]
  78:	00040000 	andeq	r0, r4, r0
  7c:	00000000 	andeq	r0, r0, r0
  80:	080003c0 	stmdaeq	r0, {r6, r7, r8, r9}
  84:	000000cc 	andeq	r0, r0, ip, asr #1
  88:	0800048c 	stmdaeq	r0, {r2, r3, r7, sl}
  8c:	000000cc 	andeq	r0, r0, ip, asr #1
  90:	08000558 	stmdaeq	r0, {r3, r4, r6, r8, sl}
  94:	000001d8 	ldrdeq	r0, [r0], -r8
  98:	00000000 	andeq	r0, r0, r0
  9c:	00000098 	muleq	r0, r8, r0
  a0:	08000730 	stmdaeq	r0, {r4, r5, r8, r9, sl}
  a4:	00000016 	andeq	r0, r0, r6, lsl r0
  a8:	00000000 	andeq	r0, r0, r0
  ac:	00000016 	andeq	r0, r0, r6, lsl r0
  b0:	08000748 	stmdaeq	r0, {r3, r6, r8, r9, sl}
  b4:	00000024 	andeq	r0, r0, r4, lsr #32
  b8:	0800076c 	stmdaeq	r0, {r2, r3, r5, r6, r8, r9, sl}
  bc:	00000024 	andeq	r0, r0, r4, lsr #32
  c0:	08000790 	stmdaeq	r0, {r4, r7, r8, r9, sl}
  c4:	00000024 	andeq	r0, r0, r4, lsr #32
  c8:	080007b4 	stmdaeq	r0, {r2, r4, r5, r7, r8, r9, sl}
  cc:	00000024 	andeq	r0, r0, r4, lsr #32
  d0:	080007d8 	stmdaeq	r0, {r3, r4, r6, r7, r8, r9, sl}
  d4:	00000024 	andeq	r0, r0, r4, lsr #32
  d8:	080007fc 	stmdaeq	r0, {r2, r3, r4, r5, r6, r7, r8, r9, sl}
  dc:	000000a8 	andeq	r0, r0, r8, lsr #1
  e0:	080008a4 	stmdaeq	r0, {r2, r5, r7, fp}
  e4:	000000c4 	andeq	r0, r0, r4, asr #1
	...
  f0:	0000005c 	andeq	r0, r0, ip, asr r0
  f4:	1b070002 	blne	1c0104 <_Min_Stack_Size+0x1bfd04>
  f8:	00040000 	andeq	r0, r4, r0
  fc:	00000000 	andeq	r0, r0, r0
 100:	08000968 	stmdaeq	r0, {r3, r5, r6, r8, fp}
 104:	000000c6 	andeq	r0, r0, r6, asr #1
 108:	08000a2e 	stmdaeq	r0, {r1, r2, r3, r5, r9, fp}
 10c:	000000fe 	strdeq	r0, [r0], -lr
 110:	00000000 	andeq	r0, r0, r0
 114:	000000d4 	ldrdeq	r0, [r0], -r4
 118:	00000000 	andeq	r0, r0, r0
 11c:	0000002e 	andeq	r0, r0, lr, lsr #32
 120:	00000000 	andeq	r0, r0, r0
 124:	0000001a 	andeq	r0, r0, sl, lsl r0
 128:	00000000 	andeq	r0, r0, r0
 12c:	0000002e 	andeq	r0, r0, lr, lsr #32
 130:	00000000 	andeq	r0, r0, r0
 134:	0000001c 	andeq	r0, r0, ip, lsl r0
 138:	00000000 	andeq	r0, r0, r0
 13c:	00000022 	andeq	r0, r0, r2, lsr #32
 140:	00000000 	andeq	r0, r0, r0
 144:	0000004e 	andeq	r0, r0, lr, asr #32
	...

Disassembly of section .debug_ranges:

00000000 <.debug_ranges>:
   0:	08000170 	stmdaeq	r0, {r4, r5, r6, r8}
   4:	0800018c 	stmdaeq	r0, {r2, r3, r7, r8}
   8:	0800018c 	stmdaeq	r0, {r2, r3, r7, r8}
   c:	080001d0 	stmdaeq	r0, {r4, r6, r7, r8}
  10:	080001d0 	stmdaeq	r0, {r4, r6, r7, r8}
  14:	080001f0 	stmdaeq	r0, {r4, r5, r6, r7, r8}
  18:	080001f0 	stmdaeq	r0, {r4, r5, r6, r7, r8}
  1c:	08000216 	stmdaeq	r0, {r1, r2, r4, r9}
  20:	08000218 	stmdaeq	r0, {r3, r4, r9}
  24:	08000314 	stmdaeq	r0, {r2, r4, r8, r9}
  28:	08000314 	stmdaeq	r0, {r2, r4, r8, r9}
  2c:	0800036c 	stmdaeq	r0, {r2, r3, r5, r6, r8, r9}
	...
  38:	ffffffff 			; <UNDEFINED> instruction: 0xffffffff
  3c:	00000000 	andeq	r0, r0, r0
  40:	0800036c 	stmdaeq	r0, {r2, r3, r5, r6, r8, r9}
  44:	080003bc 	stmdaeq	r0, {r2, r3, r4, r5, r7, r8, r9}
  48:	080003bc 	stmdaeq	r0, {r2, r3, r4, r5, r7, r8, r9}
  4c:	080003be 	stmdaeq	r0, {r1, r2, r3, r4, r5, r7, r8, r9}
	...
  58:	080003c0 	stmdaeq	r0, {r6, r7, r8, r9}
  5c:	0800048c 	stmdaeq	r0, {r2, r3, r7, sl}
  60:	0800048c 	stmdaeq	r0, {r2, r3, r7, sl}
  64:	08000558 	stmdaeq	r0, {r3, r4, r6, r8, sl}
  68:	08000558 	stmdaeq	r0, {r3, r4, r6, r8, sl}
  6c:	08000730 	stmdaeq	r0, {r4, r5, r8, r9, sl}
  70:	00000001 	andeq	r0, r0, r1
  74:	00000001 	andeq	r0, r0, r1
  78:	08000730 	stmdaeq	r0, {r4, r5, r8, r9, sl}
  7c:	08000746 	stmdaeq	r0, {r1, r2, r6, r8, r9, sl}
  80:	00000001 	andeq	r0, r0, r1
  84:	00000001 	andeq	r0, r0, r1
  88:	08000748 	stmdaeq	r0, {r3, r6, r8, r9, sl}
  8c:	0800076c 	stmdaeq	r0, {r2, r3, r5, r6, r8, r9, sl}
  90:	0800076c 	stmdaeq	r0, {r2, r3, r5, r6, r8, r9, sl}
  94:	08000790 	stmdaeq	r0, {r4, r7, r8, r9, sl}
  98:	08000790 	stmdaeq	r0, {r4, r7, r8, r9, sl}
  9c:	080007b4 	stmdaeq	r0, {r2, r4, r5, r7, r8, r9, sl}
  a0:	080007b4 	stmdaeq	r0, {r2, r4, r5, r7, r8, r9, sl}
  a4:	080007d8 	stmdaeq	r0, {r3, r4, r6, r7, r8, r9, sl}
  a8:	080007d8 	stmdaeq	r0, {r3, r4, r6, r7, r8, r9, sl}
  ac:	080007fc 	stmdaeq	r0, {r2, r3, r4, r5, r6, r7, r8, r9, sl}
  b0:	080007fc 	stmdaeq	r0, {r2, r3, r4, r5, r6, r7, r8, r9, sl}
  b4:	080008a4 	stmdaeq	r0, {r2, r5, r7, fp}
  b8:	080008a4 	stmdaeq	r0, {r2, r5, r7, fp}
  bc:	08000968 	stmdaeq	r0, {r3, r5, r6, r8, fp}
	...
  c8:	08000968 	stmdaeq	r0, {r3, r5, r6, r8, fp}
  cc:	08000a2e 	stmdaeq	r0, {r1, r2, r3, r5, r9, fp}
  d0:	08000a2e 	stmdaeq	r0, {r1, r2, r3, r5, r9, fp}
  d4:	08000b2c 	stmdaeq	r0, {r2, r3, r5, r8, r9, fp}
  d8:	00000001 	andeq	r0, r0, r1
  dc:	00000001 	andeq	r0, r0, r1
  e0:	00000001 	andeq	r0, r0, r1
  e4:	00000001 	andeq	r0, r0, r1
  e8:	00000001 	andeq	r0, r0, r1
  ec:	00000001 	andeq	r0, r0, r1
  f0:	00000001 	andeq	r0, r0, r1
  f4:	00000001 	andeq	r0, r0, r1
  f8:	00000001 	andeq	r0, r0, r1
  fc:	00000001 	andeq	r0, r0, r1
 100:	00000001 	andeq	r0, r0, r1
 104:	00000001 	andeq	r0, r0, r1
 108:	00000001 	andeq	r0, r0, r1
 10c:	00000001 	andeq	r0, r0, r1
	...

Disassembly of section .debug_macro:

00000000 <.debug_macro>:
   0:	00020004 	andeq	r0, r2, r4
   4:	07000000 	streq	r0, [r0, -r0]
   8:	00000000 	andeq	r0, r0, r0
   c:	03010003 	movweq	r0, #4099	; 0x1003
  10:	09050b1b 	stmdbeq	r5, {r0, r1, r3, r4, r8, r9, fp}
  14:	00004dbc 			; <UNDEFINED> instruction: 0x00004dbc
  18:	05090f03 	streq	r0, [r9, #-3843]	; 0xfffff0fd
  1c:	00467409 	subeq	r7, r6, r9, lsl #8
  20:	07100300 	ldreq	r0, [r0, -r0, lsl #6]
  24:	7e650805 	cdpvc	8, 6, cr0, cr5, cr5, {0}
  28:	0a030000 	beq	c0030 <_Min_Stack_Size+0xbfc30>
  2c:	0000070c 	andeq	r0, r0, ip, lsl #14
  30:	03040000 	movweq	r0, #16384	; 0x4000
  34:	08050d0b 	stmdaeq	r5, {r0, r1, r3, r8, sl, fp}
  38:	0000559c 	muleq	r0, ip, r5
  3c:	050e0a03 	streq	r0, [lr, #-2563]	; 0xfffff5fd
  40:	0013d008 	andseq	sp, r3, r8
  44:	0f0e0300 	svceq	0x000e0300
  48:	00000007 	andeq	r0, r0, r7
  4c:	00070400 	andeq	r0, r7, r0, lsl #8
  50:	04000000 	streq	r0, [r0], #-0
  54:	05100b03 	ldreq	r0, [r0, #-2819]	; 0xfffff4fd
  58:	007d2602 	rsbseq	r2, sp, r2, lsl #12
  5c:	0c040300 	stceq	3, cr0, [r4], {-0}
  60:	11050304 	tstne	r5, r4, lsl #6
  64:	00000007 	andeq	r0, r0, r7
  68:	00070400 	andeq	r0, r7, r0, lsl #8
  6c:	04000000 	streq	r0, [r0], #-0
  70:	00000007 	andeq	r0, r0, r7
  74:	00070400 	andeq	r0, r7, r0, lsl #8
  78:	03000000 	movweq	r0, #0
  7c:	00070510 	andeq	r0, r7, r0, lsl r5
  80:	04000000 	streq	r0, [r0], #-0
  84:	05061203 	streq	r1, [r6, #-515]	; 0xfffffdfd
  88:	0058d50b 	subseq	sp, r8, fp, lsl #10
  8c:	0d0d0300 	stceq	3, cr0, [sp, #-0]
  90:	050e0304 	streq	r0, [lr, #-772]	; 0xfffffcfc
  94:	00000007 	andeq	r0, r0, r7
  98:	0f030400 	svceq	0x00030400
  9c:	6b140504 	blvs	5014b4 <_Min_Stack_Size+0x5010b4>
  a0:	03000081 	movweq	r0, #129	; 0x81
  a4:	06051218 			; <UNDEFINED> instruction: 0x06051218
  a8:	00007406 	andeq	r7, r0, r6, lsl #8
  ac:	07020703 	streq	r0, [r2, -r3, lsl #14]
  b0:	00000000 	andeq	r0, r0, r0
  b4:	19030404 	stmdbne	r3, {r2, sl}
  b8:	00000703 	andeq	r0, r0, r3, lsl #14
  bc:	07040000 	streq	r0, [r4, -r0]
  c0:	00000000 	andeq	r0, r0, r0
  c4:	05019f03 	streq	r9, [r1, #-3843]	; 0xfffff0fd
  c8:	00000007 	andeq	r0, r0, r7
  cc:	00070400 	andeq	r0, r7, r0, lsl #8
  d0:	04000000 	streq	r0, [r0], #-0
  d4:	00000007 	andeq	r0, r0, r7
  d8:	13030400 	movwne	r0, #13312	; 0x3400
  dc:	59290513 	stmdbpl	r9!, {r0, r1, r4, r8, sl}
  e0:	03000089 	movweq	r0, #137	; 0x89
  e4:	0704052d 	streq	r0, [r4, -sp, lsr #10]
  e8:	00000000 	andeq	r0, r0, r0
  ec:	14140304 	ldrne	r0, [r4], #-772	; 0xfffffcfc
  f0:	23db0205 	bicscs	r0, fp, #1342177280	; 0x50000000
  f4:	03040000 	movweq	r0, #16384	; 0x4000
  f8:	00071516 	andeq	r1, r7, r6, lsl r5
  fc:	04000000 	streq	r0, [r0], #-0
 100:	00000007 	andeq	r0, r0, r7
 104:	11030400 	tstne	r3, r0, lsl #8
 108:	17090316 	smladne	r9, r6, r3, r0
 10c:	07a80a05 	streq	r0, [r8, r5, lsl #20]!
 110:	0d030000 	stceq	0, cr0, [r3, #-0]
 114:	00000718 	andeq	r0, r0, r8, lsl r7
 118:	03040000 	movweq	r0, #16384	; 0x4000
 11c:	0007080e 	andeq	r0, r7, lr, lsl #16
 120:	04000000 	streq	r0, [r0], #-0
 124:	00000007 	andeq	r0, r0, r7
 128:	0d050400 	cfstrseq	mvf0, [r5, #-0]
 12c:	0000079f 	muleq	r0, pc, r7	; <UNPREDICTABLE>
 130:	00000704 	andeq	r0, r0, r4, lsl #14
 134:	07040000 	streq	r0, [r4, -r0]
 138:	00000000 	andeq	r0, r0, r0
 13c:	0a1c0304 	beq	700d54 <_Min_Stack_Size+0x700954>
 140:	1aab0905 	bne	feac255c <_estack+0xdeabfd5c>
 144:	0e030000 	cdpeq	0, 0, cr0, cr3, cr0, {0}
 148:	bc07040b 	cfstrslt	mvf0, [r7], {11}
 14c:	04000001 	streq	r0, [r0], #-1
 150:	04091d03 	streq	r1, [r9], #-3331	; 0xfffff2fd
 154:	05191e03 	ldreq	r1, [r9, #-3587]	; 0xfffff1fd
 158:	007adb09 	rsbseq	sp, sl, r9, lsl #22
 15c:	1a0c0300 	bne	300d64 <_Min_Stack_Size+0x300964>
 160:	00000007 	andeq	r0, r0, r7
 164:	0f030400 	svceq	0x00030400
 168:	1a09051b 	bne	2415dc <_Min_Stack_Size+0x2411dc>
 16c:	04000034 	streq	r0, [r0], #-52	; 0xffffffcc
 170:	00000007 	andeq	r0, r0, r7
 174:	1f030400 	svcne	0x00030400
 178:	a109051c 	tstge	r9, ip, lsl r5
 17c:	0300000c 	movweq	r0, #12
 180:	0504190e 	streq	r1, [r4, #-2318]	; 0xfffff6f2
 184:	00331610 	eorseq	r1, r3, r0, lsl r6
 188:	26050400 	strcs	r0, [r5], -r0, lsl #8
 18c:	000090ab 	andeq	r9, r0, fp, lsr #1
 190:	8c1b2705 	ldchi	7, cr2, [fp], {5}
 194:	36050000 	strcc	r0, [r5], -r0
 198:	00000a23 	andeq	r0, r0, r3, lsr #20
 19c:	353e3805 	ldrcc	r3, [lr, #-2053]!	; 0xfffff7fb
 1a0:	3a050000 	bcc	1401a8 <_Min_Stack_Size+0x13fda8>
 1a4:	000069d4 	ldrdeq	r6, [r0], -r4
 1a8:	4efe3c05 	cdpmi	12, 15, cr3, cr14, cr5, {0}
 1ac:	3e050000 	cdpcc	0, 0, cr0, cr5, cr0, {0}
 1b0:	000055cf 	andeq	r5, r0, pc, asr #11
 1b4:	21074005 	tstcs	r7, r5
 1b8:	00040000 	andeq	r0, r4, r0
 1bc:	05000004 	streq	r0, [r0, #-4]
 1c0:	0033c836 	eorseq	ip, r3, r6, lsr r8
 1c4:	c3370500 	teqgt	r7, #0, 10
 1c8:	05000060 	streq	r0, [r0, #-96]	; 0xffffffa0
 1cc:	006ec738 	rsbeq	ip, lr, r8, lsr r7
 1d0:	51390500 	teqpl	r9, r0, lsl #10
 1d4:	0500008a 	streq	r0, [r0, #-138]	; 0xffffff76
 1d8:	0061c03a 	rsbeq	ip, r1, sl, lsr r0
 1dc:	b13b0500 	teqlt	fp, r0, lsl #10
 1e0:	05000034 	streq	r0, [r0, #-52]	; 0xffffffcc
 1e4:	00577b3c 	subseq	r7, r7, ip, lsr fp
 1e8:	713d0500 	teqvc	sp, r0, lsl #10
 1ec:	0500007e 	streq	r0, [r0, #-126]	; 0xffffff82
 1f0:	008b8b3e 	addeq	r8, fp, lr, lsr fp
 1f4:	023f0500 	eorseq	r0, pc, #0, 10
 1f8:	05000065 	streq	r0, [r0, #-101]	; 0xffffff9b
 1fc:	000e7e40 	andeq	r7, lr, r0, asr #28
 200:	00410500 	subeq	r0, r1, r0, lsl #10
 204:	0500005b 	streq	r0, [r0, #-91]	; 0xffffffa5
 208:	000f3d42 	andeq	r3, pc, r2, asr #26
 20c:	a9430500 	stmdbge	r3, {r8, sl}^
 210:	0500008a 	streq	r0, [r0, #-138]	; 0xffffff76
 214:	00110744 	andseq	r0, r1, r4, asr #14
 218:	9d450500 	cfstr64ls	mvdx0, [r5, #-0]
 21c:	0500005d 	streq	r0, [r0, #-93]	; 0xffffffa3
 220:	002de74d 	eoreq	lr, sp, sp, asr #14
 224:	e84e0500 	stmda	lr, {r8, sl}^
 228:	05000087 	streq	r0, [r0, #-135]	; 0xffffff79
 22c:	005eb14f 	subseq	fp, lr, pc, asr #2
 230:	c9500500 	ldmdbgt	r0, {r8, sl}^
 234:	0500008a 	streq	r0, [r0, #-138]	; 0xffffff76
 238:	00868154 	addeq	r8, r6, r4, asr r1
 23c:	ef550500 	svc	0x00550500
 240:	05000034 	streq	r0, [r0, #-52]	; 0xffffffcc
 244:	00325f56 	eorseq	r5, r2, r6, asr pc
 248:	7f570500 	svcvc	0x00570500
 24c:	0500006d 	streq	r0, [r0, #-109]	; 0xffffff93
 250:	0026a05b 	eoreq	sl, r6, fp, asr r0
 254:	8c5c0500 	cfldr64hi	mvdx0, [ip], {-0}
 258:	05000072 	streq	r0, [r0, #-114]	; 0xffffff8e
 25c:	002a965d 	eoreq	r9, sl, sp, asr r6
 260:	ab5e0500 	blge	1781668 <_Min_Stack_Size+0x1781268>
 264:	05000075 	streq	r0, [r0, #-117]	; 0xffffff8b
 268:	008fa662 	addeq	sl, pc, r2, ror #12
 26c:	ea630500 	b	18c1674 <_Min_Stack_Size+0x18c1274>
 270:	05000071 	streq	r0, [r0, #-113]	; 0xffffff8f
 274:	0004cd64 	andeq	ip, r4, r4, ror #26
 278:	40650500 	rsbmi	r0, r5, r0, lsl #10
 27c:	05000020 	streq	r0, [r0, #-32]	; 0xffffffe0
 280:	006a1669 	rsbeq	r1, sl, r9, ror #12
 284:	466a0500 	strbtmi	r0, [sl], -r0, lsl #10
 288:	0500005f 	streq	r0, [r0, #-95]	; 0xffffffa1
 28c:	0077026b 	rsbseq	r0, r7, fp, ror #4
 290:	f16c0500 			; <UNDEFINED> instruction: 0xf16c0500
 294:	0500002e 	streq	r0, [r0, #-46]	; 0xffffffd2
 298:	001ed770 	andseq	sp, lr, r0, ror r7
 29c:	46710500 	ldrbtmi	r0, [r1], -r0, lsl #10
 2a0:	05000033 	streq	r0, [r0, #-51]	; 0xffffffcd
 2a4:	00303372 	eorseq	r3, r0, r2, ror r3
 2a8:	3f730500 	svccc	0x00730500
 2ac:	0500006d 	streq	r0, [r0, #-109]	; 0xffffff93
 2b0:	006f7477 	rsbeq	r7, pc, r7, ror r4	; <UNPREDICTABLE>
 2b4:	f7780500 			; <UNDEFINED> instruction: 0xf7780500
 2b8:	05000015 	streq	r0, [r0, #-21]	; 0xffffffeb
 2bc:	00118279 	andseq	r8, r1, r9, ror r2
 2c0:	277a0500 	ldrbcs	r0, [sl, -r0, lsl #10]!
 2c4:	05000090 	streq	r0, [r0, #-144]	; 0xffffff70
 2c8:	0007f87e 	andeq	pc, r7, lr, ror r8	; <UNPREDICTABLE>
 2cc:	e77f0500 	ldrb	r0, [pc, -r0, lsl #10]!
 2d0:	05000074 	streq	r0, [r0, #-116]	; 0xffffff8c
 2d4:	0c2b0180 	stfeqs	f0, [fp], #-512	; 0xfffffe00
 2d8:	81050000 	mrshi	r0, (UNDEF: 5)
 2dc:	005fe401 	subseq	lr, pc, r1, lsl #8
 2e0:	01850500 	orreq	r0, r5, r0, lsl #10
 2e4:	00004286 	andeq	r4, r0, r6, lsl #5
 2e8:	05018605 	streq	r8, [r1, #-1541]	; 0xfffff9fb
 2ec:	0500008e 	streq	r0, [r0, #-142]	; 0xffffff72
 2f0:	871d0187 	ldrhi	r0, [sp, -r7, lsl #3]
 2f4:	88050000 	stmdahi	r5, {}	; <UNPREDICTABLE>
 2f8:	008c3101 	addeq	r3, ip, r1, lsl #2
 2fc:	018c0500 	orreq	r0, ip, r0, lsl #10
 300:	00005801 	andeq	r5, r0, r1, lsl #16
 304:	15018d05 	strne	r8, [r1, #-3333]	; 0xfffff2fb
 308:	05000070 	streq	r0, [r0, #-112]	; 0xffffff90
 30c:	502c018e 	eorpl	r0, ip, lr, lsl #3
 310:	8f050000 	svchi	0x00050000
 314:	000fd201 	andeq	sp, pc, r1, lsl #4
 318:	01930500 	orrseq	r0, r3, r0, lsl #10
 31c:	000030db 	ldrdeq	r3, [r0], -fp
 320:	57019405 	strpl	r9, [r1, -r5, lsl #8]
 324:	05000013 	streq	r0, [r0, #-19]	; 0xffffffed
 328:	0cf80195 	ldfeqe	f0, [r8], #596	; 0x254
 32c:	96050000 	strls	r0, [r5], -r0
 330:	00542801 	subseq	r2, r4, r1, lsl #16
 334:	019a0500 	orrseq	r0, sl, r0, lsl #10
 338:	00000bda 	ldrdeq	r0, [r0], -sl
 33c:	44019b05 	strmi	r9, [r1], #-2821	; 0xfffff4fb
 340:	05000027 	streq	r0, [r0, #-39]	; 0xffffffd9
 344:	20c2019c 	smullcs	r0, r2, ip, r1
 348:	9d050000 	stcls	0, cr0, [r5, #-0]
 34c:	00050d01 	andeq	r0, r5, r1, lsl #26
 350:	01a10500 			; <UNDEFINED> instruction: 0x01a10500
 354:	00003176 	andeq	r3, r0, r6, ror r1
 358:	c101a205 	tstgt	r1, r5, lsl #4
 35c:	05000040 	streq	r0, [r0, #-64]	; 0xffffffc0
 360:	6b8701a3 	blvs	fe1c09f4 <_estack+0xde1be1f4>
 364:	a4050000 	strge	r0, [r5], #-0
 368:	000db501 	andeq	fp, sp, r1, lsl #10
 36c:	01a80500 			; <UNDEFINED> instruction: 0x01a80500
 370:	00004b54 	andeq	r4, r0, r4, asr fp
 374:	9501a905 	strls	sl, [r1, #-2309]	; 0xfffff6fb
 378:	05000068 	streq	r0, [r0, #-104]	; 0xffffff98
 37c:	2eac01aa 	fdvcs<illegal precision>p	f0, f4, #2.0
 380:	ab050000 	blge	140388 <_Min_Stack_Size+0x13ff88>
 384:	00496301 	subeq	r6, r9, r1, lsl #6
 388:	01af0500 			; <UNDEFINED> instruction: 0x01af0500
 38c:	0000059b 	muleq	r0, fp, r5
 390:	9001b005 	andls	fp, r1, r5
 394:	0500002d 	streq	r0, [r0, #-45]	; 0xffffffd3
 398:	2fa201b1 	svccs	0x00a201b1
 39c:	b2050000 	andlt	r0, r5, #0
 3a0:	00014c01 	andeq	r4, r1, r1, lsl #24
 3a4:	01b60500 			; <UNDEFINED> instruction: 0x01b60500
 3a8:	000050d9 	ldrdeq	r5, [r0], -r9
 3ac:	2001b705 	andcs	fp, r1, r5, lsl #14
 3b0:	05000011 	streq	r0, [r0, #-17]	; 0xffffffef
 3b4:	4bcb01b8 	blmi	ff2c0a9c <_estack+0xdf2be29c>
 3b8:	b9050000 	stmdblt	r5, {}	; <UNPREDICTABLE>
 3bc:	00445f01 	subeq	r5, r4, r1, lsl #30
 3c0:	01bd0500 			; <UNDEFINED> instruction: 0x01bd0500
 3c4:	00003300 	andeq	r3, r0, r0, lsl #6
 3c8:	b001be05 	andlt	fp, r1, r5, lsl #28
 3cc:	0500001e 	streq	r0, [r0, #-30]	; 0xffffffe2
 3d0:	5c3601bf 	ldfpls	f0, [r6], #-764	; 0xfffffd04
 3d4:	c4050000 	strgt	r0, [r5], #-0
 3d8:	003dae01 	eorseq	sl, sp, r1, lsl #28
 3dc:	01c50500 	biceq	r0, r5, r0, lsl #10
 3e0:	00005653 	andeq	r5, r0, r3, asr r6
 3e4:	02000400 	andeq	r0, r0, #0, 8
 3e8:	000006fc 	strdeq	r0, [r0], -ip
 3ec:	00000007 	andeq	r0, r0, r7
 3f0:	01000300 	mrseq	r0, LR_irq
 3f4:	050b0903 	streq	r0, [fp, #-2307]	; 0xfffff6fd
 3f8:	001aab09 	andseq	sl, sl, r9, lsl #22
 3fc:	090d0300 	stmdbeq	sp, {r8, r9}
 400:	46740905 	ldrbtmi	r0, [r4], -r5, lsl #18
 404:	10030000 	andne	r0, r3, r0
 408:	65080507 	strvs	r0, [r8, #-1287]	; 0xfffffaf9
 40c:	0300007e 	movweq	r0, #126	; 0x7e
 410:	00070c0a 	andeq	r0, r7, sl, lsl #24
 414:	04000000 	streq	r0, [r0], #-0
 418:	050d0b03 	streq	r0, [sp, #-2819]	; 0xfffff4fd
 41c:	00559c08 	subseq	r9, r5, r8, lsl #24
 420:	0e0a0300 	cdpeq	3, 0, cr0, cr10, cr0, {0}
 424:	13d00805 	bicsne	r0, r0, #327680	; 0x50000
 428:	0e030000 	cdpeq	0, 0, cr0, cr3, cr0, {0}
 42c:	0000070f 	andeq	r0, r0, pc, lsl #14
 430:	07040000 	streq	r0, [r4, -r0]
 434:	00000000 	andeq	r0, r0, r0
 438:	100b0304 	andne	r0, fp, r4, lsl #6
 43c:	7d260205 	sfmvc	f0, 4, [r6, #-20]!	; 0xffffffec
 440:	04030000 	streq	r0, [r3], #-0
 444:	0503040c 	streq	r0, [r3, #-1036]	; 0xfffffbf4
 448:	00000711 	andeq	r0, r0, r1, lsl r7
 44c:	07040000 	streq	r0, [r4, -r0]
 450:	00000000 	andeq	r0, r0, r0
 454:	00000704 	andeq	r0, r0, r4, lsl #14
 458:	07040000 	streq	r0, [r4, -r0]
 45c:	00000000 	andeq	r0, r0, r0
 460:	07051003 	streq	r1, [r5, -r3]
 464:	00000000 	andeq	r0, r0, r0
 468:	06120304 	ldreq	r0, [r2], -r4, lsl #6
 46c:	58d50b05 	ldmpl	r5, {r0, r2, r8, r9, fp}^
 470:	0d030000 	stceq	0, cr0, [r3, #-0]
 474:	0e03040d 	cdpeq	4, 0, cr0, cr3, cr13, {0}
 478:	00000705 	andeq	r0, r0, r5, lsl #14
 47c:	03040000 	movweq	r0, #16384	; 0x4000
 480:	1405040f 	strne	r0, [r5], #-1039	; 0xfffffbf1
 484:	0000816b 	andeq	r8, r0, fp, ror #2
 488:	05121803 	ldreq	r1, [r2, #-2051]	; 0xfffff7fd
 48c:	00740606 	rsbseq	r0, r4, r6, lsl #12
 490:	02070300 	andeq	r0, r7, #0, 6
 494:	00000007 	andeq	r0, r0, r7
 498:	03040400 	movweq	r0, #17408	; 0x4400
 49c:	00070319 	andeq	r0, r7, r9, lsl r3
 4a0:	04000000 	streq	r0, [r0], #-0
 4a4:	00000007 	andeq	r0, r0, r7
 4a8:	019f0300 	orrseq	r0, pc, r0, lsl #6
 4ac:	00000705 	andeq	r0, r0, r5, lsl #14
 4b0:	07040000 	streq	r0, [r4, -r0]
 4b4:	00000000 	andeq	r0, r0, r0
 4b8:	00000704 	andeq	r0, r0, r4, lsl #14
 4bc:	03040000 	movweq	r0, #16384	; 0x4000
 4c0:	29051313 	stmdbcs	r5, {r0, r1, r4, r8, r9, ip}
 4c4:	00008959 	andeq	r8, r0, r9, asr r9
 4c8:	04052d03 	streq	r2, [r5], #-3331	; 0xfffff2fd
 4cc:	00000007 	andeq	r0, r0, r7
 4d0:	14030400 	strne	r0, [r3], #-1024	; 0xfffffc00
 4d4:	db020514 	blle	8192c <_Min_Stack_Size+0x8152c>
 4d8:	04000023 	streq	r0, [r0], #-35	; 0xffffffdd
 4dc:	07151603 	ldreq	r1, [r5, -r3, lsl #12]
 4e0:	00000000 	andeq	r0, r0, r0
 4e4:	00000704 	andeq	r0, r0, r4, lsl #14
 4e8:	03040000 	movweq	r0, #16384	; 0x4000
 4ec:	09031611 	stmdbeq	r3, {r0, r4, r9, sl, ip}
 4f0:	a80a0517 	stmdage	sl, {r0, r1, r2, r4, r8, sl}
 4f4:	03000007 	movweq	r0, #7
 4f8:	0007180d 	andeq	r1, r7, sp, lsl #16
 4fc:	04000000 	streq	r0, [r0], #-0
 500:	07080e03 	streq	r0, [r8, -r3, lsl #28]
 504:	00000000 	andeq	r0, r0, r0
 508:	00000704 	andeq	r0, r0, r4, lsl #14
 50c:	05040000 	streq	r0, [r4, #-0]
 510:	00079f0d 	andeq	r9, r7, sp, lsl #30
 514:	00070400 	andeq	r0, r7, r0, lsl #8
 518:	04000000 	streq	r0, [r0], #-0
 51c:	070a0e03 	streq	r0, [sl, -r3, lsl #28]
 520:	00000537 	andeq	r0, r0, r7, lsr r5
 524:	01bc0704 			; <UNDEFINED> instruction: 0x01bc0704
 528:	03040000 	movweq	r0, #16384	; 0x4000
 52c:	05040a0a 	streq	r0, [r4, #-2570]	; 0xfffff5f6
 530:	00913f1d 	addseq	r3, r1, sp, lsl pc
 534:	04000400 	streq	r0, [r0], #-1024	; 0xfffffc00
 538:	09050000 	stmdbeq	r5, {}	; <UNPREDICTABLE>
 53c:	00004dbc 			; <UNDEFINED> instruction: 0x00004dbc
 540:	60802c05 	addvs	r2, r0, r5, lsl #24
 544:	2d050000 	stccs	0, cr0, [r5, #-0]
 548:	00001e62 	andeq	r1, r0, r2, ror #28
 54c:	53403105 	movtpl	r3, #261	; 0x105
 550:	32050000 	andcc	r0, r5, #0
 554:	00009099 	muleq	r0, r9, r0
 558:	16f33605 	ldrbtne	r3, [r3], r5, lsl #12
 55c:	37050000 	strcc	r0, [r5, -r0]
 560:	00001024 	andeq	r1, r0, r4, lsr #32
 564:	4e803805 	cdpmi	8, 8, cr3, cr0, cr5, {0}
 568:	39050000 	stmdbcc	r5, {}	; <UNPREDICTABLE>
 56c:	00002669 	andeq	r2, r0, r9, ror #12
 570:	8d063a05 	vstrhi	s6, [r6, #-20]	; 0xffffffec
 574:	3b050000 	blcc	14057c <_Min_Stack_Size+0x14017c>
 578:	00006819 	andeq	r6, r0, r9, lsl r8
 57c:	69943c05 	ldmibvs	r4, {r0, r2, sl, fp, ip, sp}
 580:	3d050000 	stccc	0, cr0, [r5, #-0]
 584:	00007378 	andeq	r7, r0, r8, ror r3
 588:	12163e05 	andsne	r3, r6, #5, 28	; 0x50
 58c:	3f050000 	svccc	0x00050000
 590:	0000459e 	muleq	r0, lr, r5
 594:	4fda4005 	svcmi	0x00da4005
 598:	41050000 	mrsmi	r0, (UNDEF: 5)
 59c:	00008b93 	muleq	r0, r3, fp
 5a0:	1e914205 	cdpne	2, 9, cr4, cr1, cr5, {0}
 5a4:	43050000 	movwmi	r0, #20480	; 0x5000
 5a8:	00004d6f 	andeq	r4, r0, pc, ror #26
 5ac:	5da74405 	cfstrspl	mvf4, [r7, #20]!
 5b0:	45050000 	strmi	r0, [r5, #-0]
 5b4:	00007d97 	muleq	r0, r7, sp
 5b8:	90674605 	rsbls	r4, r7, r5, lsl #12
 5bc:	48050000 	stmdami	r5, {}	; <UNPREDICTABLE>
 5c0:	000029d1 	ldrdeq	r2, [r0], -r1
 5c4:	3f225805 	svccc	0x00225805
 5c8:	59050000 	stmdbpl	r5, {}	; <UNPREDICTABLE>
 5cc:	00003088 	andeq	r3, r0, r8, lsl #1
 5d0:	7ed25a05 	vfnmsvc.f32	s11, s4, s10
 5d4:	5b050000 	blpl	1405dc <_Min_Stack_Size+0x1401dc>
 5d8:	00008dd6 	ldrdeq	r8, [r0], -r6
 5dc:	36215c05 	strtcc	r5, [r1], -r5, lsl #24
 5e0:	5d050000 	stcpl	0, cr0, [r5, #-0]
 5e4:	00008b38 	andeq	r8, r0, r8, lsr fp
 5e8:	49eb5e05 	stmibmi	fp!, {r0, r2, r9, sl, fp, ip, lr}^
 5ec:	5f050000 	svcpl	0x00050000
 5f0:	000049c1 	andeq	r4, r0, r1, asr #19
 5f4:	65526005 	ldrbvs	r6, [r2, #-5]
 5f8:	68050000 	stmdavs	r5, {}	; <UNPREDICTABLE>
 5fc:	00001165 	andeq	r1, r0, r5, ror #2
 600:	7d386905 			; <UNDEFINED> instruction: 0x7d386905
 604:	6a050000 	bvs	14060c <_Min_Stack_Size+0x14020c>
 608:	000025a4 	andeq	r2, r0, r4, lsr #11
 60c:	02000400 	andeq	r0, r0, #0, 8
 610:	00000e4f 	andeq	r0, r0, pc, asr #28
 614:	00000007 	andeq	r0, r0, r7
 618:	01000300 	mrseq	r0, LR_irq
 61c:	050a0903 	streq	r0, [sl, #-2307]	; 0xfffff6fd
 620:	004dbc09 	subeq	fp, sp, r9, lsl #24
 624:	090f0300 	stmdbeq	pc, {r8, r9}	; <UNPREDICTABLE>
 628:	46740905 	ldrbtmi	r0, [r4], -r5, lsl #18
 62c:	10030000 	andne	r0, r3, r0
 630:	65080507 	strvs	r0, [r8, #-1287]	; 0xfffffaf9
 634:	0300007e 	movweq	r0, #126	; 0x7e
 638:	00070b0a 	andeq	r0, r7, sl, lsl #22
 63c:	04000000 	streq	r0, [r0], #-0
 640:	050c0b03 	streq	r0, [ip, #-2819]	; 0xfffff4fd
 644:	00559c08 	subseq	r9, r5, r8, lsl #24
 648:	0d0a0300 	stceq	3, cr0, [sl, #-0]
 64c:	13d00805 	bicsne	r0, r0, #327680	; 0x50000
 650:	0e030000 	cdpeq	0, 0, cr0, cr3, cr0, {0}
 654:	0000070e 	andeq	r0, r0, lr, lsl #14
 658:	07040000 	streq	r0, [r4, -r0]
 65c:	00000000 	andeq	r0, r0, r0
 660:	0f0b0304 	svceq	0x000b0304
 664:	7d260205 	sfmvc	f0, 4, [r6, #-20]!	; 0xffffffec
 668:	04030000 	streq	r0, [r3], #-0
 66c:	0503040b 	streq	r0, [r3, #-1035]	; 0xfffffbf5
 670:	00000710 	andeq	r0, r0, r0, lsl r7
 674:	07040000 	streq	r0, [r4, -r0]
 678:	00000000 	andeq	r0, r0, r0
 67c:	00000704 	andeq	r0, r0, r4, lsl #14
 680:	07040000 	streq	r0, [r4, -r0]
 684:	00000000 	andeq	r0, r0, r0
 688:	07051003 	streq	r1, [r5, -r3]
 68c:	00000000 	andeq	r0, r0, r0
 690:	06120304 	ldreq	r0, [r2], -r4, lsl #6
 694:	58d50b05 	ldmpl	r5, {r0, r2, r8, r9, fp}^
 698:	0d030000 	stceq	0, cr0, [r3, #-0]
 69c:	0e03040c 	cdpeq	4, 0, cr0, cr3, cr12, {0}
 6a0:	00000705 	andeq	r0, r0, r5, lsl #14
 6a4:	03040000 	movweq	r0, #16384	; 0x4000
 6a8:	1405040f 	strne	r0, [r5], #-1039	; 0xfffffbf1
 6ac:	0000816b 	andeq	r8, r0, fp, ror #2
 6b0:	05111803 	ldreq	r1, [r1, #-2051]	; 0xfffff7fd
 6b4:	00740606 	rsbseq	r0, r4, r6, lsl #12
 6b8:	02070300 	andeq	r0, r7, #0, 6
 6bc:	00000007 	andeq	r0, r0, r7
 6c0:	03040400 	movweq	r0, #17408	; 0x4400
 6c4:	00070319 	andeq	r0, r7, r9, lsl r3
 6c8:	04000000 	streq	r0, [r0], #-0
 6cc:	00000007 	andeq	r0, r0, r7
 6d0:	019f0300 	orrseq	r0, pc, r0, lsl #6
 6d4:	00000705 	andeq	r0, r0, r5, lsl #14
 6d8:	07040000 	streq	r0, [r4, -r0]
 6dc:	00000000 	andeq	r0, r0, r0
 6e0:	00000704 	andeq	r0, r0, r4, lsl #14
 6e4:	03040000 	movweq	r0, #16384	; 0x4000
 6e8:	29051213 	stmdbcs	r5, {r0, r1, r4, r9, ip}
 6ec:	00008959 	andeq	r8, r0, r9, asr r9
 6f0:	04052d03 	streq	r2, [r5], #-3331	; 0xfffff2fd
 6f4:	00000007 	andeq	r0, r0, r7
 6f8:	14030400 	strne	r0, [r3], #-1024	; 0xfffffc00
 6fc:	db020513 	blle	81b50 <_Min_Stack_Size+0x81750>
 700:	04000023 	streq	r0, [r0], #-35	; 0xffffffdd
 704:	07141603 	ldreq	r1, [r4, -r3, lsl #12]
 708:	00000000 	andeq	r0, r0, r0
 70c:	00000704 	andeq	r0, r0, r4, lsl #14
 710:	03040000 	movweq	r0, #16384	; 0x4000
 714:	09031511 	stmdbeq	r3, {r0, r4, r8, sl, ip}
 718:	a80a0516 	stmdage	sl, {r1, r2, r4, r8, sl}
 71c:	03000007 	movweq	r0, #7
 720:	0007170d 	andeq	r1, r7, sp, lsl #14
 724:	04000000 	streq	r0, [r0], #-0
 728:	07080e03 	streq	r0, [r8, -r3, lsl #28]
 72c:	00000000 	andeq	r0, r0, r0
 730:	00000704 	andeq	r0, r0, r4, lsl #14
 734:	05040000 	streq	r0, [r4, #-0]
 738:	00079f0d 	andeq	r9, r7, sp, lsl #30
 73c:	00070400 	andeq	r0, r7, r0, lsl #8
 740:	04000000 	streq	r0, [r0], #-0
 744:	00000007 	andeq	r0, r0, r7
 748:	00040400 	andeq	r0, r4, r0, lsl #8

Disassembly of section .debug_line:

00000000 <.debug_line>:
       0:	00000674 	andeq	r0, r0, r4, ror r6
       4:	05df0002 	ldrbeq	r0, [pc, #2]	; e <_Min_Heap_Size-0x1f2>
       8:	01020000 	mrseq	r0, (UNDEF: 2)
       c:	000d0efb 	strdeq	r0, [sp], -fp
      10:	01010101 	tsteq	r1, r1, lsl #2
      14:	01000000 	mrseq	r0, (UNDEF: 0)
      18:	2e010000 	cdpcs	0, 0, cr0, cr1, cr0, {0}
      1c:	72532f2e 	subsvc	r2, r3, #46, 30	; 0xb8
      20:	3a630063 	bcc	18c01b4 <_Min_Stack_Size+0x18bfdb4>
      24:	5c74735c 	ldclpl	3, cr7, [r4], #-368	; 0xfffffe90
      28:	336d7473 	cmncc	sp, #1929379840	; 0x73000000
      2c:	62756332 	rsbsvs	r6, r5, #-939524096	; 0xc8000000
      30:	65646965 	strbvs	r6, [r4, #-2405]!	; 0xfffff69b
      34:	342e315f 	strtcc	r3, [lr], #-351	; 0xfffffea1
      38:	735c302e 	cmpvc	ip, #46	; 0x2e
      3c:	32336d74 	eorscc	r6, r3, #116, 26	; 0x1d00
      40:	65627563 	strbvs	r7, [r2, #-1379]!	; 0xfffffa9d
      44:	5c656469 	cfstrdpl	mvd6, [r5], #-420	; 0xfffffe5c
      48:	67756c70 			; <UNDEFINED> instruction: 0x67756c70
      4c:	5c736e69 	ldclpl	14, cr6, [r3], #-420	; 0xfffffe5c
      50:	2e6d6f63 	cdpcs	15, 6, cr6, cr13, cr3, {3}
      54:	732e7473 			; <UNDEFINED> instruction: 0x732e7473
      58:	32336d74 	eorscc	r6, r3, #116, 26	; 0x1d00
      5c:	65627563 	strbvs	r7, [r2, #-1379]!	; 0xfffffa9d
      60:	6564692e 	strbvs	r6, [r4, #-2350]!	; 0xfffff6d2
      64:	75636d2e 	strbvc	r6, [r3, #-3374]!	; 0xfffff2d2
      68:	7478652e 	ldrbtvc	r6, [r8], #-1326	; 0xfffffad2
      6c:	616e7265 	cmnvs	lr, r5, ror #4
      70:	6f6f746c 	svcvs	0x006f746c
      74:	672e736c 	strvs	r7, [lr, -ip, ror #6]!
      78:	742d756e 	strtvc	r7, [sp], #-1390	; 0xfffffa92
      7c:	736c6f6f 	cmnvc	ip, #444	; 0x1bc
      80:	726f662d 	rsbvc	r6, pc, #47185920	; 0x2d00000
      84:	6d74732d 	ldclvs	3, cr7, [r4, #-180]!	; 0xffffff4c
      88:	372e3233 			; <UNDEFINED> instruction: 0x372e3233
      8c:	3130322d 	teqcc	r0, sp, lsr #4
      90:	32712d38 	rsbscc	r2, r1, #56, 26	; 0xe00
      94:	6470752d 	ldrbtvs	r7, [r0], #-1325	; 0xfffffad3
      98:	2e657461 	cdpcs	4, 6, cr7, cr5, cr1, {3}
      9c:	336e6977 	cmncc	lr, #1949696	; 0x1dc000
      a0:	2e315f32 	mrccs	15, 1, r5, cr1, cr2, {1}
      a4:	2e302e34 	mrccs	14, 1, r2, cr0, cr4, {1}
      a8:	30323032 	eorscc	r3, r2, r2, lsr r0
      ac:	38303730 	ldmdacc	r0!, {r4, r5, r8, r9, sl, ip, sp}
      b0:	38303231 	ldmdacc	r0!, {r0, r4, r5, r9, ip, sp}
      b4:	6f6f745c 	svcvs	0x006f745c
      b8:	615c736c 	cmpvs	ip, ip, ror #6
      bc:	6e2d6d72 	mcrvs	13, 1, r6, cr13, cr2, {3}
      c0:	2d656e6f 	stclcs	14, cr6, [r5, #-444]!	; 0xfffffe44
      c4:	69626165 	stmdbvs	r2!, {r0, r2, r5, r6, r8, sp, lr}^
      c8:	636e695c 	cmnvs	lr, #92, 18	; 0x170000
      cc:	6564756c 	strbvs	r7, [r4, #-1388]!	; 0xfffffa94
      d0:	63616d5c 	cmnvs	r1, #92, 26	; 0x1700
      d4:	656e6968 	strbvs	r6, [lr, #-2408]!	; 0xfffff698
      d8:	5c3a6300 	ldcpl	3, cr6, [sl], #-0
      dc:	735c7473 	cmpvc	ip, #1929379840	; 0x73000000
      e0:	32336d74 	eorscc	r6, r3, #116, 26	; 0x1d00
      e4:	65627563 	strbvs	r7, [r2, #-1379]!	; 0xfffffa9d
      e8:	5f656469 	svcpl	0x00656469
      ec:	2e342e31 	mrccs	14, 1, r2, cr4, cr1, {1}
      f0:	74735c30 	ldrbtvc	r5, [r3], #-3120	; 0xfffff3d0
      f4:	6332336d 	teqvs	r2, #-1275068415	; 0xb4000001
      f8:	69656275 	stmdbvs	r5!, {r0, r2, r4, r5, r6, r9, sp, lr}^
      fc:	705c6564 	subsvc	r6, ip, r4, ror #10
     100:	6967756c 	stmdbvs	r7!, {r2, r3, r5, r6, r8, sl, ip, sp, lr}^
     104:	635c736e 	cmpvs	ip, #-1207959551	; 0xb8000001
     108:	732e6d6f 			; <UNDEFINED> instruction: 0x732e6d6f
     10c:	74732e74 	ldrbtvc	r2, [r3], #-3700	; 0xfffff18c
     110:	6332336d 	teqvs	r2, #-1275068415	; 0xb4000001
     114:	2e656275 	mcrcs	2, 3, r6, cr5, cr5, {3}
     118:	2e656469 	cdpcs	4, 6, cr6, cr5, cr9, {3}
     11c:	2e75636d 	cdpcs	3, 7, cr6, cr5, cr13, {3}
     120:	65747865 	ldrbvs	r7, [r4, #-2149]!	; 0xfffff79b
     124:	6c616e72 	stclvs	14, cr6, [r1], #-456	; 0xfffffe38
     128:	6c6f6f74 	stclvs	15, cr6, [pc], #-464	; ffffff60 <_estack+0xdfffd760>
     12c:	6e672e73 	mcrvs	14, 3, r2, cr7, cr3, {3}
     130:	6f742d75 	svcvs	0x00742d75
     134:	2d736c6f 	ldclcs	12, cr6, [r3, #-444]!	; 0xfffffe44
     138:	2d726f66 	ldclcs	15, cr6, [r2, #-408]!	; 0xfffffe68
     13c:	336d7473 	cmncc	sp, #1929379840	; 0x73000000
     140:	2d372e32 	ldccs	14, cr2, [r7, #-200]!	; 0xffffff38
     144:	38313032 	ldmdacc	r1!, {r1, r4, r5, ip, sp}
     148:	2d32712d 	ldfcss	f7, [r2, #-180]!	; 0xffffff4c
     14c:	61647075 	smcvs	18181	; 0x4705
     150:	772e6574 			; <UNDEFINED> instruction: 0x772e6574
     154:	32336e69 	eorscc	r6, r3, #1680	; 0x690
     158:	342e315f 	strtcc	r3, [lr], #-351	; 0xfffffea1
     15c:	322e302e 	eorcc	r3, lr, #46	; 0x2e
     160:	30303230 	eorscc	r3, r0, r0, lsr r2
     164:	31383037 	teqcc	r8, r7, lsr r0
     168:	5c383032 	ldcpl	0, cr3, [r8], #-200	; 0xffffff38
     16c:	6c6f6f74 	stclvs	15, cr6, [pc], #-464	; ffffffa4 <_estack+0xdfffd7a4>
     170:	72615c73 	rsbvc	r5, r1, #29440	; 0x7300
     174:	6f6e2d6d 	svcvs	0x006e2d6d
     178:	652d656e 	strvs	r6, [sp, #-1390]!	; 0xfffffa92
     17c:	5c696261 	sfmpl	f6, 2, [r9], #-388	; 0xfffffe7c
     180:	6c636e69 	stclvs	14, cr6, [r3], #-420	; 0xfffffe5c
     184:	5c656475 	cfstrdpl	mvd6, [r5], #-468	; 0xfffffe2c
     188:	00737973 	rsbseq	r7, r3, r3, ror r9
     18c:	735c3a63 	cmpvc	ip, #405504	; 0x63000
     190:	74735c74 	ldrbtvc	r5, [r3], #-3188	; 0xfffff38c
     194:	6332336d 	teqvs	r2, #-1275068415	; 0xb4000001
     198:	69656275 	stmdbvs	r5!, {r0, r2, r4, r5, r6, r9, sp, lr}^
     19c:	315f6564 	cmpcc	pc, r4, ror #10
     1a0:	302e342e 	eorcc	r3, lr, lr, lsr #8
     1a4:	6d74735c 	ldclvs	3, cr7, [r4, #-368]!	; 0xfffffe90
     1a8:	75633233 	strbvc	r3, [r3, #-563]!	; 0xfffffdcd
     1ac:	64696562 	strbtvs	r6, [r9], #-1378	; 0xfffffa9e
     1b0:	6c705c65 	ldclvs	12, cr5, [r0], #-404	; 0xfffffe6c
     1b4:	6e696775 	mcrvs	7, 3, r6, cr9, cr5, {3}
     1b8:	6f635c73 	svcvs	0x00635c73
     1bc:	74732e6d 	ldrbtvc	r2, [r3], #-3693	; 0xfffff193
     1c0:	6d74732e 	ldclvs	3, cr7, [r4, #-184]!	; 0xffffff48
     1c4:	75633233 	strbvc	r3, [r3, #-563]!	; 0xfffffdcd
     1c8:	692e6562 	stmdbvs	lr!, {r1, r5, r6, r8, sl, sp, lr}
     1cc:	6d2e6564 	cfstr32vs	mvfx6, [lr, #-400]!	; 0xfffffe70
     1d0:	652e7563 	strvs	r7, [lr, #-1379]!	; 0xfffffa9d
     1d4:	72657478 	rsbvc	r7, r5, #120, 8	; 0x78000000
     1d8:	746c616e 	strbtvc	r6, [ip], #-366	; 0xfffffe92
     1dc:	736c6f6f 	cmnvc	ip, #444	; 0x1bc
     1e0:	756e672e 	strbvc	r6, [lr, #-1838]!	; 0xfffff8d2
     1e4:	6f6f742d 	svcvs	0x006f742d
     1e8:	662d736c 	strtvs	r7, [sp], -ip, ror #6
     1ec:	732d726f 			; <UNDEFINED> instruction: 0x732d726f
     1f0:	32336d74 	eorscc	r6, r3, #116, 26	; 0x1d00
     1f4:	322d372e 	eorcc	r3, sp, #12058624	; 0xb80000
     1f8:	2d383130 	ldfcss	f3, [r8, #-192]!	; 0xffffff40
     1fc:	752d3271 	strvc	r3, [sp, #-625]!	; 0xfffffd8f
     200:	74616470 	strbtvc	r6, [r1], #-1136	; 0xfffffb90
     204:	69772e65 	ldmdbvs	r7!, {r0, r2, r5, r6, r9, sl, fp, sp}^
     208:	5f32336e 	svcpl	0x0032336e
     20c:	2e342e31 	mrccs	14, 1, r2, cr4, cr1, {1}
     210:	30322e30 	eorscc	r2, r2, r0, lsr lr
     214:	37303032 			; <UNDEFINED> instruction: 0x37303032
     218:	32313830 	eorscc	r3, r1, #48, 16	; 0x300000
     21c:	745c3830 	ldrbvc	r3, [ip], #-2096	; 0xfffff7d0
     220:	736c6f6f 	cmnvc	ip, #444	; 0x1bc
     224:	62696c5c 	rsbvs	r6, r9, #92, 24	; 0x5c00
     228:	6363675c 	cmnvs	r3, #92, 14	; 0x1700000
     22c:	6d72615c 	ldfvse	f6, [r2, #-368]!	; 0xfffffe90
     230:	6e6f6e2d 	cdpvs	14, 6, cr6, cr15, cr13, {1}
     234:	61652d65 	cmnvs	r5, r5, ror #26
     238:	375c6962 	ldrbcc	r6, [ip, -r2, ror #18]
     23c:	312e332e 			; <UNDEFINED> instruction: 0x312e332e
     240:	636e695c 	cmnvs	lr, #92, 18	; 0x170000
     244:	6564756c 	strbvs	r7, [r4, #-1388]!	; 0xfffffa94
     248:	5c3a6300 	ldcpl	3, cr6, [sl], #-0
     24c:	735c7473 	cmpvc	ip, #1929379840	; 0x73000000
     250:	32336d74 	eorscc	r6, r3, #116, 26	; 0x1d00
     254:	65627563 	strbvs	r7, [r2, #-1379]!	; 0xfffffa9d
     258:	5f656469 	svcpl	0x00656469
     25c:	2e342e31 	mrccs	14, 1, r2, cr4, cr1, {1}
     260:	74735c30 	ldrbtvc	r5, [r3], #-3120	; 0xfffff3d0
     264:	6332336d 	teqvs	r2, #-1275068415	; 0xb4000001
     268:	69656275 	stmdbvs	r5!, {r0, r2, r4, r5, r6, r9, sp, lr}^
     26c:	705c6564 	subsvc	r6, ip, r4, ror #10
     270:	6967756c 	stmdbvs	r7!, {r2, r3, r5, r6, r8, sl, ip, sp, lr}^
     274:	635c736e 	cmpvs	ip, #-1207959551	; 0xb8000001
     278:	732e6d6f 			; <UNDEFINED> instruction: 0x732e6d6f
     27c:	74732e74 	ldrbtvc	r2, [r3], #-3700	; 0xfffff18c
     280:	6332336d 	teqvs	r2, #-1275068415	; 0xb4000001
     284:	2e656275 	mcrcs	2, 3, r6, cr5, cr5, {3}
     288:	2e656469 	cdpcs	4, 6, cr6, cr5, cr9, {3}
     28c:	2e75636d 	cdpcs	3, 7, cr6, cr5, cr13, {3}
     290:	65747865 	ldrbvs	r7, [r4, #-2149]!	; 0xfffff79b
     294:	6c616e72 	stclvs	14, cr6, [r1], #-456	; 0xfffffe38
     298:	6c6f6f74 	stclvs	15, cr6, [pc], #-464	; d0 <_Min_Heap_Size-0x130>
     29c:	6e672e73 	mcrvs	14, 3, r2, cr7, cr3, {3}
     2a0:	6f742d75 	svcvs	0x00742d75
     2a4:	2d736c6f 	ldclcs	12, cr6, [r3, #-444]!	; 0xfffffe44
     2a8:	2d726f66 	ldclcs	15, cr6, [r2, #-408]!	; 0xfffffe68
     2ac:	336d7473 	cmncc	sp, #1929379840	; 0x73000000
     2b0:	2d372e32 	ldccs	14, cr2, [r7, #-200]!	; 0xffffff38
     2b4:	38313032 	ldmdacc	r1!, {r1, r4, r5, ip, sp}
     2b8:	2d32712d 	ldfcss	f7, [r2, #-180]!	; 0xffffff4c
     2bc:	61647075 	smcvs	18181	; 0x4705
     2c0:	772e6574 			; <UNDEFINED> instruction: 0x772e6574
     2c4:	32336e69 	eorscc	r6, r3, #1680	; 0x690
     2c8:	342e315f 	strtcc	r3, [lr], #-351	; 0xfffffea1
     2cc:	322e302e 	eorcc	r3, lr, #46	; 0x2e
     2d0:	30303230 	eorscc	r3, r0, r0, lsr r2
     2d4:	31383037 	teqcc	r8, r7, lsr r0
     2d8:	5c383032 	ldcpl	0, cr3, [r8], #-200	; 0xffffff38
     2dc:	6c6f6f74 	stclvs	15, cr6, [pc], #-464	; 114 <_Min_Heap_Size-0xec>
     2e0:	72615c73 	rsbvc	r5, r1, #29440	; 0x7300
     2e4:	6f6e2d6d 	svcvs	0x006e2d6d
     2e8:	652d656e 	strvs	r6, [sp, #-1390]!	; 0xfffffa92
     2ec:	5c696261 	sfmpl	f6, 2, [r9], #-388	; 0xfffffe7c
     2f0:	6c636e69 	stclvs	14, cr6, [r3], #-420	; 0xfffffe5c
     2f4:	00656475 	rsbeq	r6, r5, r5, ror r4
     2f8:	552f3a43 	strpl	r3, [pc, #-2627]!	; fffff8bd <_estack+0xdfffd0bd>
     2fc:	73726573 	cmnvc	r2, #482344960	; 0x1cc00000
     300:	6462412f 	strbtvs	r4, [r2], #-303	; 0xfffffed1
     304:	616c6c61 	cmnvs	ip, r1, ror #24
     308:	54532f68 	ldrbpl	r2, [r3], #-3944	; 0xfffff098
     30c:	4332334d 	teqmi	r2, #872415233	; 0x34000001
     310:	49656275 	stmdbmi	r5!, {r0, r2, r4, r5, r6, r9, sp, lr}^
     314:	772f4544 	strvc	r4, [pc, -r4, asr #10]!
     318:	736b726f 	cmnvc	fp, #-268435450	; 0xf0000006
     31c:	65636170 	strbvs	r6, [r3, #-368]!	; 0xfffffe90
     320:	342e315f 	strtcc	r3, [lr], #-351	; 0xfffffea1
     324:	442f302e 	strtmi	r3, [pc], #-46	; 32c <_Min_Heap_Size+0x12c>
     328:	65766972 	ldrbvs	r6, [r6, #-2418]!	; 0xfffff68e
     32c:	5f327372 	svcpl	0x00327372
     330:	49545845 	ldmdbmi	r4, {r0, r2, r6, fp, ip, lr}^
     334:	6d74532f 	ldclvs	3, cr5, [r4, #-188]!	; 0xffffff44
     338:	465f3233 			; <UNDEFINED> instruction: 0x465f3233
     33c:	43333031 	teqmi	r3, #49	; 0x31
     340:	72445f36 	subvc	r5, r4, #54, 30	; 0xd8
     344:	72657669 	rsbvc	r7, r5, #110100480	; 0x6900000
     348:	6e692f73 	mcrvs	15, 3, r2, cr9, cr3, {3}
     34c:	3a630063 	bcc	18c04e0 <_Min_Stack_Size+0x18c00e0>
     350:	5c74735c 	ldclpl	3, cr7, [r4], #-368	; 0xfffffe90
     354:	336d7473 	cmncc	sp, #1929379840	; 0x73000000
     358:	62756332 	rsbsvs	r6, r5, #-939524096	; 0xc8000000
     35c:	65646965 	strbvs	r6, [r4, #-2405]!	; 0xfffff69b
     360:	342e315f 	strtcc	r3, [lr], #-351	; 0xfffffea1
     364:	735c302e 	cmpvc	ip, #46	; 0x2e
     368:	32336d74 	eorscc	r6, r3, #116, 26	; 0x1d00
     36c:	65627563 	strbvs	r7, [r2, #-1379]!	; 0xfffffa9d
     370:	5c656469 	cfstrdpl	mvd6, [r5], #-420	; 0xfffffe5c
     374:	67756c70 			; <UNDEFINED> instruction: 0x67756c70
     378:	5c736e69 	ldclpl	14, cr6, [r3], #-420	; 0xfffffe5c
     37c:	2e6d6f63 	cdpcs	15, 6, cr6, cr13, cr3, {3}
     380:	732e7473 			; <UNDEFINED> instruction: 0x732e7473
     384:	32336d74 	eorscc	r6, r3, #116, 26	; 0x1d00
     388:	65627563 	strbvs	r7, [r2, #-1379]!	; 0xfffffa9d
     38c:	6564692e 	strbvs	r6, [r4, #-2350]!	; 0xfffff6d2
     390:	75636d2e 	strbvc	r6, [r3, #-3374]!	; 0xfffff2d2
     394:	7478652e 	ldrbtvc	r6, [r8], #-1326	; 0xfffffad2
     398:	616e7265 	cmnvs	lr, r5, ror #4
     39c:	6f6f746c 	svcvs	0x006f746c
     3a0:	672e736c 	strvs	r7, [lr, -ip, ror #6]!
     3a4:	742d756e 	strtvc	r7, [sp], #-1390	; 0xfffffa92
     3a8:	736c6f6f 	cmnvc	ip, #444	; 0x1bc
     3ac:	726f662d 	rsbvc	r6, pc, #47185920	; 0x2d00000
     3b0:	6d74732d 	ldclvs	3, cr7, [r4, #-180]!	; 0xffffff4c
     3b4:	372e3233 			; <UNDEFINED> instruction: 0x372e3233
     3b8:	3130322d 	teqcc	r0, sp, lsr #4
     3bc:	32712d38 	rsbscc	r2, r1, #56, 26	; 0xe00
     3c0:	6470752d 	ldrbtvs	r7, [r0], #-1325	; 0xfffffad3
     3c4:	2e657461 	cdpcs	4, 6, cr7, cr5, cr1, {3}
     3c8:	336e6977 	cmncc	lr, #1949696	; 0x1dc000
     3cc:	2e315f32 	mrccs	15, 1, r5, cr1, cr2, {1}
     3d0:	2e302e34 	mrccs	14, 1, r2, cr0, cr4, {1}
     3d4:	30323032 	eorscc	r3, r2, r2, lsr r0
     3d8:	38303730 	ldmdacc	r0!, {r4, r5, r8, r9, sl, ip, sp}
     3dc:	38303231 	ldmdacc	r0!, {r0, r4, r5, r9, ip, sp}
     3e0:	6f6f745c 	svcvs	0x006f745c
     3e4:	615c736c 	cmpvs	ip, ip, ror #6
     3e8:	6e2d6d72 	mcrvs	13, 1, r6, cr13, cr2, {3}
     3ec:	2d656e6f 	stclcs	14, cr6, [r5, #-444]!	; 0xfffffe44
     3f0:	69626165 	stmdbvs	r2!, {r0, r2, r5, r6, r8, sp, lr}^
     3f4:	636e695c 	cmnvs	lr, #92, 18	; 0x170000
     3f8:	6564756c 	strbvs	r7, [r4, #-1388]!	; 0xfffffa94
     3fc:	77656e5c 			; <UNDEFINED> instruction: 0x77656e5c
     400:	2d62696c 			; <UNDEFINED> instruction: 0x2d62696c
     404:	6f6e616e 	svcvs	0x006e616e
     408:	2f3a4300 	svccs	0x003a4300
     40c:	72657355 	rsbvc	r7, r5, #1409286145	; 0x54000001
     410:	62412f73 	subvs	r2, r1, #460	; 0x1cc
     414:	6c6c6164 	stfvse	f6, [ip], #-400	; 0xfffffe70
     418:	532f6861 			; <UNDEFINED> instruction: 0x532f6861
     41c:	32334d54 	eorscc	r4, r3, #84, 26	; 0x1500
     420:	65627543 	strbvs	r7, [r2, #-1347]!	; 0xfffffabd
     424:	2f454449 	svccs	0x00454449
     428:	6b726f77 	blvs	1c9c20c <_Min_Stack_Size+0x1c9be0c>
     42c:	63617073 	cmnvs	r1, #115	; 0x73
     430:	2e315f65 	cdpcs	15, 3, cr5, cr1, cr5, {3}
     434:	2f302e34 	svccs	0x00302e34
     438:	76697244 	strbtvc	r7, [r9], -r4, asr #4
     43c:	32737265 	rsbscc	r7, r3, #1342177286	; 0x50000006
     440:	5458455f 	ldrbpl	r4, [r8], #-1375	; 0xfffffaa1
     444:	41482f49 	cmpmi	r8, r9, asr #30
     448:	6e692f4c 	cdpvs	15, 6, cr2, cr9, cr12, {2}
     44c:	64756c63 	ldrbtvs	r6, [r5], #-3171	; 0xfffff39d
     450:	00007365 	andeq	r7, r0, r5, ror #6
     454:	6e69616d 	powvsez	f6, f1, #5.0
     458:	0100632e 	tsteq	r0, lr, lsr #6
     45c:	645f0000 	ldrbvs	r0, [pc], #-0	; 464 <_Min_Stack_Size+0x64>
     460:	75616665 	strbvc	r6, [r1, #-1637]!	; 0xfffff99b
     464:	745f746c 	ldrbvc	r7, [pc], #-1132	; 46c <_Min_Stack_Size+0x6c>
     468:	73657079 	cmnvc	r5, #121	; 0x79
     46c:	0200682e 	andeq	r6, r0, #3014656	; 0x2e0000
     470:	6f6c0000 	svcvs	0x006c0000
     474:	682e6b63 	stmdavs	lr!, {r0, r1, r5, r6, r8, r9, fp, sp, lr}
     478:	00000300 	andeq	r0, r0, r0, lsl #6
     47c:	7079745f 	rsbsvc	r7, r9, pc, asr r4
     480:	682e7365 	stmdavs	lr!, {r0, r2, r5, r6, r8, r9, ip, sp, lr}
     484:	00000300 	andeq	r0, r0, r0, lsl #6
     488:	64647473 	strbtvs	r7, [r4], #-1139	; 0xfffffb8d
     48c:	682e6665 	stmdavs	lr!, {r0, r2, r5, r6, r9, sl, sp, lr}
     490:	00000400 	andeq	r0, r0, r0, lsl #8
     494:	6e656572 	mcrvs	5, 3, r6, cr5, cr2, {3}
     498:	00682e74 	rsbeq	r2, r8, r4, ror lr
     49c:	73000003 	movwvc	r0, #3
     4a0:	696c6474 	stmdbvs	ip!, {r2, r4, r5, r6, sl, sp, lr}^
     4a4:	00682e62 	rsbeq	r2, r8, r2, ror #28
     4a8:	5f000005 	svcpl	0x00000005
     4ac:	69647473 	stmdbvs	r4!, {r0, r1, r4, r5, r6, sl, ip, sp, lr}^
     4b0:	682e746e 	stmdavs	lr!, {r1, r2, r3, r5, r6, sl, ip, sp, lr}
     4b4:	00000300 	andeq	r0, r0, r0, lsl #6
     4b8:	336d7473 	cmncc	sp, #1929379840	; 0x73000000
     4bc:	30316632 	eorscc	r6, r1, r2, lsr r6
     4c0:	2e366333 	mrccs	3, 1, r6, cr6, cr3, {1}
     4c4:	00060068 	andeq	r0, r6, r8, rrx
     4c8:	6d745300 	ldclvs	3, cr5, [r4, #-0]
     4cc:	465f3233 			; <UNDEFINED> instruction: 0x465f3233
     4d0:	43333031 	teqmi	r3, #49	; 0x31
     4d4:	58455f36 	stmdapl	r5, {r1, r2, r4, r5, r8, r9, sl, fp, ip, lr}^
     4d8:	645f4954 	ldrbvs	r4, [pc], #-2388	; 4e0 <_Min_Stack_Size+0xe0>
     4dc:	65766972 	ldrbvs	r6, [r6, #-2418]!	; 0xfffff68e
     4e0:	00682e72 	rsbeq	r2, r8, r2, ror lr
     4e4:	53000006 	movwpl	r0, #6
     4e8:	32336d74 	eorscc	r6, r3, #116, 26	; 0x1d00
     4ec:	3031465f 	eorscc	r4, r1, pc, asr r6
     4f0:	5f364333 	svcpl	0x00364333
     4f4:	6f697067 	svcvs	0x00697067
     4f8:	6972645f 	ldmdbvs	r2!, {r0, r1, r2, r3, r4, r6, sl, sp, lr}^
     4fc:	2e726576 	mrccs	5, 3, r6, cr2, cr6, {3}
     500:	00060068 	andeq	r0, r6, r8, rrx
     504:	65656900 	strbvs	r6, [r5, #-2304]!	; 0xfffff700
     508:	2e706665 	cdpcs	6, 7, cr6, cr0, cr5, {3}
     50c:	00020068 	andeq	r0, r2, r8, rrx
     510:	6e615f00 	cdpvs	15, 6, cr5, cr1, cr0, {0}
     514:	682e6973 	stmdavs	lr!, {r0, r1, r4, r5, r6, r8, fp, sp, lr}
     518:	00000500 	andeq	r0, r0, r0, lsl #10
     51c:	6c77656e 	cfldr64vs	mvdx6, [r7], #-440	; 0xfffffe48
     520:	682e6269 	stmdavs	lr!, {r0, r3, r5, r6, r9, sp, lr}
     524:	00000700 	andeq	r0, r0, r0, lsl #14
     528:	77656e5f 			; <UNDEFINED> instruction: 0x77656e5f
     52c:	5f62696c 	svcpl	0x0062696c
     530:	73726576 	cmnvc	r2, #494927872	; 0x1d800000
     534:	2e6e6f69 	cdpcs	15, 6, cr6, cr14, cr9, {3}
     538:	00050068 	andeq	r0, r5, r8, rrx
     53c:	6e6f6300 	cdpvs	3, 6, cr6, cr15, cr0, {0}
     540:	2e676966 	vnmulcs.f16	s13, s14, s13	; <UNPREDICTABLE>
     544:	00030068 	andeq	r0, r3, r8, rrx
     548:	61656600 	cmnvs	r5, r0, lsl #12
     54c:	65727574 	ldrbvs	r7, [r2, #-1396]!	; 0xfffffa8c
     550:	00682e73 	rsbeq	r2, r8, r3, ror lr
     554:	5f000003 	svcpl	0x00000003
     558:	65707974 	ldrbvs	r7, [r0, #-2420]!	; 0xfffff68c
     55c:	00682e73 	rsbeq	r2, r8, r3, ror lr
     560:	63000002 	movwvs	r0, #2
     564:	73666564 	cmnvc	r6, #100, 10	; 0x19000000
     568:	0300682e 	movweq	r6, #2094	; 0x82e
     56c:	74730000 	ldrbtvc	r0, [r3], #-0
     570:	62696c64 	rsbvs	r6, r9, #100, 24	; 0x6400
     574:	0200682e 	andeq	r6, r0, #3014656	; 0x2e0000
     578:	6c610000 	stclvs	0, cr0, [r1], #-0
     57c:	61636f6c 	cmnvs	r3, ip, ror #30
     580:	0500682e 	streq	r6, [r0, #-2094]	; 0xfffff7d2
     584:	74730000 	ldrbtvc	r0, [r3], #-0
     588:	746e6964 	strbtvc	r6, [lr], #-2404	; 0xfffff69c
     58c:	0400682e 	streq	r6, [r0], #-2094	; 0xfffff7d2
     590:	74730000 	ldrbtvc	r0, [r3], #-0
     594:	746e6964 	strbtvc	r6, [lr], #-2404	; 0xfffff69c
     598:	0500682e 	streq	r6, [r0, #-2094]	; 0xfffff7d2
     59c:	695f0000 	ldmdbvs	pc, {}^	; <UNPREDICTABLE>
     5a0:	7573746e 	ldrbvc	r7, [r3, #-1134]!	; 0xfffffb92
     5a4:	00682e70 	rsbeq	r2, r8, r0, ror lr
     5a8:	4c000003 	stcmi	0, cr0, [r0], {3}
     5ac:	682e6463 	stmdavs	lr!, {r0, r1, r5, r6, sl, sp, lr}
     5b0:	00000800 	andeq	r0, r0, r0, lsl #16
     5b4:	5f64634c 	svcpl	0x0064634c
     5b8:	666e6f43 	strbtvs	r6, [lr], -r3, asr #30
     5bc:	682e6769 	stmdavs	lr!, {r0, r3, r5, r6, r8, r9, sl, sp, lr}
     5c0:	00000800 	andeq	r0, r0, r0, lsl #16
     5c4:	6f727245 	svcvs	0x00727245
     5c8:	61745372 	cmnvs	r4, r2, ror r3
     5cc:	2e736574 	mrccs	5, 3, r6, cr3, cr4, {3}
     5d0:	00060068 	andeq	r0, r6, r8, rrx
     5d4:	44504b00 	ldrbmi	r4, [r0], #-2816	; 0xfffff500
     5d8:	746e695f 	strbtvc	r6, [lr], #-2399	; 0xfffff6a1
     5dc:	61667265 	cmnvs	r6, r5, ror #4
     5e0:	682e6563 	stmdavs	lr!, {r0, r1, r5, r6, r8, sl, sp, lr}
     5e4:	00000800 	andeq	r0, r0, r0, lsl #16
     5e8:	02050000 	andeq	r0, r5, #0
     5ec:	08000170 	stmdaeq	r0, {r4, r5, r6, r8}
     5f0:	0100dc03 	tsteq	r0, r3, lsl #24
     5f4:	04028330 	streq	r8, [r2], #-816	; 0xfffffcd0
     5f8:	00010100 	andeq	r0, r1, r0, lsl #2
     5fc:	018c0205 	orreq	r0, ip, r5, lsl #4
     600:	e4030800 	str	r0, [r3], #-2048	; 0xfffff800
     604:	4b2f0100 	blmi	bc0a0c <_Min_Stack_Size+0xbc060c>
     608:	4b1c413d 	blmi	710b04 <_Min_Stack_Size+0x710704>
     60c:	0b023e3d 	bleq	8ff08 <_Min_Stack_Size+0x8fb08>
     610:	00010100 	andeq	r0, r1, r0, lsl #2
     614:	01d00205 	bicseq	r0, r0, r5, lsl #4
     618:	ee030800 	cdp	8, 0, cr0, cr3, cr0, {0}
     61c:	59670100 	stmdbpl	r7!, {r8}^
     620:	01000502 	tsteq	r0, r2, lsl #10
     624:	02050001 	andeq	r0, r5, #1
     628:	080001f0 	stmdaeq	r0, {r4, r5, r6, r7, r8}
     62c:	0100f303 	tsteq	r0, r3, lsl #6	; <UNPREDICTABLE>
     630:	05027575 	streq	r7, [r2, #-1397]	; 0xfffffa8b
     634:	00010100 	andeq	r0, r1, r0, lsl #2
     638:	02180205 	andseq	r0, r8, #1342177280	; 0x50000000
     63c:	f9030800 			; <UNDEFINED> instruction: 0xf9030800
     640:	69320100 	ldmdbvs	r2!, {r8}
     644:	5d595b59 	vldrpl	d21, [r9, #-356]	; 0xfffffe9c
     648:	6b5b4c21 	blvs	16d36d4 <_Min_Stack_Size+0x16d32d4>
     64c:	92239469 	eorls	r9, r3, #1761607680	; 0x69000000
     650:	696c5b4c 	stmdbvs	ip!, {r2, r3, r6, r8, r9, fp, ip, lr}^
     654:	540323a2 	strpl	r2, [r3], #-930	; 0xfffffc5e
     658:	01000882 	smlabbeq	r0, r2, r8, r0
     65c:	02050001 	andeq	r0, r5, #1
     660:	08000314 	stmdaeq	r0, {r2, r4, r8, r9}
     664:	0101bf03 	tsteq	r1, r3, lsl #30
     668:	596b673d 	stmdbpl	fp!, {r0, r2, r3, r4, r5, r8, r9, sl, sp, lr}^
     66c:	4d302f2f 	ldcmi	15, cr2, [r0, #-188]!	; 0xffffff44
     670:	023c1303 	eorseq	r1, ip, #201326592	; 0xc000000
     674:	0101000b 	tsteq	r1, fp
     678:	00000080 	andeq	r0, r0, r0, lsl #1
     67c:	00390002 	eorseq	r0, r9, r2
     680:	01020000 	mrseq	r0, (UNDEF: 2)
     684:	000d0efb 	strdeq	r0, [sp], -fp
     688:	01010101 	tsteq	r1, r1, lsl #2
     68c:	01000000 	mrseq	r0, (UNDEF: 0)
     690:	2e010000 	cdpcs	0, 0, cr0, cr1, cr0, {0}
     694:	74532f2e 	ldrbvc	r2, [r3], #-3886	; 0xfffff0d2
     698:	75747261 	ldrbvc	r7, [r4, #-609]!	; 0xfffffd9f
     69c:	73000070 	movwvc	r0, #112	; 0x70
     6a0:	74726174 	ldrbtvc	r6, [r2], #-372	; 0xfffffe8c
     6a4:	735f7075 	cmpvc	pc, #117	; 0x75
     6a8:	32336d74 	eorscc	r6, r3, #116, 26	; 0x1d00
     6ac:	33303166 	teqcc	r0, #-2147483623	; 0x80000019
     6b0:	78743663 	ldmdavc	r4!, {r0, r1, r5, r6, r9, sl, ip, sp}^
     6b4:	0100732e 	tsteq	r0, lr, lsr #6
     6b8:	00000000 	andeq	r0, r0, r0
     6bc:	036c0205 	cmneq	ip, #1342177280	; 0x50000000
     6c0:	3a030800 	bcc	c26c8 <_Min_Stack_Size+0xc22c8>
     6c4:	31222101 			; <UNDEFINED> instruction: 0x31222101
     6c8:	21212121 			; <UNDEFINED> instruction: 0x21212121
     6cc:	23212123 			; <UNDEFINED> instruction: 0x23212123
     6d0:	21232121 			; <UNDEFINED> instruction: 0x21232121
     6d4:	21232121 			; <UNDEFINED> instruction: 0x21232121
     6d8:	30232123 	eorcc	r2, r3, r3, lsr #2
     6dc:	20560331 	subscs	r0, r6, r1, lsr r3
     6e0:	032f2f34 			; <UNDEFINED> instruction: 0x032f2f34
     6e4:	022f2e0f 	eoreq	r2, pc, #15, 28	; 0xf0
     6e8:	01010002 	tsteq	r1, r2
     6ec:	bc020500 	cfstr32lt	mvfx0, [r2], {-0}
     6f0:	03080003 	movweq	r0, #32771	; 0x8003
     6f4:	020100f3 	andeq	r0, r1, #243	; 0xf3
     6f8:	01010001 	tsteq	r1, r1
     6fc:	0000074f 	andeq	r0, r0, pc, asr #14
     700:	05820002 	streq	r0, [r2, #2]
     704:	01020000 	mrseq	r0, (UNDEF: 2)
     708:	000d0efb 	strdeq	r0, [sp], -fp
     70c:	01010101 	tsteq	r1, r1, lsl #2
     710:	01000000 	mrseq	r0, (UNDEF: 0)
     714:	2e010000 	cdpcs	0, 0, cr0, cr1, cr0, {0}
     718:	74532f2e 	ldrbvc	r2, [r3], #-3886	; 0xfffff0d2
     71c:	5f32336d 	svcpl	0x0032336d
     720:	33303146 	teqcc	r0, #-2147483631	; 0x80000011
     724:	445f3643 	ldrbmi	r3, [pc], #-1603	; 72c <_Min_Stack_Size+0x32c>
     728:	65766972 	ldrbvs	r6, [r6, #-2418]!	; 0xfffff68e
     72c:	452f7372 	strmi	r7, [pc, #-882]!	; 3c2 <_Min_Heap_Size+0x1c2>
     730:	00495458 	subeq	r5, r9, r8, asr r4
     734:	735c3a63 	cmpvc	ip, #405504	; 0x63000
     738:	74735c74 	ldrbtvc	r5, [r3], #-3188	; 0xfffff38c
     73c:	6332336d 	teqvs	r2, #-1275068415	; 0xb4000001
     740:	69656275 	stmdbvs	r5!, {r0, r2, r4, r5, r6, r9, sp, lr}^
     744:	315f6564 	cmpcc	pc, r4, ror #10
     748:	302e342e 	eorcc	r3, lr, lr, lsr #8
     74c:	6d74735c 	ldclvs	3, cr7, [r4, #-368]!	; 0xfffffe90
     750:	75633233 	strbvc	r3, [r3, #-563]!	; 0xfffffdcd
     754:	64696562 	strbtvs	r6, [r9], #-1378	; 0xfffffa9e
     758:	6c705c65 	ldclvs	12, cr5, [r0], #-404	; 0xfffffe6c
     75c:	6e696775 	mcrvs	7, 3, r6, cr9, cr5, {3}
     760:	6f635c73 	svcvs	0x00635c73
     764:	74732e6d 	ldrbtvc	r2, [r3], #-3693	; 0xfffff193
     768:	6d74732e 	ldclvs	3, cr7, [r4, #-184]!	; 0xffffff48
     76c:	75633233 	strbvc	r3, [r3, #-563]!	; 0xfffffdcd
     770:	692e6562 	stmdbvs	lr!, {r1, r5, r6, r8, sl, sp, lr}
     774:	6d2e6564 	cfstr32vs	mvfx6, [lr, #-400]!	; 0xfffffe70
     778:	652e7563 	strvs	r7, [lr, #-1379]!	; 0xfffffa9d
     77c:	72657478 	rsbvc	r7, r5, #120, 8	; 0x78000000
     780:	746c616e 	strbtvc	r6, [ip], #-366	; 0xfffffe92
     784:	736c6f6f 	cmnvc	ip, #444	; 0x1bc
     788:	756e672e 	strbvc	r6, [lr, #-1838]!	; 0xfffff8d2
     78c:	6f6f742d 	svcvs	0x006f742d
     790:	662d736c 	strtvs	r7, [sp], -ip, ror #6
     794:	732d726f 			; <UNDEFINED> instruction: 0x732d726f
     798:	32336d74 	eorscc	r6, r3, #116, 26	; 0x1d00
     79c:	322d372e 	eorcc	r3, sp, #12058624	; 0xb80000
     7a0:	2d383130 	ldfcss	f3, [r8, #-192]!	; 0xffffff40
     7a4:	752d3271 	strvc	r3, [sp, #-625]!	; 0xfffffd8f
     7a8:	74616470 	strbtvc	r6, [r1], #-1136	; 0xfffffb90
     7ac:	69772e65 	ldmdbvs	r7!, {r0, r2, r5, r6, r9, sl, fp, sp}^
     7b0:	5f32336e 	svcpl	0x0032336e
     7b4:	2e342e31 	mrccs	14, 1, r2, cr4, cr1, {1}
     7b8:	30322e30 	eorscc	r2, r2, r0, lsr lr
     7bc:	37303032 			; <UNDEFINED> instruction: 0x37303032
     7c0:	32313830 	eorscc	r3, r1, #48, 16	; 0x300000
     7c4:	745c3830 	ldrbvc	r3, [ip], #-2096	; 0xfffff7d0
     7c8:	736c6f6f 	cmnvc	ip, #444	; 0x1bc
     7cc:	6d72615c 	ldfvse	f6, [r2, #-368]!	; 0xfffffe90
     7d0:	6e6f6e2d 	cdpvs	14, 6, cr6, cr15, cr13, {1}
     7d4:	61652d65 	cmnvs	r5, r5, ror #26
     7d8:	695c6962 	ldmdbvs	ip, {r1, r5, r6, r8, fp, sp, lr}^
     7dc:	756c636e 	strbvc	r6, [ip, #-878]!	; 0xfffffc92
     7e0:	6d5c6564 	cfldr64vs	mvdx6, [ip, #-400]	; 0xfffffe70
     7e4:	69686361 	stmdbvs	r8!, {r0, r5, r6, r8, r9, sp, lr}^
     7e8:	6300656e 	movwvs	r6, #1390	; 0x56e
     7ec:	74735c3a 	ldrbtvc	r5, [r3], #-3130	; 0xfffff3c6
     7f0:	6d74735c 	ldclvs	3, cr7, [r4, #-368]!	; 0xfffffe90
     7f4:	75633233 	strbvc	r3, [r3, #-563]!	; 0xfffffdcd
     7f8:	64696562 	strbtvs	r6, [r9], #-1378	; 0xfffffa9e
     7fc:	2e315f65 	cdpcs	15, 3, cr5, cr1, cr5, {3}
     800:	5c302e34 	ldcpl	14, cr2, [r0], #-208	; 0xffffff30
     804:	336d7473 	cmncc	sp, #1929379840	; 0x73000000
     808:	62756332 	rsbsvs	r6, r5, #-939524096	; 0xc8000000
     80c:	65646965 	strbvs	r6, [r4, #-2405]!	; 0xfffff69b
     810:	756c705c 	strbvc	r7, [ip, #-92]!	; 0xffffffa4
     814:	736e6967 	cmnvc	lr, #1687552	; 0x19c000
     818:	6d6f635c 	stclvs	3, cr6, [pc, #-368]!	; 6b0 <_Min_Stack_Size+0x2b0>
     81c:	2e74732e 	cdpcs	3, 7, cr7, cr4, cr14, {1}
     820:	336d7473 	cmncc	sp, #1929379840	; 0x73000000
     824:	62756332 	rsbsvs	r6, r5, #-939524096	; 0xc8000000
     828:	64692e65 	strbtvs	r2, [r9], #-3685	; 0xfffff19b
     82c:	636d2e65 	cmnvs	sp, #1616	; 0x650
     830:	78652e75 	stmdavc	r5!, {r0, r2, r4, r5, r6, r9, sl, fp, sp}^
     834:	6e726574 	mrcvs	5, 3, r6, cr2, cr4, {3}
     838:	6f746c61 	svcvs	0x00746c61
     83c:	2e736c6f 	cdpcs	12, 7, cr6, cr3, cr15, {3}
     840:	2d756e67 	ldclcs	14, cr6, [r5, #-412]!	; 0xfffffe64
     844:	6c6f6f74 	stclvs	15, cr6, [pc], #-464	; 67c <_Min_Stack_Size+0x27c>
     848:	6f662d73 	svcvs	0x00662d73
     84c:	74732d72 	ldrbtvc	r2, [r3], #-3442	; 0xfffff28e
     850:	2e32336d 	cdpcs	3, 3, cr3, cr2, cr13, {3}
     854:	30322d37 	eorscc	r2, r2, r7, lsr sp
     858:	712d3831 			; <UNDEFINED> instruction: 0x712d3831
     85c:	70752d32 	rsbsvc	r2, r5, r2, lsr sp
     860:	65746164 	ldrbvs	r6, [r4, #-356]!	; 0xfffffe9c
     864:	6e69772e 	cdpvs	7, 6, cr7, cr9, cr14, {1}
     868:	315f3233 	cmpcc	pc, r3, lsr r2	; <UNPREDICTABLE>
     86c:	302e342e 	eorcc	r3, lr, lr, lsr #8
     870:	3230322e 	eorscc	r3, r0, #-536870910	; 0xe0000002
     874:	30373030 	eorscc	r3, r7, r0, lsr r0
     878:	30323138 	eorscc	r3, r2, r8, lsr r1
     87c:	6f745c38 	svcvs	0x00745c38
     880:	5c736c6f 	ldclpl	12, cr6, [r3], #-444	; 0xfffffe44
     884:	2d6d7261 	sfmcs	f7, 2, [sp, #-388]!	; 0xfffffe7c
     888:	656e6f6e 	strbvs	r6, [lr, #-3950]!	; 0xfffff092
     88c:	6261652d 	rsbvs	r6, r1, #188743680	; 0xb400000
     890:	6e695c69 	cdpvs	12, 6, cr5, cr9, cr9, {3}
     894:	64756c63 	ldrbtvs	r6, [r5], #-3171	; 0xfffff39d
     898:	79735c65 	ldmdbvc	r3!, {r0, r2, r5, r6, sl, fp, ip, lr}^
     89c:	3a630073 	bcc	18c0a70 <_Min_Stack_Size+0x18c0670>
     8a0:	5c74735c 	ldclpl	3, cr7, [r4], #-368	; 0xfffffe90
     8a4:	336d7473 	cmncc	sp, #1929379840	; 0x73000000
     8a8:	62756332 	rsbsvs	r6, r5, #-939524096	; 0xc8000000
     8ac:	65646965 	strbvs	r6, [r4, #-2405]!	; 0xfffff69b
     8b0:	342e315f 	strtcc	r3, [lr], #-351	; 0xfffffea1
     8b4:	735c302e 	cmpvc	ip, #46	; 0x2e
     8b8:	32336d74 	eorscc	r6, r3, #116, 26	; 0x1d00
     8bc:	65627563 	strbvs	r7, [r2, #-1379]!	; 0xfffffa9d
     8c0:	5c656469 	cfstrdpl	mvd6, [r5], #-420	; 0xfffffe5c
     8c4:	67756c70 			; <UNDEFINED> instruction: 0x67756c70
     8c8:	5c736e69 	ldclpl	14, cr6, [r3], #-420	; 0xfffffe5c
     8cc:	2e6d6f63 	cdpcs	15, 6, cr6, cr13, cr3, {3}
     8d0:	732e7473 			; <UNDEFINED> instruction: 0x732e7473
     8d4:	32336d74 	eorscc	r6, r3, #116, 26	; 0x1d00
     8d8:	65627563 	strbvs	r7, [r2, #-1379]!	; 0xfffffa9d
     8dc:	6564692e 	strbvs	r6, [r4, #-2350]!	; 0xfffff6d2
     8e0:	75636d2e 	strbvc	r6, [r3, #-3374]!	; 0xfffff2d2
     8e4:	7478652e 	ldrbtvc	r6, [r8], #-1326	; 0xfffffad2
     8e8:	616e7265 	cmnvs	lr, r5, ror #4
     8ec:	6f6f746c 	svcvs	0x006f746c
     8f0:	672e736c 	strvs	r7, [lr, -ip, ror #6]!
     8f4:	742d756e 	strtvc	r7, [sp], #-1390	; 0xfffffa92
     8f8:	736c6f6f 	cmnvc	ip, #444	; 0x1bc
     8fc:	726f662d 	rsbvc	r6, pc, #47185920	; 0x2d00000
     900:	6d74732d 	ldclvs	3, cr7, [r4, #-180]!	; 0xffffff4c
     904:	372e3233 			; <UNDEFINED> instruction: 0x372e3233
     908:	3130322d 	teqcc	r0, sp, lsr #4
     90c:	32712d38 	rsbscc	r2, r1, #56, 26	; 0xe00
     910:	6470752d 	ldrbtvs	r7, [r0], #-1325	; 0xfffffad3
     914:	2e657461 	cdpcs	4, 6, cr7, cr5, cr1, {3}
     918:	336e6977 	cmncc	lr, #1949696	; 0x1dc000
     91c:	2e315f32 	mrccs	15, 1, r5, cr1, cr2, {1}
     920:	2e302e34 	mrccs	14, 1, r2, cr0, cr4, {1}
     924:	30323032 	eorscc	r3, r2, r2, lsr r0
     928:	38303730 	ldmdacc	r0!, {r4, r5, r8, r9, sl, ip, sp}
     92c:	38303231 	ldmdacc	r0!, {r0, r4, r5, r9, ip, sp}
     930:	6f6f745c 	svcvs	0x006f745c
     934:	6c5c736c 	mrrcvs	3, 6, r7, ip, cr12
     938:	675c6269 	ldrbvs	r6, [ip, -r9, ror #4]
     93c:	615c6363 	cmpvs	ip, r3, ror #6
     940:	6e2d6d72 	mcrvs	13, 1, r6, cr13, cr2, {3}
     944:	2d656e6f 	stclcs	14, cr6, [r5, #-444]!	; 0xfffffe44
     948:	69626165 	stmdbvs	r2!, {r0, r2, r5, r6, r8, sp, lr}^
     94c:	332e375c 			; <UNDEFINED> instruction: 0x332e375c
     950:	695c312e 	ldmdbvs	ip, {r1, r2, r3, r5, r8, ip, sp}^
     954:	756c636e 	strbvc	r6, [ip, #-878]!	; 0xfffffc92
     958:	63006564 	movwvs	r6, #1380	; 0x564
     95c:	74735c3a 	ldrbtvc	r5, [r3], #-3130	; 0xfffff3c6
     960:	6d74735c 	ldclvs	3, cr7, [r4, #-368]!	; 0xfffffe90
     964:	75633233 	strbvc	r3, [r3, #-563]!	; 0xfffffdcd
     968:	64696562 	strbtvs	r6, [r9], #-1378	; 0xfffffa9e
     96c:	2e315f65 	cdpcs	15, 3, cr5, cr1, cr5, {3}
     970:	5c302e34 	ldcpl	14, cr2, [r0], #-208	; 0xffffff30
     974:	336d7473 	cmncc	sp, #1929379840	; 0x73000000
     978:	62756332 	rsbsvs	r6, r5, #-939524096	; 0xc8000000
     97c:	65646965 	strbvs	r6, [r4, #-2405]!	; 0xfffff69b
     980:	756c705c 	strbvc	r7, [ip, #-92]!	; 0xffffffa4
     984:	736e6967 	cmnvc	lr, #1687552	; 0x19c000
     988:	6d6f635c 	stclvs	3, cr6, [pc, #-368]!	; 820 <_Min_Stack_Size+0x420>
     98c:	2e74732e 	cdpcs	3, 7, cr7, cr4, cr14, {1}
     990:	336d7473 	cmncc	sp, #1929379840	; 0x73000000
     994:	62756332 	rsbsvs	r6, r5, #-939524096	; 0xc8000000
     998:	64692e65 	strbtvs	r2, [r9], #-3685	; 0xfffff19b
     99c:	636d2e65 	cmnvs	sp, #1616	; 0x650
     9a0:	78652e75 	stmdavc	r5!, {r0, r2, r4, r5, r6, r9, sl, fp, sp}^
     9a4:	6e726574 	mrcvs	5, 3, r6, cr2, cr4, {3}
     9a8:	6f746c61 	svcvs	0x00746c61
     9ac:	2e736c6f 	cdpcs	12, 7, cr6, cr3, cr15, {3}
     9b0:	2d756e67 	ldclcs	14, cr6, [r5, #-412]!	; 0xfffffe64
     9b4:	6c6f6f74 	stclvs	15, cr6, [pc], #-464	; 7ec <_Min_Stack_Size+0x3ec>
     9b8:	6f662d73 	svcvs	0x00662d73
     9bc:	74732d72 	ldrbtvc	r2, [r3], #-3442	; 0xfffff28e
     9c0:	2e32336d 	cdpcs	3, 3, cr3, cr2, cr13, {3}
     9c4:	30322d37 	eorscc	r2, r2, r7, lsr sp
     9c8:	712d3831 			; <UNDEFINED> instruction: 0x712d3831
     9cc:	70752d32 	rsbsvc	r2, r5, r2, lsr sp
     9d0:	65746164 	ldrbvs	r6, [r4, #-356]!	; 0xfffffe9c
     9d4:	6e69772e 	cdpvs	7, 6, cr7, cr9, cr14, {1}
     9d8:	315f3233 	cmpcc	pc, r3, lsr r2	; <UNPREDICTABLE>
     9dc:	302e342e 	eorcc	r3, lr, lr, lsr #8
     9e0:	3230322e 	eorscc	r3, r0, #-536870910	; 0xe0000002
     9e4:	30373030 	eorscc	r3, r7, r0, lsr r0
     9e8:	30323138 	eorscc	r3, r2, r8, lsr r1
     9ec:	6f745c38 	svcvs	0x00745c38
     9f0:	5c736c6f 	ldclpl	12, cr6, [r3], #-444	; 0xfffffe44
     9f4:	2d6d7261 	sfmcs	f7, 2, [sp, #-388]!	; 0xfffffe7c
     9f8:	656e6f6e 	strbvs	r6, [lr, #-3950]!	; 0xfffff092
     9fc:	6261652d 	rsbvs	r6, r1, #188743680	; 0xb400000
     a00:	6e695c69 	cdpvs	12, 6, cr5, cr9, cr9, {3}
     a04:	64756c63 	ldrbtvs	r6, [r5], #-3171	; 0xfffff39d
     a08:	3a430065 	bcc	10c0ba4 <_Min_Stack_Size+0x10c07a4>
     a0c:	6573552f 	ldrbvs	r5, [r3, #-1327]!	; 0xfffffad1
     a10:	412f7372 			; <UNDEFINED> instruction: 0x412f7372
     a14:	6c616462 	cfstrdvs	mvd6, [r1], #-392	; 0xfffffe78
     a18:	2f68616c 	svccs	0x0068616c
     a1c:	334d5453 	movtcc	r5, #54355	; 0xd453
     a20:	62754332 	rsbsvs	r4, r5, #-939524096	; 0xc8000000
     a24:	45444965 	strbmi	r4, [r4, #-2405]	; 0xfffff69b
     a28:	726f772f 	rsbvc	r7, pc, #12320768	; 0xbc0000
     a2c:	6170736b 	cmnvs	r0, fp, ror #6
     a30:	315f6563 	cmpcc	pc, r3, ror #10
     a34:	302e342e 	eorcc	r3, lr, lr, lsr #8
     a38:	6972442f 	ldmdbvs	r2!, {r0, r1, r2, r3, r5, sl, lr}^
     a3c:	73726576 	cmnvc	r2, #494927872	; 0x1d800000
     a40:	58455f32 	stmdapl	r5, {r1, r4, r5, r8, r9, sl, fp, ip, lr}^
     a44:	532f4954 			; <UNDEFINED> instruction: 0x532f4954
     a48:	32336d74 	eorscc	r6, r3, #116, 26	; 0x1d00
     a4c:	3031465f 	eorscc	r4, r1, pc, asr r6
     a50:	5f364333 	svcpl	0x00364333
     a54:	76697244 	strbtvc	r7, [r9], -r4, asr #4
     a58:	2f737265 	svccs	0x00737265
     a5c:	00636e69 	rsbeq	r6, r3, r9, ror #28
     a60:	735c3a63 	cmpvc	ip, #405504	; 0x63000
     a64:	74735c74 	ldrbtvc	r5, [r3], #-3188	; 0xfffff38c
     a68:	6332336d 	teqvs	r2, #-1275068415	; 0xb4000001
     a6c:	69656275 	stmdbvs	r5!, {r0, r2, r4, r5, r6, r9, sp, lr}^
     a70:	315f6564 	cmpcc	pc, r4, ror #10
     a74:	302e342e 	eorcc	r3, lr, lr, lsr #8
     a78:	6d74735c 	ldclvs	3, cr7, [r4, #-368]!	; 0xfffffe90
     a7c:	75633233 	strbvc	r3, [r3, #-563]!	; 0xfffffdcd
     a80:	64696562 	strbtvs	r6, [r9], #-1378	; 0xfffffa9e
     a84:	6c705c65 	ldclvs	12, cr5, [r0], #-404	; 0xfffffe6c
     a88:	6e696775 	mcrvs	7, 3, r6, cr9, cr5, {3}
     a8c:	6f635c73 	svcvs	0x00635c73
     a90:	74732e6d 	ldrbtvc	r2, [r3], #-3693	; 0xfffff193
     a94:	6d74732e 	ldclvs	3, cr7, [r4, #-184]!	; 0xffffff48
     a98:	75633233 	strbvc	r3, [r3, #-563]!	; 0xfffffdcd
     a9c:	692e6562 	stmdbvs	lr!, {r1, r5, r6, r8, sl, sp, lr}
     aa0:	6d2e6564 	cfstr32vs	mvfx6, [lr, #-400]!	; 0xfffffe70
     aa4:	652e7563 	strvs	r7, [lr, #-1379]!	; 0xfffffa9d
     aa8:	72657478 	rsbvc	r7, r5, #120, 8	; 0x78000000
     aac:	746c616e 	strbtvc	r6, [ip], #-366	; 0xfffffe92
     ab0:	736c6f6f 	cmnvc	ip, #444	; 0x1bc
     ab4:	756e672e 	strbvc	r6, [lr, #-1838]!	; 0xfffff8d2
     ab8:	6f6f742d 	svcvs	0x006f742d
     abc:	662d736c 	strtvs	r7, [sp], -ip, ror #6
     ac0:	732d726f 			; <UNDEFINED> instruction: 0x732d726f
     ac4:	32336d74 	eorscc	r6, r3, #116, 26	; 0x1d00
     ac8:	322d372e 	eorcc	r3, sp, #12058624	; 0xb80000
     acc:	2d383130 	ldfcss	f3, [r8, #-192]!	; 0xffffff40
     ad0:	752d3271 	strvc	r3, [sp, #-625]!	; 0xfffffd8f
     ad4:	74616470 	strbtvc	r6, [r1], #-1136	; 0xfffffb90
     ad8:	69772e65 	ldmdbvs	r7!, {r0, r2, r5, r6, r9, sl, fp, sp}^
     adc:	5f32336e 	svcpl	0x0032336e
     ae0:	2e342e31 	mrccs	14, 1, r2, cr4, cr1, {1}
     ae4:	30322e30 	eorscc	r2, r2, r0, lsr lr
     ae8:	37303032 			; <UNDEFINED> instruction: 0x37303032
     aec:	32313830 	eorscc	r3, r1, #48, 16	; 0x300000
     af0:	745c3830 	ldrbvc	r3, [ip], #-2096	; 0xfffff7d0
     af4:	736c6f6f 	cmnvc	ip, #444	; 0x1bc
     af8:	6d72615c 	ldfvse	f6, [r2, #-368]!	; 0xfffffe90
     afc:	6e6f6e2d 	cdpvs	14, 6, cr6, cr15, cr13, {1}
     b00:	61652d65 	cmnvs	r5, r5, ror #26
     b04:	695c6962 	ldmdbvs	ip, {r1, r5, r6, r8, fp, sp, lr}^
     b08:	756c636e 	strbvc	r6, [ip, #-878]!	; 0xfffffc92
     b0c:	6e5c6564 	cdpvs	5, 5, cr6, cr12, cr4, {3}
     b10:	696c7765 	stmdbvs	ip!, {r0, r2, r5, r6, r8, r9, sl, ip, sp, lr}^
     b14:	616e2d62 	cmnvs	lr, r2, ror #26
     b18:	00006f6e 	andeq	r6, r0, lr, ror #30
     b1c:	336d7453 	cmncc	sp, #1392508928	; 0x53000000
     b20:	31465f32 	cmpcc	r6, r2, lsr pc
     b24:	36433330 			; <UNDEFINED> instruction: 0x36433330
     b28:	5458455f 	ldrbpl	r4, [r8], #-1375	; 0xfffffaa1
     b2c:	72645f49 	rsbvc	r5, r4, #292	; 0x124
     b30:	72657669 	rsbvc	r7, r5, #110100480	; 0x6900000
     b34:	0100632e 	tsteq	r0, lr, lsr #6
     b38:	645f0000 	ldrbvs	r0, [pc], #-0	; b40 <_Min_Stack_Size+0x740>
     b3c:	75616665 	strbvc	r6, [r1, #-1637]!	; 0xfffff99b
     b40:	745f746c 	ldrbvc	r7, [pc], #-1132	; b48 <_Min_Stack_Size+0x748>
     b44:	73657079 	cmnvc	r5, #121	; 0x79
     b48:	0200682e 	andeq	r6, r0, #3014656	; 0x2e0000
     b4c:	6f6c0000 	svcvs	0x006c0000
     b50:	682e6b63 	stmdavs	lr!, {r0, r1, r5, r6, r8, r9, fp, sp, lr}
     b54:	00000300 	andeq	r0, r0, r0, lsl #6
     b58:	7079745f 	rsbsvc	r7, r9, pc, asr r4
     b5c:	682e7365 	stmdavs	lr!, {r0, r2, r5, r6, r8, r9, ip, sp, lr}
     b60:	00000300 	andeq	r0, r0, r0, lsl #6
     b64:	64647473 	strbtvs	r7, [r4], #-1139	; 0xfffffb8d
     b68:	682e6665 	stmdavs	lr!, {r0, r2, r5, r6, r9, sl, sp, lr}
     b6c:	00000400 	andeq	r0, r0, r0, lsl #8
     b70:	6e656572 	mcrvs	5, 3, r6, cr5, cr2, {3}
     b74:	00682e74 	rsbeq	r2, r8, r4, ror lr
     b78:	73000003 	movwvc	r0, #3
     b7c:	696c6474 	stmdbvs	ip!, {r2, r4, r5, r6, sl, sp, lr}^
     b80:	00682e62 	rsbeq	r2, r8, r2, ror #28
     b84:	5f000005 	svcpl	0x00000005
     b88:	69647473 	stmdbvs	r4!, {r0, r1, r4, r5, r6, sl, ip, sp, lr}^
     b8c:	682e746e 	stmdavs	lr!, {r1, r2, r3, r5, r6, sl, ip, sp, lr}
     b90:	00000300 	andeq	r0, r0, r0, lsl #6
     b94:	336d7473 	cmncc	sp, #1929379840	; 0x73000000
     b98:	30316632 	eorscc	r6, r1, r2, lsr r6
     b9c:	2e366333 	mrccs	3, 1, r6, cr6, cr3, {1}
     ba0:	00060068 	andeq	r0, r6, r8, rrx
     ba4:	6d745300 	ldclvs	3, cr5, [r4, #-0]
     ba8:	465f3233 			; <UNDEFINED> instruction: 0x465f3233
     bac:	43333031 	teqmi	r3, #49	; 0x31
     bb0:	70675f36 	rsbvc	r5, r7, r6, lsr pc
     bb4:	645f6f69 	ldrbvs	r6, [pc], #-3945	; bbc <_Min_Stack_Size+0x7bc>
     bb8:	65766972 	ldrbvs	r6, [r6, #-2418]!	; 0xfffff68e
     bbc:	00682e72 	rsbeq	r2, r8, r2, ror lr
     bc0:	53000006 	movwpl	r0, #6
     bc4:	32336d74 	eorscc	r6, r3, #116, 26	; 0x1d00
     bc8:	3031465f 	eorscc	r4, r1, pc, asr r6
     bcc:	5f364333 	svcpl	0x00364333
     bd0:	49545845 	ldmdbmi	r4, {r0, r2, r6, fp, ip, lr}^
     bd4:	6972645f 	ldmdbvs	r2!, {r0, r1, r2, r3, r4, r6, sl, sp, lr}^
     bd8:	2e726576 	mrccs	5, 3, r6, cr2, cr6, {3}
     bdc:	00060068 	andeq	r0, r6, r8, rrx
     be0:	65656900 	strbvs	r6, [r5, #-2304]!	; 0xfffff700
     be4:	2e706665 	cdpcs	6, 7, cr6, cr0, cr5, {3}
     be8:	00020068 	andeq	r0, r2, r8, rrx
     bec:	6e615f00 	cdpvs	15, 6, cr5, cr1, cr0, {0}
     bf0:	682e6973 	stmdavs	lr!, {r0, r1, r4, r5, r6, r8, fp, sp, lr}
     bf4:	00000500 	andeq	r0, r0, r0, lsl #10
     bf8:	6c77656e 	cfldr64vs	mvdx6, [r7], #-440	; 0xfffffe48
     bfc:	682e6269 	stmdavs	lr!, {r0, r3, r5, r6, r9, sp, lr}
     c00:	00000700 	andeq	r0, r0, r0, lsl #14
     c04:	77656e5f 			; <UNDEFINED> instruction: 0x77656e5f
     c08:	5f62696c 	svcpl	0x0062696c
     c0c:	73726576 	cmnvc	r2, #494927872	; 0x1d800000
     c10:	2e6e6f69 	cdpcs	15, 6, cr6, cr14, cr9, {3}
     c14:	00050068 	andeq	r0, r5, r8, rrx
     c18:	6e6f6300 	cdpvs	3, 6, cr6, cr15, cr0, {0}
     c1c:	2e676966 	vnmulcs.f16	s13, s14, s13	; <UNPREDICTABLE>
     c20:	00030068 	andeq	r0, r3, r8, rrx
     c24:	61656600 	cmnvs	r5, r0, lsl #12
     c28:	65727574 	ldrbvs	r7, [r2, #-1396]!	; 0xfffffa8c
     c2c:	00682e73 	rsbeq	r2, r8, r3, ror lr
     c30:	5f000003 	svcpl	0x00000003
     c34:	65707974 	ldrbvs	r7, [r0, #-2420]!	; 0xfffff68c
     c38:	00682e73 	rsbeq	r2, r8, r3, ror lr
     c3c:	63000002 	movwvs	r0, #2
     c40:	73666564 	cmnvc	r6, #100, 10	; 0x19000000
     c44:	0300682e 	movweq	r6, #2094	; 0x82e
     c48:	74730000 	ldrbtvc	r0, [r3], #-0
     c4c:	62696c64 	rsbvs	r6, r9, #100, 24	; 0x6400
     c50:	0200682e 	andeq	r6, r0, #3014656	; 0x2e0000
     c54:	6c610000 	stclvs	0, cr0, [r1], #-0
     c58:	61636f6c 	cmnvs	r3, ip, ror #30
     c5c:	0500682e 	streq	r6, [r0, #-2094]	; 0xfffff7d2
     c60:	74730000 	ldrbtvc	r0, [r3], #-0
     c64:	746e6964 	strbtvc	r6, [lr], #-2404	; 0xfffff69c
     c68:	0400682e 	streq	r6, [r0], #-2094	; 0xfffff7d2
     c6c:	74730000 	ldrbtvc	r0, [r3], #-0
     c70:	746e6964 	strbtvc	r6, [lr], #-2404	; 0xfffff69c
     c74:	0500682e 	streq	r6, [r0, #-2094]	; 0xfffff7d2
     c78:	695f0000 	ldmdbvs	pc, {}^	; <UNPREDICTABLE>
     c7c:	7573746e 	ldrbvc	r7, [r3, #-1134]!	; 0xfffffb92
     c80:	00682e70 	rsbeq	r2, r8, r0, ror lr
     c84:	00000003 	andeq	r0, r0, r3
     c88:	c0020500 	andgt	r0, r2, r0, lsl #10
     c8c:	03080003 	movweq	r0, #32771	; 0x8003
     c90:	02590129 	subseq	r0, r9, #1073741834	; 0x4000000a
     c94:	22671527 	rsbcs	r1, r7, #163577856	; 0x9c00000
     c98:	22672267 	rsbcs	r2, r7, #1879048198	; 0x70000006
     c9c:	26672267 	strbtcs	r2, [r7], -r7, ror #4
     ca0:	22672767 	rsbcs	r2, r7, #27000832	; 0x19c0000
     ca4:	01000902 	tsteq	r0, r2, lsl #18
     ca8:	02050001 	andeq	r0, r5, #1
     cac:	0800048c 	stmdaeq	r0, {r2, r3, r7, sl}
     cb0:	0100cf03 	tsteq	r0, r3, lsl #30
     cb4:	15270259 	strne	r0, [r7, #-601]!	; 0xfffffda7
     cb8:	22672267 	rsbcs	r2, r7, #1879048198	; 0x70000006
     cbc:	22672267 	rsbcs	r2, r7, #1879048198	; 0x70000006
     cc0:	27672667 	strbcs	r2, [r7, -r7, ror #12]!
     cc4:	09022267 	stmdbeq	r2, {r0, r1, r2, r5, r6, r9, sp}
     cc8:	00010100 	andeq	r0, r1, r0, lsl #2
     ccc:	05580205 	ldrbeq	r0, [r8, #-517]	; 0xfffffdfb
     cd0:	f6030800 			; <UNDEFINED> instruction: 0xf6030800
     cd4:	3d4e0100 	stfcce	f0, [lr, #-0]
     cd8:	865a882f 	ldrbhi	r8, [sl], -pc, lsr #16
     cdc:	02001408 	andeq	r1, r0, #8, 8	; 0x8000000
     ce0:	9e060104 	adflss	f0, f6, f4
     ce4:	03040200 	movweq	r0, #16896	; 0x4200
     ce8:	04020058 	streq	r0, [r2], #-88	; 0xffffffa8
     cec:	02005805 	andeq	r5, r0, #327680	; 0x50000
     cf0:	00580704 	subseq	r0, r8, r4, lsl #14
     cf4:	2e080402 	cdpcs	4, 0, cr0, cr8, cr2, {0}
     cf8:	06040200 	streq	r0, [r4], -r0, lsl #4
     cfc:	0402002e 	streq	r0, [r2], #-46	; 0xffffffd2
     d00:	02002e04 	andeq	r2, r0, #4, 28	; 0x40
     d04:	002e0204 	eoreq	r0, lr, r4, lsl #4
     d08:	20100402 	andscs	r0, r0, r2, lsl #8
     d0c:	10040200 	andne	r0, r4, r0, lsl #4
     d10:	02009806 	andeq	r9, r0, #393216	; 0x60000
     d14:	00bb1004 	adcseq	r1, fp, r4
     d18:	bd100402 	cfldrslt	mvf0, [r0, #-8]
     d1c:	bb4cbb4c 	bllt	132fa54 <_Min_Stack_Size+0x132f654>
     d20:	0a03ad4c 	beq	ec258 <_Min_Stack_Size+0xebe58>
     d24:	820903ac 	andhi	r0, r9, #172, 6	; 0xb0000002
     d28:	1b60ad4c 	blne	182c260 <_Min_Stack_Size+0x182be60>
     d2c:	12025cbb 	andne	r5, r2, #47872	; 0xbb00
     d30:	00010100 	andeq	r0, r1, r0, lsl #2
     d34:	00000205 	andeq	r0, r0, r5, lsl #4
     d38:	ca030000 	bgt	c0d40 <_Min_Stack_Size+0xc0940>
     d3c:	3d310101 	ldfccs	f0, [r1, #-4]!
     d40:	3d3d3d3d 	ldccc	13, cr3, [sp, #-244]!	; 0xffffff0c
     d44:	67674d3d 			; <UNDEFINED> instruction: 0x67674d3d
     d48:	67676767 	strbvs	r6, [r7, -r7, ror #14]!
     d4c:	000a0267 	andeq	r0, sl, r7, ror #4
     d50:	05000101 	streq	r0, [r0, #-257]	; 0xfffffeff
     d54:	00073002 	andeq	r3, r7, r2
     d58:	01ec0308 	mvneq	r0, r8, lsl #6
     d5c:	023d4b01 	eorseq	r4, sp, #1024	; 0x400
     d60:	01010004 	tsteq	r1, r4
     d64:	00020500 	andeq	r0, r2, r0, lsl #10
     d68:	03000000 	movweq	r0, #0
     d6c:	4b0101fc 	blmi	41564 <_Min_Stack_Size+0x41164>
     d70:	0004023d 	andeq	r0, r4, sp, lsr r2
     d74:	05000101 	streq	r0, [r0, #-257]	; 0xfffffeff
     d78:	00074802 	andeq	r4, r7, r2, lsl #16
     d7c:	028a0308 	addeq	r0, sl, #8, 6	; 0x20000000
     d80:	3e693101 	powcce	f3, f1, f1
     d84:	01000702 	tsteq	r0, r2, lsl #14
     d88:	02050001 	andeq	r0, r5, #1
     d8c:	0800076c 	stmdaeq	r0, {r2, r3, r5, r6, r8, r9, sl}
     d90:	01029603 	tsteq	r2, r3, lsl #12
     d94:	023d6930 	eorseq	r6, sp, #48, 18	; 0xc0000
     d98:	01010007 	tsteq	r1, r7
     d9c:	90020500 	andls	r0, r2, r0, lsl #10
     da0:	03080007 	movweq	r0, #32775	; 0x8007
     da4:	300102a0 	andcc	r0, r1, r0, lsr #5
     da8:	07023d69 	streq	r3, [r2, -r9, ror #26]
     dac:	00010100 	andeq	r0, r1, r0, lsl #2
     db0:	07b40205 	ldreq	r0, [r4, r5, lsl #4]!
     db4:	ab030800 	blge	c2dbc <_Min_Stack_Size+0xc29bc>
     db8:	69300102 	ldmdbvs	r0!, {r1, r8}
     dbc:	0007023d 	andeq	r0, r7, sp, lsr r2
     dc0:	05000101 	streq	r0, [r0, #-257]	; 0xfffffeff
     dc4:	0007d802 	andeq	sp, r7, r2, lsl #16
     dc8:	02b60308 	adcseq	r0, r6, #8, 6	; 0x20000000
     dcc:	3d693001 	stclcc	0, cr3, [r9, #-4]!
     dd0:	01000702 	tsteq	r0, r2, lsl #14
     dd4:	02050001 	andeq	r0, r5, #1
     dd8:	080007fc 	stmdaeq	r0, {r2, r3, r4, r5, r6, r7, r8, r9, sl}
     ddc:	0102c103 	tsteq	r2, r3, lsl #2
     de0:	04020030 	streq	r0, [r2], #-48	; 0xffffffd0
     de4:	06660601 	strbteq	r0, [r6], -r1, lsl #12
     de8:	04020091 	streq	r0, [r2], #-145	; 0xffffff6f
     dec:	06660601 	strbteq	r0, [r6], -r1, lsl #12
     df0:	04020091 	streq	r0, [r2], #-145	; 0xffffff6f
     df4:	06660601 	strbteq	r0, [r6], -r1, lsl #12
     df8:	04020091 	streq	r0, [r2], #-145	; 0xffffff6f
     dfc:	06660601 	strbteq	r0, [r6], -r1, lsl #12
     e00:	04020091 	streq	r0, [r2], #-145	; 0xffffff6f
     e04:	06660601 	strbteq	r0, [r6], -r1, lsl #12
     e08:	00070291 	muleq	r7, r1, r2
     e0c:	05000101 	streq	r0, [r0, #-257]	; 0xfffffeff
     e10:	0008a402 	andeq	sl, r8, r2, lsl #8
     e14:	02cd0308 	sbceq	r0, sp, #8, 6	; 0x20000000
     e18:	02003001 	andeq	r3, r0, #1
     e1c:	66060104 	strvs	r0, [r6], -r4, lsl #2
     e20:	02009106 	andeq	r9, r0, #-2147483647	; 0x80000001
     e24:	66060104 	strvs	r0, [r6], -r4, lsl #2
     e28:	02009106 	andeq	r9, r0, #-2147483647	; 0x80000001
     e2c:	66060104 	strvs	r0, [r6], -r4, lsl #2
     e30:	02009106 	andeq	r9, r0, #-2147483647	; 0x80000001
     e34:	66060104 	strvs	r0, [r6], -r4, lsl #2
     e38:	02009106 	andeq	r9, r0, #-2147483647	; 0x80000001
     e3c:	66060104 	strvs	r0, [r6], -r4, lsl #2
     e40:	02009106 	andeq	r9, r0, #-2147483647	; 0x80000001
     e44:	66060104 	strvs	r0, [r6], -r4, lsl #2
     e48:	06029106 	streq	r9, [r2], -r6, lsl #2
     e4c:	90010100 	andls	r0, r1, r0, lsl #2
     e50:	02000006 	andeq	r0, r0, #6
     e54:	00056400 	andeq	r6, r5, r0, lsl #8
     e58:	fb010200 	blx	41662 <_Min_Stack_Size+0x41262>
     e5c:	01000d0e 	tsteq	r0, lr, lsl #26
     e60:	00010101 	andeq	r0, r1, r1, lsl #2
     e64:	00010000 	andeq	r0, r1, r0
     e68:	2e2e0100 	sufcse	f0, f6, f0
     e6c:	6d74532f 	ldclvs	3, cr5, [r4, #-188]!	; 0xffffff44
     e70:	465f3233 			; <UNDEFINED> instruction: 0x465f3233
     e74:	43333031 	teqmi	r3, #49	; 0x31
     e78:	72445f36 	subvc	r5, r4, #54, 30	; 0xd8
     e7c:	72657669 	rsbvc	r7, r5, #110100480	; 0x6900000
     e80:	50472f73 	subpl	r2, r7, r3, ror pc
     e84:	63004f49 	movwvs	r4, #3913	; 0xf49
     e88:	74735c3a 	ldrbtvc	r5, [r3], #-3130	; 0xfffff3c6
     e8c:	6d74735c 	ldclvs	3, cr7, [r4, #-368]!	; 0xfffffe90
     e90:	75633233 	strbvc	r3, [r3, #-563]!	; 0xfffffdcd
     e94:	64696562 	strbtvs	r6, [r9], #-1378	; 0xfffffa9e
     e98:	2e315f65 	cdpcs	15, 3, cr5, cr1, cr5, {3}
     e9c:	5c302e34 	ldcpl	14, cr2, [r0], #-208	; 0xffffff30
     ea0:	336d7473 	cmncc	sp, #1929379840	; 0x73000000
     ea4:	62756332 	rsbsvs	r6, r5, #-939524096	; 0xc8000000
     ea8:	65646965 	strbvs	r6, [r4, #-2405]!	; 0xfffff69b
     eac:	756c705c 	strbvc	r7, [ip, #-92]!	; 0xffffffa4
     eb0:	736e6967 	cmnvc	lr, #1687552	; 0x19c000
     eb4:	6d6f635c 	stclvs	3, cr6, [pc, #-368]!	; d4c <_Min_Stack_Size+0x94c>
     eb8:	2e74732e 	cdpcs	3, 7, cr7, cr4, cr14, {1}
     ebc:	336d7473 	cmncc	sp, #1929379840	; 0x73000000
     ec0:	62756332 	rsbsvs	r6, r5, #-939524096	; 0xc8000000
     ec4:	64692e65 	strbtvs	r2, [r9], #-3685	; 0xfffff19b
     ec8:	636d2e65 	cmnvs	sp, #1616	; 0x650
     ecc:	78652e75 	stmdavc	r5!, {r0, r2, r4, r5, r6, r9, sl, fp, sp}^
     ed0:	6e726574 	mrcvs	5, 3, r6, cr2, cr4, {3}
     ed4:	6f746c61 	svcvs	0x00746c61
     ed8:	2e736c6f 	cdpcs	12, 7, cr6, cr3, cr15, {3}
     edc:	2d756e67 	ldclcs	14, cr6, [r5, #-412]!	; 0xfffffe64
     ee0:	6c6f6f74 	stclvs	15, cr6, [pc], #-464	; d18 <_Min_Stack_Size+0x918>
     ee4:	6f662d73 	svcvs	0x00662d73
     ee8:	74732d72 	ldrbtvc	r2, [r3], #-3442	; 0xfffff28e
     eec:	2e32336d 	cdpcs	3, 3, cr3, cr2, cr13, {3}
     ef0:	30322d37 	eorscc	r2, r2, r7, lsr sp
     ef4:	712d3831 			; <UNDEFINED> instruction: 0x712d3831
     ef8:	70752d32 	rsbsvc	r2, r5, r2, lsr sp
     efc:	65746164 	ldrbvs	r6, [r4, #-356]!	; 0xfffffe9c
     f00:	6e69772e 	cdpvs	7, 6, cr7, cr9, cr14, {1}
     f04:	315f3233 	cmpcc	pc, r3, lsr r2	; <UNPREDICTABLE>
     f08:	302e342e 	eorcc	r3, lr, lr, lsr #8
     f0c:	3230322e 	eorscc	r3, r0, #-536870910	; 0xe0000002
     f10:	30373030 	eorscc	r3, r7, r0, lsr r0
     f14:	30323138 	eorscc	r3, r2, r8, lsr r1
     f18:	6f745c38 	svcvs	0x00745c38
     f1c:	5c736c6f 	ldclpl	12, cr6, [r3], #-444	; 0xfffffe44
     f20:	2d6d7261 	sfmcs	f7, 2, [sp, #-388]!	; 0xfffffe7c
     f24:	656e6f6e 	strbvs	r6, [lr, #-3950]!	; 0xfffff092
     f28:	6261652d 	rsbvs	r6, r1, #188743680	; 0xb400000
     f2c:	6e695c69 	cdpvs	12, 6, cr5, cr9, cr9, {3}
     f30:	64756c63 	ldrbtvs	r6, [r5], #-3171	; 0xfffff39d
     f34:	616d5c65 	cmnvs	sp, r5, ror #24
     f38:	6e696863 	cdpvs	8, 6, cr6, cr9, cr3, {3}
     f3c:	3a630065 	bcc	18c10d8 <_Min_Stack_Size+0x18c0cd8>
     f40:	5c74735c 	ldclpl	3, cr7, [r4], #-368	; 0xfffffe90
     f44:	336d7473 	cmncc	sp, #1929379840	; 0x73000000
     f48:	62756332 	rsbsvs	r6, r5, #-939524096	; 0xc8000000
     f4c:	65646965 	strbvs	r6, [r4, #-2405]!	; 0xfffff69b
     f50:	342e315f 	strtcc	r3, [lr], #-351	; 0xfffffea1
     f54:	735c302e 	cmpvc	ip, #46	; 0x2e
     f58:	32336d74 	eorscc	r6, r3, #116, 26	; 0x1d00
     f5c:	65627563 	strbvs	r7, [r2, #-1379]!	; 0xfffffa9d
     f60:	5c656469 	cfstrdpl	mvd6, [r5], #-420	; 0xfffffe5c
     f64:	67756c70 			; <UNDEFINED> instruction: 0x67756c70
     f68:	5c736e69 	ldclpl	14, cr6, [r3], #-420	; 0xfffffe5c
     f6c:	2e6d6f63 	cdpcs	15, 6, cr6, cr13, cr3, {3}
     f70:	732e7473 			; <UNDEFINED> instruction: 0x732e7473
     f74:	32336d74 	eorscc	r6, r3, #116, 26	; 0x1d00
     f78:	65627563 	strbvs	r7, [r2, #-1379]!	; 0xfffffa9d
     f7c:	6564692e 	strbvs	r6, [r4, #-2350]!	; 0xfffff6d2
     f80:	75636d2e 	strbvc	r6, [r3, #-3374]!	; 0xfffff2d2
     f84:	7478652e 	ldrbtvc	r6, [r8], #-1326	; 0xfffffad2
     f88:	616e7265 	cmnvs	lr, r5, ror #4
     f8c:	6f6f746c 	svcvs	0x006f746c
     f90:	672e736c 	strvs	r7, [lr, -ip, ror #6]!
     f94:	742d756e 	strtvc	r7, [sp], #-1390	; 0xfffffa92
     f98:	736c6f6f 	cmnvc	ip, #444	; 0x1bc
     f9c:	726f662d 	rsbvc	r6, pc, #47185920	; 0x2d00000
     fa0:	6d74732d 	ldclvs	3, cr7, [r4, #-180]!	; 0xffffff4c
     fa4:	372e3233 			; <UNDEFINED> instruction: 0x372e3233
     fa8:	3130322d 	teqcc	r0, sp, lsr #4
     fac:	32712d38 	rsbscc	r2, r1, #56, 26	; 0xe00
     fb0:	6470752d 	ldrbtvs	r7, [r0], #-1325	; 0xfffffad3
     fb4:	2e657461 	cdpcs	4, 6, cr7, cr5, cr1, {3}
     fb8:	336e6977 	cmncc	lr, #1949696	; 0x1dc000
     fbc:	2e315f32 	mrccs	15, 1, r5, cr1, cr2, {1}
     fc0:	2e302e34 	mrccs	14, 1, r2, cr0, cr4, {1}
     fc4:	30323032 	eorscc	r3, r2, r2, lsr r0
     fc8:	38303730 	ldmdacc	r0!, {r4, r5, r8, r9, sl, ip, sp}
     fcc:	38303231 	ldmdacc	r0!, {r0, r4, r5, r9, ip, sp}
     fd0:	6f6f745c 	svcvs	0x006f745c
     fd4:	615c736c 	cmpvs	ip, ip, ror #6
     fd8:	6e2d6d72 	mcrvs	13, 1, r6, cr13, cr2, {3}
     fdc:	2d656e6f 	stclcs	14, cr6, [r5, #-444]!	; 0xfffffe44
     fe0:	69626165 	stmdbvs	r2!, {r0, r2, r5, r6, r8, sp, lr}^
     fe4:	636e695c 	cmnvs	lr, #92, 18	; 0x170000
     fe8:	6564756c 	strbvs	r7, [r4, #-1388]!	; 0xfffffa94
     fec:	7379735c 	cmnvc	r9, #92, 6	; 0x70000001
     ff0:	5c3a6300 	ldcpl	3, cr6, [sl], #-0
     ff4:	735c7473 	cmpvc	ip, #1929379840	; 0x73000000
     ff8:	32336d74 	eorscc	r6, r3, #116, 26	; 0x1d00
     ffc:	65627563 	strbvs	r7, [r2, #-1379]!	; 0xfffffa9d
    1000:	5f656469 	svcpl	0x00656469
    1004:	2e342e31 	mrccs	14, 1, r2, cr4, cr1, {1}
    1008:	74735c30 	ldrbtvc	r5, [r3], #-3120	; 0xfffff3d0
    100c:	6332336d 	teqvs	r2, #-1275068415	; 0xb4000001
    1010:	69656275 	stmdbvs	r5!, {r0, r2, r4, r5, r6, r9, sp, lr}^
    1014:	705c6564 	subsvc	r6, ip, r4, ror #10
    1018:	6967756c 	stmdbvs	r7!, {r2, r3, r5, r6, r8, sl, ip, sp, lr}^
    101c:	635c736e 	cmpvs	ip, #-1207959551	; 0xb8000001
    1020:	732e6d6f 			; <UNDEFINED> instruction: 0x732e6d6f
    1024:	74732e74 	ldrbtvc	r2, [r3], #-3700	; 0xfffff18c
    1028:	6332336d 	teqvs	r2, #-1275068415	; 0xb4000001
    102c:	2e656275 	mcrcs	2, 3, r6, cr5, cr5, {3}
    1030:	2e656469 	cdpcs	4, 6, cr6, cr5, cr9, {3}
    1034:	2e75636d 	cdpcs	3, 7, cr6, cr5, cr13, {3}
    1038:	65747865 	ldrbvs	r7, [r4, #-2149]!	; 0xfffff79b
    103c:	6c616e72 	stclvs	14, cr6, [r1], #-456	; 0xfffffe38
    1040:	6c6f6f74 	stclvs	15, cr6, [pc], #-464	; e78 <_Min_Stack_Size+0xa78>
    1044:	6e672e73 	mcrvs	14, 3, r2, cr7, cr3, {3}
    1048:	6f742d75 	svcvs	0x00742d75
    104c:	2d736c6f 	ldclcs	12, cr6, [r3, #-444]!	; 0xfffffe44
    1050:	2d726f66 	ldclcs	15, cr6, [r2, #-408]!	; 0xfffffe68
    1054:	336d7473 	cmncc	sp, #1929379840	; 0x73000000
    1058:	2d372e32 	ldccs	14, cr2, [r7, #-200]!	; 0xffffff38
    105c:	38313032 	ldmdacc	r1!, {r1, r4, r5, ip, sp}
    1060:	2d32712d 	ldfcss	f7, [r2, #-180]!	; 0xffffff4c
    1064:	61647075 	smcvs	18181	; 0x4705
    1068:	772e6574 			; <UNDEFINED> instruction: 0x772e6574
    106c:	32336e69 	eorscc	r6, r3, #1680	; 0x690
    1070:	342e315f 	strtcc	r3, [lr], #-351	; 0xfffffea1
    1074:	322e302e 	eorcc	r3, lr, #46	; 0x2e
    1078:	30303230 	eorscc	r3, r0, r0, lsr r2
    107c:	31383037 	teqcc	r8, r7, lsr r0
    1080:	5c383032 	ldcpl	0, cr3, [r8], #-200	; 0xffffff38
    1084:	6c6f6f74 	stclvs	15, cr6, [pc], #-464	; ebc <_Min_Stack_Size+0xabc>
    1088:	696c5c73 	stmdbvs	ip!, {r0, r1, r4, r5, r6, sl, fp, ip, lr}^
    108c:	63675c62 	cmnvs	r7, #25088	; 0x6200
    1090:	72615c63 	rsbvc	r5, r1, #25344	; 0x6300
    1094:	6f6e2d6d 	svcvs	0x006e2d6d
    1098:	652d656e 	strvs	r6, [sp, #-1390]!	; 0xfffffa92
    109c:	5c696261 	sfmpl	f6, 2, [r9], #-388	; 0xfffffe7c
    10a0:	2e332e37 	mrccs	14, 1, r2, cr3, cr7, {1}
    10a4:	6e695c31 	mcrvs	12, 3, r5, cr9, cr1, {1}
    10a8:	64756c63 	ldrbtvs	r6, [r5], #-3171	; 0xfffff39d
    10ac:	3a630065 	bcc	18c1248 <_Min_Stack_Size+0x18c0e48>
    10b0:	5c74735c 	ldclpl	3, cr7, [r4], #-368	; 0xfffffe90
    10b4:	336d7473 	cmncc	sp, #1929379840	; 0x73000000
    10b8:	62756332 	rsbsvs	r6, r5, #-939524096	; 0xc8000000
    10bc:	65646965 	strbvs	r6, [r4, #-2405]!	; 0xfffff69b
    10c0:	342e315f 	strtcc	r3, [lr], #-351	; 0xfffffea1
    10c4:	735c302e 	cmpvc	ip, #46	; 0x2e
    10c8:	32336d74 	eorscc	r6, r3, #116, 26	; 0x1d00
    10cc:	65627563 	strbvs	r7, [r2, #-1379]!	; 0xfffffa9d
    10d0:	5c656469 	cfstrdpl	mvd6, [r5], #-420	; 0xfffffe5c
    10d4:	67756c70 			; <UNDEFINED> instruction: 0x67756c70
    10d8:	5c736e69 	ldclpl	14, cr6, [r3], #-420	; 0xfffffe5c
    10dc:	2e6d6f63 	cdpcs	15, 6, cr6, cr13, cr3, {3}
    10e0:	732e7473 			; <UNDEFINED> instruction: 0x732e7473
    10e4:	32336d74 	eorscc	r6, r3, #116, 26	; 0x1d00
    10e8:	65627563 	strbvs	r7, [r2, #-1379]!	; 0xfffffa9d
    10ec:	6564692e 	strbvs	r6, [r4, #-2350]!	; 0xfffff6d2
    10f0:	75636d2e 	strbvc	r6, [r3, #-3374]!	; 0xfffff2d2
    10f4:	7478652e 	ldrbtvc	r6, [r8], #-1326	; 0xfffffad2
    10f8:	616e7265 	cmnvs	lr, r5, ror #4
    10fc:	6f6f746c 	svcvs	0x006f746c
    1100:	672e736c 	strvs	r7, [lr, -ip, ror #6]!
    1104:	742d756e 	strtvc	r7, [sp], #-1390	; 0xfffffa92
    1108:	736c6f6f 	cmnvc	ip, #444	; 0x1bc
    110c:	726f662d 	rsbvc	r6, pc, #47185920	; 0x2d00000
    1110:	6d74732d 	ldclvs	3, cr7, [r4, #-180]!	; 0xffffff4c
    1114:	372e3233 			; <UNDEFINED> instruction: 0x372e3233
    1118:	3130322d 	teqcc	r0, sp, lsr #4
    111c:	32712d38 	rsbscc	r2, r1, #56, 26	; 0xe00
    1120:	6470752d 	ldrbtvs	r7, [r0], #-1325	; 0xfffffad3
    1124:	2e657461 	cdpcs	4, 6, cr7, cr5, cr1, {3}
    1128:	336e6977 	cmncc	lr, #1949696	; 0x1dc000
    112c:	2e315f32 	mrccs	15, 1, r5, cr1, cr2, {1}
    1130:	2e302e34 	mrccs	14, 1, r2, cr0, cr4, {1}
    1134:	30323032 	eorscc	r3, r2, r2, lsr r0
    1138:	38303730 	ldmdacc	r0!, {r4, r5, r8, r9, sl, ip, sp}
    113c:	38303231 	ldmdacc	r0!, {r0, r4, r5, r9, ip, sp}
    1140:	6f6f745c 	svcvs	0x006f745c
    1144:	615c736c 	cmpvs	ip, ip, ror #6
    1148:	6e2d6d72 	mcrvs	13, 1, r6, cr13, cr2, {3}
    114c:	2d656e6f 	stclcs	14, cr6, [r5, #-444]!	; 0xfffffe44
    1150:	69626165 	stmdbvs	r2!, {r0, r2, r5, r6, r8, sp, lr}^
    1154:	636e695c 	cmnvs	lr, #92, 18	; 0x170000
    1158:	6564756c 	strbvs	r7, [r4, #-1388]!	; 0xfffffa94
    115c:	2f3a4300 	svccs	0x003a4300
    1160:	72657355 	rsbvc	r7, r5, #1409286145	; 0x54000001
    1164:	62412f73 	subvs	r2, r1, #460	; 0x1cc
    1168:	6c6c6164 	stfvse	f6, [ip], #-400	; 0xfffffe70
    116c:	532f6861 			; <UNDEFINED> instruction: 0x532f6861
    1170:	32334d54 	eorscc	r4, r3, #84, 26	; 0x1500
    1174:	65627543 	strbvs	r7, [r2, #-1347]!	; 0xfffffabd
    1178:	2f454449 	svccs	0x00454449
    117c:	6b726f77 	blvs	1c9cf60 <_Min_Stack_Size+0x1c9cb60>
    1180:	63617073 	cmnvs	r1, #115	; 0x73
    1184:	2e315f65 	cdpcs	15, 3, cr5, cr1, cr5, {3}
    1188:	2f302e34 	svccs	0x00302e34
    118c:	76697244 	strbtvc	r7, [r9], -r4, asr #4
    1190:	32737265 	rsbscc	r7, r3, #1342177286	; 0x50000006
    1194:	5458455f 	ldrbpl	r4, [r8], #-1375	; 0xfffffaa1
    1198:	74532f49 	ldrbvc	r2, [r3], #-3913	; 0xfffff0b7
    119c:	5f32336d 	svcpl	0x0032336d
    11a0:	33303146 	teqcc	r0, #-2147483631	; 0x80000011
    11a4:	445f3643 	ldrbmi	r3, [pc], #-1603	; 11ac <_Min_Stack_Size+0xdac>
    11a8:	65766972 	ldrbvs	r6, [r6, #-2418]!	; 0xfffff68e
    11ac:	692f7372 	stmdbvs	pc!, {r1, r4, r5, r6, r8, r9, ip, sp, lr}	; <UNPREDICTABLE>
    11b0:	6300636e 	movwvs	r6, #878	; 0x36e
    11b4:	74735c3a 	ldrbtvc	r5, [r3], #-3130	; 0xfffff3c6
    11b8:	6d74735c 	ldclvs	3, cr7, [r4, #-368]!	; 0xfffffe90
    11bc:	75633233 	strbvc	r3, [r3, #-563]!	; 0xfffffdcd
    11c0:	64696562 	strbtvs	r6, [r9], #-1378	; 0xfffffa9e
    11c4:	2e315f65 	cdpcs	15, 3, cr5, cr1, cr5, {3}
    11c8:	5c302e34 	ldcpl	14, cr2, [r0], #-208	; 0xffffff30
    11cc:	336d7473 	cmncc	sp, #1929379840	; 0x73000000
    11d0:	62756332 	rsbsvs	r6, r5, #-939524096	; 0xc8000000
    11d4:	65646965 	strbvs	r6, [r4, #-2405]!	; 0xfffff69b
    11d8:	756c705c 	strbvc	r7, [ip, #-92]!	; 0xffffffa4
    11dc:	736e6967 	cmnvc	lr, #1687552	; 0x19c000
    11e0:	6d6f635c 	stclvs	3, cr6, [pc, #-368]!	; 1078 <_Min_Stack_Size+0xc78>
    11e4:	2e74732e 	cdpcs	3, 7, cr7, cr4, cr14, {1}
    11e8:	336d7473 	cmncc	sp, #1929379840	; 0x73000000
    11ec:	62756332 	rsbsvs	r6, r5, #-939524096	; 0xc8000000
    11f0:	64692e65 	strbtvs	r2, [r9], #-3685	; 0xfffff19b
    11f4:	636d2e65 	cmnvs	sp, #1616	; 0x650
    11f8:	78652e75 	stmdavc	r5!, {r0, r2, r4, r5, r6, r9, sl, fp, sp}^
    11fc:	6e726574 	mrcvs	5, 3, r6, cr2, cr4, {3}
    1200:	6f746c61 	svcvs	0x00746c61
    1204:	2e736c6f 	cdpcs	12, 7, cr6, cr3, cr15, {3}
    1208:	2d756e67 	ldclcs	14, cr6, [r5, #-412]!	; 0xfffffe64
    120c:	6c6f6f74 	stclvs	15, cr6, [pc], #-464	; 1044 <_Min_Stack_Size+0xc44>
    1210:	6f662d73 	svcvs	0x00662d73
    1214:	74732d72 	ldrbtvc	r2, [r3], #-3442	; 0xfffff28e
    1218:	2e32336d 	cdpcs	3, 3, cr3, cr2, cr13, {3}
    121c:	30322d37 	eorscc	r2, r2, r7, lsr sp
    1220:	712d3831 			; <UNDEFINED> instruction: 0x712d3831
    1224:	70752d32 	rsbsvc	r2, r5, r2, lsr sp
    1228:	65746164 	ldrbvs	r6, [r4, #-356]!	; 0xfffffe9c
    122c:	6e69772e 	cdpvs	7, 6, cr7, cr9, cr14, {1}
    1230:	315f3233 	cmpcc	pc, r3, lsr r2	; <UNPREDICTABLE>
    1234:	302e342e 	eorcc	r3, lr, lr, lsr #8
    1238:	3230322e 	eorscc	r3, r0, #-536870910	; 0xe0000002
    123c:	30373030 	eorscc	r3, r7, r0, lsr r0
    1240:	30323138 	eorscc	r3, r2, r8, lsr r1
    1244:	6f745c38 	svcvs	0x00745c38
    1248:	5c736c6f 	ldclpl	12, cr6, [r3], #-444	; 0xfffffe44
    124c:	2d6d7261 	sfmcs	f7, 2, [sp, #-388]!	; 0xfffffe7c
    1250:	656e6f6e 	strbvs	r6, [lr, #-3950]!	; 0xfffff092
    1254:	6261652d 	rsbvs	r6, r1, #188743680	; 0xb400000
    1258:	6e695c69 	cdpvs	12, 6, cr5, cr9, cr9, {3}
    125c:	64756c63 	ldrbtvs	r6, [r5], #-3171	; 0xfffff39d
    1260:	656e5c65 	strbvs	r5, [lr, #-3173]!	; 0xfffff39b
    1264:	62696c77 	rsbvs	r6, r9, #30464	; 0x7700
    1268:	6e616e2d 	cdpvs	14, 6, cr6, cr1, cr13, {1}
    126c:	5300006f 	movwpl	r0, #111	; 0x6f
    1270:	32336d74 	eorscc	r6, r3, #116, 26	; 0x1d00
    1274:	3031465f 	eorscc	r4, r1, pc, asr r6
    1278:	5f364333 	svcpl	0x00364333
    127c:	6f697067 	svcvs	0x00697067
    1280:	6972645f 	ldmdbvs	r2!, {r0, r1, r2, r3, r4, r6, sl, sp, lr}^
    1284:	2e726576 	mrccs	5, 3, r6, cr2, cr6, {3}
    1288:	00010063 	andeq	r0, r1, r3, rrx
    128c:	65645f00 	strbvs	r5, [r4, #-3840]!	; 0xfffff100
    1290:	6c756166 	ldfvse	f6, [r5], #-408	; 0xfffffe68
    1294:	79745f74 	ldmdbvc	r4!, {r2, r4, r5, r6, r8, r9, sl, fp, ip, lr}^
    1298:	2e736570 	mrccs	5, 3, r6, cr3, cr0, {3}
    129c:	00020068 	andeq	r0, r2, r8, rrx
    12a0:	636f6c00 	cmnvs	pc, #0, 24
    12a4:	00682e6b 	rsbeq	r2, r8, fp, ror #28
    12a8:	5f000003 	svcpl	0x00000003
    12ac:	65707974 	ldrbvs	r7, [r0, #-2420]!	; 0xfffff68c
    12b0:	00682e73 	rsbeq	r2, r8, r3, ror lr
    12b4:	73000003 	movwvc	r0, #3
    12b8:	65646474 	strbvs	r6, [r4, #-1140]!	; 0xfffffb8c
    12bc:	00682e66 	rsbeq	r2, r8, r6, ror #28
    12c0:	72000004 	andvc	r0, r0, #4
    12c4:	746e6565 	strbtvc	r6, [lr], #-1381	; 0xfffffa9b
    12c8:	0300682e 	movweq	r6, #2094	; 0x82e
    12cc:	74730000 	ldrbtvc	r0, [r3], #-0
    12d0:	62696c64 	rsbvs	r6, r9, #100, 24	; 0x6400
    12d4:	0500682e 	streq	r6, [r0, #-2094]	; 0xfffff7d2
    12d8:	735f0000 	cmpvc	pc, #0
    12dc:	6e696474 	mcrvs	4, 3, r6, cr9, cr4, {3}
    12e0:	00682e74 	rsbeq	r2, r8, r4, ror lr
    12e4:	73000003 	movwvc	r0, #3
    12e8:	32336d74 	eorscc	r6, r3, #116, 26	; 0x1d00
    12ec:	33303166 	teqcc	r0, #-2147483623	; 0x80000019
    12f0:	682e3663 	stmdavs	lr!, {r0, r1, r5, r6, r9, sl, ip, sp}
    12f4:	00000600 	andeq	r0, r0, r0, lsl #12
    12f8:	336d7453 	cmncc	sp, #1392508928	; 0x53000000
    12fc:	31465f32 	cmpcc	r6, r2, lsr pc
    1300:	36433330 			; <UNDEFINED> instruction: 0x36433330
    1304:	6970675f 	ldmdbvs	r0!, {r0, r1, r2, r3, r4, r6, r8, r9, sl, sp, lr}^
    1308:	72645f6f 	rsbvc	r5, r4, #444	; 0x1bc
    130c:	72657669 	rsbvc	r7, r5, #110100480	; 0x6900000
    1310:	0600682e 	streq	r6, [r0], -lr, lsr #16
    1314:	65690000 	strbvs	r0, [r9, #-0]!
    1318:	70666565 	rsbvc	r6, r6, r5, ror #10
    131c:	0200682e 	andeq	r6, r0, #3014656	; 0x2e0000
    1320:	615f0000 	cmpvs	pc, r0
    1324:	2e69736e 	cdpcs	3, 6, cr7, cr9, cr14, {3}
    1328:	00050068 	andeq	r0, r5, r8, rrx
    132c:	77656e00 	strbvc	r6, [r5, -r0, lsl #28]!
    1330:	2e62696c 	vnmulcs.f16	s13, s4, s25	; <UNPREDICTABLE>
    1334:	00070068 	andeq	r0, r7, r8, rrx
    1338:	656e5f00 	strbvs	r5, [lr, #-3840]!	; 0xfffff100
    133c:	62696c77 	rsbvs	r6, r9, #30464	; 0x7700
    1340:	7265765f 	rsbvc	r7, r5, #99614720	; 0x5f00000
    1344:	6e6f6973 			; <UNDEFINED> instruction: 0x6e6f6973
    1348:	0500682e 	streq	r6, [r0, #-2094]	; 0xfffff7d2
    134c:	6f630000 	svcvs	0x00630000
    1350:	6769666e 	strbvs	r6, [r9, -lr, ror #12]!
    1354:	0300682e 	movweq	r6, #2094	; 0x82e
    1358:	65660000 	strbvs	r0, [r6, #-0]!
    135c:	72757461 	rsbsvc	r7, r5, #1627389952	; 0x61000000
    1360:	682e7365 	stmdavs	lr!, {r0, r2, r5, r6, r8, r9, ip, sp, lr}
    1364:	00000300 	andeq	r0, r0, r0, lsl #6
    1368:	7079745f 	rsbsvc	r7, r9, pc, asr r4
    136c:	682e7365 	stmdavs	lr!, {r0, r2, r5, r6, r8, r9, ip, sp, lr}
    1370:	00000200 	andeq	r0, r0, r0, lsl #4
    1374:	66656463 	strbtvs	r6, [r5], -r3, ror #8
    1378:	00682e73 	rsbeq	r2, r8, r3, ror lr
    137c:	73000003 	movwvc	r0, #3
    1380:	696c6474 	stmdbvs	ip!, {r2, r4, r5, r6, sl, sp, lr}^
    1384:	00682e62 	rsbeq	r2, r8, r2, ror #28
    1388:	61000002 	tstvs	r0, r2
    138c:	636f6c6c 	cmnvs	pc, #108, 24	; 0x6c00
    1390:	00682e61 	rsbeq	r2, r8, r1, ror #28
    1394:	73000005 	movwvc	r0, #5
    1398:	6e696474 	mcrvs	4, 3, r6, cr9, cr4, {3}
    139c:	00682e74 	rsbeq	r2, r8, r4, ror lr
    13a0:	73000004 	movwvc	r0, #4
    13a4:	6e696474 	mcrvs	4, 3, r6, cr9, cr4, {3}
    13a8:	00682e74 	rsbeq	r2, r8, r4, ror lr
    13ac:	5f000005 	svcpl	0x00000005
    13b0:	73746e69 	cmnvc	r4, #1680	; 0x690
    13b4:	682e7075 	stmdavs	lr!, {r0, r2, r4, r5, r6, ip, sp, lr}
    13b8:	00000300 	andeq	r0, r0, r0, lsl #6
    13bc:	02050000 	andeq	r0, r5, #0
    13c0:	08000968 	stmdaeq	r0, {r3, r5, r6, r8, fp}
    13c4:	59010d03 	stmdbpl	r1, {r0, r1, r8, sl, fp}
    13c8:	31153802 	tstcc	r5, r2, lsl #16
    13cc:	31313131 	teqcc	r1, r1, lsr r1
    13d0:	31313131 	teqcc	r1, r1, lsr r1
    13d4:	31313131 	teqcc	r1, r1, lsr r1
    13d8:	21313131 	teqcs	r1, r1, lsr r1
    13dc:	01000502 	tsteq	r0, r2, lsl #10
    13e0:	02050001 	andeq	r0, r5, #1
    13e4:	08000a2e 	stmdaeq	r0, {r1, r2, r3, r5, r9, fp}
    13e8:	0100d403 	tsteq	r0, r3, lsl #8
    13ec:	002f2f5c 	eoreq	r2, pc, ip, asr pc	; <UNPREDICTABLE>
    13f0:	06010402 	streq	r0, [r1], -r2, lsl #8
    13f4:	0402004a 	streq	r0, [r2], #-74	; 0xffffffb6
    13f8:	02002e02 	andeq	r2, r0, #2, 28
    13fc:	002e0404 	eoreq	r0, lr, r4, lsl #8
    1400:	06040402 	streq	r0, [r4], -r2, lsl #8
    1404:	04020022 	streq	r0, [r2], #-34	; 0xffffffde
    1408:	0200e704 	andeq	lr, r0, #4, 14	; 0x100000
    140c:	4a060104 	bmi	181824 <_Min_Stack_Size+0x181424>
    1410:	02040200 	andeq	r0, r4, #0, 4
    1414:	0402004a 	streq	r0, [r2], #-74	; 0xffffffb6
    1418:	50064a03 	andpl	r4, r6, r3, lsl #20
    141c:	040200ea 	streq	r0, [r2], #-234	; 0xffffff16
    1420:	064a0601 	strbeq	r0, [sl], -r1, lsl #12
    1424:	404e834d 	submi	r8, lr, sp, asr #6
    1428:	88864d2f 	stmhi	r6, {r0, r1, r2, r3, r5, r8, sl, fp, lr}
    142c:	000402d9 	ldrdeq	r0, [r4], -r9
    1430:	05000101 	streq	r0, [r0, #-257]	; 0xfffffeff
    1434:	00000002 	andeq	r0, r0, r2
    1438:	01960300 	orrseq	r0, r6, r0, lsl #6
    143c:	4a0e0301 	bmi	382048 <_Min_Stack_Size+0x381c48>
    1440:	0e03674b 	cdpeq	7, 0, cr6, cr3, cr11, {2}
    1444:	20730366 	rsbscs	r0, r3, r6, ror #6
    1448:	0b03674b 	bleq	db17c <_Min_Stack_Size+0xdad7c>
    144c:	20760366 	rsbscs	r0, r6, r6, ror #6
    1450:	036e674b 	cmneq	lr, #19660800	; 0x12c0000
    1454:	674b2079 	smlsldxvs	r2, fp, r9, r0
    1458:	674b1c6b 	strbvs	r1, [fp, -fp, ror #24]
    145c:	00120268 	andseq	r0, r2, r8, ror #4
    1460:	05000101 	streq	r0, [r0, #-257]	; 0xfffffeff
    1464:	00000002 	andeq	r0, r0, r2
    1468:	01c20300 	biceq	r0, r2, r0, lsl #6
    146c:	3f686801 	svccc	0x00686801
    1470:	05022130 	streq	r2, [r2, #-304]	; 0xfffffed0
    1474:	00010100 	andeq	r0, r1, r0, lsl #2
    1478:	00000205 	andeq	r0, r0, r5, lsl #4
    147c:	da030000 	ble	c1484 <_Min_Stack_Size+0xc1084>
    1480:	3d4c0101 	stfcce	f0, [ip, #-4]
    1484:	00050221 	andeq	r0, r5, r1, lsr #4
    1488:	05000101 	streq	r0, [r0, #-257]	; 0xfffffeff
    148c:	00000002 	andeq	r0, r0, r2
    1490:	01ed0300 	mvneq	r0, r0, lsl #6
    1494:	09038301 	stmdbeq	r3, {r0, r8, r9, pc}
    1498:	3c09033c 	stccc	3, cr0, [r9], {60}	; 0x3c
    149c:	05023e1e 	streq	r3, [r2, #-3614]	; 0xfffff1e2
    14a0:	00010100 	andeq	r0, r1, r0, lsl #2
    14a4:	00000205 	andeq	r0, r0, r5, lsl #4
    14a8:	8f030000 	svchi	0x00030000
    14ac:	3d670102 	stfcce	f0, [r7, #-8]!
    14b0:	01000502 	tsteq	r0, r2, lsl #10
    14b4:	02050001 	andeq	r0, r5, #1
    14b8:	00000000 	andeq	r0, r0, r0
    14bc:	01029e03 	tsteq	r2, r3, lsl #28
    14c0:	05026767 	streq	r6, [r2, #-1895]	; 0xfffff899
    14c4:	00010100 	andeq	r0, r1, r0, lsl #2
    14c8:	00000205 	andeq	r0, r0, r5, lsl #4
    14cc:	ae030000 	cdpge	0, 0, cr0, cr3, cr0, {0}
    14d0:	13030102 	movwne	r0, #12546	; 0x3102
    14d4:	3e4d3e66 	cdpcc	14, 4, cr3, cr13, cr6, {3}
    14d8:	683e3e3e 	ldmdavs	lr!, {r1, r2, r3, r4, r5, r9, sl, fp, ip, sp}
    14dc:	05022330 	streq	r2, [r2, #-816]	; 0xfffffcd0
    14e0:	Address 0x00000000000014e0 is out of bounds.


Disassembly of section .debug_str:

00000000 <.debug_str>:
       0:	38544e49 	ldmdacc	r4, {r0, r3, r6, r9, sl, fp, lr}^
       4:	58414d5f 	stmdapl	r1, {r0, r1, r2, r3, r4, r6, r8, sl, fp, lr}^
       8:	5f5f2820 	svcpl	0x005f2820
       c:	38544e49 	ldmdacc	r4, {r0, r3, r6, r9, sl, fp, lr}^
      10:	58414d5f 	stmdapl	r1, {r0, r1, r2, r3, r4, r6, r8, sl, fp, lr}^
      14:	00295f5f 	eoreq	r5, r9, pc, asr pc
      18:	4e475f5f 	mcrmi	15, 2, r5, cr7, cr15, {2}
      1c:	494c4355 	stmdbmi	ip, {r0, r2, r4, r6, r8, r9, lr}^
      20:	5f5f454b 	svcpl	0x005f454b
      24:	4345535f 	movtmi	r5, #21343	; 0x535f
      28:	4e4f4954 			; <UNDEFINED> instruction: 0x4e4f4954
      2c:	57003120 	strpl	r3, [r0, -r0, lsr #2]
      30:	5f544e49 	svcpl	0x00544e49
      34:	204e494d 	subcs	r4, lr, sp, asr #18
      38:	575f5f28 	ldrbpl	r5, [pc, -r8, lsr #30]
      3c:	5f544e49 	svcpl	0x00544e49
      40:	5f4e494d 	svcpl	0x004e494d
      44:	5f00295f 	svcpl	0x0000295f
      48:	4345445f 	movtmi	r4, #21599	; 0x545f
      4c:	4c414d49 	mcrrmi	13, 4, r4, r1, cr9
      50:	4749445f 	smlsldmi	r4, r9, pc, r4	; <UNPREDICTABLE>
      54:	31205f5f 			; <UNDEFINED> instruction: 0x31205f5f
      58:	36440037 			; <UNDEFINED> instruction: 0x36440037
      5c:	49504720 	ldmdbmi	r0, {r5, r8, r9, sl, lr}^
      60:	49505f4f 	ldmdbmi	r0, {r0, r1, r2, r3, r6, r8, r9, sl, fp, ip, lr}^
      64:	00365f4e 	eorseq	r5, r6, lr, asr #30
      68:	4c465f5f 	mcrrmi	15, 5, r5, r6, cr15
      6c:	5f343654 	svcpl	0x00343654
      70:	49535045 	ldmdbmi	r3, {r0, r2, r6, ip, lr}^
      74:	5f4e4f4c 	svcpl	0x004e4f4c
      78:	2e32205f 	mrccs	0, 1, r2, cr2, cr15, {2}
      7c:	34303232 	ldrtcc	r3, [r0], #-562	; 0xfffffdce
      80:	34303634 	ldrtcc	r3, [r0], #-1588	; 0xfffff9cc
      84:	30353239 	eorscc	r3, r5, r9, lsr r2
      88:	31333133 	teqcc	r3, r3, lsr r1
      8c:	36312d65 	ldrtcc	r2, [r1], -r5, ror #26
      90:	00343646 	eorseq	r3, r4, r6, asr #12
      94:	56535f5f 	usaxpl	r5, r3, pc	; <UNPREDICTABLE>
      98:	565f4449 	ldrbpl	r4, [pc], -r9, asr #8
      9c:	42495349 	submi	r5, r9, #603979777	; 0x24000001
      a0:	3120454c 			; <UNDEFINED> instruction: 0x3120454c
      a4:	695f5f00 	ldmdbvs	pc, {r8, r9, sl, fp, ip, lr}^	; <UNPREDICTABLE>
      a8:	3032746e 	eorscc	r7, r2, lr, ror #8
      ac:	00322b20 	eorseq	r2, r2, r0, lsr #22
      b0:	45445f5f 	strbmi	r5, [r4, #-3935]	; 0xfffff0a1
      b4:	38323143 	ldmdacc	r2!, {r0, r1, r6, r8, ip, sp}
      b8:	5350455f 	cmppl	r0, #398458880	; 0x17c00000
      bc:	4e4f4c49 	cdpmi	12, 4, cr4, cr15, cr9, {2}
      c0:	31205f5f 			; <UNDEFINED> instruction: 0x31205f5f
      c4:	33332d45 	teqcc	r3, #4416	; 0x1140
      c8:	5f004c44 	svcpl	0x00004c44
      cc:	544c465f 	strbpl	r4, [ip], #-1631	; 0xfffff9a1
      d0:	445f3436 	ldrbmi	r3, [pc], #-1078	; d8 <_Min_Heap_Size-0x128>
      d4:	524f4e45 	subpl	r4, pc, #1104	; 0x450
      d8:	494d5f4d 	stmdbmi	sp, {r0, r2, r3, r6, r8, r9, sl, fp, ip, lr}^
      dc:	205f5f4e 	subscs	r5, pc, lr, asr #30
      e0:	34392e34 	ldrtcc	r2, [r9], #-3636	; 0xfffff1cc
      e4:	36353630 			; <UNDEFINED> instruction: 0x36353630
      e8:	34383534 	ldrtcc	r3, [r8], #-1332	; 0xfffffacc
      ec:	36343231 			; <UNDEFINED> instruction: 0x36343231
      f0:	2d653435 	cfstrdcs	mvd3, [r5, #-212]!	; 0xffffff2c
      f4:	46343233 			; <UNDEFINED> instruction: 0x46343233
      f8:	5f003436 	svcpl	0x00003436
      fc:	4343475f 	movtmi	r4, #14175	; 0x375f
     100:	4f54415f 	svcmi	0x0054415f
     104:	5f43494d 	svcpl	0x0043494d
     108:	41484357 	cmpmi	r8, r7, asr r3
     10c:	5f545f52 	svcpl	0x00545f52
     110:	4b434f4c 	blmi	10d3e48 <_Min_Stack_Size+0x10d3a48>
     114:	4552465f 	ldrbmi	r4, [r2, #-1631]	; 0xfffff9a1
     118:	00322045 	eorseq	r2, r2, r5, asr #32
     11c:	48435f5f 	stmdami	r3, {r0, r1, r2, r3, r4, r6, r8, r9, sl, fp, ip, lr}^
     120:	555f5241 	ldrbpl	r5, [pc, #-577]	; fffffee7 <_estack+0xdfffd6e7>
     124:	4749534e 	strbmi	r5, [r9, -lr, asr #6]
     128:	5f44454e 	svcpl	0x0044454e
     12c:	0031205f 	eorseq	r2, r1, pc, asr r0
     130:	49555f5f 	ldmdbmi	r5, {r0, r1, r2, r3, r4, r6, r8, r9, sl, fp, ip, lr}^
     134:	5450544e 	ldrbpl	r5, [r0], #-1102	; 0xfffffbb2
     138:	414d5f52 	cmpmi	sp, r2, asr pc
     13c:	205f5f58 	subscs	r5, pc, r8, asr pc	; <UNPREDICTABLE>
     140:	66667830 			; <UNDEFINED> instruction: 0x66667830
     144:	66666666 	strbtvs	r6, [r6], -r6, ror #12
     148:	00556666 	subseq	r6, r5, r6, ror #12
     14c:	49545845 	ldmdbmi	r4, {r0, r2, r6, fp, ip, lr}^
     150:	44503431 	ldrbmi	r3, [r0], #-1073	; 0xfffffbcf
     154:	28203431 	stmdacs	r0!, {r0, r4, r5, sl, ip, sp}
     158:	49545845 	ldmdbmi	r4, {r0, r2, r6, fp, ip, lr}^
     15c:	4950475f 	ldmdbmi	r0, {r0, r1, r2, r3, r4, r6, r8, r9, sl, lr}^
     160:	614d5f4f 	cmpvs	sp, pc, asr #30
     164:	676e6970 			; <UNDEFINED> instruction: 0x676e6970
     168:	7b29745f 	blvc	a5d2ec <_Min_Stack_Size+0xa5ceec>
     16c:	49545845 	ldmdbmi	r4, {r0, r2, r6, fp, ip, lr}^
     170:	472c3431 			; <UNDEFINED> instruction: 0x472c3431
     174:	444f4950 	strbmi	r4, [pc], #-2384	; 17c <_Min_Heap_Size-0x84>
     178:	4950472c 	ldmdbmi	r0, {r2, r3, r5, r8, r9, sl, lr}^
     17c:	49505f4f 	ldmdbmi	r0, {r0, r1, r2, r3, r6, r8, r9, sl, fp, ip, lr}^
     180:	34315f4e 	ldrtcc	r5, [r1], #-3918	; 0xfffff0b2
     184:	5458452c 	ldrbpl	r4, [r8], #-1324	; 0xfffffad4
     188:	5f343149 	svcpl	0x00343149
     18c:	7d515249 	lfmvc	f5, 2, [r1, #-292]	; 0xfffffedc
     190:	535f5f00 	cmppl	pc, #0, 30
     194:	43415246 	movtmi	r5, #4678	; 0x1246
     198:	42465f54 	submi	r5, r6, #84, 30	; 0x150
     19c:	5f5f5449 	svcpl	0x005f5449
     1a0:	5f003720 	svcpl	0x00003720
     1a4:	6165775f 	cmnvs	r5, pc, asr r7
     1a8:	79735f6b 	ldmdbvc	r3!, {r0, r1, r3, r5, r6, r8, r9, sl, fp, ip, lr}^
     1ac:	6c6f626d 	sfmvs	f6, 2, [pc], #-436	; 0 <_Min_Heap_Size-0x200>
     1b0:	615f5f20 	cmpvs	pc, r0, lsr #30
     1b4:	69727474 	ldmdbvs	r2!, {r2, r4, r5, r6, sl, ip, sp, lr}^
     1b8:	65747562 	ldrbvs	r7, [r4, #-1378]!	; 0xfffffa9e
     1bc:	28285f5f 	stmdacs	r8!, {r0, r1, r2, r3, r4, r6, r8, r9, sl, fp, ip, lr}
     1c0:	65775f5f 	ldrbvs	r5, [r7, #-3935]!	; 0xfffff0a1
     1c4:	5f5f6b61 	svcpl	0x005f6b61
     1c8:	5f002929 	svcpl	0x00002929
     1cc:	636f6c5f 	cmnvs	pc, #24320	; 0x5f00
     1d0:	5f656c61 	svcpl	0x00656c61
     1d4:	5f5f0074 	svcpl	0x005f0074
     1d8:	36544c46 	ldrbcc	r4, [r4], -r6, asr #24
     1dc:	41485f34 	cmpmi	r8, r4, lsr pc
     1e0:	4e495f53 	mcrmi	15, 2, r5, cr9, cr3, {2}
     1e4:	494e4946 	stmdbmi	lr, {r1, r2, r6, r8, fp, lr}^
     1e8:	5f5f5954 	svcpl	0x005f5954
     1ec:	5f003120 	svcpl	0x00003120
     1f0:	6c61765f 	stclvs	6, cr7, [r1], #-380	; 0xfffffe84
     1f4:	49006575 	stmdbmi	r0, {r0, r2, r4, r5, r6, r8, sl, sp, lr}
     1f8:	455f5152 	ldrbmi	r5, [pc, #-338]	; ae <_Min_Heap_Size-0x152>
     1fc:	6c62616e 	stfvse	f6, [r2], #-440	; 0xfffffe48
     200:	525f0065 	subspl	r0, pc, #101	; 0x65
     204:	544e4545 	strbpl	r4, [lr], #-1349	; 0xfffffabb
     208:	4e41525f 	mcrmi	2, 2, r5, cr1, cr15, {2}
     20c:	5f383444 	svcpl	0x00383444
     210:	28444441 	stmdacs	r4, {r0, r6, sl, lr}^
     214:	29727470 	ldmdbcs	r2!, {r4, r5, r6, sl, ip, sp, lr}^
     218:	70282820 	eorvc	r2, r8, r0, lsr #16
     21c:	2d297274 	sfmcs	f7, 4, [r9, #-464]!	; 0xfffffe30
     220:	34725f3e 	ldrbtcc	r5, [r2], #-3902	; 0xfffff0c2
     224:	5f3e2d38 	svcpl	0x003e2d38
     228:	29646461 	stmdbcs	r4!, {r0, r5, r6, sl, sp, lr}^
     22c:	544e4900 	strbpl	r4, [lr], #-2304	; 0xfffff700
     230:	4d5f3631 	ldclmi	6, cr3, [pc, #-196]	; 174 <_Min_Heap_Size-0x8c>
     234:	28204e49 	stmdacs	r0!, {r0, r3, r6, r9, sl, fp, lr}
     238:	495f5f2d 	ldmdbmi	pc, {r0, r2, r3, r5, r8, r9, sl, fp, ip, lr}^	; <UNPREDICTABLE>
     23c:	3631544e 	ldrtcc	r5, [r1], -lr, asr #8
     240:	58414d5f 	stmdapl	r1, {r0, r1, r2, r3, r4, r6, r8, sl, fp, lr}^
     244:	2d205f5f 	stccs	15, cr5, [r0, #-380]!	; 0xfffffe84
     248:	00293120 	eoreq	r3, r9, r0, lsr #2
     24c:	4c4c5f5f 	mcrrmi	15, 5, r5, ip, cr15
     250:	55434341 	strbpl	r4, [r3, #-833]	; 0xfffffcbf
     254:	494d5f4d 	stmdbmi	sp, {r0, r2, r3, r6, r8, r9, sl, fp, ip, lr}^
     258:	205f5f4e 	subscs	r5, pc, lr, asr #30
     25c:	58302d28 	ldmdapl	r0!, {r3, r5, r8, sl, fp, sp}
     260:	31335031 	teqcc	r3, r1, lsr r0
     264:	2d4b4c4c 	stclcs	12, cr4, [fp, #-304]	; 0xfffffed0
     268:	50315830 	eorspl	r5, r1, r0, lsr r8
     26c:	4c4c3133 	stfmie	f3, [ip], {51}	; 0x33
     270:	5f00294b 	svcpl	0x0000294b
     274:	0066735f 	rsbeq	r7, r6, pc, asr r3
     278:	54505f5f 	ldrbpl	r5, [r0], #-3935	; 0xfffff0a1
     27c:	46494452 			; <UNDEFINED> instruction: 0x46494452
     280:	414d5f46 	cmpmi	sp, r6, asr #30
     284:	205f5f58 	subscs	r5, pc, r8, asr pc	; <UNPREDICTABLE>
     288:	66377830 			; <UNDEFINED> instruction: 0x66377830
     28c:	66666666 	strbtvs	r6, [r6], -r6, ror #12
     290:	5f006666 	svcpl	0x00006666
     294:	474e4f4c 	strbmi	r4, [lr, -ip, asr #30]
     298:	554f445f 	strbpl	r4, [pc, #-1119]	; fffffe41 <_estack+0xdfffd641>
     29c:	20454c42 	subcs	r4, r5, r2, asr #24
     2a0:	676e6f6c 	strbvs	r6, [lr, -ip, ror #30]!
     2a4:	756f6420 	strbvc	r6, [pc, #-1056]!	; fffffe8c <_estack+0xdfffd68c>
     2a8:	00656c62 	rsbeq	r6, r5, r2, ror #24
     2ac:	49545845 	ldmdbmi	r4, {r0, r2, r6, fp, ip, lr}^
     2b0:	52495f39 	subpl	r5, r9, #57, 30	; 0xe4
     2b4:	33322051 	teqcc	r2, #81	; 0x51
     2b8:	554f4600 	strbpl	r4, [pc, #-1536]	; fffffcc0 <_estack+0xdfffd4c0>
     2bc:	49425f52 	stmdbmi	r2, {r1, r4, r6, r8, r9, sl, fp, ip, lr}^
     2c0:	4f4d5f54 	svcmi	0x004d5f54
     2c4:	31204544 			; <UNDEFINED> instruction: 0x31204544
     2c8:	495f5f00 	ldmdbmi	pc, {r8, r9, sl, fp, ip, lr}^	; <UNPREDICTABLE>
     2cc:	414d544e 	cmpmi	sp, lr, asr #8
     2d0:	28435f58 	stmdacs	r3, {r3, r4, r6, r8, r9, sl, fp, ip, lr}^
     2d4:	63202963 			; <UNDEFINED> instruction: 0x63202963
     2d8:	20232320 	eorcs	r2, r3, r0, lsr #6
     2dc:	5f004c4c 	svcpl	0x00004c4c
     2e0:	7562735f 	strbvc	r7, [r2, #-863]!	; 0xfffffca1
     2e4:	725f0066 	subsvc	r0, pc, #102	; 0x66
     2e8:	00646165 	rsbeq	r6, r4, r5, ror #2
     2ec:	4e495f5f 	mcrmi	15, 2, r5, cr9, cr15, {2}
     2f0:	58414d54 	stmdapl	r1, {r2, r4, r6, r8, sl, fp, lr}^
     2f4:	58414d5f 	stmdapl	r1, {r0, r1, r2, r3, r4, r6, r8, sl, fp, lr}^
     2f8:	30205f5f 	eorcc	r5, r0, pc, asr pc
     2fc:	66663778 			; <UNDEFINED> instruction: 0x66663778
     300:	66666666 	strbtvs	r6, [r6], -r6, ror #12
     304:	66666666 	strbtvs	r6, [r6], -r6, ror #12
     308:	66666666 	strbtvs	r6, [r6], -r6, ror #12
     30c:	004c4c66 	subeq	r4, ip, r6, ror #24
     310:	4545525f 	strbmi	r5, [r5, #-607]	; 0xfffffda1
     314:	495f544e 	ldmdbmi	pc, {r1, r2, r3, r6, sl, ip, lr}^	; <UNPREDICTABLE>
     318:	5f54494e 	svcpl	0x0054494e
     31c:	7628504d 	strtvc	r5, [r8], -sp, asr #32
     320:	20297261 	eorcs	r7, r9, r1, ror #4
     324:	7b206f64 	blvc	81c0bc <_Min_Stack_Size+0x81bcbc>
     328:	72747320 	rsbsvc	r7, r4, #32, 6	; 0x80000000
     32c:	20746375 	rsbscs	r6, r4, r5, ror r3
     330:	6565725f 	strbvs	r7, [r5, #-607]!	; 0xfffffda1
     334:	2a20746e 	bcs	81d4f4 <_Min_Stack_Size+0x81d0f4>
     338:	3d20725f 	sfmcc	f7, 4, [r0, #-380]!	; 0xfffffe84
     33c:	61762820 	cmnvs	r6, r0, lsr #16
     340:	203b2972 	eorscs	r2, fp, r2, ror r9
     344:	3e2d725f 	mcrcc	2, 1, r7, cr13, cr15, {2}
     348:	2d706d5f 	ldclcs	13, cr6, [r0, #-380]!	; 0xfffffe84
     34c:	65725f3e 	ldrbvs	r5, [r2, #-3902]!	; 0xfffff0c2
     350:	746c7573 	strbtvc	r7, [ip], #-1395	; 0xfffffa8d
     354:	3d206b5f 	fstmdbxcc	r0!, {d6-d52}	;@ Deprecated
     358:	203b3020 	eorscs	r3, fp, r0, lsr #32
     35c:	3e2d725f 	mcrcc	2, 1, r7, cr13, cr15, {2}
     360:	2d706d5f 	ldclcs	13, cr6, [r0, #-380]!	; 0xfffffe84
     364:	65725f3e 	ldrbvs	r5, [r2, #-3902]!	; 0xfffff0c2
     368:	746c7573 	strbtvc	r7, [ip], #-1395	; 0xfffffa8d
     36c:	5f203d20 	svcpl	0x00203d20
     370:	5f3e2d72 	svcpl	0x003e2d72
     374:	3e2d706d 	cdpcc	0, 2, cr7, cr13, cr13, {3}
     378:	7335705f 	teqvc	r5, #95	; 0x5f
     37c:	5f203d20 	svcpl	0x00203d20
     380:	4c4c554e 	cfstr64mi	mvdx5, [ip], {78}	; 0x4e
     384:	725f203b 	subsvc	r2, pc, #59	; 0x3b
     388:	6d5f3e2d 	ldclvs	14, cr3, [pc, #-180]	; 2dc <_Min_Heap_Size+0xdc>
     38c:	5f3e2d70 	svcpl	0x003e2d70
     390:	65657266 	strbvs	r7, [r5, #-614]!	; 0xfffffd9a
     394:	7473696c 	ldrbtvc	r6, [r3], #-2412	; 0xfffff694
     398:	5f203d20 	svcpl	0x00203d20
     39c:	4c4c554e 	cfstr64mi	mvdx5, [ip], {78}	; 0x4e
     3a0:	207d203b 	rsbscs	r2, sp, fp, lsr r0
     3a4:	6c696877 	stclvs	8, cr6, [r9], #-476	; 0xfffffe24
     3a8:	30282065 	eorcc	r2, r8, r5, rrx
     3ac:	5f5f0029 	svcpl	0x005f0029
     3b0:	33434544 	movtcc	r4, #13636	; 0x3544
     3b4:	55535f32 	ldrbpl	r5, [r3, #-3890]	; 0xfffff0ce
     3b8:	524f4e42 	subpl	r4, pc, #1056	; 0x420
     3bc:	5f4c414d 	svcpl	0x004c414d
     3c0:	5f4e494d 	svcpl	0x004e494d
     3c4:	2e30205f 	mrccs	0, 1, r2, cr0, cr15, {2}
     3c8:	30303030 	eorscc	r3, r0, r0, lsr r0
     3cc:	2d453130 	stfcse	f3, [r5, #-192]	; 0xffffff40
     3d0:	46443539 			; <UNDEFINED> instruction: 0x46443539
     3d4:	545f5f00 	ldrbpl	r5, [pc], #-3840	; 3dc <_Min_Heap_Size+0x1dc>
     3d8:	42495f51 	submi	r5, r9, #324	; 0x144
     3dc:	5f5f5449 	svcpl	0x005f5449
     3e0:	5f003020 	svcpl	0x00003020
     3e4:	636f6c5f 	cmnvs	pc, #24320	; 0x5f00
     3e8:	6e695f6b 	cdpvs	15, 6, cr5, cr9, cr11, {3}
     3ec:	725f7469 	subsvc	r7, pc, #1761607680	; 0x69000000
     3f0:	72756365 	rsbsvc	r6, r5, #-1811939327	; 0x94000001
     3f4:	65766973 	ldrbvs	r6, [r6, #-2419]!	; 0xfffff68d
     3f8:	636f6c28 	cmnvs	pc, #40, 24	; 0x2800
     3fc:	2820296b 	stmdacs	r0!, {r0, r1, r3, r5, r6, r8, fp, sp}
     400:	696f7628 	stmdbvs	pc!, {r3, r5, r9, sl, ip, sp, lr}^	; <UNPREDICTABLE>
     404:	30202964 	eorcc	r2, r0, r4, ror #18
     408:	5f5f0029 	svcpl	0x005f0029
     40c:	36544c46 	ldrbcc	r4, [r4], -r6, asr #24
     410:	45445f34 	strbmi	r5, [r4, #-3892]	; 0xfffff0cc
     414:	414d4943 	cmpmi	sp, r3, asr #18
     418:	49445f4c 	stmdbmi	r4, {r2, r3, r6, r8, r9, sl, fp, ip, lr}^
     41c:	205f5f47 	subscs	r5, pc, r7, asr #30
     420:	5f003731 	svcpl	0x00003731
     424:	4e454552 	mcrmi	5, 2, r4, cr5, cr2, {2}
     428:	49535f54 	ldmdbmi	r3, {r2, r4, r6, r8, r9, sl, fp, ip, lr}^
     42c:	4c414e47 	mcrrmi	14, 4, r4, r1, cr7
     430:	5a49535f 	bpl	12551b4 <_Min_Stack_Size+0x1254db4>
     434:	34322045 	ldrtcc	r2, [r2], #-69	; 0xffffffbb
     438:	6d4b5f00 	stclvs	15, cr5, [fp, #-0]
     43c:	28207861 	stmdacs	r0!, {r0, r5, r6, fp, ip, sp, lr}
     440:	657a6973 	ldrbvs	r6, [sl, #-2419]!	; 0xfffff68d
     444:	2820666f 	stmdacs	r0!, {r0, r1, r2, r3, r5, r6, r9, sl, sp, lr}
     448:	657a6973 	ldrbvs	r6, [sl, #-2419]!	; 0xfffff68d
     44c:	2029745f 	eorcs	r7, r9, pc, asr r4
     450:	33203c3c 			; <UNDEFINED> instruction: 0x33203c3c
     454:	5f5f0029 	svcpl	0x005f0029
     458:	4d4f5441 	cfstrdmi	mvd5, [pc, #-260]	; 35c <_Min_Heap_Size+0x15c>
     45c:	435f4349 	cmpmi	pc, #603979777	; 0x24000001
     460:	55534e4f 	ldrbpl	r4, [r3, #-3663]	; 0xfffff1b1
     464:	3120454d 			; <UNDEFINED> instruction: 0x3120454d
     468:	555f5f00 	ldrbpl	r5, [pc, #-3840]	; fffff570 <_estack+0xdfffcd70>
     46c:	4343414c 	movtmi	r4, #12620	; 0x314c
     470:	465f4d55 			; <UNDEFINED> instruction: 0x465f4d55
     474:	5f544942 	svcpl	0x00544942
     478:	3233205f 	eorscc	r2, r3, #95	; 0x5f
     47c:	575f5f00 	ldrbpl	r5, [pc, -r0, lsl #30]
     480:	52414843 	subpl	r4, r1, #4390912	; 0x430000
     484:	58414d5f 	stmdapl	r1, {r0, r1, r2, r3, r4, r6, r8, sl, fp, lr}^
     488:	30205f5f 	eorcc	r5, r0, pc, asr pc
     48c:	66666678 			; <UNDEFINED> instruction: 0x66666678
     490:	66666666 	strbtvs	r6, [r6], -r6, ror #12
     494:	44005566 	strmi	r5, [r0], #-1382	; 0xfffffa9a
     498:	50472033 	subpl	r2, r7, r3, lsr r0
     49c:	505f4f49 	subspl	r4, pc, r9, asr #30
     4a0:	375f4e49 	ldrbcc	r4, [pc, -r9, asr #28]
     4a4:	415f5f00 	cmpmi	pc, r0, lsl #30
     4a8:	4d554343 	ldclmi	3, cr4, [r5, #-268]	; 0xfffffef4
     4ac:	4e494d5f 	mcrmi	13, 2, r4, cr9, cr15, {2}
     4b0:	28205f5f 	stmdacs	r0!, {r0, r1, r2, r3, r4, r6, r8, r9, sl, fp, ip, lr}
     4b4:	3158302d 	cmpcc	r8, sp, lsr #32
     4b8:	4b353150 	blmi	d4ca00 <_Min_Stack_Size+0xd4c600>
     4bc:	3158302d 	cmpcc	r8, sp, lsr #32
     4c0:	4b353150 	blmi	d4ca08 <_Min_Stack_Size+0xd4c608>
     4c4:	775f0029 	ldrbvc	r0, [pc, -r9, lsr #32]
     4c8:	65746972 	ldrbvs	r6, [r4, #-2418]!	; 0xfffff68e
     4cc:	54584500 	ldrbpl	r4, [r8], #-1280	; 0xfffffb00
     4d0:	43503349 	cmpmi	r0, #603979777	; 0x24000001
     4d4:	45282033 	strmi	r2, [r8, #-51]!	; 0xffffffcd
     4d8:	5f495458 	svcpl	0x00495458
     4dc:	4f495047 	svcmi	0x00495047
     4e0:	70614d5f 	rsbvc	r4, r1, pc, asr sp
     4e4:	5f676e69 	svcpl	0x00676e69
     4e8:	457b2974 	ldrbmi	r2, [fp, #-2420]!	; 0xfffff68c
     4ec:	33495458 	movtcc	r5, #37976	; 0x9458
     4f0:	4950472c 	ldmdbmi	r0, {r2, r3, r5, r8, r9, sl, lr}^
     4f4:	472c434f 	strmi	r4, [ip, -pc, asr #6]!
     4f8:	5f4f4950 	svcpl	0x004f4950
     4fc:	5f4e4950 	svcpl	0x004e4950
     500:	58452c33 	stmdapl	r5, {r0, r1, r4, r5, sl, fp, sp}^
     504:	5f334954 	svcpl	0x00334954
     508:	7d515249 	lfmvc	f5, 2, [r1, #-292]	; 0xfffffedc
     50c:	54584500 	ldrbpl	r4, [r8], #-1280	; 0xfffffb00
     510:	50313149 	eorspl	r3, r1, r9, asr #2
     514:	20313144 	eorscs	r3, r1, r4, asr #2
     518:	54584528 	ldrbpl	r4, [r8], #-1320	; 0xfffffad8
     51c:	50475f49 	subpl	r5, r7, r9, asr #30
     520:	4d5f4f49 	ldclmi	15, cr4, [pc, #-292]	; 404 <_Min_Stack_Size+0x4>
     524:	6e697061 	cdpvs	0, 6, cr7, cr9, cr1, {3}
     528:	29745f67 	ldmdbcs	r4!, {r0, r1, r2, r5, r6, r8, r9, sl, fp, ip, lr}^
     52c:	5458457b 	ldrbpl	r4, [r8], #-1403	; 0xfffffa85
     530:	2c313149 	ldfcss	f3, [r1], #-292	; 0xfffffedc
     534:	4f495047 	svcmi	0x00495047
     538:	50472c44 	subpl	r2, r7, r4, asr #24
     53c:	505f4f49 	subspl	r4, pc, r9, asr #30
     540:	315f4e49 	cmpcc	pc, r9, asr #28
     544:	58452c31 	stmdapl	r5, {r0, r4, r5, sl, fp, sp}^
     548:	31314954 	teqcc	r1, r4, asr r9
     54c:	5152495f 	cmppl	r2, pc, asr r9
     550:	5f5f007d 	svcpl	0x005f007d
     554:	43554e47 	cmpmi	r5, #1136	; 0x470
     558:	454b494c 	strbmi	r4, [fp, #-2380]	; 0xfffff6b4
     55c:	545f5f5f 	ldrbpl	r5, [pc], #-3935	; 564 <_Min_Stack_Size+0x164>
     560:	4f455059 	svcmi	0x00455059
     564:	00312046 	eorseq	r2, r1, r6, asr #32
     568:	4349564e 	movtmi	r5, #38478	; 0x964e
     56c:	5152495f 	cmppl	r2, pc, asr r9
     570:	455f3332 	ldrbmi	r3, [pc, #-818]	; 246 <_Min_Heap_Size+0x46>
     574:	35495458 	strbcc	r5, [r9, #-1112]	; 0xfffffba8
     578:	445f395f 	ldrbmi	r3, [pc], #-2399	; 580 <_Min_Stack_Size+0x180>
     57c:	62617369 	rsbvs	r7, r1, #-1543503871	; 0xa4000001
     580:	2820656c 	stmdacs	r0!, {r2, r3, r5, r6, r8, sl, sp, lr}
     584:	4349564e 	movtmi	r5, #38478	; 0x964e
     588:	4543495f 	strbmi	r4, [r3, #-2399]	; 0xfffff6a1
     58c:	7c203052 	stcvc	0, cr3, [r0], #-328	; 0xfffffeb8
     590:	3128203d 			; <UNDEFINED> instruction: 0x3128203d
     594:	33323c3c 	teqcc	r2, #60, 24	; 0x3c00
     598:	45002929 	strmi	r2, [r0, #-2345]	; 0xfffff6d7
     59c:	31495458 	cmpcc	r9, r8, asr r4
     5a0:	31415034 	cmpcc	r1, r4, lsr r0
     5a4:	45282034 	strmi	r2, [r8, #-52]!	; 0xffffffcc
     5a8:	5f495458 	svcpl	0x00495458
     5ac:	4f495047 	svcmi	0x00495047
     5b0:	70614d5f 	rsbvc	r4, r1, pc, asr sp
     5b4:	5f676e69 	svcpl	0x00676e69
     5b8:	457b2974 	ldrbmi	r2, [fp, #-2420]!	; 0xfffff68c
     5bc:	31495458 	cmpcc	r9, r8, asr r4
     5c0:	50472c34 	subpl	r2, r7, r4, lsr ip
     5c4:	2c414f49 	mcrrcs	15, 4, r4, r1, cr9
     5c8:	4f495047 	svcmi	0x00495047
     5cc:	4e49505f 	mcrmi	0, 2, r5, cr9, cr15, {2}
     5d0:	2c34315f 	ldfcss	f3, [r4], #-380	; 0xfffffe84
     5d4:	49545845 	ldmdbmi	r4, {r0, r2, r6, fp, ip, lr}^
     5d8:	495f3431 	ldmdbmi	pc, {r0, r4, r5, sl, ip, sp}^	; <UNPREDICTABLE>
     5dc:	007d5152 	rsbseq	r5, sp, r2, asr r1
     5e0:	49535f5f 	ldmdbmi	r3, {r0, r1, r2, r3, r4, r6, r8, r9, sl, fp, ip, lr}^
     5e4:	464f455a 			; <UNDEFINED> instruction: 0x464f455a
     5e8:	4e4f4c5f 	mcrmi	12, 2, r4, cr15, cr15, {2}
     5ec:	4f4c5f47 	svcmi	0x004c5f47
     5f0:	5f5f474e 	svcpl	0x005f474e
     5f4:	5f003820 	svcpl	0x00003820
     5f8:	74637361 	strbtvc	r7, [r3], #-865	; 0xfffffc9f
     5fc:	5f656d69 	svcpl	0x00656d69
     600:	00667562 	rsbeq	r7, r6, r2, ror #10
     604:	42445f5f 	submi	r5, r4, #380	; 0x17c
     608:	414d5f4c 	cmpmi	sp, ip, asr #30
     60c:	30315f58 	eorscc	r5, r1, r8, asr pc
     610:	5058455f 	subspl	r4, r8, pc, asr r5
     614:	33205f5f 			; <UNDEFINED> instruction: 0x33205f5f
     618:	5f003830 	svcpl	0x00003830
     61c:	6c747663 	ldclvs	6, cr7, [r4], #-396	; 0xfffffe74
     620:	5f006e65 	svcpl	0x00006e65
     624:	5343525f 	movtpl	r5, #12895	; 0x325f
     628:	535f4449 	cmppl	pc, #1224736768	; 0x49000000
     62c:	4352554f 	cmpmi	r2, #331350016	; 0x13c00000
     630:	29732845 	ldmdbcs	r3!, {r0, r2, r6, fp, sp}^
     634:	72747320 	rsbsvc	r7, r4, #32, 6	; 0x80000000
     638:	20746375 	rsbscs	r6, r4, r5, ror r3
     63c:	61685f5f 	cmnvs	r8, pc, asr pc
     640:	5f006b63 	svcpl	0x00006b63
     644:	4152465f 	cmpmi	r2, pc, asr r6
     648:	4d5f5443 	cfldrdmi	mvd5, [pc, #-268]	; 544 <_Min_Stack_Size+0x144>
     64c:	5f5f4e49 	svcpl	0x005f4e49
     650:	302d2820 	eorcc	r2, sp, r0, lsr #16
     654:	2d52352e 	cfldr64cs	mvdx3, [r2, #-184]	; 0xffffff48
     658:	52352e30 	eorspl	r2, r5, #48, 28	; 0x300
     65c:	5f5f0029 	svcpl	0x005f0029
     660:	414c4c55 	cmpmi	ip, r5, asr ip
     664:	4d554343 	ldclmi	3, cr4, [r5, #-268]	; 0xfffffef4
     668:	58414d5f 	stmdapl	r1, {r0, r1, r2, r3, r4, r6, r8, sl, fp, lr}^
     66c:	30205f5f 	eorcc	r5, r0, pc, asr pc
     670:	46464658 			; <UNDEFINED> instruction: 0x46464658
     674:	46464646 	strbmi	r4, [r6], -r6, asr #12
     678:	46464646 	strbmi	r4, [r6], -r6, asr #12
     67c:	46464646 	strbmi	r4, [r6], -r6, asr #12
     680:	332d5046 			; <UNDEFINED> instruction: 0x332d5046
     684:	4c4c5532 	cfstr64mi	mvdx5, [ip], {50}	; 0x32
     688:	4e49004b 	cdpmi	0, 4, cr0, cr9, cr11, {2}
     68c:	5f343654 	svcpl	0x00343654
     690:	29782843 	ldmdbcs	r8!, {r0, r1, r6, fp, sp}^
     694:	495f5f20 	ldmdbmi	pc, {r5, r8, r9, sl, fp, ip, lr}^	; <UNPREDICTABLE>
     698:	3436544e 	ldrtcc	r5, [r6], #-1102	; 0xfffffbb2
     69c:	7828435f 	stmdavc	r8!, {r0, r1, r2, r3, r4, r6, r8, r9, lr}
     6a0:	43520029 	cmpmi	r2, #41	; 0x29
     6a4:	28282043 	stmdacs	r8!, {r0, r1, r6, sp}
     6a8:	5f434352 	svcpl	0x00434352
     6ac:	65707954 	ldrbvs	r7, [r0, #-2388]!	; 0xfffff6ac
     6b0:	20666544 	rsbcs	r6, r6, r4, asr #10
     6b4:	4352292a 	cmpmi	r2, #688128	; 0xa8000
     6b8:	41425f43 	cmpmi	r2, r3, asr #30
     6bc:	00294553 	eoreq	r4, r9, r3, asr r5
     6c0:	53555f5f 	cmppl	r5, #380	; 0x17c
     6c4:	55434341 	strbpl	r4, [r3, #-833]	; 0xfffffcbf
     6c8:	414d5f4d 	cmpmi	sp, sp, asr #30
     6cc:	205f5f58 	subscs	r5, pc, r8, asr pc	; <UNPREDICTABLE>
     6d0:	46465830 			; <UNDEFINED> instruction: 0x46465830
     6d4:	2d504646 	ldclcs	6, cr4, [r0, #-280]	; 0xfffffee8
     6d8:	4b485538 	blmi	1215bc0 <_Min_Stack_Size+0x12157c0>
     6dc:	445f5f00 	ldrbmi	r5, [pc], #-3840	; 6e4 <_Min_Stack_Size+0x2e4>
     6e0:	32334345 	eorscc	r4, r3, #335544321	; 0x14000001
     6e4:	4e494d5f 	mcrmi	13, 2, r4, cr9, cr15, {2}
     6e8:	31205f5f 			; <UNDEFINED> instruction: 0x31205f5f
     6ec:	35392d45 	ldrcc	r2, [r9, #-3397]!	; 0xfffff2bb
     6f0:	5f004644 	svcpl	0x00004644
     6f4:	544e495f 	strbpl	r4, [lr], #-2399	; 0xfffff6a1
     6f8:	5f58414d 	svcpl	0x0058414d
     6fc:	54444957 	strbpl	r4, [r4], #-2391	; 0xfffff6a9
     700:	205f5f48 	subscs	r5, pc, r8, asr #30
     704:	5f003436 	svcpl	0x00003436
     708:	4e454552 	mcrmi	5, 2, r4, cr5, cr2, {2}
     70c:	424d5f54 	submi	r5, sp, #84, 30	; 0x150
     710:	4f545253 	svcmi	0x00545253
     714:	5f534357 	svcpl	0x00534357
     718:	54415453 	strbpl	r5, [r1], #-1107	; 0xfffffbad
     71c:	74702845 	ldrbtvc	r2, [r0], #-2117	; 0xfffff7bb
     720:	28202972 	stmdacs	r0!, {r1, r4, r5, r6, r8, fp, sp}
     724:	72747028 	rsbsvc	r7, r4, #40	; 0x28
     728:	5f3e2d29 	svcpl	0x003e2d29
     72c:	6373696d 	cmnvs	r3, #1785856	; 0x1b4000
     730:	6d5f3e2d 	ldclvs	14, cr3, [pc, #-180]	; 684 <_Min_Stack_Size+0x284>
     734:	74727362 	ldrbtvc	r7, [r2], #-866	; 0xfffffc9e
     738:	7363776f 	cmnvc	r3, #29097984	; 0x1bc0000
     73c:	6174735f 	cmnvs	r4, pc, asr r3
     740:	00296574 	eoreq	r6, r9, r4, ror r5
     744:	50544e49 	subspl	r4, r4, r9, asr #28
     748:	4d5f5254 	lfmmi	f5, 2, [pc, #-336]	; 600 <_Min_Stack_Size+0x200>
     74c:	28205841 	stmdacs	r0!, {r0, r6, fp, ip, lr}
     750:	4e495f5f 	mcrmi	15, 2, r5, cr9, cr15, {2}
     754:	52545054 	subspl	r5, r4, #84	; 0x54
     758:	58414d5f 	stmdapl	r1, {r0, r1, r2, r3, r4, r6, r8, sl, fp, lr}^
     75c:	00295f5f 	eoreq	r5, r9, pc, asr pc
     760:	51535f5f 	cmppl	r3, pc, asr pc
     764:	4942495f 	stmdbmi	r2, {r0, r1, r2, r3, r4, r6, r8, fp, lr}^
     768:	205f5f54 	subscs	r5, pc, r4, asr pc	; <UNPREDICTABLE>
     76c:	5f5f0030 	svcpl	0x005f0030
     770:	455a4953 	ldrbmi	r4, [sl, #-2387]	; 0xfffff6ad
     774:	5059545f 	subspl	r5, r9, pc, asr r4
     778:	205f5f45 	subscs	r5, pc, r5, asr #30
     77c:	69736e75 	ldmdbvs	r3!, {r0, r2, r4, r5, r6, r9, sl, fp, sp, lr}^
     780:	64656e67 	strbtvs	r6, [r5], #-3687	; 0xfffff199
     784:	746e6920 	strbtvc	r6, [lr], #-2336	; 0xfffff6e0
     788:	445f5f00 	ldrbmi	r5, [pc], #-3840	; 790 <_Min_Stack_Size+0x390>
     78c:	34364345 	ldrtcc	r4, [r6], #-837	; 0xfffffcbb
     790:	58414d5f 	stmdapl	r1, {r0, r1, r2, r3, r4, r6, r8, sl, fp, lr}^
     794:	5058455f 	subspl	r4, r8, pc, asr r5
     798:	33205f5f 			; <UNDEFINED> instruction: 0x33205f5f
     79c:	5f003538 	svcpl	0x00003538
     7a0:	5f434347 	svcpl	0x00434347
     7a4:	50415257 	subpl	r5, r1, r7, asr r2
     7a8:	4454535f 	ldrbmi	r5, [r4], #-863	; 0xfffffca1
     7ac:	5f544e49 	svcpl	0x00544e49
     7b0:	5f002048 	svcpl	0x00002048
     7b4:	544c465f 	strbpl	r4, [ip], #-1631	; 0xfffff9a1
     7b8:	5341485f 	movtpl	r4, #6239	; 0x185f
     7bc:	4e45445f 	mcrmi	4, 2, r4, cr5, cr15, {2}
     7c0:	5f4d524f 	svcpl	0x004d524f
     7c4:	0031205f 	eorseq	r2, r1, pc, asr r0
     7c8:	4e495f5f 	mcrmi	15, 2, r5, cr9, cr15, {2}
     7cc:	545f3854 	ldrbpl	r3, [pc], #-2132	; 7d4 <_Min_Stack_Size+0x3d4>
     7d0:	5f455059 	svcpl	0x00455059
     7d4:	6973205f 	ldmdbvs	r3!, {r0, r1, r2, r3, r4, r6, sp}^
     7d8:	64656e67 	strbtvs	r6, [r5], #-3687	; 0xfffff199
     7dc:	61686320 	cmnvs	r8, r0, lsr #6
     7e0:	5f5f0072 	svcpl	0x005f0072
     7e4:	5f4d5241 	svcpl	0x004d5241
     7e8:	48435241 	stmdami	r3, {r0, r6, r9, ip, lr}^
     7ec:	4f52505f 	svcmi	0x0052505f
     7f0:	454c4946 	strbmi	r4, [ip, #-2374]	; 0xfffff6ba
     7f4:	00373720 	eorseq	r3, r7, r0, lsr #14
     7f8:	49545845 	ldmdbmi	r4, {r0, r2, r6, fp, ip, lr}^
     7fc:	37415037 	smlaldxcc	r5, r1, r7, r0
     800:	58452820 	stmdapl	r5, {r5, fp, sp}^
     804:	475f4954 			; <UNDEFINED> instruction: 0x475f4954
     808:	5f4f4950 	svcpl	0x004f4950
     80c:	6970614d 	ldmdbvs	r0!, {r0, r2, r3, r6, r8, sp, lr}^
     810:	745f676e 	ldrbvc	r6, [pc], #-1902	; 818 <_Min_Stack_Size+0x418>
     814:	58457b29 	stmdapl	r5, {r0, r3, r5, r8, r9, fp, ip, sp, lr}^
     818:	2c374954 			; <UNDEFINED> instruction: 0x2c374954
     81c:	4f495047 	svcmi	0x00495047
     820:	50472c41 	subpl	r2, r7, r1, asr #24
     824:	505f4f49 	subspl	r4, pc, r9, asr #30
     828:	375f4e49 	ldrbcc	r4, [pc, -r9, asr #28]
     82c:	5458452c 	ldrbpl	r4, [r8], #-1324	; 0xfffffad4
     830:	495f3749 	ldmdbmi	pc, {r0, r3, r6, r8, r9, sl, ip, sp}^	; <UNPREDICTABLE>
     834:	007d5152 	rsbseq	r5, sp, r2, asr r1
     838:	53555f5f 	cmppl	r5, #380	; 0x17c
     83c:	55434341 	strbpl	r4, [r3, #-833]	; 0xfffffcbf
     840:	494d5f4d 	stmdbmi	sp, {r0, r2, r3, r6, r8, r9, sl, fp, ip, lr}^
     844:	205f5f4e 	subscs	r5, pc, lr, asr #30
     848:	55302e30 	ldrpl	r2, [r0, #-3632]!	; 0xfffff1d0
     84c:	5f004b48 	svcpl	0x00004b48
     850:	544c465f 	strbpl	r4, [ip], #-1631	; 0xfffff9a1
     854:	445f3233 	ldrbmi	r3, [pc], #-563	; 85c <_Min_Stack_Size+0x45c>
     858:	4d494345 	stclmi	3, cr4, [r9, #-276]	; 0xfffffeec
     85c:	445f4c41 	ldrbmi	r4, [pc], #-3137	; 864 <_Min_Stack_Size+0x464>
     860:	5f5f4749 	svcpl	0x005f4749
     864:	5f003920 	svcpl	0x00003920
     868:	42444c5f 	submi	r4, r4, #24320	; 0x5f00
     86c:	494d5f4c 	stmdbmi	sp, {r2, r3, r6, r8, r9, sl, fp, ip, lr}^
     870:	58455f4e 	stmdapl	r5, {r1, r2, r3, r6, r8, r9, sl, fp, ip, lr}^
     874:	205f5f50 	subscs	r5, pc, r0, asr pc	; <UNPREDICTABLE>
     878:	30312d28 	eorscc	r2, r1, r8, lsr #26
     87c:	00293132 	eoreq	r3, r9, r2, lsr r1
     880:	4545525f 	strbmi	r5, [r5, #-607]	; 0xfffffda1
     884:	495f544e 	ldmdbmi	pc, {r1, r2, r3, r6, sl, ip, lr}^	; <UNPREDICTABLE>
     888:	5f54494e 	svcpl	0x0054494e
     88c:	444e4152 	strbmi	r4, [lr], #-338	; 0xfffffeae
     890:	76283834 			; <UNDEFINED> instruction: 0x76283834
     894:	20297261 	eorcs	r7, r9, r1, ror #4
     898:	7b206f64 	blvc	81c630 <_Min_Stack_Size+0x81c230>
     89c:	72747320 	rsbsvc	r7, r4, #32, 6	; 0x80000000
     8a0:	20746375 	rsbscs	r6, r4, r5, ror r3
     8a4:	6565725f 	strbvs	r7, [r5, #-607]!	; 0xfffffda1
     8a8:	2a20746e 	bcs	81da68 <_Min_Stack_Size+0x81d668>
     8ac:	3d20725f 	sfmcc	f7, 4, [r0, #-380]!	; 0xfffffe84
     8b0:	61762820 	cmnvs	r6, r0, lsr #16
     8b4:	203b2972 	eorscs	r2, fp, r2, ror r9
     8b8:	3e2d725f 	mcrcc	2, 1, r7, cr13, cr15, {2}
     8bc:	3834725f 	ldmdacc	r4!, {r0, r1, r2, r3, r4, r6, r9, ip, sp, lr}
     8c0:	735f3e2d 	cmpvc	pc, #720	; 0x2d0
     8c4:	5b646565 	blpl	1919e60 <_Min_Stack_Size+0x1919a60>
     8c8:	3d205d30 	stccc	13, cr5, [r0, #-192]!	; 0xffffff40
     8cc:	41525f20 	cmpmi	r2, r0, lsr #30
     8d0:	3834444e 	ldmdacc	r4!, {r1, r2, r3, r6, sl, lr}
     8d4:	4545535f 	strbmi	r5, [r5, #-863]	; 0xfffffca1
     8d8:	3b305f44 	blcc	c185f0 <_Min_Stack_Size+0xc181f0>
     8dc:	2d725f20 	ldclcs	15, cr5, [r2, #-128]!	; 0xffffff80
     8e0:	34725f3e 	ldrbtcc	r5, [r2], #-3902	; 0xfffff0c2
     8e4:	5f3e2d38 	svcpl	0x003e2d38
     8e8:	64656573 	strbtvs	r6, [r5], #-1395	; 0xfffffa8d
     8ec:	205d315b 	subscs	r3, sp, fp, asr r1
     8f0:	525f203d 	subspl	r2, pc, #61	; 0x3d
     8f4:	34444e41 	strbcc	r4, [r4], #-3649	; 0xfffff1bf
     8f8:	45535f38 	ldrbmi	r5, [r3, #-3896]	; 0xfffff0c8
     8fc:	315f4445 	cmpcc	pc, r5, asr #8
     900:	725f203b 	subsvc	r2, pc, #59	; 0x3b
     904:	725f3e2d 	subsvc	r3, pc, #720	; 0x2d0
     908:	3e2d3834 	mcrcc	8, 1, r3, cr13, cr4, {1}
     90c:	6565735f 	strbvs	r7, [r5, #-863]!	; 0xfffffca1
     910:	5d325b64 	vldmdbpl	r2!, {d5-<overflow reg d54>}
     914:	5f203d20 	svcpl	0x00203d20
     918:	444e4152 	strbmi	r4, [lr], #-338	; 0xfffffeae
     91c:	535f3834 	cmppl	pc, #52, 16	; 0x340000
     920:	5f444545 	svcpl	0x00444545
     924:	5f203b32 	svcpl	0x00203b32
     928:	5f3e2d72 	svcpl	0x003e2d72
     92c:	2d383472 	cfldrscs	mvf3, [r8, #-456]!	; 0xfffffe38
     930:	756d5f3e 	strbvc	r5, [sp, #-3902]!	; 0xfffff0c2
     934:	305b746c 	subscc	r7, fp, ip, ror #8
     938:	203d205d 	eorscs	r2, sp, sp, asr r0
     93c:	4e41525f 	mcrmi	2, 2, r5, cr1, cr15, {2}
     940:	5f383444 	svcpl	0x00383444
     944:	544c554d 	strbpl	r5, [ip], #-1357	; 0xfffffab3
     948:	203b305f 	eorscs	r3, fp, pc, asr r0
     94c:	3e2d725f 	mcrcc	2, 1, r7, cr13, cr15, {2}
     950:	3834725f 	ldmdacc	r4!, {r0, r1, r2, r3, r4, r6, r9, ip, sp, lr}
     954:	6d5f3e2d 	ldclvs	14, cr3, [pc, #-180]	; 8a8 <_Min_Stack_Size+0x4a8>
     958:	5b746c75 	blpl	1d1bb34 <_Min_Stack_Size+0x1d1b734>
     95c:	3d205d31 	stccc	13, cr5, [r0, #-196]!	; 0xffffff3c
     960:	41525f20 	cmpmi	r2, r0, lsr #30
     964:	3834444e 	ldmdacc	r4!, {r1, r2, r3, r6, sl, lr}
     968:	4c554d5f 	mrrcmi	13, 5, r4, r5, cr15
     96c:	3b315f54 	blcc	c586c4 <_Min_Stack_Size+0xc582c4>
     970:	2d725f20 	ldclcs	15, cr5, [r2, #-128]!	; 0xffffff80
     974:	34725f3e 	ldrbtcc	r5, [r2], #-3902	; 0xfffff0c2
     978:	5f3e2d38 	svcpl	0x003e2d38
     97c:	746c756d 	strbtvc	r7, [ip], #-1389	; 0xfffffa93
     980:	205d325b 	subscs	r3, sp, fp, asr r2
     984:	525f203d 	subspl	r2, pc, #61	; 0x3d
     988:	34444e41 	strbcc	r4, [r4], #-3649	; 0xfffff1bf
     98c:	554d5f38 	strbpl	r5, [sp, #-3896]	; 0xfffff0c8
     990:	325f544c 	subscc	r5, pc, #76, 8	; 0x4c000000
     994:	725f203b 	subsvc	r2, pc, #59	; 0x3b
     998:	725f3e2d 	subsvc	r3, pc, #720	; 0x2d0
     99c:	3e2d3834 	mcrcc	8, 1, r3, cr13, cr4, {1}
     9a0:	6464615f 	strbtvs	r6, [r4], #-351	; 0xfffffea1
     9a4:	5f203d20 	svcpl	0x00203d20
     9a8:	444e4152 	strbmi	r4, [lr], #-338	; 0xfffffeae
     9ac:	415f3834 	cmpmi	pc, r4, lsr r8	; <UNPREDICTABLE>
     9b0:	203b4444 	eorscs	r4, fp, r4, asr #8
     9b4:	3e2d725f 	mcrcc	2, 1, r7, cr13, cr15, {2}
     9b8:	3834725f 	ldmdacc	r4!, {r0, r1, r2, r3, r4, r6, r9, ip, sp, lr}
     9bc:	725f3e2d 	subsvc	r3, pc, #720	; 0x2d0
     9c0:	5f646e61 	svcpl	0x00646e61
     9c4:	7478656e 	ldrbtvc	r6, [r8], #-1390	; 0xfffffa92
     9c8:	31203d20 			; <UNDEFINED> instruction: 0x31203d20
     9cc:	207d203b 	rsbscs	r2, sp, fp, lsr r0
     9d0:	6c696877 	stclvs	8, cr6, [r9], #-476	; 0xfffffe24
     9d4:	30282065 	eorcc	r2, r8, r5, rrx
     9d8:	5f5f0029 	svcpl	0x005f0029
     9dc:	4c42444c 	cfstrdmi	mvd4, [r2], {76}	; 0x4c
     9e0:	4e414d5f 	mcrmi	13, 2, r4, cr1, cr15, {2}
     9e4:	49445f54 	stmdbmi	r4, {r2, r4, r6, r8, r9, sl, fp, ip, lr}^
     9e8:	205f5f47 	subscs	r5, pc, r7, asr #30
     9ec:	5f003335 	svcpl	0x00003335
     9f0:	006d745f 	rsbeq	r7, sp, pc, asr r4
     9f4:	7363775f 	cmnvc	r3, #24903680	; 0x17c0000
     9f8:	6d6f7472 	cfstrdvs	mvd7, [pc, #-456]!	; 838 <_Min_Stack_Size+0x438>
     9fc:	735f7362 	cmpvc	pc, #-2013265919	; 0x88000001
     a00:	65746174 	ldrbvs	r6, [r4, #-372]!	; 0xfffffe8c
     a04:	626e5f00 	rsbvs	r5, lr, #0, 30
     a08:	5f006675 	svcpl	0x00006675
     a0c:	5f6d745f 	svcpl	0x006d745f
     a10:	00636573 	rsbeq	r6, r3, r3, ror r5
     a14:	49555f5f 	ldmdbmi	r5, {r0, r1, r2, r3, r4, r6, r8, r9, sl, fp, ip, lr}^
     a18:	5f38544e 	svcpl	0x0038544e
     a1c:	29632843 	stmdbcs	r3!, {r0, r1, r6, fp, sp}^
     a20:	4f006320 	svcmi	0x00006320
     a24:	45535f53 	ldrbmi	r5, [r3, #-3923]	; 0xfffff0ad
     a28:	53505f54 	cmppl	r0, #84, 30	; 0x150
     a2c:	64612850 	strbtvs	r2, [r1], #-2128	; 0xfffff7b0
     a30:	73657264 	cmnvc	r5, #100, 4	; 0x40000006
     a34:	5f202973 	svcpl	0x00202973
     a38:	6d73615f 	ldfvse	f6, [r3, #-380]!	; 0xfffffe84
     a3c:	6c6f7620 	stclvs	6, cr7, [pc], #-128	; 9c4 <_Min_Stack_Size+0x5c4>
     a40:	6c697461 	cfstrdvs	mvd7, [r9], #-388	; 0xfffffe7c
     a44:	6d222865 	stcvs	8, cr2, [r2, #-404]!	; 0xfffffe6c
     a48:	7220766f 	eorvc	r7, r0, #116391936	; 0x6f00000
     a4c:	30252c30 	eorcc	r2, r5, r0, lsr ip
     a50:	5c6e5c20 	stclpl	12, cr5, [lr], #-128	; 0xffffff80
     a54:	736d2074 	cmnvc	sp, #116	; 0x74
     a58:	73702072 	cmnvc	r0, #114	; 0x72
     a5c:	30722c70 	rsbscc	r2, r2, r0, ror ip
     a60:	203a2022 	eorscs	r2, sl, r2, lsr #32
     a64:	7222203a 	eorvc	r2, r2, #58	; 0x3a
     a68:	64612822 	strbtvs	r2, [r1], #-2082	; 0xfffff7de
     a6c:	73657264 	cmnvc	r5, #100, 4	; 0x40000006
     a70:	00292973 	eoreq	r2, r9, r3, ror r9
     a74:	4e495f5f 	mcrmi	15, 2, r5, cr9, cr15, {2}
     a78:	5f363154 	svcpl	0x00363154
     a7c:	45505954 	ldrbmi	r5, [r0, #-2388]	; 0xfffff6ac
     a80:	73205f5f 			; <UNDEFINED> instruction: 0x73205f5f
     a84:	74726f68 	ldrbtvc	r6, [r2], #-3944	; 0xfffff098
     a88:	746e6920 	strbtvc	r6, [lr], #-2336	; 0xfffff6e0
     a8c:	615f5f00 	cmpvs	pc, r0, lsl #30
     a90:	6e67696c 	vnmulvs.f16	s13, s14, s25	; <UNPREDICTABLE>
     a94:	78286465 	stmdavc	r8!, {r0, r2, r5, r6, sl, sp, lr}
     a98:	5f5f2029 	svcpl	0x005f2029
     a9c:	72747461 	rsbsvc	r7, r4, #1627389952	; 0x61000000
     aa0:	74756269 	ldrbtvc	r6, [r5], #-617	; 0xfffffd97
     aa4:	285f5f65 	ldmdacs	pc, {r0, r2, r5, r6, r8, r9, sl, fp, ip, lr}^	; <UNPREDICTABLE>
     aa8:	615f5f28 	cmpvs	pc, r8, lsr #30
     aac:	6e67696c 	vnmulvs.f16	s13, s14, s25	; <UNPREDICTABLE>
     ab0:	5f5f6465 	svcpl	0x005f6465
     ab4:	29297828 	stmdbcs	r9!, {r3, r5, fp, ip, sp, lr}
     ab8:	5f5f0029 	svcpl	0x005f0029
     abc:	6b636f6c 	blvs	18dc874 <_Min_Stack_Size+0x18dc474>
     ac0:	78655f73 	stmdavc	r5!, {r0, r1, r4, r5, r6, r8, r9, sl, fp, ip, lr}^
     ac4:	73756c63 	cmnvc	r5, #25344	; 0x6300
     ac8:	28657669 	stmdacs	r5!, {r0, r3, r5, r6, r9, sl, ip, sp, lr}^
     acc:	292e2e2e 	stmdbcs	lr!, {r1, r2, r3, r5, r9, sl, fp, sp}
     ad0:	6c5f5f20 	mrrcvs	15, 2, r5, pc, cr0	; <UNPREDICTABLE>
     ad4:	5f6b636f 	svcpl	0x006b636f
     ad8:	6f6e6e61 	svcvs	0x006e6e61
     adc:	65746174 	ldrbvs	r6, [r4, #-372]!	; 0xfffffe8c
     ae0:	63786528 	cmnvs	r8, #40, 10	; 0xa000000
     ae4:	6973756c 	ldmdbvs	r3!, {r2, r3, r5, r6, r8, sl, ip, sp, lr}^
     ae8:	6c5f6576 	cfldr64vs	mvdx6, [pc], {118}	; 0x76
     aec:	5f6b636f 	svcpl	0x006b636f
     af0:	636e7566 	cmnvs	lr, #427819008	; 0x19800000
     af4:	6e6f6974 			; <UNDEFINED> instruction: 0x6e6f6974
     af8:	565f5f28 	ldrbpl	r5, [pc], -r8, lsr #30
     afc:	52415f41 	subpl	r5, r1, #260	; 0x104
     b00:	5f5f5347 	svcpl	0x005f5347
     b04:	5f002929 	svcpl	0x00002929
     b08:	6134366c 	teqvs	r4, ip, ror #12
     b0c:	6675625f 			; <UNDEFINED> instruction: 0x6675625f
     b10:	465f5f00 	ldrbmi	r5, [pc], -r0, lsl #30
     b14:	3436544c 	ldrtcc	r5, [r6], #-1100	; 0xfffffbb4
     b18:	58414d5f 	stmdapl	r1, {r0, r1, r2, r3, r4, r6, r8, sl, fp, lr}^
     b1c:	31205f5f 			; <UNDEFINED> instruction: 0x31205f5f
     b20:	3739372e 	ldrcc	r3, [r9, -lr, lsr #14]!
     b24:	31333936 	teqcc	r3, r6, lsr r9
     b28:	36383433 			; <UNDEFINED> instruction: 0x36383433
     b2c:	35313332 	ldrcc	r3, [r1, #-818]!	; 0xfffffcce
     b30:	332b6537 			; <UNDEFINED> instruction: 0x332b6537
     b34:	36463830 			; <UNDEFINED> instruction: 0x36463830
     b38:	5f5f0034 	svcpl	0x005f0034
     b3c:	75716572 	ldrbvc	r6, [r1, #-1394]!	; 0xfffffa8e
     b40:	73657269 	cmnvc	r5, #-1879048186	; 0x90000006
     b44:	6378655f 	cmnvs	r8, #398458880	; 0x17c00000
     b48:	6973756c 	ldmdbvs	r3!, {r2, r3, r5, r6, r8, sl, ip, sp, lr}^
     b4c:	2e286576 	mcrcs	5, 1, r6, cr8, cr6, {3}
     b50:	20292e2e 	eorcs	r2, r9, lr, lsr #28
     b54:	6f6c5f5f 	svcvs	0x006c5f5f
     b58:	615f6b63 	cmpvs	pc, r3, ror #22
     b5c:	746f6e6e 	strbtvc	r6, [pc], #-3694	; b64 <_Min_Stack_Size+0x764>
     b60:	28657461 	stmdacs	r5!, {r0, r5, r6, sl, ip, sp, lr}^
     b64:	6c637865 	stclvs	8, cr7, [r3], #-404	; 0xfffffe6c
     b68:	76697375 			; <UNDEFINED> instruction: 0x76697375
     b6c:	6f6c5f65 	svcvs	0x006c5f65
     b70:	5f736b63 	svcpl	0x00736b63
     b74:	75716572 	ldrbvc	r6, [r1, #-1394]!	; 0xfffffa8e
     b78:	64657269 	strbtvs	r7, [r5], #-617	; 0xfffffd97
     b7c:	565f5f28 	ldrbpl	r5, [pc], -r8, lsr #30
     b80:	52415f41 	subpl	r5, r1, #260	; 0x104
     b84:	5f5f5347 	svcpl	0x005f5347
     b88:	5f002929 	svcpl	0x00002929
     b8c:	626e755f 	rsbvs	r7, lr, #398458880	; 0x17c00000
     b90:	646e756f 	strbtvs	r7, [lr], #-1391	; 0xfffffa91
     b94:	00206465 	eoreq	r6, r0, r5, ror #8
     b98:	4e495f5f 	mcrmi	15, 2, r5, cr9, cr15, {2}
     b9c:	22203854 	eorcs	r3, r0, #84, 16	; 0x540000
     ba0:	00226868 	eoreq	r6, r2, r8, ror #16
     ba4:	48474945 	stmdami	r7, {r0, r2, r6, r8, fp, lr}^
     ba8:	49425f54 	stmdbmi	r2, {r2, r4, r6, r8, r9, sl, fp, ip, lr}^
     bac:	4f4d5f54 	svcmi	0x004d5f54
     bb0:	30204544 	eorcc	r4, r0, r4, asr #10
     bb4:	475f5f00 	ldrbmi	r5, [pc, -r0, lsl #30]
     bb8:	485f4343 	ldmdami	pc, {r0, r1, r6, r8, r9, lr}^	; <UNPREDICTABLE>
     bbc:	5f455641 	svcpl	0x00455641
     bc0:	434e5953 	movtmi	r5, #59731	; 0xe953
     bc4:	4d4f435f 	stclmi	3, cr4, [pc, #-380]	; a50 <_Min_Stack_Size+0x650>
     bc8:	45524150 	ldrbmi	r4, [r2, #-336]	; 0xfffffeb0
     bcc:	444e415f 	strbmi	r4, [lr], #-351	; 0xfffffea1
     bd0:	4157535f 	cmpmi	r7, pc, asr r3
     bd4:	20315f50 	eorscs	r5, r1, r0, asr pc
     bd8:	58450031 	stmdapl	r5, {r0, r4, r5}^
     bdc:	31314954 	teqcc	r1, r4, asr r9
     be0:	31314150 	teqcc	r1, r0, asr r1
     be4:	58452820 	stmdapl	r5, {r5, fp, sp}^
     be8:	475f4954 			; <UNDEFINED> instruction: 0x475f4954
     bec:	5f4f4950 	svcpl	0x004f4950
     bf0:	6970614d 	ldmdbvs	r0!, {r0, r2, r3, r6, r8, sp, lr}^
     bf4:	745f676e 	ldrbvc	r6, [pc], #-1902	; bfc <_Min_Stack_Size+0x7fc>
     bf8:	58457b29 	stmdapl	r5, {r0, r3, r5, r8, r9, fp, ip, sp, lr}^
     bfc:	31314954 	teqcc	r1, r4, asr r9
     c00:	4950472c 	ldmdbmi	r0, {r2, r3, r5, r8, r9, sl, lr}^
     c04:	472c414f 	strmi	r4, [ip, -pc, asr #2]!
     c08:	5f4f4950 	svcpl	0x004f4950
     c0c:	5f4e4950 	svcpl	0x004e4950
     c10:	452c3131 	strmi	r3, [ip, #-305]!	; 0xfffffecf
     c14:	31495458 	cmpcc	r9, r8, asr r4
     c18:	52495f31 	subpl	r5, r9, #49, 30	; 0xc4
     c1c:	5f007d51 	svcpl	0x00007d51
     c20:	6373696d 	cmnvs	r3, #1785856	; 0x1b4000
     c24:	6565725f 	strbvs	r7, [r5, #-607]!	; 0xfffffda1
     c28:	4500746e 	strmi	r7, [r0, #-1134]	; 0xfffffb92
     c2c:	37495458 	smlsldcc	r5, r9, r8, r4
     c30:	20374350 	eorscs	r4, r7, r0, asr r3
     c34:	54584528 	ldrbpl	r4, [r8], #-1320	; 0xfffffad8
     c38:	50475f49 	subpl	r5, r7, r9, asr #30
     c3c:	4d5f4f49 	ldclmi	15, cr4, [pc, #-292]	; b20 <_Min_Stack_Size+0x720>
     c40:	6e697061 	cdpvs	0, 6, cr7, cr9, cr1, {3}
     c44:	29745f67 	ldmdbcs	r4!, {r0, r1, r2, r5, r6, r8, r9, sl, fp, ip, lr}^
     c48:	5458457b 	ldrbpl	r4, [r8], #-1403	; 0xfffffa85
     c4c:	472c3749 	strmi	r3, [ip, -r9, asr #14]!
     c50:	434f4950 	movtmi	r4, #63824	; 0xf950
     c54:	4950472c 	ldmdbmi	r0, {r2, r3, r5, r8, r9, sl, lr}^
     c58:	49505f4f 	ldmdbmi	r0, {r0, r1, r2, r3, r6, r8, r9, sl, fp, ip, lr}^
     c5c:	2c375f4e 	ldccs	15, cr5, [r7], #-312	; 0xfffffec8
     c60:	49545845 	ldmdbmi	r4, {r0, r2, r6, fp, ip, lr}^
     c64:	52495f37 	subpl	r5, r9, #55, 30	; 0xdc
     c68:	5f007d51 	svcpl	0x00007d51
     c6c:	4454535f 	ldrbmi	r5, [r4], #-863	; 0xfffffca1
     c70:	4f485f43 	svcmi	0x00485f43
     c74:	44455453 	strbmi	r5, [r5], #-1107	; 0xfffffbad
     c78:	31205f5f 			; <UNDEFINED> instruction: 0x31205f5f
     c7c:	555f5f00 	ldrbpl	r5, [pc, #-3840]	; fffffd84 <_estack+0xdfffd584>
     c80:	52464c4c 	subpl	r4, r6, #76, 24	; 0x4c00
     c84:	5f544341 	svcpl	0x00544341
     c88:	54494246 	strbpl	r4, [r9], #-582	; 0xfffffdba
     c8c:	36205f5f 	qsaxcc	r5, r0, pc	; <UNPREDICTABLE>
     c90:	4c5f0034 	mrrcmi	0, 3, r0, pc, cr4	; <UNPREDICTABLE>
     c94:	5f4c4244 	svcpl	0x004c4244
     c98:	445f5145 	ldrbmi	r5, [pc], #-325	; ca0 <_Min_Stack_Size+0x8a0>
     c9c:	31204c42 			; <UNDEFINED> instruction: 0x31204c42
     ca0:	4c414800 	mcrrmi	8, 0, r4, r1, cr0
     ca4:	44504b5f 	ldrbmi	r4, [r0], #-2911	; 0xfffff4a1
     ca8:	44504b5f 	ldrbmi	r4, [r0], #-2911	; 0xfffff4a1
     cac:	544e495f 	strbpl	r4, [lr], #-2399	; 0xfffff6a1
     cb0:	41465245 	cmpmi	r6, r5, asr #4
     cb4:	485f4543 	ldmdami	pc, {r0, r1, r6, r8, sl, lr}^	; <UNPREDICTABLE>
     cb8:	5f00205f 	svcpl	0x0000205f
     cbc:	544e495f 	strbpl	r4, [lr], #-2399	; 0xfffff6a1
     cc0:	5341465f 	movtpl	r4, #5727	; 0x165f
     cc4:	5f343654 	svcpl	0x00343654
     cc8:	45505954 	ldrbmi	r5, [r0, #-2388]	; 0xfffff6ac
     ccc:	6c205f5f 	stcvs	15, cr5, [r0], #-380	; 0xfffffe84
     cd0:	20676e6f 	rsbcs	r6, r7, pc, ror #28
     cd4:	676e6f6c 	strbvs	r6, [lr, -ip, ror #30]!
     cd8:	746e6920 	strbtvc	r6, [lr], #-2336	; 0xfffff6e0
     cdc:	575f5f00 	ldrbpl	r5, [pc, -r0, lsl #30]
     ce0:	5f544e49 	svcpl	0x00544e49
     ce4:	45505954 	ldrbmi	r5, [r0, #-2388]	; 0xfffff6ac
     ce8:	75205f5f 	strvc	r5, [r0, #-3935]!	; 0xfffff0a1
     cec:	6769736e 	strbvs	r7, [r9, -lr, ror #6]!
     cf0:	2064656e 	rsbcs	r6, r4, lr, ror #10
     cf4:	00746e69 	rsbseq	r6, r4, r9, ror #28
     cf8:	49545845 	ldmdbmi	r4, {r0, r2, r6, fp, ip, lr}^
     cfc:	43503031 	cmpmi	r0, #49	; 0x31
     d00:	28203031 	stmdacs	r0!, {r0, r4, r5, ip, sp}
     d04:	49545845 	ldmdbmi	r4, {r0, r2, r6, fp, ip, lr}^
     d08:	4950475f 	ldmdbmi	r0, {r0, r1, r2, r3, r4, r6, r8, r9, sl, lr}^
     d0c:	614d5f4f 	cmpvs	sp, pc, asr #30
     d10:	676e6970 			; <UNDEFINED> instruction: 0x676e6970
     d14:	7b29745f 	blvc	a5de98 <_Min_Stack_Size+0xa5da98>
     d18:	49545845 	ldmdbmi	r4, {r0, r2, r6, fp, ip, lr}^
     d1c:	472c3031 			; <UNDEFINED> instruction: 0x472c3031
     d20:	434f4950 	movtmi	r4, #63824	; 0xf950
     d24:	4950472c 	ldmdbmi	r0, {r2, r3, r5, r8, r9, sl, lr}^
     d28:	49505f4f 	ldmdbmi	r0, {r0, r1, r2, r3, r6, r8, r9, sl, fp, ip, lr}^
     d2c:	30315f4e 	eorscc	r5, r1, lr, asr #30
     d30:	5458452c 	ldrbpl	r4, [r8], #-1324	; 0xfffffad4
     d34:	5f303149 	svcpl	0x00303149
     d38:	7d515249 	lfmvc	f5, 2, [r1, #-292]	; 0xfffffedc
     d3c:	6e665f00 	cdpvs	15, 6, cr5, cr6, cr0, {0}
     d40:	73677261 	cmnvc	r7, #268435462	; 0x10000006
     d44:	6f6c5f00 	svcvs	0x006c5f00
     d48:	52006b63 	andpl	r6, r0, #101376	; 0x18c00
     d4c:	415f4343 	cmpmi	pc, r3, asr #6
     d50:	5f4f4946 	svcpl	0x004f4946
     d54:	5f4b4c43 	svcpl	0x004b4c43
     d58:	29284e45 	stmdbcs	r8!, {r0, r2, r6, r9, sl, fp, lr}
     d5c:	43522820 	cmpmi	r2, #32, 16	; 0x200000
     d60:	413e2d43 	teqmi	lr, r3, asr #26
     d64:	45324250 	ldrmi	r4, [r2, #-592]!	; 0xfffffdb0
     d68:	7c20524e 	sfmvc	f5, 4, [r0], #-312	; 0xfffffec8
     d6c:	3c31203d 	ldccc	0, cr2, [r1], #-244	; 0xffffff0c
     d70:	0029303c 	eoreq	r3, r9, ip, lsr r0
     d74:	44525450 	ldrbmi	r5, [r2], #-1104	; 0xfffffbb0
     d78:	5f464649 	svcpl	0x00464649
     d7c:	2058414d 	subscs	r4, r8, sp, asr #2
     d80:	505f5f28 	subspl	r5, pc, r8, lsr #30
     d84:	49445254 	stmdbmi	r4, {r2, r4, r6, r9, ip, lr}^
     d88:	4d5f4646 	ldclmi	6, cr4, [pc, #-280]	; c78 <_Min_Stack_Size+0x878>
     d8c:	5f5f5841 	svcpl	0x005f5841
     d90:	5f5f0029 	svcpl	0x005f0029
     d94:	33544c46 	cmpcc	r4, #17920	; 0x4600
     d98:	414d5f32 	cmpmi	sp, r2, lsr pc
     d9c:	30315f58 	eorscc	r5, r1, r8, asr pc
     da0:	5058455f 	subspl	r4, r8, pc, asr r5
     da4:	33205f5f 			; <UNDEFINED> instruction: 0x33205f5f
     da8:	4e5f0038 	mrcmi	0, 2, r0, cr15, cr8, {1}
     dac:	616c6c75 	smcvs	50885	; 0xc6c5
     db0:	20656c62 	rsbcs	r6, r5, r2, ror #24
     db4:	54584500 	ldrbpl	r4, [r8], #-1280	; 0xfffffb00
     db8:	50323149 	eorspl	r3, r2, r9, asr #2
     dbc:	20323144 	eorscs	r3, r2, r4, asr #2
     dc0:	54584528 	ldrbpl	r4, [r8], #-1320	; 0xfffffad8
     dc4:	50475f49 	subpl	r5, r7, r9, asr #30
     dc8:	4d5f4f49 	ldclmi	15, cr4, [pc, #-292]	; cac <_Min_Stack_Size+0x8ac>
     dcc:	6e697061 	cdpvs	0, 6, cr7, cr9, cr1, {3}
     dd0:	29745f67 	ldmdbcs	r4!, {r0, r1, r2, r5, r6, r8, r9, sl, fp, ip, lr}^
     dd4:	5458457b 	ldrbpl	r4, [r8], #-1403	; 0xfffffa85
     dd8:	2c323149 	ldfcss	f3, [r2], #-292	; 0xfffffedc
     ddc:	4f495047 	svcmi	0x00495047
     de0:	50472c44 	subpl	r2, r7, r4, asr #24
     de4:	505f4f49 	subspl	r4, pc, r9, asr #30
     de8:	315f4e49 	cmpcc	pc, r9, asr #28
     dec:	58452c32 	stmdapl	r5, {r1, r4, r5, sl, fp, sp}^
     df0:	32314954 	eorscc	r4, r1, #84, 18	; 0x150000
     df4:	5152495f 	cmppl	r2, pc, asr r9
     df8:	525f007d 	subspl	r0, pc, #125	; 0x7d
     dfc:	544e4545 	strbpl	r4, [lr], #-1349	; 0xfffffabb
     e00:	4548435f 	strbmi	r4, [r8, #-863]	; 0xfffffca1
     e04:	545f4b43 	ldrbpl	r4, [pc], #-2883	; e0c <_Min_Stack_Size+0xa0c>
     e08:	6176284d 	cmnvs	r6, sp, asr #16
     e0c:	5f202972 	svcpl	0x00202972
     e10:	4e454552 	mcrmi	5, 2, r4, cr5, cr2, {2}
     e14:	48435f54 	stmdami	r3, {r2, r4, r6, r8, r9, sl, fp, ip, lr}^
     e18:	284b4345 	stmdacs	fp, {r0, r2, r6, r8, r9, lr}^
     e1c:	2c726176 	ldfcse	f6, [r2], #-472	; 0xfffffe28
     e20:	6f6c5f20 	svcvs	0x006c5f20
     e24:	746c6163 	strbtvc	r6, [ip], #-355	; 0xfffffe9d
     e28:	5f656d69 	svcpl	0x00656d69
     e2c:	2c667562 	cfstr64cs	mvdx7, [r6], #-392	; 0xfffffe78
     e30:	72747320 	rsbsvc	r7, r4, #32, 6	; 0x80000000
     e34:	20746375 	rsbscs	r6, r4, r5, ror r3
     e38:	6d745f5f 	ldclvs	15, cr5, [r4, #-380]!	; 0xfffffe84
     e3c:	202c2a20 	eorcs	r2, ip, r0, lsr #20
     e40:	657a6973 	ldrbvs	r6, [sl, #-2419]!	; 0xfffff68d
     e44:	2a20666f 	bcs	81a808 <_Min_Stack_Size+0x81a408>
     e48:	61762828 	cmnvs	r6, r8, lsr #16
     e4c:	3e2d2972 			; <UNDEFINED> instruction: 0x3e2d2972
     e50:	636f6c5f 	cmnvs	pc, #24320	; 0x5f00
     e54:	69746c61 	ldmdbvs	r4!, {r0, r5, r6, sl, fp, sp, lr}^
     e58:	625f656d 	subsvs	r6, pc, #457179136	; 0x1b400000
     e5c:	2c296675 	stccs	6, cr6, [r9], #-468	; 0xfffffe2c
     e60:	5f002920 	svcpl	0x00002920
     e64:	4653555f 			; <UNDEFINED> instruction: 0x4653555f
     e68:	54434152 	strbpl	r4, [r3], #-338	; 0xfffffeae
     e6c:	58414d5f 	stmdapl	r1, {r0, r1, r2, r3, r4, r6, r8, sl, fp, lr}^
     e70:	30205f5f 	eorcc	r5, r0, pc, asr pc
     e74:	50464658 	subpl	r4, r6, r8, asr r6
     e78:	4855382d 	ldmdami	r5, {r0, r2, r3, r5, fp, ip, sp}^
     e7c:	58450052 	stmdapl	r5, {r1, r4, r6}^
     e80:	30314954 	eorscc	r4, r1, r4, asr r9
     e84:	00303120 	eorseq	r3, r0, r0, lsr #2
     e88:	49545845 	ldmdbmi	r4, {r0, r2, r6, fp, ip, lr}^
     e8c:	4950475f 	ldmdbmi	r0, {r0, r1, r2, r3, r4, r6, r8, r9, sl, lr}^
     e90:	614d5f4f 	cmpvs	sp, pc, asr #30
     e94:	676e6970 			; <UNDEFINED> instruction: 0x676e6970
     e98:	5f00745f 	svcpl	0x0000745f
     e9c:	4d53415f 	ldfmie	f4, [r3, #-380]	; 0xfffffe84
     ea0:	454d414e 	strbmi	r4, [sp, #-334]	; 0xfffffeb2
     ea4:	616e6328 	cmnvs	lr, r8, lsr #6
     ea8:	2029656d 	eorcs	r6, r9, sp, ror #10
     eac:	53585f5f 	cmppl	r8, #380	; 0x17c
     eb0:	4e495254 	mcrmi	2, 2, r5, cr9, cr4, {2}
     eb4:	5f282047 	svcpl	0x00282047
     eb8:	4553555f 	ldrbmi	r5, [r3, #-1375]	; 0xfffffaa1
     ebc:	414c5f52 	cmpmi	ip, r2, asr pc
     ec0:	5f4c4542 	svcpl	0x004c4542
     ec4:	46455250 			; <UNDEFINED> instruction: 0x46455250
     ec8:	5f5f5849 	svcpl	0x005f5849
     ecc:	6e632029 	cdpvs	0, 6, cr2, cr3, cr9, {1}
     ed0:	00656d61 	rsbeq	r6, r5, r1, ror #26
     ed4:	656e5f5f 	strbvs	r5, [lr, #-3935]!	; 0xfffff0a1
     ed8:	775f6465 	ldrbvc	r6, [pc, -r5, ror #8]
     edc:	72616863 	rsbvc	r6, r1, #6488064	; 0x630000
     ee0:	5f00745f 	svcpl	0x0000745f
     ee4:	544c465f 	strbpl	r4, [ip], #-1631	; 0xfffff9a1
     ee8:	4d5f3233 	lfmmi	f3, 2, [pc, #-204]	; e24 <_Min_Stack_Size+0xa24>
     eec:	455f4e49 	ldrbmi	r4, [pc, #-3657]	; ab <_Min_Heap_Size-0x155>
     ef0:	5f5f5058 	svcpl	0x005f5058
     ef4:	312d2820 			; <UNDEFINED> instruction: 0x312d2820
     ef8:	00293532 	eoreq	r3, r9, r2, lsr r5
     efc:	7465675f 	strbtvc	r6, [r5], #-1887	; 0xfffff8a1
     f00:	65746164 	ldrbvs	r6, [r4, #-356]!	; 0xfffffe9c
     f04:	7272655f 	rsbsvc	r6, r2, #398458880	; 0x17c00000
     f08:	756d5f00 	strbvc	r5, [sp, #-3840]!	; 0xfffff100
     f0c:	4900746c 	stmdbmi	r0, {r2, r3, r5, r6, sl, ip, sp, lr}
     f10:	3631544e 	ldrtcc	r5, [r1], -lr, asr #8
     f14:	58414d5f 	stmdapl	r1, {r0, r1, r2, r3, r4, r6, r8, sl, fp, lr}^
     f18:	5f5f2820 	svcpl	0x005f2820
     f1c:	31544e49 	cmpcc	r4, r9, asr #28
     f20:	414d5f36 	cmpmi	sp, r6, lsr pc
     f24:	295f5f58 	ldmdbcs	pc, {r3, r4, r6, r8, r9, sl, fp, ip, lr}^	; <UNPREDICTABLE>
     f28:	555f5f00 	ldrbpl	r5, [pc, #-3840]	; 30 <_Min_Heap_Size-0x1d0>
     f2c:	4152464c 	cmpmi	r2, ip, asr #12
     f30:	465f5443 	ldrbmi	r5, [pc], -r3, asr #8
     f34:	5f544942 	svcpl	0x00544942
     f38:	3233205f 	eorscc	r2, r3, #95	; 0x5f
     f3c:	54584500 	ldrbpl	r4, [r8], #-1280	; 0xfffffb00
     f40:	20323149 	eorscs	r3, r2, r9, asr #2
     f44:	5f003231 	svcpl	0x00003231
     f48:	544c465f 	strbpl	r4, [ip], #-1631	; 0xfffff9a1
     f4c:	4d5f3436 	cfldrdmi	mvd3, [pc, #-216]	; e7c <_Min_Stack_Size+0xa7c>
     f50:	315f4e49 	cmpcc	pc, r9, asr #28
     f54:	58455f30 	stmdapl	r5, {r4, r5, r8, r9, sl, fp, ip, lr}^
     f58:	205f5f50 	subscs	r5, pc, r0, asr pc	; <UNPREDICTABLE>
     f5c:	30332d28 	eorscc	r2, r3, r8, lsr #26
     f60:	49002937 	stmdbmi	r0, {r0, r1, r2, r4, r5, r8, fp, sp}
     f64:	465f544e 	ldrbmi	r5, [pc], -lr, asr #8
     f68:	36545341 	ldrbcc	r5, [r4], -r1, asr #6
     f6c:	494d5f34 	stmdbmi	sp, {r2, r4, r5, r8, r9, sl, fp, ip, lr}^
     f70:	2d28204e 	stccs	0, cr2, [r8, #-312]!	; 0xfffffec8
     f74:	4e495f5f 	mcrmi	15, 2, r5, cr9, cr15, {2}
     f78:	41465f54 	cmpmi	r6, r4, asr pc
     f7c:	34365453 	ldrtcc	r5, [r6], #-1107	; 0xfffffbad
     f80:	58414d5f 	stmdapl	r1, {r0, r1, r2, r3, r4, r6, r8, sl, fp, lr}^
     f84:	2d205f5f 	stccs	15, cr5, [r0, #-380]!	; 0xfffffe84
     f88:	00293120 	eoreq	r3, r9, r0, lsr #2
     f8c:	69735f5f 	ldmdbvs	r3!, {r0, r1, r2, r3, r4, r6, r8, r9, sl, fp, ip, lr}^
     f90:	745f657a 	ldrbvc	r6, [pc], #-1402	; f98 <_Min_Stack_Size+0xb98>
     f94:	5f5f0020 	svcpl	0x005f0020
     f98:	6e756f62 	cdpvs	15, 7, cr6, cr5, cr2, {3}
     f9c:	20646564 	rsbcs	r6, r4, r4, ror #10
     fa0:	695f5f00 	ldmdbvs	pc, {r8, r9, sl, fp, ip, lr}^	; <UNPREDICTABLE>
     fa4:	665f746e 	ldrbvs	r7, [pc], -lr, ror #8
     fa8:	33747361 	cmncc	r4, #-2080374783	; 0x84000001
     fac:	5f745f32 	svcpl	0x00745f32
     fb0:	69666564 	stmdbvs	r6!, {r2, r5, r6, r8, sl, sp, lr}^
     fb4:	2064656e 	rsbcs	r6, r4, lr, ror #10
     fb8:	5f5f0031 	svcpl	0x005f0031
     fbc:	5f544e49 	svcpl	0x00544e49
     fc0:	54534146 	ldrbpl	r4, [r3], #-326	; 0xfffffeba
     fc4:	575f3436 	smmlarpl	pc, r6, r4, r3	; <UNPREDICTABLE>
     fc8:	48544449 	ldmdami	r4, {r0, r3, r6, sl, lr}^
     fcc:	36205f5f 	qsaxcc	r5, r0, pc	; <UNPREDICTABLE>
     fd0:	58450034 	stmdapl	r5, {r2, r4, r5}^
     fd4:	50394954 	eorspl	r4, r9, r4, asr r9
     fd8:	28203944 	stmdacs	r0!, {r2, r6, r8, fp, ip, sp}
     fdc:	49545845 	ldmdbmi	r4, {r0, r2, r6, fp, ip, lr}^
     fe0:	4950475f 	ldmdbmi	r0, {r0, r1, r2, r3, r4, r6, r8, r9, sl, lr}^
     fe4:	614d5f4f 	cmpvs	sp, pc, asr #30
     fe8:	676e6970 			; <UNDEFINED> instruction: 0x676e6970
     fec:	7b29745f 	blvc	a5e170 <_Min_Stack_Size+0xa5dd70>
     ff0:	49545845 	ldmdbmi	r4, {r0, r2, r6, fp, ip, lr}^
     ff4:	50472c39 	subpl	r2, r7, r9, lsr ip
     ff8:	2c444f49 	mcrrcs	15, 4, r4, r4, cr9
     ffc:	4f495047 	svcmi	0x00495047
    1000:	4e49505f 	mcrmi	0, 2, r5, cr9, cr15, {2}
    1004:	452c395f 	strmi	r3, [ip, #-2399]!	; 0xfffff6a1
    1008:	39495458 	stmdbcc	r9, {r3, r4, r6, sl, ip, lr}^
    100c:	5152495f 	cmppl	r2, pc, asr r9
    1010:	5f5f007d 	svcpl	0x005f007d
    1014:	746e695f 	strbtvc	r6, [lr], #-2399	; 0xfffff6a1
    1018:	6863775f 	stmdavs	r3!, {r0, r1, r2, r3, r4, r6, r8, r9, sl, ip, sp, lr}^
    101c:	745f7261 	ldrbvc	r7, [pc], #-609	; 1024 <_Min_Stack_Size+0xc24>
    1020:	0020685f 	eoreq	r6, r0, pc, asr r8
    1024:	4f495047 	svcmi	0x00495047
    1028:	4e49505f 	mcrmi	0, 2, r5, cr9, cr15, {2}
    102c:	2820315f 	stmdacs	r0!, {r0, r1, r2, r3, r4, r6, r8, ip, sp}
    1030:	6e697528 	cdpvs	5, 6, cr7, cr9, cr8, {1}
    1034:	5f363174 	svcpl	0x00363174
    1038:	78302974 	ldmdavc	r0!, {r2, r4, r5, r6, r8, fp, sp}
    103c:	32303030 	eorscc	r3, r0, #48	; 0x30
    1040:	75430029 	strbvc	r0, [r3, #-41]	; 0xffffffd7
    1044:	726f7372 	rsbvc	r7, pc, #-939524095	; 0xc8000001
    1048:	30204e4f 	eorcc	r4, r0, pc, asr #28
    104c:	00453078 	subeq	r3, r5, r8, ror r0
    1050:	31544e49 	cmpcc	r4, r9, asr #28
    1054:	28435f36 	stmdacs	r3, {r1, r2, r4, r5, r8, r9, sl, fp, ip, lr}^
    1058:	5f202978 	svcpl	0x00202978
    105c:	544e495f 	strbpl	r4, [lr], #-2399	; 0xfffff6a1
    1060:	435f3631 	cmpmi	pc, #51380224	; 0x3100000
    1064:	00297828 	eoreq	r7, r9, r8, lsr #16
    1068:	494f505f 	stmdbmi	pc, {r0, r1, r2, r3, r4, r6, ip, lr}^	; <UNPREDICTABLE>
    106c:	5245544e 	subpl	r5, r5, #1308622848	; 0x4e000000
    1070:	544e495f 	strbpl	r4, [lr], #-2399	; 0xfffff6a1
    1074:	6e6f6c20 	cdpvs	12, 6, cr6, cr15, cr0, {1}
    1078:	5f5f0067 	svcpl	0x005f0067
    107c:	41524653 	cmpmi	r2, r3, asr r6
    1080:	455f5443 	ldrbmi	r5, [pc, #-1091]	; c45 <_Min_Stack_Size+0x845>
    1084:	4c495350 	mcrrmi	3, 5, r5, r9, cr0
    1088:	5f5f4e4f 	svcpl	0x005f4e4f
    108c:	31783020 	cmncc	r8, r0, lsr #32
    1090:	48372d50 	ldmdami	r7!, {r4, r6, r8, sl, fp, sp}
    1094:	5f5f0052 	svcpl	0x005f0052
    1098:	434e4f43 	movtmi	r4, #61251	; 0xef43
    109c:	28315441 	ldmdacs	r1!, {r0, r6, sl, ip, lr}
    10a0:	29792c78 	ldmdbcs	r9!, {r3, r4, r5, r6, sl, fp, sp}^
    10a4:	23207820 			; <UNDEFINED> instruction: 0x23207820
    10a8:	00792023 	rsbseq	r2, r9, r3, lsr #32
    10ac:	47203044 	strmi	r3, [r0, -r4, asr #32]!
    10b0:	5f4f4950 	svcpl	0x004f4950
    10b4:	5f4e4950 	svcpl	0x004e4950
    10b8:	545f0030 	ldrbpl	r0, [pc], #-48	; 10c0 <_Min_Stack_Size+0xcc0>
    10bc:	5a49535f 	bpl	1255e40 <_Min_Stack_Size+0x1255a40>
    10c0:	5f002045 	svcpl	0x00002045
    10c4:	4c42445f 	cfstrdmi	mvd4, [r2], {95}	; 0x5f
    10c8:	4e494d5f 	mcrmi	13, 2, r4, cr9, cr15, {2}
    10cc:	5f30315f 	svcpl	0x0030315f
    10d0:	5f505845 	svcpl	0x00505845
    10d4:	2d28205f 	stccs	0, cr2, [r8, #-380]!	; 0xfffffe84
    10d8:	29373033 	ldmdbcs	r7!, {r0, r1, r4, r5, ip, sp}
    10dc:	555f5f00 	ldrbpl	r5, [pc, #-3840]	; 1e4 <_Min_Heap_Size-0x1c>
    10e0:	465f5153 			; <UNDEFINED> instruction: 0x465f5153
    10e4:	5f544942 	svcpl	0x00544942
    10e8:	3233205f 	eorscc	r2, r3, #95	; 0x5f
    10ec:	4f5f5f00 	svcmi	0x005f5f00
    10f0:	52454452 	subpl	r4, r5, #1375731712	; 0x52000000
    10f4:	4749425f 	smlsldmi	r4, r9, pc, r2	; <UNPREDICTABLE>
    10f8:	444e455f 	strbmi	r4, [lr], #-1375	; 0xfffffaa1
    10fc:	5f4e4149 	svcpl	0x004e4149
    1100:	3334205f 	teqcc	r4, #95	; 0x5f
    1104:	45003132 	strmi	r3, [r0, #-306]	; 0xfffffece
    1108:	31495458 	cmpcc	r9, r8, asr r4
    110c:	34312034 	ldrtcc	r2, [r1], #-52	; 0xffffffcc
    1110:	535f5f00 	cmppl	pc, #0, 30
    1114:	42465f51 	submi	r5, r6, #324	; 0x144
    1118:	5f5f5449 	svcpl	0x005f5449
    111c:	00313320 	eorseq	r3, r1, r0, lsr #6
    1120:	49545845 	ldmdbmi	r4, {r0, r2, r6, fp, ip, lr}^
    1124:	42503531 	subsmi	r3, r0, #205520896	; 0xc400000
    1128:	28203531 	stmdacs	r0!, {r0, r4, r5, r8, sl, ip, sp}
    112c:	49545845 	ldmdbmi	r4, {r0, r2, r6, fp, ip, lr}^
    1130:	4950475f 	ldmdbmi	r0, {r0, r1, r2, r3, r4, r6, r8, r9, sl, lr}^
    1134:	614d5f4f 	cmpvs	sp, pc, asr #30
    1138:	676e6970 			; <UNDEFINED> instruction: 0x676e6970
    113c:	7b29745f 	blvc	a5e2c0 <_Min_Stack_Size+0xa5dec0>
    1140:	49545845 	ldmdbmi	r4, {r0, r2, r6, fp, ip, lr}^
    1144:	472c3531 			; <UNDEFINED> instruction: 0x472c3531
    1148:	424f4950 	submi	r4, pc, #80, 18	; 0x140000
    114c:	4950472c 	ldmdbmi	r0, {r2, r3, r5, r8, r9, sl, lr}^
    1150:	49505f4f 	ldmdbmi	r0, {r0, r1, r2, r3, r6, r8, r9, sl, fp, ip, lr}^
    1154:	35315f4e 	ldrcc	r5, [r1, #-3918]!	; 0xfffff0b2
    1158:	5458452c 	ldrbpl	r4, [r8], #-1324	; 0xfffffad4
    115c:	5f353149 	svcpl	0x00353149
    1160:	7d515249 	lfmvc	f5, 2, [r1, #-292]	; 0xfffffedc
    1164:	49504700 	ldmdbmi	r0, {r8, r9, sl, lr}^
    1168:	50535f4f 	subspl	r5, r3, pc, asr #30
    116c:	5f444545 	svcpl	0x00444545
    1170:	484d3031 	stmdami	sp, {r0, r4, r5, ip, sp}^
    1174:	7830205a 	ldmdavc	r0!, {r1, r3, r4, r6, sp}
    1178:	30303030 	eorscc	r3, r0, r0, lsr r0
    117c:	31303030 	teqcc	r0, r0, lsr r0
    1180:	58450075 	stmdapl	r5, {r0, r2, r4, r5, r6}^
    1184:	50364954 	eorspl	r4, r6, r4, asr r9
    1188:	28203643 	stmdacs	r0!, {r0, r1, r6, r9, sl, ip, sp}
    118c:	49545845 	ldmdbmi	r4, {r0, r2, r6, fp, ip, lr}^
    1190:	4950475f 	ldmdbmi	r0, {r0, r1, r2, r3, r4, r6, r8, r9, sl, lr}^
    1194:	614d5f4f 	cmpvs	sp, pc, asr #30
    1198:	676e6970 			; <UNDEFINED> instruction: 0x676e6970
    119c:	7b29745f 	blvc	a5e320 <_Min_Stack_Size+0xa5df20>
    11a0:	49545845 	ldmdbmi	r4, {r0, r2, r6, fp, ip, lr}^
    11a4:	50472c36 	subpl	r2, r7, r6, lsr ip
    11a8:	2c434f49 	mcrrcs	15, 4, r4, r3, cr9
    11ac:	4f495047 	svcmi	0x00495047
    11b0:	4e49505f 	mcrmi	0, 2, r5, cr9, cr15, {2}
    11b4:	452c365f 	strmi	r3, [ip, #-1631]!	; 0xfffff9a1
    11b8:	36495458 			; <UNDEFINED> instruction: 0x36495458
    11bc:	5152495f 	cmppl	r2, pc, asr r9
    11c0:	4e49007d 	mcrmi	0, 2, r0, cr9, cr13, {3}
    11c4:	4d5f3854 	ldclmi	8, cr3, [pc, #-336]	; 107c <_Min_Stack_Size+0xc7c>
    11c8:	28204e49 	stmdacs	r0!, {r0, r3, r6, r9, sl, fp, lr}
    11cc:	495f5f2d 	ldmdbmi	pc, {r0, r2, r3, r5, r8, r9, sl, fp, ip, lr}^	; <UNPREDICTABLE>
    11d0:	5f38544e 	svcpl	0x0038544e
    11d4:	5f58414d 	svcpl	0x0058414d
    11d8:	202d205f 	eorcs	r2, sp, pc, asr r0
    11dc:	5f002931 	svcpl	0x00002931
    11e0:	544e4955 	strbpl	r4, [lr], #-2389	; 0xfffff6ab
    11e4:	545f3631 	ldrbpl	r3, [pc], #-1585	; 11ec <_Min_Stack_Size+0xdec>
    11e8:	4345445f 	movtmi	r4, #21599	; 0x545f
    11ec:	4552414c 	ldrbmi	r4, [r2, #-332]	; 0xfffffeb4
    11f0:	5f002044 	svcpl	0x00002044
    11f4:	7028505f 	eorvc	r5, r8, pc, asr r0
    11f8:	6f746f72 	svcvs	0x00746f72
    11fc:	70202973 	eorvc	r2, r0, r3, ror r9
    1200:	6f746f72 	svcvs	0x00746f72
    1204:	5f5f0073 	svcpl	0x005f0073
    1208:	5f514855 	svcpl	0x00514855
    120c:	54494246 	strbpl	r4, [r9], #-582	; 0xfffffdba
    1210:	31205f5f 			; <UNDEFINED> instruction: 0x31205f5f
    1214:	50470036 	subpl	r0, r7, r6, lsr r0
    1218:	505f4f49 	subspl	r4, pc, r9, asr #30
    121c:	385f4e49 	ldmdacc	pc, {r0, r3, r6, r9, sl, fp, lr}^	; <UNPREDICTABLE>
    1220:	75282820 	strvc	r2, [r8, #-2080]!	; 0xfffff7e0
    1224:	31746e69 	cmncc	r4, r9, ror #28
    1228:	29745f36 	ldmdbcs	r4!, {r1, r2, r4, r5, r8, r9, sl, fp, ip, lr}^
    122c:	31307830 	teqcc	r0, r0, lsr r8
    1230:	00293030 	eoreq	r3, r9, r0, lsr r0
    1234:	5f544e49 	svcpl	0x00544e49
    1238:	5341454c 	movtpl	r4, #5452	; 0x154c
    123c:	5f343654 	svcpl	0x00343654
    1240:	2058414d 	subscs	r4, r8, sp, asr #2
    1244:	495f5f28 	ldmdbmi	pc, {r3, r5, r8, r9, sl, fp, ip, lr}^	; <UNPREDICTABLE>
    1248:	4c5f544e 	cfldrdmi	mvd5, [pc], {78}	; 0x4e
    124c:	54534145 	ldrbpl	r4, [r3], #-325	; 0xfffffebb
    1250:	4d5f3436 	cfldrdmi	mvd3, [pc, #-216]	; 1180 <_Min_Stack_Size+0xd80>
    1254:	5f5f5841 	svcpl	0x005f5841
    1258:	5f5f0029 	svcpl	0x005f0029
    125c:	36544c46 	ldrbcc	r4, [r4], -r6, asr #24
    1260:	494d5f34 	stmdbmi	sp, {r2, r4, r5, r8, r9, sl, fp, ip, lr}^
    1264:	58455f4e 	stmdapl	r5, {r1, r2, r3, r6, r8, r9, sl, fp, ip, lr}^
    1268:	205f5f50 	subscs	r5, pc, r0, asr pc	; <UNPREDICTABLE>
    126c:	30312d28 	eorscc	r2, r1, r8, lsr #26
    1270:	00293132 	eoreq	r3, r9, r2, lsr r1
    1274:	455a4953 	ldrbmi	r4, [sl, #-2387]	; 0xfffff6ad
    1278:	58414d5f 	stmdapl	r1, {r0, r1, r2, r3, r4, r6, r8, sl, fp, lr}^
    127c:	5f5f2820 	svcpl	0x005f2820
    1280:	455a4953 	ldrbmi	r4, [sl, #-2387]	; 0xfffff6ad
    1284:	58414d5f 	stmdapl	r1, {r0, r1, r2, r3, r4, r6, r8, sl, fp, lr}^
    1288:	00295f5f 	eoreq	r5, r9, pc, asr pc
    128c:	54505f5f 	ldrbpl	r5, [r0], #-3935	; 0xfffff0a1
    1290:	46494452 			; <UNDEFINED> instruction: 0x46494452
    1294:	49575f46 	ldmdbmi	r7, {r1, r2, r6, r8, r9, sl, fp, ip, lr}^
    1298:	5f485444 	svcpl	0x00485444
    129c:	3233205f 	eorscc	r2, r3, #95	; 0x5f
    12a0:	775f5f00 	ldrbvc	r5, [pc, -r0, lsl #30]
    12a4:	5f6b6165 	svcpl	0x006b6165
    12a8:	65666572 	strbvs	r6, [r6, #-1394]!	; 0xfffffa8e
    12ac:	636e6572 	cmnvs	lr, #478150656	; 0x1c800000
    12b0:	79732865 	ldmdbvc	r3!, {r0, r2, r5, r6, fp, sp}^
    12b4:	6c612c6d 	stclvs	12, cr2, [r1], #-436	; 0xfffffe4c
    12b8:	29736169 	ldmdbcs	r3!, {r0, r3, r5, r6, r8, sp, lr}^
    12bc:	615f5f20 	cmpvs	pc, r0, lsr #30
    12c0:	5f5f6d73 	svcpl	0x005f6d73
    12c4:	772e2228 	strvc	r2, [lr, -r8, lsr #4]!
    12c8:	206b6165 	rsbcs	r6, fp, r5, ror #2
    12cc:	61232022 			; <UNDEFINED> instruction: 0x61232022
    12d0:	7361696c 	cmnvc	r1, #108, 18	; 0x1b0000
    12d4:	5f203b29 	svcpl	0x00203b29
    12d8:	6d73615f 	ldfvse	f6, [r3, #-380]!	; 0xfffffe84
    12dc:	22285f5f 	eorcs	r5, r8, #380	; 0x17c
    12e0:	7571652e 	ldrbvc	r6, [r1, #-1326]!	; 0xfffffad2
    12e4:	23202220 			; <UNDEFINED> instruction: 0x23202220
    12e8:	61696c61 	cmnvs	r9, r1, ror #24
    12ec:	2c222073 	stccs	0, cr2, [r2], #-460	; 0xfffffe34
    12f0:	23202220 			; <UNDEFINED> instruction: 0x23202220
    12f4:	296d7973 	stmdbcs	sp!, {r0, r1, r4, r5, r6, r8, fp, ip, sp, lr}^
    12f8:	555f5f00 	ldrbpl	r5, [pc, #-3840]	; 400 <_Min_Stack_Size>
    12fc:	5f544e49 	svcpl	0x00544e49
    1300:	54534146 	ldrbpl	r4, [r3], #-326	; 0xfffffeba
    1304:	414d5f38 	cmpmi	sp, r8, lsr pc
    1308:	205f5f58 	subscs	r5, pc, r8, asr pc	; <UNPREDICTABLE>
    130c:	66667830 			; <UNDEFINED> instruction: 0x66667830
    1310:	66666666 	strbtvs	r6, [r6], -r6, ror #12
    1314:	00556666 	subseq	r6, r5, r6, ror #12
    1318:	45445f5f 	strbmi	r5, [r4, #-3935]	; 0xfffff0a1
    131c:	5f323343 	svcpl	0x00323343
    1320:	49535045 	ldmdbmi	r3, {r0, r2, r6, ip, lr}^
    1324:	5f4e4f4c 	svcpl	0x004e4f4c
    1328:	4531205f 	ldrmi	r2, [r1, #-95]!	; 0xffffffa1
    132c:	4644362d 	strbmi	r3, [r4], -sp, lsr #12
    1330:	685f5f00 	ldmdavs	pc, {r8, r9, sl, fp, ip, lr}^	; <UNPREDICTABLE>
    1334:	655f7361 	ldrbvs	r7, [pc, #-865]	; fdb <_Min_Stack_Size+0xbdb>
    1338:	6e657478 	mcrvs	4, 3, r7, cr5, cr8, {3}
    133c:	6e6f6973 			; <UNDEFINED> instruction: 0x6e6f6973
    1340:	685f5f20 	ldmdavs	pc, {r5, r8, r9, sl, fp, ip, lr}^	; <UNPREDICTABLE>
    1344:	665f7361 	ldrbvs	r7, [pc], -r1, ror #6
    1348:	75746165 	ldrbvc	r6, [r4, #-357]!	; 0xfffffe9b
    134c:	44006572 	strmi	r6, [r0], #-1394	; 0xfffffa8e
    1350:	47554245 	ldrbmi	r4, [r5, -r5, asr #4]
    1354:	45003120 	strmi	r3, [r0, #-288]	; 0xfffffee0
    1358:	31495458 	cmpcc	r9, r8, asr r4
    135c:	31425030 	cmpcc	r2, r0, lsr r0
    1360:	45282030 	strmi	r2, [r8, #-48]!	; 0xffffffd0
    1364:	5f495458 	svcpl	0x00495458
    1368:	4f495047 	svcmi	0x00495047
    136c:	70614d5f 	rsbvc	r4, r1, pc, asr sp
    1370:	5f676e69 	svcpl	0x00676e69
    1374:	457b2974 	ldrbmi	r2, [fp, #-2420]!	; 0xfffff68c
    1378:	31495458 	cmpcc	r9, r8, asr r4
    137c:	50472c30 	subpl	r2, r7, r0, lsr ip
    1380:	2c424f49 	mcrrcs	15, 4, r4, r2, cr9
    1384:	4f495047 	svcmi	0x00495047
    1388:	4e49505f 	mcrmi	0, 2, r5, cr9, cr15, {2}
    138c:	2c30315f 	ldfcss	f3, [r0], #-380	; 0xfffffe84
    1390:	49545845 	ldmdbmi	r4, {r0, r2, r6, fp, ip, lr}^
    1394:	495f3031 	ldmdbmi	pc, {r0, r4, r5, ip, sp}^	; <UNPREDICTABLE>
    1398:	007d5152 	rsbseq	r5, sp, r2, asr r1
    139c:	414c5f5f 	cmpmi	ip, pc, asr pc
    13a0:	4d554343 	ldclmi	3, cr4, [r5, #-268]	; 0xfffffef4
    13a4:	4942495f 	stmdbmi	r2, {r0, r1, r2, r3, r4, r6, r8, fp, lr}^
    13a8:	205f5f54 	subscs	r5, pc, r4, asr pc	; <UNPREDICTABLE>
    13ac:	45003233 	strmi	r3, [r0, #-563]	; 0xfffffdcd
    13b0:	5f495458 	svcpl	0x00495458
    13b4:	45534142 	ldrbmi	r4, [r3, #-322]	; 0xfffffebe
    13b8:	34783020 	ldrbtcc	r3, [r8], #-32	; 0xffffffe0
    13bc:	30313030 	eorscc	r3, r1, r0, lsr r0
    13c0:	55303034 	ldrpl	r3, [r0, #-52]!	; 0xffffffcc
    13c4:	5f5f004c 	svcpl	0x005f004c
    13c8:	746e6975 	strbtvc	r6, [lr], #-2421	; 0xfffff68b
    13cc:	00745f38 	rsbseq	r5, r4, r8, lsr pc
    13d0:	454e5f5f 	strbmi	r5, [lr, #-3935]	; 0xfffff0a1
    13d4:	42494c57 	submi	r4, r9, #22272	; 0x5700
    13d8:	5f5f485f 	svcpl	0x005f485f
    13dc:	5f003120 	svcpl	0x00003120
    13e0:	544e495f 	strbpl	r4, [lr], #-2399	; 0xfffff6a1
    13e4:	5341465f 	movtpl	r4, #5727	; 0x165f
    13e8:	5f363154 	svcpl	0x00363154
    13ec:	54444957 	strbpl	r4, [r4], #-2391	; 0xfffff6a9
    13f0:	205f5f48 	subscs	r5, pc, r8, asr #30
    13f4:	46003233 			; <UNDEFINED> instruction: 0x46003233
    13f8:	6563726f 	strbvs	r7, [r3, #-623]!	; 0xfffffd91
    13fc:	6c747331 	ldclvs	3, cr7, [r4], #-196	; 0xffffff3c
    1400:	20656e69 	rsbcs	r6, r5, r9, ror #28
    1404:	30387830 	eorscc	r7, r8, r0, lsr r8
    1408:	565f5f00 	ldrbpl	r5, [pc], -r0, lsl #30
    140c:	465f5046 	ldrbmi	r5, [pc], -r6, asr #32
    1410:	205f5f50 	subscs	r5, pc, r0, asr pc	; <UNPREDICTABLE>
    1414:	5f5f0031 	svcpl	0x005f0031
    1418:	5341454c 	movtpl	r4, #5452	; 0x154c
    141c:	20323354 	eorscs	r3, r2, r4, asr r3
    1420:	00226c22 	eoreq	r6, r2, r2, lsr #24
    1424:	4c4c5f5f 	mcrrmi	15, 5, r5, ip, cr15
    1428:	43415246 	movtmi	r5, #4678	; 0x1246
    142c:	494d5f54 	stmdbmi	sp, {r2, r4, r6, r8, r9, sl, fp, ip, lr}^
    1430:	205f5f4e 	subscs	r5, pc, lr, asr #30
    1434:	2e302d28 	cdpcs	13, 3, cr2, cr0, cr8, {1}
    1438:	524c4c35 	subpl	r4, ip, #13568	; 0x3500
    143c:	352e302d 	strcc	r3, [lr, #-45]!	; 0xffffffd3
    1440:	29524c4c 	ldmdbcs	r2, {r2, r3, r6, sl, fp, lr}^
    1444:	495f5f00 	ldmdbmi	pc, {r8, r9, sl, fp, ip, lr}^	; <UNPREDICTABLE>
    1448:	5450544e 	ldrbpl	r5, [r0], #-1102	; 0xfffffbb2
    144c:	414d5f52 	cmpmi	sp, r2, asr pc
    1450:	205f5f58 	subscs	r5, pc, r8, asr pc	; <UNPREDICTABLE>
    1454:	66377830 			; <UNDEFINED> instruction: 0x66377830
    1458:	66666666 	strbtvs	r6, [r6], -r6, ror #12
    145c:	5f006666 	svcpl	0x00006666
    1460:	656c6966 	strbvs	r6, [ip, #-2406]!	; 0xfffff69a
    1464:	555f5f00 	ldrbpl	r5, [pc, #-3840]	; 56c <_Min_Stack_Size+0x16c>
    1468:	5f544e49 	svcpl	0x00544e49
    146c:	54534146 	ldrbpl	r4, [r3], #-326	; 0xfffffeba
    1470:	4d5f3631 	ldclmi	6, cr3, [pc, #-196]	; 13b4 <_Min_Stack_Size+0xfb4>
    1474:	5f5f5841 	svcpl	0x005f5841
    1478:	66783020 	ldrbtvs	r3, [r8], -r0, lsr #32
    147c:	66666666 	strbtvs	r6, [r6], -r6, ror #12
    1480:	55666666 	strbpl	r6, [r6, #-1638]!	; 0xfffff99a
    1484:	544e4900 	strbpl	r4, [lr], #-2304	; 0xfffff700
    1488:	41454c5f 	cmpmi	r5, pc, asr ip
    148c:	34365453 	ldrtcc	r5, [r6], #-1107	; 0xfffffbad
    1490:	4e494d5f 	mcrmi	13, 2, r4, cr9, cr15, {2}
    1494:	5f2d2820 	svcpl	0x002d2820
    1498:	544e495f 	strbpl	r4, [lr], #-2399	; 0xfffff6a1
    149c:	41454c5f 	cmpmi	r5, pc, asr ip
    14a0:	34365453 	ldrtcc	r5, [r6], #-1107	; 0xfffffbad
    14a4:	58414d5f 	stmdapl	r1, {r0, r1, r2, r3, r4, r6, r8, sl, fp, lr}^
    14a8:	2d205f5f 	stccs	15, cr5, [r0, #-380]!	; 0xfffffe84
    14ac:	00293120 	eoreq	r3, r9, r0, lsr #2
    14b0:	5f6e6f5f 	svcpl	0x006e6f5f
    14b4:	74697865 	strbtvc	r7, [r9], #-2149	; 0xfffff79b
    14b8:	6772615f 			; <UNDEFINED> instruction: 0x6772615f
    14bc:	5f5f0073 	svcpl	0x005f0073
    14c0:	43554e47 	cmpmi	r5, #1136	; 0x470
    14c4:	454b494c 	strbmi	r4, [fp, #-2380]	; 0xfffff6b4
    14c8:	4955425f 	ldmdbmi	r5, {r0, r1, r2, r3, r4, r6, r9, lr}^
    14cc:	4e49544c 	cdpmi	4, 4, cr5, cr9, cr12, {2}
    14d0:	4e4f435f 	mcrmi	3, 2, r4, cr15, cr15, {2}
    14d4:	4e415453 	mcrmi	4, 2, r5, cr1, cr3, {2}
    14d8:	20505f54 	subscs	r5, r0, r4, asr pc
    14dc:	525f0031 	subspl	r0, pc, #49	; 0x31
    14e0:	544e4545 	strbpl	r4, [lr], #-1349	; 0xfffffabb
    14e4:	4548435f 	strbmi	r4, [r8, #-863]	; 0xfffffca1
    14e8:	76284b43 	strtvc	r4, [r8], -r3, asr #22
    14ec:	772c7261 	strvc	r7, [ip, -r1, ror #4]!
    14f0:	2c746168 	ldfcse	f6, [r4], #-416	; 0xfffffe60
    14f4:	65707974 	ldrbvs	r7, [r0, #-2420]!	; 0xfffff68c
    14f8:	7a69732c 	bvc	1a5e1b0 <_Min_Stack_Size+0x1a5ddb0>
    14fc:	6e692c65 	cdpvs	12, 6, cr2, cr9, cr5, {3}
    1500:	20297469 	eorcs	r7, r9, r9, ror #8
    1504:	7b206f64 	blvc	81d29c <_Min_Stack_Size+0x81ce9c>
    1508:	72747320 	rsbsvc	r7, r4, #32, 6	; 0x80000000
    150c:	20746375 	rsbscs	r6, r4, r5, ror r3
    1510:	6565725f 	strbvs	r7, [r5, #-607]!	; 0xfffffda1
    1514:	2a20746e 	bcs	81e6d4 <_Min_Stack_Size+0x81e2d4>
    1518:	3d20725f 	sfmcc	f7, 4, [r0, #-380]!	; 0xfffffe84
    151c:	61762820 	cmnvs	r6, r0, lsr #16
    1520:	203b2972 	eorscs	r2, fp, r2, ror r9
    1524:	28206669 	stmdacs	r0!, {r0, r3, r5, r6, r9, sl, sp, lr}
    1528:	3e2d725f 	mcrcc	2, 1, r7, cr13, cr15, {2}
    152c:	74616877 	strbtvc	r6, [r1], #-2167	; 0xfffff789
    1530:	203d3d20 	eorscs	r3, sp, r0, lsr #26
    1534:	4c4c554e 	cfstr64mi	mvdx5, [ip], {78}	; 0x4e
    1538:	207b2029 	rsbscs	r2, fp, r9, lsr #32
    153c:	3e2d725f 	mcrcc	2, 1, r7, cr13, cr15, {2}
    1540:	74616877 	strbtvc	r6, [r1], #-2167	; 0xfffff789
    1544:	28203d20 	stmdacs	r0!, {r5, r8, sl, fp, ip, sp}
    1548:	65707974 	ldrbvs	r7, [r0, #-2420]!	; 0xfffff68c
    154c:	6c616d29 	stclvs	13, cr6, [r1], #-164	; 0xffffff5c
    1550:	28636f6c 	stmdacs	r3!, {r2, r3, r5, r6, r8, r9, sl, fp, sp, lr}^
    1554:	657a6973 	ldrbvs	r6, [sl, #-2419]!	; 0xfffff68d
    1558:	5f203b29 	svcpl	0x00203b29
    155c:	6565725f 	strbvs	r7, [r5, #-607]!	; 0xfffffda1
    1560:	615f746e 	cmpvs	pc, lr, ror #8
    1564:	72657373 	rsbvc	r7, r5, #-872415231	; 0xcc000001
    1568:	725f2874 	subsvc	r2, pc, #116, 16	; 0x740000
    156c:	68773e2d 	ldmdavs	r7!, {r0, r2, r3, r5, r9, sl, fp, ip, sp}^
    1570:	3b297461 	blcc	a5e6fc <_Min_Stack_Size+0xa5e2fc>
    1574:	696e6920 	stmdbvs	lr!, {r5, r8, fp, sp, lr}^
    1578:	7d203b74 	vstmdbvc	r0!, {d3-<overflow reg d60>}
    157c:	77207d20 	strvc	r7, [r0, -r0, lsr #26]!
    1580:	656c6968 	strbvs	r6, [ip, #-2408]!	; 0xfffff698
    1584:	29302820 	ldmdbcs	r0!, {r5, fp, sp}
    1588:	6f4e5f00 	svcvs	0x004e5f00
    158c:	6c756e6e 	ldclvs	14, cr6, [r5], #-440	; 0xfffffe48
    1590:	5f00206c 	svcpl	0x0000206c
    1594:	6863775f 	stmdavs	r3!, {r0, r1, r2, r3, r4, r6, r8, r9, sl, ip, sp, lr}^
    1598:	475f5f00 	ldrbmi	r5, [pc, -r0, lsl #30]
    159c:	5f43554e 	svcpl	0x0043554e
    15a0:	52455250 	subpl	r5, r5, #80, 4
    15a4:	6d285145 	stfvss	f5, [r8, #-276]!	; 0xfffffeec
    15a8:	6d2c6a61 	vstmdbvs	ip!, {s12-s108}
    15ac:	20296e69 	eorcs	r6, r9, r9, ror #28
    15b0:	5f5f2828 	svcpl	0x005f2828
    15b4:	43554e47 	cmpmi	r5, #1136	; 0x470
    15b8:	3c205f5f 	stccc	15, cr5, [r0], #-380	; 0xfffffe84
    15bc:	3631203c 			; <UNDEFINED> instruction: 0x3631203c
    15c0:	202b2029 	eorcs	r2, fp, r9, lsr #32
    15c4:	4e475f5f 	mcrmi	15, 2, r5, cr7, cr15, {2}
    15c8:	4d5f4355 	ldclmi	3, cr4, [pc, #-340]	; 147c <_Min_Stack_Size+0x107c>
    15cc:	524f4e49 	subpl	r4, pc, #1168	; 0x490
    15d0:	3e205f5f 	mcrcc	15, 1, r5, cr0, cr15, {2}
    15d4:	2828203d 	stmdacs	r8!, {r0, r2, r3, r4, r5, sp}
    15d8:	296a616d 	stmdbcs	sl!, {r0, r2, r3, r5, r6, r8, sp, lr}^
    15dc:	203c3c20 	eorscs	r3, ip, r0, lsr #24
    15e0:	20293631 	eorcs	r3, r9, r1, lsr r6
    15e4:	6d28202b 	stcvs	0, cr2, [r8, #-172]!	; 0xffffff54
    15e8:	29296e69 	stmdbcs	r9!, {r0, r3, r5, r6, r9, sl, fp, sp, lr}
    15ec:	5f545f00 	svcpl	0x00545f00
    15f0:	41484357 	cmpmi	r8, r7, asr r3
    15f4:	45002052 	strmi	r2, [r0, #-82]	; 0xffffffae
    15f8:	36495458 			; <UNDEFINED> instruction: 0x36495458
    15fc:	20364250 	eorscs	r4, r6, r0, asr r2
    1600:	54584528 	ldrbpl	r4, [r8], #-1320	; 0xfffffad8
    1604:	50475f49 	subpl	r5, r7, r9, asr #30
    1608:	4d5f4f49 	ldclmi	15, cr4, [pc, #-292]	; 14ec <_Min_Stack_Size+0x10ec>
    160c:	6e697061 	cdpvs	0, 6, cr7, cr9, cr1, {3}
    1610:	29745f67 	ldmdbcs	r4!, {r0, r1, r2, r5, r6, r8, r9, sl, fp, ip, lr}^
    1614:	5458457b 	ldrbpl	r4, [r8], #-1403	; 0xfffffa85
    1618:	472c3649 	strmi	r3, [ip, -r9, asr #12]!
    161c:	424f4950 	submi	r4, pc, #80, 18	; 0x140000
    1620:	4950472c 	ldmdbmi	r0, {r2, r3, r5, r8, r9, sl, lr}^
    1624:	49505f4f 	ldmdbmi	r0, {r0, r1, r2, r3, r6, r8, r9, sl, fp, ip, lr}^
    1628:	2c365f4e 	ldccs	15, cr5, [r6], #-312	; 0xfffffec8
    162c:	49545845 	ldmdbmi	r4, {r0, r2, r6, fp, ip, lr}^
    1630:	52495f36 	subpl	r5, r9, #54, 30	; 0xd8
    1634:	5f007d51 	svcpl	0x00007d51
    1638:	50544e49 	subspl	r4, r4, r9, asr #28
    163c:	545f5254 	ldrbpl	r5, [pc], #-596	; 1644 <_Min_Stack_Size+0x1244>
    1640:	4345445f 	movtmi	r4, #21599	; 0x545f
    1644:	4552414c 	ldrbmi	r4, [r2, #-332]	; 0xfffffeb4
    1648:	5f002044 	svcpl	0x00002044
    164c:	544c465f 	strbpl	r4, [ip], #-1631	; 0xfffff9a1
    1650:	5f583233 	svcpl	0x00583233
    1654:	5f534148 	svcpl	0x00534148
    1658:	49464e49 	stmdbmi	r6, {r0, r3, r6, r9, sl, fp, lr}^
    165c:	5954494e 	ldmdbpl	r4, {r1, r2, r3, r6, r8, fp, lr}^
    1660:	31205f5f 			; <UNDEFINED> instruction: 0x31205f5f
    1664:	544e4900 	strbpl	r4, [lr], #-2304	; 0xfffff700
    1668:	5341465f 	movtpl	r4, #5727	; 0x165f
    166c:	5f323354 	svcpl	0x00323354
    1670:	204e494d 	subcs	r4, lr, sp, asr #18
    1674:	5f5f2d28 	svcpl	0x005f2d28
    1678:	5f544e49 	svcpl	0x00544e49
    167c:	54534146 	ldrbpl	r4, [r3], #-326	; 0xfffffeba
    1680:	4d5f3233 	lfmmi	f3, 2, [pc, #-204]	; 15bc <_Min_Stack_Size+0x11bc>
    1684:	5f5f5841 	svcpl	0x005f5841
    1688:	31202d20 			; <UNDEFINED> instruction: 0x31202d20
    168c:	535f0029 	cmppl	pc, #41	; 0x29
    1690:	535f5359 	cmppl	pc, #1677721601	; 0x64000001
    1694:	5f455a49 	svcpl	0x00455a49
    1698:	20485f54 	subcs	r5, r8, r4, asr pc
    169c:	555f5f00 	ldrbpl	r5, [pc, #-3840]	; 7a4 <_Min_Stack_Size+0x3a4>
    16a0:	5f544e49 	svcpl	0x00544e49
    16a4:	5341454c 	movtpl	r4, #5452	; 0x154c
    16a8:	545f3854 	ldrbpl	r3, [pc], #-2132	; 16b0 <_Min_Stack_Size+0x12b0>
    16ac:	5f455059 	svcpl	0x00455059
    16b0:	6e75205f 	mrcvs	0, 3, r2, cr5, cr15, {2}
    16b4:	6e676973 			; <UNDEFINED> instruction: 0x6e676973
    16b8:	63206465 			; <UNDEFINED> instruction: 0x63206465
    16bc:	00726168 	rsbseq	r6, r2, r8, ror #2
    16c0:	54415f5f 	strbpl	r5, [r1], #-3935	; 0xfffff0a1
    16c4:	454c4946 	strbmi	r4, [ip, #-2374]	; 0xfffff6ba
    16c8:	5349565f 	movtpl	r5, #38495	; 0x965f
    16cc:	454c4249 	strbmi	r4, [ip, #-585]	; 0xfffffdb7
    16d0:	5f003120 	svcpl	0x00003120
    16d4:	4343415f 	movtmi	r4, #12639	; 0x315f
    16d8:	465f4d55 			; <UNDEFINED> instruction: 0x465f4d55
    16dc:	5f544942 	svcpl	0x00544942
    16e0:	3531205f 	ldrcc	r2, [r1, #-95]!	; 0xffffffa1
    16e4:	626d5f00 	rsbvs	r5, sp, #0, 30
    16e8:	6e656c72 	mcrvs	12, 3, r6, cr5, cr2, {3}
    16ec:	6174735f 	cmnvs	r4, pc, asr r3
    16f0:	47006574 	smlsdxmi	r0, r4, r5, r6
    16f4:	5f4f4950 	svcpl	0x004f4950
    16f8:	5f4e4950 	svcpl	0x004e4950
    16fc:	28282030 	stmdacs	r8!, {r4, r5, sp}
    1700:	746e6975 	strbtvc	r6, [lr], #-2421	; 0xfffff68b
    1704:	745f3631 	ldrbvc	r3, [pc], #-1585	; 170c <_Min_Stack_Size+0x130c>
    1708:	30783029 	rsbscc	r3, r8, r9, lsr #32
    170c:	29313030 	ldmdbcs	r1!, {r4, r5, ip, sp}
    1710:	495f5f00 	ldmdbmi	pc, {r8, r9, sl, fp, ip, lr}^	; <UNPREDICTABLE>
    1714:	465f544e 	ldrbmi	r5, [pc], -lr, asr #8
    1718:	36545341 	ldrbcc	r5, [r4], -r1, asr #6
    171c:	414d5f34 	cmpmi	sp, r4, lsr pc
    1720:	205f5f58 	subscs	r5, pc, r8, asr pc	; <UNPREDICTABLE>
    1724:	66377830 			; <UNDEFINED> instruction: 0x66377830
    1728:	66666666 	strbtvs	r6, [r6], -r6, ror #12
    172c:	66666666 	strbtvs	r6, [r6], -r6, ror #12
    1730:	66666666 	strbtvs	r6, [r6], -r6, ror #12
    1734:	4c4c6666 	mcrrmi	6, 6, r6, ip, cr6
    1738:	465f5f00 	ldrbmi	r5, [pc], -r0, lsl #30
    173c:	3233544c 	eorscc	r5, r3, #76, 8	; 0x4c000000
    1740:	45445f58 	strbmi	r5, [r4, #-3928]	; 0xfffff0a8
    1744:	414d4943 	cmpmi	sp, r3, asr #18
    1748:	49445f4c 	stmdbmi	r4, {r2, r3, r6, r8, r9, sl, fp, ip, lr}^
    174c:	205f5f47 	subscs	r5, pc, r7, asr #30
    1750:	5f003731 	svcpl	0x00003731
    1754:	75736572 	ldrbvc	r6, [r3, #-1394]!	; 0xfffffa8e
    1758:	6b5f746c 	blvs	17de910 <_Min_Stack_Size+0x17de510>
    175c:	465f5f00 	ldrbmi	r5, [pc], -r0, lsl #30
    1760:	3233544c 	eorscc	r5, r3, #76, 8	; 0x4c000000
    1764:	41485f58 	cmpmi	r8, r8, asr pc
    1768:	55515f53 	ldrbpl	r5, [r1, #-3923]	; 0xfffff0ad
    176c:	5f544549 	svcpl	0x00544549
    1770:	5f4e414e 	svcpl	0x004e414e
    1774:	0031205f 	eorseq	r2, r1, pc, asr r0
    1778:	756e5f5f 	strbvc	r5, [lr, #-3935]!	; 0xfffff0a1
    177c:	735f6c6c 	cmpvc	pc, #108, 24	; 0x6c00
    1780:	69746e65 	ldmdbvs	r4!, {r0, r2, r5, r6, r9, sl, fp, sp, lr}^
    1784:	206c656e 	rsbcs	r6, ip, lr, ror #10
    1788:	74615f5f 	strbtvc	r5, [r1], #-3935	; 0xfffff0a1
    178c:	62697274 	rsbvs	r7, r9, #116, 4	; 0x40000007
    1790:	5f657475 	svcpl	0x00657475
    1794:	5f28285f 	svcpl	0x0028285f
    1798:	6e65735f 	mcrvs	3, 3, r7, cr5, cr15, {2}
    179c:	656e6974 	strbvs	r6, [lr, #-2420]!	; 0xfffff68c
    17a0:	295f5f6c 	ldmdbcs	pc, {r2, r3, r5, r6, r8, r9, sl, fp, ip, lr}^	; <UNPREDICTABLE>
    17a4:	5f5f0029 	svcpl	0x005f0029
    17a8:	33544c46 	cmpcc	r4, #17920	; 0x4600
    17ac:	455f5832 	ldrbmi	r5, [pc, #-2098]	; f82 <_Min_Stack_Size+0xb82>
    17b0:	4c495350 	mcrrmi	3, 5, r5, r9, cr0
    17b4:	5f5f4e4f 	svcpl	0x005f4e4f
    17b8:	322e3220 	eorcc	r3, lr, #32, 4
    17bc:	34343032 	ldrtcc	r3, [r4], #-50	; 0xffffffce
    17c0:	39343036 	ldmdbcc	r4!, {r1, r2, r4, r5, ip, sp}
    17c4:	33303532 	teqcc	r0, #209715200	; 0xc800000
    17c8:	65313331 	ldrvs	r3, [r1, #-817]!	; 0xfffffccf
    17cc:	4636312d 	ldrtmi	r3, [r6], -sp, lsr #2
    17d0:	00783233 	rsbseq	r3, r8, r3, lsr r2
    17d4:	695f5f5f 	ldmdbvs	pc, {r0, r1, r2, r3, r4, r6, r8, r9, sl, fp, ip, lr}^	; <UNPREDICTABLE>
    17d8:	6c5f746e 	cfldrdvs	mvd7, [pc], {110}	; 0x6e
    17dc:	74736165 	ldrbtvc	r6, [r3], #-357	; 0xfffffe9b
    17e0:	745f3631 	ldrbvc	r3, [pc], #-1585	; 17e8 <_Min_Stack_Size+0x13e8>
    17e4:	6665645f 			; <UNDEFINED> instruction: 0x6665645f
    17e8:	64656e69 	strbtvs	r6, [r5], #-3689	; 0xfffff197
    17ec:	5f003120 	svcpl	0x00003120
    17f0:	4d52415f 	ldfmie	f4, [r2, #-380]	; 0xfffffe84
    17f4:	4352415f 	cmpmi	r2, #-1073741801	; 0xc0000017
    17f8:	4d375f48 	ldcmi	15, cr5, [r7, #-288]!	; 0xfffffee0
    17fc:	31205f5f 			; <UNDEFINED> instruction: 0x31205f5f
    1800:	69735f00 	ldmdbvs	r3!, {r8, r9, sl, fp, ip, lr}^
    1804:	5f00657a 	svcpl	0x0000657a
    1808:	544e495f 	strbpl	r4, [lr], #-2399	; 0xfffff6a1
    180c:	5341465f 	movtpl	r4, #5727	; 0x165f
    1810:	545f3854 	ldrbpl	r3, [pc], #-2132	; 1818 <_Min_Stack_Size+0x1418>
    1814:	5f455059 	svcpl	0x00455059
    1818:	6e69205f 	mcrvs	0, 3, r2, cr9, cr15, {2}
    181c:	4e5f0074 	mrcmi	0, 2, r0, cr15, cr4, {3}
    1820:	4c4e494f 	mcrrmi	9, 4, r4, lr, cr15	; <UNPREDICTABLE>
    1824:	20454e49 	subcs	r4, r5, r9, asr #28
    1828:	74615f5f 	strbtvc	r5, [r1], #-3935	; 0xfffff0a1
    182c:	62697274 	rsbvs	r7, r9, #116, 4	; 0x40000007
    1830:	5f657475 	svcpl	0x00657475
    1834:	2828205f 	stmdacs	r8!, {r0, r1, r2, r3, r4, r6, sp}
    1838:	6f6e5f5f 	svcvs	0x006e5f5f
    183c:	696c6e69 	stmdbvs	ip!, {r0, r3, r5, r6, r9, sl, fp, sp, lr}^
    1840:	5f5f656e 	svcpl	0x005f656e
    1844:	5f002929 	svcpl	0x00002929
    1848:	7a69735f 	bvc	1a5e5cc <_Min_Stack_Size+0x1a5e1cc>
    184c:	5f745f65 	svcpl	0x00745f65
    1850:	5200205f 	andpl	r2, r0, #95	; 0x5f
    1854:	475f4343 	ldrbmi	r4, [pc, -r3, asr #6]
    1858:	414f4950 	cmpmi	pc, r0, asr r9	; <UNPREDICTABLE>
    185c:	4b4c435f 	blmi	13125e0 <_Min_Stack_Size+0x13121e0>
    1860:	284e455f 	stmdacs	lr, {r0, r1, r2, r3, r4, r6, r8, sl, lr}^
    1864:	52282029 	eorpl	r2, r8, #41	; 0x29
    1868:	3e2d4343 	cdpcc	3, 2, cr4, cr13, cr3, {2}
    186c:	32425041 	subcc	r5, r2, #65	; 0x41
    1870:	20524e45 	subscs	r4, r2, r5, asr #28
    1874:	31203d7c 			; <UNDEFINED> instruction: 0x31203d7c
    1878:	29323c3c 	ldmdbcs	r2!, {r2, r3, r4, r5, sl, fp, ip, sp}
    187c:	555f5f00 	ldrbpl	r5, [pc, #-3840]	; 984 <_Min_Stack_Size+0x584>
    1880:	4d544e49 	ldclmi	14, cr4, [r4, #-292]	; 0xfffffedc
    1884:	435f5841 	cmpmi	pc, #4259840	; 0x410000
    1888:	20296328 	eorcs	r6, r9, r8, lsr #6
    188c:	23232063 			; <UNDEFINED> instruction: 0x23232063
    1890:	4c4c5520 	cfstr64mi	mvdx5, [ip], {32}
    1894:	535f5f00 	cmppl	pc, #0, 30
    1898:	4f455a49 	svcmi	0x00455a49
    189c:	4f505f46 	svcmi	0x00505f46
    18a0:	45544e49 	ldrbmi	r4, [r4, #-3657]	; 0xfffff1b7
    18a4:	205f5f52 	subscs	r5, pc, r2, asr pc	; <UNPREDICTABLE>
    18a8:	5f5f0034 	svcpl	0x005f0034
    18ac:	5f544e49 	svcpl	0x00544e49
    18b0:	5341454c 	movtpl	r4, #5452	; 0x154c
    18b4:	545f3854 	ldrbpl	r3, [pc], #-2132	; 18bc <_Min_Stack_Size+0x14bc>
    18b8:	5f455059 	svcpl	0x00455059
    18bc:	6973205f 	ldmdbvs	r3!, {r0, r1, r2, r3, r4, r6, sp}^
    18c0:	64656e67 	strbtvs	r6, [r5], #-3687	; 0xfffff199
    18c4:	61686320 	cmnvs	r8, r0, lsr #6
    18c8:	6c5f0072 	mrrcvs	0, 7, r0, pc, cr2	; <UNPREDICTABLE>
    18cc:	6c61636f 	stclvs	3, cr6, [r1], #-444	; 0xfffffe44
    18d0:	656d6974 	strbvs	r6, [sp, #-2420]!	; 0xfffff68c
    18d4:	6675625f 			; <UNDEFINED> instruction: 0x6675625f
    18d8:	69685300 	stmdbvs	r8!, {r8, r9, ip, lr}^
    18dc:	69527466 	ldmdbvs	r2, {r1, r2, r5, r6, sl, ip, sp, lr}^
    18e0:	20746867 	rsbscs	r6, r4, r7, ror #16
    18e4:	43317830 	teqmi	r1, #48, 16	; 0x300000
    18e8:	475f5f00 	ldrbmi	r5, [pc, -r0, lsl #30]
    18ec:	415f4343 	cmpmi	pc, r3, asr #6
    18f0:	494d4f54 	stmdbmi	sp, {r2, r4, r6, r8, r9, sl, fp, lr}^
    18f4:	4f425f43 	svcmi	0x00425f43
    18f8:	4c5f4c4f 	mrrcmi	12, 4, r4, pc, cr15	; <UNPREDICTABLE>
    18fc:	5f4b434f 	svcpl	0x004b434f
    1900:	45455246 	strbmi	r5, [r5, #-582]	; 0xfffffdba
    1904:	5f003220 	svcpl	0x00003220
    1908:	6e695f5f 	mcrvs	15, 3, r5, cr9, cr15, {2}
    190c:	5f343674 	svcpl	0x00343674
    1910:	65645f74 	strbvs	r5, [r4, #-3956]!	; 0xfffff08c
    1914:	656e6966 	strbvs	r6, [lr, #-2406]!	; 0xfffff69a
    1918:	00312064 	eorseq	r2, r1, r4, rrx
    191c:	52415f5f 	subpl	r5, r1, #380	; 0x17c
    1920:	454e5f4d 	strbmi	r5, [lr, #-3917]	; 0xfffff0b3
    1924:	5f5f4e4f 	svcpl	0x005f4e4f
    1928:	4e495500 	cdpmi	5, 4, cr5, cr9, cr0, {0}
    192c:	52545054 	subspl	r5, r4, #84	; 0x54
    1930:	58414d5f 	stmdapl	r1, {r0, r1, r2, r3, r4, r6, r8, sl, fp, lr}^
    1934:	5f5f2820 	svcpl	0x005f2820
    1938:	544e4955 	strbpl	r4, [lr], #-2389	; 0xfffff6ab
    193c:	5f525450 	svcpl	0x00525450
    1940:	5f58414d 	svcpl	0x0058414d
    1944:	5f00295f 	svcpl	0x0000295f
    1948:	544c465f 	strbpl	r4, [ip], #-1631	; 0xfffff9a1
    194c:	4d5f3233 	lfmmi	f3, 2, [pc, #-204]	; 1888 <_Min_Stack_Size+0x1488>
    1950:	455f5841 	ldrbmi	r5, [pc, #-2113]	; 1117 <_Min_Stack_Size+0xd17>
    1954:	5f5f5058 	svcpl	0x005f5058
    1958:	38323120 	ldmdacc	r2!, {r5, r8, ip, sp}
    195c:	535f5f00 	cmppl	pc, #0, 30
    1960:	55434341 	strbpl	r4, [r3, #-833]	; 0xfffffcbf
    1964:	42495f4d 	submi	r5, r9, #308	; 0x134
    1968:	5f5f5449 	svcpl	0x005f5449
    196c:	6d003820 	stcvs	8, cr3, [r0, #-128]	; 0xffffff80
    1970:	006e6961 	rsbeq	r6, lr, r1, ror #18
    1974:	48545f5f 	ldmdami	r4, {r0, r1, r2, r3, r4, r6, r8, r9, sl, fp, ip, lr}^
    1978:	5f424d55 	svcpl	0x00424d55
    197c:	45544e49 	ldrbmi	r4, [r4, #-3657]	; 0xfffff1b7
    1980:	524f5752 	subpl	r5, pc, #21495808	; 0x1480000
    1984:	205f5f4b 	subscs	r5, pc, fp, asr #30
    1988:	5f5f0031 	svcpl	0x005f0031
    198c:	464c4c55 			; <UNDEFINED> instruction: 0x464c4c55
    1990:	54434152 	strbpl	r4, [r3], #-338	; 0xfffffeae
    1994:	58414d5f 	stmdapl	r1, {r0, r1, r2, r3, r4, r6, r8, sl, fp, lr}^
    1998:	30205f5f 	eorcc	r5, r0, pc, asr pc
    199c:	46464658 			; <UNDEFINED> instruction: 0x46464658
    19a0:	46464646 	strbmi	r4, [r6], -r6, asr #12
    19a4:	46464646 	strbmi	r4, [r6], -r6, asr #12
    19a8:	46464646 	strbmi	r4, [r6], -r6, asr #12
    19ac:	362d5046 	strtcc	r5, [sp], -r6, asr #32
    19b0:	4c4c5534 	cfstr64mi	mvdx5, [ip], {52}	; 0x34
    19b4:	50470052 	subpl	r0, r7, r2, asr r0
    19b8:	20424f49 	subcs	r4, r2, r9, asr #30
    19bc:	50472828 	subpl	r2, r7, r8, lsr #16
    19c0:	545f4f49 	ldrbpl	r4, [pc], #-3913	; 19c8 <_Min_Stack_Size+0x15c8>
    19c4:	44657079 	strbtmi	r7, [r5], #-121	; 0xffffff87
    19c8:	2a206665 	bcs	81b364 <_Min_Stack_Size+0x81af64>
    19cc:	49504729 	ldmdbmi	r0, {r0, r3, r5, r8, r9, sl, lr}^
    19d0:	425f424f 	subsmi	r4, pc, #-268435452	; 0xf0000004
    19d4:	29455341 	stmdbcs	r5, {r0, r6, r8, r9, ip, lr}^
    19d8:	6e665f00 	cdpvs	15, 6, cr5, cr6, cr0, {0}
    19dc:	65707974 	ldrbvs	r7, [r0, #-2420]!	; 0xfffff68c
    19e0:	434c0073 	movtmi	r0, #49267	; 0xc073
    19e4:	4d435f44 	stclmi	15, cr5, [r3, #-272]	; 0xfffffef0
    19e8:	4f505f44 	svcmi	0x00505f44
    19ec:	47205452 			; <UNDEFINED> instruction: 0x47205452
    19f0:	424f4950 	submi	r4, pc, #80, 18	; 0x140000
    19f4:	5f5f5f00 	svcpl	0x005f5f00
    19f8:	5f746e69 	svcpl	0x00746e69
    19fc:	64727470 	ldrbtvs	r7, [r2], #-1136	; 0xfffffb90
    1a00:	5f666669 	svcpl	0x00666669
    1a04:	20685f74 	rsbcs	r5, r8, r4, ror pc
    1a08:	49535f00 	ldmdbmi	r3, {r8, r9, sl, fp, ip, lr}^
    1a0c:	545f455a 	ldrbpl	r4, [pc], #-1370	; 1a14 <_Min_Stack_Size+0x1614>
    1a10:	4345445f 	movtmi	r4, #21599	; 0x545f
    1a14:	4552414c 	ldrbmi	r4, [r2, #-332]	; 0xfffffeb4
    1a18:	44002044 	strmi	r2, [r0], #-68	; 0xffffffbc
    1a1c:	50472034 	subpl	r2, r7, r4, lsr r0
    1a20:	505f4f49 	subspl	r4, pc, r9, asr #30
    1a24:	345f4e49 	ldrbcc	r4, [pc], #-3657	; 1a2c <_Min_Stack_Size+0x162c>
    1a28:	435f5f00 	cmpmi	pc, #0, 30
    1a2c:	33524148 	cmpcc	r2, #72, 2
    1a30:	59545f32 	ldmdbpl	r4, {r1, r4, r5, r8, r9, sl, fp, ip, lr}^
    1a34:	5f5f4550 	svcpl	0x005f4550
    1a38:	6e6f6c20 	cdpvs	12, 6, cr6, cr15, cr0, {1}
    1a3c:	6e752067 	cdpvs	0, 7, cr2, cr5, cr7, {3}
    1a40:	6e676973 			; <UNDEFINED> instruction: 0x6e676973
    1a44:	69206465 	stmdbvs	r0!, {r0, r2, r5, r6, sl, sp, lr}
    1a48:	5f00746e 	svcpl	0x0000746e
    1a4c:	4d52415f 	ldfmie	f4, [r2, #-380]	; 0xfffffe84
    1a50:	4145465f 	cmpmi	r5, pc, asr r6
    1a54:	45525554 	ldrbmi	r5, [r2, #-1364]	; 0xfffffaac
    1a58:	3150465f 	cmpcc	r0, pc, asr r6
    1a5c:	45565f36 	ldrbmi	r5, [r6, #-3894]	; 0xfffff0ca
    1a60:	524f5443 	subpl	r5, pc, #1124073472	; 0x43000000
    1a64:	4952415f 	ldmdbmi	r2, {r0, r1, r2, r3, r4, r6, r8, lr}^
    1a68:	454d4854 	strbmi	r4, [sp, #-2132]	; 0xfffff7ac
    1a6c:	00434954 	subeq	r4, r3, r4, asr r9
    1a70:	534f505f 	movtpl	r5, #61535	; 0xf05f
    1a74:	435f5849 	cmpmi	pc, #4784128	; 0x490000
    1a78:	554f535f 	strbpl	r5, [pc, #-863]	; 1721 <_Min_Stack_Size+0x1321>
    1a7c:	20454352 	subcs	r4, r5, r2, asr r3
    1a80:	38303032 	ldmdacc	r0!, {r1, r4, r5, ip, sp}
    1a84:	004c3930 	subeq	r3, ip, r0, lsr r9
    1a88:	43435f5f 	movtmi	r5, #16223	; 0x3f5f
    1a8c:	5055535f 	subspl	r5, r5, pc, asr r3
    1a90:	54524f50 	ldrbpl	r4, [r2], #-3920	; 0xfffff0b0
    1a94:	59445f53 	stmdbpl	r4, {r0, r1, r4, r6, r8, r9, sl, fp, ip, lr}^
    1a98:	494d414e 	stmdbmi	sp, {r1, r2, r3, r6, r8, lr}^
    1a9c:	52415f43 	subpl	r5, r1, #268	; 0x10c
    1aa0:	5f594152 	svcpl	0x00594152
    1aa4:	54494e49 	strbpl	r4, [r9], #-3657	; 0xfffff1b7
    1aa8:	49003120 	stmdbmi	r0, {r5, r8, ip, sp}
    1aac:	535f434e 	cmppl	pc, #939524097	; 0x38000001
    1ab0:	32334d54 	eorscc	r4, r3, #84, 26	; 0x1500
    1ab4:	3031465f 	eorscc	r4, r1, pc, asr r6
    1ab8:	5f364333 	svcpl	0x00364333
    1abc:	49545845 	ldmdbmi	r4, {r0, r2, r6, fp, ip, lr}^
    1ac0:	4952445f 	ldmdbmi	r2, {r0, r1, r2, r3, r4, r6, sl, lr}^
    1ac4:	5f524556 	svcpl	0x00524556
    1ac8:	00205f48 	eoreq	r5, r0, r8, asr #30
    1acc:	49555f5f 	ldmdbmi	r5, {r0, r1, r2, r3, r4, r6, r8, r9, sl, fp, ip, lr}^
    1ad0:	465f544e 	ldrbmi	r5, [pc], -lr, asr #8
    1ad4:	33545341 	cmpcc	r4, #67108865	; 0x4000001
    1ad8:	414d5f32 	cmpmi	sp, r2, lsr pc
    1adc:	205f5f58 	subscs	r5, pc, r8, asr pc	; <UNPREDICTABLE>
    1ae0:	66667830 			; <UNDEFINED> instruction: 0x66667830
    1ae4:	66666666 	strbtvs	r6, [r6], -r6, ror #12
    1ae8:	00556666 	subseq	r6, r5, r6, ror #12
    1aec:	6d745f5f 	ldclvs	15, cr5, [r4, #-380]!	; 0xfffffe84
    1af0:	6e6f6d5f 	mcrvs	13, 3, r6, cr15, cr15, {2}
    1af4:	465f5f00 	ldrbmi	r5, [pc], -r0, lsl #30
    1af8:	4d5f544c 	cfldrdmi	mvd5, [pc, #-304]	; 19d0 <_Min_Stack_Size+0x15d0>
    1afc:	455f5841 	ldrbmi	r5, [pc, #-2113]	; 12c3 <_Min_Stack_Size+0xec3>
    1b00:	5f5f5058 	svcpl	0x005f5058
    1b04:	38323120 	ldmdacc	r2!, {r5, r8, ip, sp}
    1b08:	45525f00 	ldrbmi	r5, [r2, #-3840]	; 0xfffff100
    1b0c:	5f544e45 	svcpl	0x00544e45
    1b10:	52454d45 	subpl	r4, r5, #4416	; 0x1140
    1b14:	434e4547 	movtmi	r4, #58695	; 0xe547
    1b18:	49535f59 	ldmdbmi	r3, {r0, r3, r4, r6, r8, r9, sl, fp, ip, lr}^
    1b1c:	3220455a 	eorcc	r4, r0, #377487360	; 0x16800000
    1b20:	50410035 	subpl	r0, r1, r5, lsr r0
    1b24:	4e453242 	cdpmi	2, 4, cr3, cr5, cr2, {2}
    1b28:	5f5f0052 	svcpl	0x005f0052
    1b2c:	66727473 			; <UNDEFINED> instruction: 0x66727473
    1b30:	6c6e6f6d 	stclvs	15, cr6, [lr], #-436	; 0xfffffe4c
    1b34:	28656b69 	stmdacs	r5!, {r0, r3, r5, r6, r8, r9, fp, sp, lr}^
    1b38:	61746d66 	cmnvs	r4, r6, ror #26
    1b3c:	662c6772 			; <UNDEFINED> instruction: 0x662c6772
    1b40:	74737269 	ldrbtvc	r7, [r3], #-617	; 0xfffffd97
    1b44:	61726176 	cmnvs	r2, r6, ror r1
    1b48:	20296772 	eorcs	r6, r9, r2, ror r7
    1b4c:	74615f5f 	strbtvc	r5, [r1], #-3935	; 0xfffff0a1
    1b50:	62697274 	rsbvs	r7, r9, #116, 4	; 0x40000007
    1b54:	5f657475 	svcpl	0x00657475
    1b58:	5f28285f 	svcpl	0x0028285f
    1b5c:	726f665f 	rsbvc	r6, pc, #99614720	; 0x5f00000
    1b60:	5f74616d 	svcpl	0x0074616d
    1b64:	5f28205f 	svcpl	0x0028205f
    1b68:	7274735f 	rsbsvc	r7, r4, #2080374785	; 0x7c000001
    1b6c:	6e6f6d66 	cdpvs	13, 6, cr6, cr15, cr6, {3}
    1b70:	202c5f5f 	eorcs	r5, ip, pc, asr pc
    1b74:	61746d66 	cmnvs	r4, r6, ror #26
    1b78:	202c6772 	eorcs	r6, ip, r2, ror r7
    1b7c:	73726966 	cmnvc	r2, #1671168	; 0x198000
    1b80:	72617674 	rsbvc	r7, r1, #116, 12	; 0x7400000
    1b84:	29677261 	stmdbcs	r7!, {r0, r5, r6, r9, ip, sp, lr}^
    1b88:	5f002929 	svcpl	0x00002929
    1b8c:	4345445f 	movtmi	r4, #21599	; 0x545f
    1b90:	5f383231 	svcpl	0x00383231
    1b94:	544e414d 	strbpl	r4, [lr], #-333	; 0xfffffeb3
    1b98:	4749445f 	smlsldmi	r4, r9, pc, r4	; <UNPREDICTABLE>
    1b9c:	33205f5f 			; <UNDEFINED> instruction: 0x33205f5f
    1ba0:	4e490034 	mcrmi	0, 2, r0, cr9, cr4, {1}
    1ba4:	41465f54 	cmpmi	r6, r4, asr pc
    1ba8:	5f385453 	svcpl	0x00385453
    1bac:	204e494d 	subcs	r4, lr, sp, asr #18
    1bb0:	5f5f2d28 	svcpl	0x005f2d28
    1bb4:	5f544e49 	svcpl	0x00544e49
    1bb8:	54534146 	ldrbpl	r4, [r3], #-326	; 0xfffffeba
    1bbc:	414d5f38 	cmpmi	sp, r8, lsr pc
    1bc0:	205f5f58 	subscs	r5, pc, r8, asr pc	; <UNPREDICTABLE>
    1bc4:	2931202d 	ldmdbcs	r1!, {r0, r2, r3, r5, sp}
    1bc8:	45525f00 	ldrbmi	r5, [r2, #-3840]	; 0xfffff100
    1bcc:	575f4441 	ldrbpl	r4, [pc, -r1, asr #8]
    1bd0:	45544952 	ldrbmi	r4, [r4, #-2386]	; 0xfffff6ae
    1bd4:	4655425f 			; <UNDEFINED> instruction: 0x4655425f
    1bd8:	455a4953 	ldrbmi	r4, [sl, #-2387]	; 0xfffff6ad
    1bdc:	5059545f 	subspl	r5, r9, pc, asr r4
    1be0:	6e692045 	cdpvs	0, 6, cr2, cr9, cr5, {2}
    1be4:	5f5f0074 	svcpl	0x005f0074
    1be8:	455a4953 	ldrbmi	r4, [sl, #-2387]	; 0xfffff6ad
    1bec:	445f464f 	ldrbmi	r4, [pc], #-1615	; 1bf4 <_Min_Stack_Size+0x17f4>
    1bf0:	4c42554f 	cfstr64mi	mvdx5, [r2], {79}	; 0x4f
    1bf4:	205f5f45 	subscs	r5, pc, r5, asr #30
    1bf8:	5f5f0038 	svcpl	0x005f0038
    1bfc:	5f544e49 	svcpl	0x00544e49
    1c00:	5341454c 	movtpl	r4, #5452	; 0x154c
    1c04:	5f323354 	svcpl	0x00323354
    1c08:	54444957 	strbpl	r4, [r4], #-2391	; 0xfffff6a9
    1c0c:	205f5f48 	subscs	r5, pc, r8, asr #30
    1c10:	5f003233 	svcpl	0x00003233
    1c14:	434f4c43 	movtmi	r4, #64579	; 0xfc43
    1c18:	5f545f4b 	svcpl	0x00545f4b
    1c1c:	736e7520 	cmnvc	lr, #32, 10	; 0x8000000
    1c20:	656e6769 	strbvs	r6, [lr, #-1897]!	; 0xfffff897
    1c24:	6f6c2064 	svcvs	0x006c2064
    1c28:	5f00676e 	svcpl	0x0000676e
    1c2c:	544c465f 	strbpl	r4, [ip], #-1631	; 0xfffff9a1
    1c30:	5f583233 	svcpl	0x00583233
    1c34:	5f4e494d 	svcpl	0x004e494d
    1c38:	5f505845 	svcpl	0x00505845
    1c3c:	2d28205f 	stccs	0, cr2, [r8, #-380]!	; 0xfffffe84
    1c40:	31323031 	teqcc	r2, r1, lsr r0
    1c44:	5f5f0029 	svcpl	0x005f0029
    1c48:	54534146 	ldrbpl	r4, [r3], #-326	; 0xfffffeba
    1c4c:	00203631 	eoreq	r3, r0, r1, lsr r6
    1c50:	4e495f5f 	mcrmi	15, 2, r5, cr9, cr15, {2}
    1c54:	41465f54 	cmpmi	r6, r4, asr pc
    1c58:	5f385453 	svcpl	0x00385453
    1c5c:	5f58414d 	svcpl	0x0058414d
    1c60:	7830205f 	ldmdavc	r0!, {r0, r1, r2, r3, r4, r6, sp}
    1c64:	66666637 			; <UNDEFINED> instruction: 0x66666637
    1c68:	66666666 	strbtvs	r6, [r6], -r6, ror #12
    1c6c:	45525f00 	ldrbmi	r5, [r2, #-3840]	; 0xfffff100
    1c70:	5f544e45 	svcpl	0x00544e45
    1c74:	444e4152 	strbmi	r4, [lr], #-338	; 0xfffffeae
    1c78:	535f3834 	cmppl	pc, #52, 16	; 0x340000
    1c7c:	28444545 	stmdacs	r4, {r0, r2, r6, r8, sl, lr}^
    1c80:	29727470 	ldmdbcs	r2!, {r4, r5, r6, sl, ip, sp, lr}^
    1c84:	70282820 	eorvc	r2, r8, r0, lsr #16
    1c88:	2d297274 	sfmcs	f7, 4, [r9, #-464]!	; 0xfffffe30
    1c8c:	34725f3e 	ldrbtcc	r5, [r2], #-3902	; 0xfffff0c2
    1c90:	5f3e2d38 	svcpl	0x003e2d38
    1c94:	64656573 	strbtvs	r6, [r5], #-1395	; 0xfffffa8d
    1c98:	5f5f0029 	svcpl	0x005f0029
    1c9c:	4752414c 	ldrbmi	r4, [r2, -ip, asr #2]
    1ca0:	4c494645 	mcrrmi	6, 4, r4, r9, cr5
    1ca4:	49565f45 	ldmdbmi	r6, {r0, r2, r6, r8, r9, sl, fp, ip, lr}^
    1ca8:	4c424953 	mcrrmi	9, 5, r4, r2, cr3	; <UNPREDICTABLE>
    1cac:	00302045 	eorseq	r2, r0, r5, asr #32
    1cb0:	45445f5f 	strbmi	r5, [r4, #-3935]	; 0xfffff0a1
    1cb4:	5f343643 	svcpl	0x00343643
    1cb8:	5f58414d 	svcpl	0x0058414d
    1cbc:	2e39205f 	mrccs	0, 1, r2, cr9, cr15, {2}
    1cc0:	39393939 	ldmdbcc	r9!, {r0, r3, r4, r5, r8, fp, ip, sp}
    1cc4:	39393939 	ldmdbcc	r9!, {r0, r3, r4, r5, r8, fp, ip, sp}
    1cc8:	39393939 	ldmdbcc	r9!, {r0, r3, r4, r5, r8, fp, ip, sp}
    1ccc:	45393939 	ldrmi	r3, [r9, #-2361]!	; 0xfffff6c7
    1cd0:	44343833 	ldrtmi	r3, [r4], #-2099	; 0xfffff7cd
    1cd4:	5f5f0044 	svcpl	0x005f0044
    1cd8:	5f746e69 	svcpl	0x00746e69
    1cdc:	74736166 	ldrbtvc	r6, [r3], #-358	; 0xfffffe9a
    1ce0:	5f745f38 	svcpl	0x00745f38
    1ce4:	69666564 	stmdbvs	r6!, {r2, r5, r6, r8, sl, sp, lr}^
    1ce8:	2064656e 	rsbcs	r6, r4, lr, ror #10
    1cec:	5f5f0031 	svcpl	0x005f0031
    1cf0:	4c57454e 	cfldr64mi	mvdx4, [r7], {78}	; 0x4e
    1cf4:	5f5f4249 	svcpl	0x005f4249
    1cf8:	5f003320 	svcpl	0x00003320
    1cfc:	4e454552 	mcrmi	5, 2, r4, cr5, cr2, {2}
    1d00:	4e495f54 	mcrmi	15, 2, r5, cr9, cr4, {2}
    1d04:	76285449 	strtvc	r5, [r8], -r9, asr #8
    1d08:	20297261 	eorcs	r7, r9, r1, ror #4
    1d0c:	2c30207b 	ldccs	0, cr2, [r0], #-492	; 0xfffffe14
    1d10:	5f5f2820 	svcpl	0x005f2820
    1d14:	454c4946 	strbmi	r4, [ip, #-2374]	; 0xfffff6ba
    1d18:	26292a20 	strtcs	r2, [r9], -r0, lsr #20
    1d1c:	66735f5f 	uhsaxvs	r5, r3, pc	; <UNPREDICTABLE>
    1d20:	6b61665f 	blvs	185b6a4 <_Min_Stack_Size+0x185b2a4>
    1d24:	74735f65 	ldrbtvc	r5, [r3], #-3941	; 0xfffff09b
    1d28:	2c6e6964 			; <UNDEFINED> instruction: 0x2c6e6964
    1d2c:	5f5f2820 	svcpl	0x005f2820
    1d30:	454c4946 	strbmi	r4, [ip, #-2374]	; 0xfffff6ba
    1d34:	26292a20 	strtcs	r2, [r9], -r0, lsr #20
    1d38:	66735f5f 	uhsaxvs	r5, r3, pc	; <UNPREDICTABLE>
    1d3c:	6b61665f 	blvs	185b6c0 <_Min_Stack_Size+0x185b2c0>
    1d40:	74735f65 	ldrbtvc	r5, [r3], #-3941	; 0xfffff09b
    1d44:	74756f64 	ldrbtvc	r6, [r5], #-3940	; 0xfffff09c
    1d48:	5f28202c 	svcpl	0x0028202c
    1d4c:	4c49465f 	mcrrmi	6, 5, r4, r9, cr15
    1d50:	292a2045 	stmdbcs	sl!, {r0, r2, r6, sp}
    1d54:	735f5f26 	cmpvc	pc, #38, 30	; 0x98
    1d58:	61665f66 	cmnvs	r6, r6, ror #30
    1d5c:	735f656b 	cmpvc	pc, #448790528	; 0x1ac00000
    1d60:	72656474 	rsbvc	r6, r5, #116, 8	; 0x74000000
    1d64:	30202c72 	eorcc	r2, r0, r2, ror ip
    1d68:	4e5f202c 	cdpmi	0, 5, cr2, cr15, cr12, {1}
    1d6c:	2c4c4c55 	mcrrcs	12, 5, r4, ip, cr5
    1d70:	202c3020 	eorcs	r3, ip, r0, lsr #32
    1d74:	5f202c30 	svcpl	0x00202c30
    1d78:	4c4c554e 	cfstr64mi	mvdx5, [ip], {78}	; 0x4e
    1d7c:	4e5f202c 	cdpmi	0, 5, cr2, cr15, cr12, {1}
    1d80:	2c4c4c55 	mcrrcs	12, 5, r4, ip, cr5
    1d84:	554e5f20 	strbpl	r5, [lr, #-3872]	; 0xfffff0e0
    1d88:	202c4c4c 	eorcs	r4, ip, ip, asr #24
    1d8c:	30202c30 	eorcc	r2, r0, r0, lsr ip
    1d90:	4e5f202c 	cdpmi	0, 5, cr2, cr15, cr12, {1}
    1d94:	2c4c4c55 	mcrrcs	12, 5, r4, ip, cr5
    1d98:	554e5f20 	strbpl	r5, [lr, #-3872]	; 0xfffff0e0
    1d9c:	202c4c4c 	eorcs	r4, ip, ip, asr #24
    1da0:	4c554e5f 	mrrcmi	14, 5, r4, r5, cr15
    1da4:	5f202c4c 	svcpl	0x00202c4c
    1da8:	4c4c554e 	cfstr64mi	mvdx5, [ip], {78}	; 0x4e
    1dac:	4e5f202c 	cdpmi	0, 5, cr2, cr15, cr12, {1}
    1db0:	2c4c4c55 	mcrrcs	12, 5, r4, ip, cr5
    1db4:	45525f20 	ldrbmi	r5, [r2, #-3872]	; 0xfffff0e0
    1db8:	5f544e45 	svcpl	0x00544e45
    1dbc:	54494e49 	strbpl	r4, [r9], #-3657	; 0xfffff1b7
    1dc0:	4554415f 	ldrbmi	r4, [r4, #-351]	; 0xfffffea1
    1dc4:	20544958 	subscs	r4, r4, r8, asr r9
    1dc8:	554e5f7b 	strbpl	r5, [lr, #-3963]	; 0xfffff085
    1dcc:	202c4c4c 	eorcs	r4, ip, ip, asr #24
    1dd0:	5f202c30 	svcpl	0x00202c30
    1dd4:	4c4c554e 	cfstr64mi	mvdx5, [ip], {78}	; 0x4e
    1dd8:	5f202c7d 	svcpl	0x00202c7d
    1ddc:	4c4c554e 	cfstr64mi	mvdx5, [ip], {78}	; 0x4e
    1de0:	4e5f202c 	cdpmi	0, 5, cr2, cr15, cr12, {1}
    1de4:	2c4c4c55 	mcrrcs	12, 5, r4, ip, cr5
    1de8:	554e5f20 	strbpl	r5, [lr, #-3872]	; 0xfffff0e0
    1dec:	7d204c4c 	stcvc	12, cr4, [r0, #-304]!	; 0xfffffed0
    1df0:	44434c00 	strbmi	r4, [r3], #-3072	; 0xfffff400
    1df4:	5441445f 	strbpl	r4, [r1], #-1119	; 0xfffffba1
    1df8:	4f505f41 	svcmi	0x00505f41
    1dfc:	47205452 			; <UNDEFINED> instruction: 0x47205452
    1e00:	414f4950 	cmpmi	pc, r0, asr r9	; <UNPREDICTABLE>
    1e04:	49584500 	ldmdbmi	r8, {r8, sl, lr}^
    1e08:	55535f54 	ldrbpl	r5, [r3, #-3924]	; 0xfffff0ac
    1e0c:	53454343 	movtpl	r4, #21315	; 0x5343
    1e10:	00302053 	eorseq	r2, r0, r3, asr r0
    1e14:	49545845 	ldmdbmi	r4, {r0, r2, r6, fp, ip, lr}^
    1e18:	52495f36 	subpl	r5, r9, #54, 30	; 0xd8
    1e1c:	33322051 	teqcc	r2, #81	; 0x51
    1e20:	555f5f00 	ldrbpl	r5, [pc, #-3840]	; f28 <_Min_Stack_Size+0xb28>
    1e24:	465f4154 			; <UNDEFINED> instruction: 0x465f4154
    1e28:	5f544942 	svcpl	0x00544942
    1e2c:	3436205f 	ldrtcc	r2, [r6], #-95	; 0xffffffa1
    1e30:	445f5f00 	ldrbmi	r5, [pc], #-3840	; 1e38 <_Min_Stack_Size+0x1a38>
    1e34:	32314345 	eorscc	r4, r1, #335544321	; 0x14000001
    1e38:	494d5f38 	stmdbmi	sp, {r3, r4, r5, r8, r9, sl, fp, ip, lr}^
    1e3c:	58455f4e 	stmdapl	r5, {r1, r2, r3, r6, r8, r9, sl, fp, ip, lr}^
    1e40:	205f5f50 	subscs	r5, pc, r0, asr pc	; <UNPREDICTABLE>
    1e44:	31362d28 	teqcc	r6, r8, lsr #26
    1e48:	00293234 	eoreq	r3, r9, r4, lsr r2
    1e4c:	4c465f5f 	mcrrmi	15, 5, r5, r6, cr15
    1e50:	45445f54 	strbmi	r5, [r4, #-3924]	; 0xfffff0ac
    1e54:	414d4943 	cmpmi	sp, r3, asr #18
    1e58:	49445f4c 	stmdbmi	r4, {r2, r3, r6, r8, r9, sl, fp, ip, lr}^
    1e5c:	205f5f47 	subscs	r5, pc, r7, asr #30
    1e60:	50470039 	subpl	r0, r7, r9, lsr r0
    1e64:	505f4f49 	subspl	r4, pc, r9, asr #30
    1e68:	4c5f4e49 	mrrcmi	14, 4, r4, pc, cr9	; <UNPREDICTABLE>
    1e6c:	3020574f 	eorcc	r5, r0, pc, asr #14
    1e70:	495f5f00 	ldmdbmi	pc, {r8, r9, sl, fp, ip, lr}^	; <UNPREDICTABLE>
    1e74:	4c5f544e 	cfldrdmi	mvd5, [pc], {78}	; 0x4e
    1e78:	54534145 	ldrbpl	r4, [r3], #-325	; 0xfffffebb
    1e7c:	4d5f3233 	lfmmi	f3, 2, [pc, #-204]	; 1db8 <_Min_Stack_Size+0x19b8>
    1e80:	5f5f5841 	svcpl	0x005f5841
    1e84:	37783020 	ldrbcc	r3, [r8, -r0, lsr #32]!
    1e88:	66666666 	strbtvs	r6, [r6], -r6, ror #12
    1e8c:	4c666666 	stclmi	6, cr6, [r6], #-408	; 0xfffffe68
    1e90:	49504700 	ldmdbmi	r0, {r8, r9, sl, lr}^
    1e94:	49505f4f 	ldmdbmi	r0, {r0, r1, r2, r3, r6, r8, r9, sl, fp, ip, lr}^
    1e98:	32315f4e 	eorscc	r5, r1, #312	; 0x138
    1e9c:	75282820 	strvc	r2, [r8, #-2080]!	; 0xfffff7e0
    1ea0:	31746e69 	cmncc	r4, r9, ror #28
    1ea4:	29745f36 	ldmdbcs	r4!, {r1, r2, r4, r5, r8, r9, sl, fp, ip, lr}^
    1ea8:	30317830 	eorscc	r7, r1, r0, lsr r8
    1eac:	00293030 	eoreq	r3, r9, r0, lsr r0
    1eb0:	49545845 	ldmdbmi	r4, {r0, r2, r6, fp, ip, lr}^
    1eb4:	6972545f 	ldmdbvs	r2!, {r0, r1, r2, r3, r4, r6, sl, ip, lr}^
    1eb8:	72656767 	rsbvc	r6, r5, #27000832	; 0x19c0000
    1ebc:	4c41465f 	mcrrmi	6, 5, r4, r1, cr15
    1ec0:	474e494c 	strbmi	r4, [lr, -ip, asr #18]
    1ec4:	5f003120 	svcpl	0x00003120
    1ec8:	5f66735f 	svcpl	0x0066735f
    1ecc:	656b6166 	strbvs	r6, [fp, #-358]!	; 0xfffffe9a
    1ed0:	6474735f 	ldrbtvs	r7, [r4], #-863	; 0xfffffca1
    1ed4:	45006e69 	strmi	r6, [r0, #-3689]	; 0xfffff197
    1ed8:	35495458 	strbcc	r5, [r9, #-1112]	; 0xfffffba8
    1edc:	20354150 	eorscs	r4, r5, r0, asr r1
    1ee0:	54584528 	ldrbpl	r4, [r8], #-1320	; 0xfffffad8
    1ee4:	50475f49 	subpl	r5, r7, r9, asr #30
    1ee8:	4d5f4f49 	ldclmi	15, cr4, [pc, #-292]	; 1dcc <_Min_Stack_Size+0x19cc>
    1eec:	6e697061 	cdpvs	0, 6, cr7, cr9, cr1, {3}
    1ef0:	29745f67 	ldmdbcs	r4!, {r0, r1, r2, r5, r6, r8, r9, sl, fp, ip, lr}^
    1ef4:	5458457b 	ldrbpl	r4, [r8], #-1403	; 0xfffffa85
    1ef8:	472c3549 	strmi	r3, [ip, -r9, asr #10]!
    1efc:	414f4950 	cmpmi	pc, r0, asr r9	; <UNPREDICTABLE>
    1f00:	4950472c 	ldmdbmi	r0, {r2, r3, r5, r8, r9, sl, lr}^
    1f04:	49505f4f 	ldmdbmi	r0, {r0, r1, r2, r3, r6, r8, r9, sl, fp, ip, lr}^
    1f08:	2c355f4e 	ldccs	15, cr5, [r5], #-312	; 0xfffffec8
    1f0c:	49545845 	ldmdbmi	r4, {r0, r2, r6, fp, ip, lr}^
    1f10:	52495f35 	subpl	r5, r9, #53, 30	; 0xd4
    1f14:	5f007d51 	svcpl	0x00007d51
    1f18:	7274705f 	rsbsvc	r7, r4, #95	; 0x5f
    1f1c:	7620745f 			; <UNDEFINED> instruction: 0x7620745f
    1f20:	2064696f 	rsbcs	r6, r4, pc, ror #18
    1f24:	5f5f002a 	svcpl	0x005f002a
    1f28:	43554e47 	cmpmi	r5, #1136	; 0x470
    1f2c:	4454535f 	ldrbmi	r5, [r4], #-863	; 0xfffffca1
    1f30:	4e495f43 	cdpmi	15, 4, cr5, cr9, cr3, {2}
    1f34:	454e494c 	strbmi	r4, [lr, #-2380]	; 0xfffff6b4
    1f38:	31205f5f 			; <UNDEFINED> instruction: 0x31205f5f
    1f3c:	48435700 	stmdami	r3, {r8, r9, sl, ip, lr}^
    1f40:	4d5f5241 	lfmmi	f5, 2, [pc, #-260]	; 1e44 <_Min_Stack_Size+0x1a44>
    1f44:	28204e49 	stmdacs	r0!, {r0, r3, r6, r9, sl, fp, lr}
    1f48:	43575f5f 	cmpmi	r7, #380	; 0x17c
    1f4c:	5f524148 	svcpl	0x00524148
    1f50:	5f4e494d 	svcpl	0x004e494d
    1f54:	5f00295f 	svcpl	0x0000295f
    1f58:	4152465f 	cmpmi	r2, pc, asr r6
    1f5c:	465f5443 	ldrbmi	r5, [pc], -r3, asr #8
    1f60:	5f544942 	svcpl	0x00544942
    1f64:	3531205f 	ldrcc	r2, [r1, #-95]!	; 0xffffffa1
    1f68:	4c5f5f00 	mrrcmi	15, 0, r5, pc, cr0	; <UNPREDICTABLE>
    1f6c:	4343414c 	movtmi	r4, #12620	; 0x314c
    1f70:	455f4d55 	ldrbmi	r4, [pc, #-3413]	; 1223 <_Min_Stack_Size+0xe23>
    1f74:	4c495350 	mcrrmi	3, 5, r5, r9, cr0
    1f78:	5f5f4e4f 	svcpl	0x005f4e4f
    1f7c:	31783020 	cmncc	r8, r0, lsr #32
    1f80:	31332d50 	teqcc	r3, r0, asr sp
    1f84:	004b4c4c 	subeq	r4, fp, ip, asr #24
    1f88:	4e475f5f 	mcrmi	15, 2, r5, cr7, cr15, {2}
    1f8c:	505f4355 	subspl	r4, pc, r5, asr r3	; <UNPREDICTABLE>
    1f90:	48435441 	stmdami	r3, {r0, r6, sl, ip, lr}^
    1f94:	4556454c 	ldrbmi	r4, [r6, #-1356]	; 0xfffffab4
    1f98:	205f5f4c 	subscs	r5, pc, ip, asr #30
    1f9c:	5f5f0031 	svcpl	0x005f0031
    1fa0:	5f434347 	svcpl	0x00434347
    1fa4:	4d4f5441 	cfstrdmi	mvd5, [pc, #-260]	; 1ea8 <_Min_Stack_Size+0x1aa8>
    1fa8:	435f4349 	cmpmi	pc, #603979777	; 0x24000001
    1fac:	33524148 	cmpcc	r2, #72, 2
    1fb0:	5f545f32 	svcpl	0x00545f32
    1fb4:	4b434f4c 	blmi	10d5cec <_Min_Stack_Size+0x10d58ec>
    1fb8:	4552465f 	ldrbmi	r4, [r2, #-1631]	; 0xfffff9a1
    1fbc:	00322045 	eorseq	r2, r2, r5, asr #32
    1fc0:	6c615f5f 	stclvs	15, cr5, [r1], #-380	; 0xfffffe84
    1fc4:	5f636f6c 	svcpl	0x00636f6c
    1fc8:	67696c61 	strbvs	r6, [r9, -r1, ror #24]!
    1fcc:	2978286e 	ldmdbcs	r8!, {r1, r2, r3, r5, r6, fp, sp}^
    1fd0:	615f5f20 	cmpvs	pc, r0, lsr #30
    1fd4:	69727474 	ldmdbvs	r2!, {r2, r4, r5, r6, sl, ip, sp, lr}^
    1fd8:	65747562 	ldrbvs	r7, [r4, #-1378]!	; 0xfffffa9e
    1fdc:	28285f5f 	stmdacs	r8!, {r0, r1, r2, r3, r4, r6, r8, r9, sl, fp, ip, lr}
    1fe0:	6c615f5f 	stclvs	15, cr5, [r1], #-380	; 0xfffffe84
    1fe4:	5f636f6c 	svcpl	0x00636f6c
    1fe8:	67696c61 	strbvs	r6, [r9, -r1, ror #24]!
    1fec:	285f5f6e 	ldmdacs	pc, {r1, r2, r3, r5, r6, r8, r9, sl, fp, ip, lr}^	; <UNPREDICTABLE>
    1ff0:	29292978 	stmdbcs	r9!, {r3, r4, r5, r6, r8, fp, sp}
    1ff4:	555f5f00 	ldrbpl	r5, [pc, #-3840]	; 10fc <_Min_Stack_Size+0xcfc>
    1ff8:	5f544e49 	svcpl	0x00544e49
    1ffc:	5341454c 	movtpl	r4, #5452	; 0x154c
    2000:	5f363154 	svcpl	0x00363154
    2004:	5f58414d 	svcpl	0x0058414d
    2008:	7830205f 	ldmdavc	r0!, {r0, r1, r2, r3, r4, r6, sp}
    200c:	66666666 	strbtvs	r6, [r6], -r6, ror #12
    2010:	49564e00 	ldmdbmi	r6, {r9, sl, fp, lr}^
    2014:	52495f43 	subpl	r5, r9, #268	; 0x10c
    2018:	455f3751 	ldrbmi	r3, [pc, #-1873]	; 18cf <_Min_Stack_Size+0x14cf>
    201c:	31495458 	cmpcc	r9, r8, asr r4
    2020:	7369445f 	cmnvc	r9, #1593835520	; 0x5f000000
    2024:	656c6261 	strbvs	r6, [ip, #-609]!	; 0xfffffd9f
    2028:	564e2820 	strbpl	r2, [lr], -r0, lsr #16
    202c:	495f4349 	ldmdbmi	pc, {r0, r3, r6, r8, r9, lr}^	; <UNPREDICTABLE>
    2030:	30524543 	subscc	r4, r2, r3, asr #10
    2034:	203d7c20 	eorscs	r7, sp, r0, lsr #24
    2038:	3c3c3128 	ldfccs	f3, [ip], #-160	; 0xffffff60
    203c:	00292937 	eoreq	r2, r9, r7, lsr r9
    2040:	49545845 	ldmdbmi	r4, {r0, r2, r6, fp, ip, lr}^
    2044:	33445033 	movtcc	r5, #16435	; 0x4033
    2048:	58452820 	stmdapl	r5, {r5, fp, sp}^
    204c:	475f4954 			; <UNDEFINED> instruction: 0x475f4954
    2050:	5f4f4950 	svcpl	0x004f4950
    2054:	6970614d 	ldmdbvs	r0!, {r0, r2, r3, r6, r8, sp, lr}^
    2058:	745f676e 	ldrbvc	r6, [pc], #-1902	; 2060 <_Min_Stack_Size+0x1c60>
    205c:	58457b29 	stmdapl	r5, {r0, r3, r5, r8, r9, fp, ip, sp, lr}^
    2060:	2c334954 			; <UNDEFINED> instruction: 0x2c334954
    2064:	4f495047 	svcmi	0x00495047
    2068:	50472c44 	subpl	r2, r7, r4, asr #24
    206c:	505f4f49 	subspl	r4, pc, r9, asr #30
    2070:	335f4e49 	cmpcc	pc, #1168	; 0x490
    2074:	5458452c 	ldrbpl	r4, [r8], #-1324	; 0xfffffad4
    2078:	495f3349 	ldmdbmi	pc, {r0, r3, r6, r8, r9, ip, sp}^	; <UNPREDICTABLE>
    207c:	007d5152 	rsbseq	r5, sp, r2, asr r1
    2080:	414c5f5f 	cmpmi	ip, pc, asr pc
    2084:	4d554343 	ldclmi	3, cr4, [r5, #-268]	; 0xfffffef4
    2088:	4942465f 	stmdbmi	r2, {r0, r1, r2, r3, r4, r6, r9, sl, lr}^
    208c:	205f5f54 	subscs	r5, pc, r4, asr pc	; <UNPREDICTABLE>
    2090:	5f003133 	svcpl	0x00003133
    2094:	6572705f 	ldrbvs	r7, [r2, #-95]!	; 0xffffffa1
    2098:	74636964 	strbtvc	r6, [r3], #-2404	; 0xfffff69c
    209c:	7572745f 	ldrbvc	r7, [r2, #-1119]!	; 0xfffffba1
    20a0:	78652865 	stmdavc	r5!, {r0, r2, r5, r6, fp, sp}^
    20a4:	5f202970 	svcpl	0x00202970
    20a8:	6975625f 	ldmdbvs	r5!, {r0, r1, r2, r3, r4, r6, r9, sp, lr}^
    20ac:	6e69746c 	cdpvs	4, 6, cr7, cr9, cr12, {3}
    20b0:	7078655f 	rsbsvc	r6, r8, pc, asr r5
    20b4:	28746365 	ldmdacs	r4!, {r0, r2, r5, r6, r8, r9, sp, lr}^
    20b8:	70786528 	rsbsvc	r6, r8, r8, lsr #10
    20bc:	31202c29 			; <UNDEFINED> instruction: 0x31202c29
    20c0:	58450029 	stmdapl	r5, {r0, r3, r5}^
    20c4:	31314954 	teqcc	r1, r4, asr r9
    20c8:	31314350 	teqcc	r1, r0, asr r3
    20cc:	58452820 	stmdapl	r5, {r5, fp, sp}^
    20d0:	475f4954 			; <UNDEFINED> instruction: 0x475f4954
    20d4:	5f4f4950 	svcpl	0x004f4950
    20d8:	6970614d 	ldmdbvs	r0!, {r0, r2, r3, r6, r8, sp, lr}^
    20dc:	745f676e 	ldrbvc	r6, [pc], #-1902	; 20e4 <_Min_Stack_Size+0x1ce4>
    20e0:	58457b29 	stmdapl	r5, {r0, r3, r5, r8, r9, fp, ip, sp, lr}^
    20e4:	31314954 	teqcc	r1, r4, asr r9
    20e8:	4950472c 	ldmdbmi	r0, {r2, r3, r5, r8, r9, sl, lr}^
    20ec:	472c434f 	strmi	r4, [ip, -pc, asr #6]!
    20f0:	5f4f4950 	svcpl	0x004f4950
    20f4:	5f4e4950 	svcpl	0x004e4950
    20f8:	452c3131 	strmi	r3, [ip, #-305]!	; 0xfffffecf
    20fc:	31495458 	cmpcc	r9, r8, asr r4
    2100:	52495f31 	subpl	r5, r9, #49, 30	; 0xc4
    2104:	4f007d51 	svcmi	0x00007d51
    2108:	57535f53 			; <UNDEFINED> instruction: 0x57535f53
    210c:	48435449 	stmdami	r3, {r0, r3, r6, sl, ip, lr}^
    2110:	5f4f545f 	svcpl	0x004f545f
    2114:	56495250 			; <UNDEFINED> instruction: 0x56495250
    2118:	47494c49 	strbmi	r4, [r9, -r9, asr #24]
    211c:	5f5f2045 	svcpl	0x005f2045
    2120:	206d7361 	rsbcs	r7, sp, r1, ror #6
    2124:	616c6f76 	smcvs	50934	; 0xc6f6
    2128:	656c6974 	strbvs	r6, [ip, #-2420]!	; 0xfffff68c
    212c:	726d2228 	rsbvc	r2, sp, #40, 4	; 0x80000002
    2130:	33722073 	cmncc	r2, #115	; 0x73
    2134:	4e4f432c 	cdpmi	3, 4, cr4, cr15, cr12, {1}
    2138:	4c4f5254 	sfmmi	f5, 2, [pc], {84}	; 0x54
    213c:	5c6e5c20 	stclpl	12, cr5, [lr], #-128	; 0xffffff80
    2140:	736c2074 	cmnvc	ip, #116	; 0x74
    2144:	33722072 	cmncc	r2, #114	; 0x72
    2148:	2c33722c 	lfmcs	f7, 4, [r3], #-176	; 0xffffff50
    214c:	31783023 	cmncc	r8, r3, lsr #32
    2150:	5c6e5c20 	stclpl	12, cr5, [lr], #-128	; 0xffffff80
    2154:	736c2074 	cmnvc	ip, #116	; 0x74
    2158:	3372206c 	cmncc	r2, #108	; 0x6c
    215c:	2c33722c 	lfmcs	f7, 4, [r3], #-176	; 0xffffff50
    2160:	31783023 	cmncc	r8, r3, lsr #32
    2164:	5c6e5c20 	stclpl	12, cr5, [lr], #-128	; 0xffffff80
    2168:	736d2074 	cmnvc	sp, #116	; 0x74
    216c:	4f432072 	svcmi	0x00432072
    2170:	4f52544e 	svcmi	0x0052544e
    2174:	33722c4c 	cmncc	r2, #76, 24	; 0x4c00
    2178:	5f002922 	svcpl	0x00002922
    217c:	544c465f 	strbpl	r4, [ip], #-1631	; 0xfffff9a1
    2180:	4d5f3436 	cfldrdmi	mvd3, [pc, #-216]	; 20b0 <_Min_Stack_Size+0x1cb0>
    2184:	315f5841 	cmpcc	pc, r1, asr #16
    2188:	58455f30 	stmdapl	r5, {r4, r5, r8, r9, sl, fp, ip, lr}^
    218c:	205f5f50 	subscs	r5, pc, r0, asr pc	; <UNPREDICTABLE>
    2190:	00383033 	eorseq	r3, r8, r3, lsr r0
    2194:	49535f5f 	ldmdbmi	r3, {r0, r1, r2, r3, r4, r6, r8, r9, sl, fp, ip, lr}^
    2198:	464f455a 			; <UNDEFINED> instruction: 0x464f455a
    219c:	4e4f4c5f 	mcrmi	12, 2, r4, cr15, cr15, {2}
    21a0:	205f5f47 	subscs	r5, pc, r7, asr #30
    21a4:	5f5f0034 	svcpl	0x005f0034
    21a8:	72747461 	rsbsvc	r7, r4, #1627389952	; 0x61000000
    21ac:	74756269 	ldrbtvc	r6, [r5], #-617	; 0xfffffd97
    21b0:	6f665f65 	svcvs	0x00665f65
    21b4:	74616d72 	strbtvc	r6, [r1], #-3442	; 0xfffff28e
    21b8:	7274735f 	rsbsvc	r7, r4, #2080374785	; 0x7c000001
    21bc:	6e6f6d66 	cdpvs	13, 6, cr6, cr15, cr6, {3}
    21c0:	61285f5f 			; <UNDEFINED> instruction: 0x61285f5f
    21c4:	2029622c 	eorcs	r6, r9, ip, lsr #4
    21c8:	53425f00 	movtpl	r5, #12032	; 0x2f00
    21cc:	49535f44 	ldmdbmi	r3, {r2, r6, r8, r9, sl, fp, ip, lr}^
    21d0:	545f455a 	ldrbpl	r4, [pc], #-1370	; 21d8 <_Min_Stack_Size+0x1dd8>
    21d4:	4645445f 			; <UNDEFINED> instruction: 0x4645445f
    21d8:	44454e49 	strbmi	r4, [r5], #-3657	; 0xfffff1b7
    21dc:	5f00205f 	svcpl	0x0000205f
    21e0:	4e49555f 	mcrmi	5, 2, r5, cr9, cr15, {2}
    21e4:	41465f54 	cmpmi	r6, r4, asr pc
    21e8:	32335453 	eorscc	r5, r3, #1392508928	; 0x53000000
    21ec:	5059545f 	subspl	r5, r9, pc, asr r4
    21f0:	205f5f45 	subscs	r5, pc, r5, asr #30
    21f4:	69736e75 	ldmdbvs	r3!, {r0, r2, r4, r5, r6, r9, sl, fp, sp, lr}^
    21f8:	64656e67 	strbtvs	r6, [r5], #-3687	; 0xfffff199
    21fc:	746e6920 	strbtvc	r6, [lr], #-2336	; 0xfffff6e0
    2200:	5f5f5f00 	svcpl	0x005f5f00
    2204:	5f746e69 	svcpl	0x00746e69
    2208:	657a6973 	ldrbvs	r6, [sl, #-2419]!	; 0xfffff68d
    220c:	685f745f 	ldmdavs	pc, {r0, r1, r2, r3, r4, r6, sl, ip, sp, lr}^	; <UNPREDICTABLE>
    2210:	5f5f0020 	svcpl	0x005f0020
    2214:	43445453 	movtmi	r5, #17491	; 0x4453
    2218:	4654555f 			; <UNDEFINED> instruction: 0x4654555f
    221c:	5f32335f 	svcpl	0x0032335f
    2220:	0031205f 	eorseq	r2, r1, pc, asr r0
    2224:	49535f5f 	ldmdbmi	r3, {r0, r1, r2, r3, r4, r6, r8, r9, sl, fp, ip, lr}^
    2228:	464f455a 			; <UNDEFINED> instruction: 0x464f455a
    222c:	4f4c465f 	svcmi	0x004c465f
    2230:	5f5f5441 	svcpl	0x005f5441
    2234:	5f003420 	svcpl	0x00003420
    2238:	544c465f 	strbpl	r4, [ip], #-1631	; 0xfffff9a1
    223c:	5f583233 	svcpl	0x00583233
    2240:	4f4e4544 	svcmi	0x004e4544
    2244:	4d5f4d52 	ldclmi	13, cr4, [pc, #-328]	; 2104 <_Min_Stack_Size+0x1d04>
    2248:	5f5f4e49 	svcpl	0x005f4e49
    224c:	392e3420 	stmdbcc	lr!, {r5, sl, ip, sp}
    2250:	35363034 	ldrcc	r3, [r6, #-52]!	; 0xffffffcc
    2254:	38353436 	ldmdacc	r5!, {r1, r2, r4, r5, sl, ip, sp}
    2258:	34323134 	ldrtcc	r3, [r2], #-308	; 0xfffffecc
    225c:	65343536 	ldrvs	r3, [r4, #-1334]!	; 0xfffffaca
    2260:	3432332d 	ldrtcc	r3, [r2], #-813	; 0xfffffcd3
    2264:	78323346 	ldmdavc	r2!, {r1, r2, r6, r8, r9, ip, sp}
    2268:	475f5f00 	ldrbmi	r5, [pc, -r0, lsl #30]
    226c:	4c43554e 	cfstr64mi	mvdx5, [r3], {78}	; 0x4e
    2270:	5f454b49 	svcpl	0x00454b49
    2274:	4854414d 	ldmdami	r4, {r0, r2, r3, r6, r8, lr}^
    2278:	4955425f 	ldmdbmi	r5, {r0, r1, r2, r3, r4, r6, r9, lr}^
    227c:	4e49544c 	cdpmi	4, 4, cr5, cr9, cr12, {2}
    2280:	4c45525f 	sfmmi	f5, 2, [r5], {95}	; 0x5f
    2284:	2053504f 	subscs	r5, r3, pc, asr #32
    2288:	465f5f00 	ldrbmi	r5, [pc], -r0, lsl #30
    228c:	4d5f544c 	cfldrdmi	mvd5, [pc, #-304]	; 2164 <_Min_Stack_Size+0x1d64>
    2290:	315f5841 	cmpcc	pc, r1, asr #16
    2294:	58455f30 	stmdapl	r5, {r4, r5, r8, r9, sl, fp, ip, lr}^
    2298:	205f5f50 	subscs	r5, pc, r0, asr pc	; <UNPREDICTABLE>
    229c:	5f003833 	svcpl	0x00003833
    22a0:	4749535f 	smlsldmi	r5, r9, pc, r3	; <UNPREDICTABLE>
    22a4:	4f54415f 	svcmi	0x0054415f
    22a8:	5f43494d 	svcpl	0x0043494d
    22ac:	45505954 	ldrbmi	r5, [r0, #-2388]	; 0xfffff6ac
    22b0:	69205f5f 	stmdbvs	r0!, {r0, r1, r2, r3, r4, r6, r8, r9, sl, fp, ip, lr}
    22b4:	5f00746e 	svcpl	0x0000746e
    22b8:	4345445f 	movtmi	r4, #21599	; 0x545f
    22bc:	5f383231 	svcpl	0x00383231
    22c0:	5f58414d 	svcpl	0x0058414d
    22c4:	2e39205f 	mrccs	0, 1, r2, cr9, cr15, {2}
    22c8:	39393939 	ldmdbcc	r9!, {r0, r3, r4, r5, r8, fp, ip, sp}
    22cc:	39393939 	ldmdbcc	r9!, {r0, r3, r4, r5, r8, fp, ip, sp}
    22d0:	39393939 	ldmdbcc	r9!, {r0, r3, r4, r5, r8, fp, ip, sp}
    22d4:	39393939 	ldmdbcc	r9!, {r0, r3, r4, r5, r8, fp, ip, sp}
    22d8:	39393939 	ldmdbcc	r9!, {r0, r3, r4, r5, r8, fp, ip, sp}
    22dc:	39393939 	ldmdbcc	r9!, {r0, r3, r4, r5, r8, fp, ip, sp}
    22e0:	39393939 	ldmdbcc	r9!, {r0, r3, r4, r5, r8, fp, ip, sp}
    22e4:	39393939 	ldmdbcc	r9!, {r0, r3, r4, r5, r8, fp, ip, sp}
    22e8:	31364539 	teqcc	r6, r9, lsr r5
    22ec:	4c443434 	cfstrdmi	mvd3, [r4], {52}	; 0x34
    22f0:	465f5f00 	ldrbmi	r5, [pc], -r0, lsl #30
    22f4:	54434152 	strbpl	r4, [r3], #-338	; 0xfffffeae
    22f8:	58414d5f 	stmdapl	r1, {r0, r1, r2, r3, r4, r6, r8, sl, fp, lr}^
    22fc:	30205f5f 	eorcc	r5, r0, pc, asr pc
    2300:	46463758 			; <UNDEFINED> instruction: 0x46463758
    2304:	312d5046 			; <UNDEFINED> instruction: 0x312d5046
    2308:	5f005235 	svcpl	0x00005235
    230c:	4343475f 	movtmi	r4, #14175	; 0x375f
    2310:	4345495f 	movtmi	r4, #22879	; 0x595f
    2314:	3935355f 	ldmdbcc	r5!, {r0, r1, r2, r3, r4, r6, r8, sl, ip, sp}
    2318:	4e003020 	cdpmi	0, 0, cr3, cr0, cr0, {1}
    231c:	5f434956 	svcpl	0x00434956
    2320:	36515249 	ldrbcc	r5, [r1], -r9, asr #4
    2324:	5458455f 	ldrbpl	r4, [r8], #-1375	; 0xfffffaa1
    2328:	445f3049 	ldrbmi	r3, [pc], #-73	; 2330 <_Min_Stack_Size+0x1f30>
    232c:	62617369 	rsbvs	r7, r1, #-1543503871	; 0xa4000001
    2330:	2820656c 	stmdacs	r0!, {r2, r3, r5, r6, r8, sl, sp, lr}
    2334:	4349564e 	movtmi	r5, #38478	; 0x964e
    2338:	4543495f 	strbmi	r4, [r3, #-2399]	; 0xfffff6a1
    233c:	7c203052 	stcvc	0, cr3, [r0], #-328	; 0xfffffeb8
    2340:	3128203d 			; <UNDEFINED> instruction: 0x3128203d
    2344:	29363c3c 	ldmdbcs	r6!, {r2, r3, r4, r5, sl, fp, ip, sp}
    2348:	6e490029 	cdpvs	0, 4, cr0, cr9, cr9, {1}
    234c:	75437263 	strbvc	r7, [r3, #-611]	; 0xfffffd9d
    2350:	726f7372 	rsbvc	r7, pc, #-939524095	; 0xc8000001
    2354:	30783020 	rsbscc	r3, r8, r0, lsr #32
    2358:	5f5f0036 	svcpl	0x005f0036
    235c:	5f544e49 	svcpl	0x00544e49
    2360:	54534146 	ldrbpl	r4, [r3], #-326	; 0xfffffeba
    2364:	4d5f3233 	lfmmi	f3, 2, [pc, #-204]	; 22a0 <_Min_Stack_Size+0x1ea0>
    2368:	5f5f5841 	svcpl	0x005f5841
    236c:	37783020 	ldrbcc	r3, [r8, -r0, lsr #32]!
    2370:	66666666 	strbtvs	r6, [r6], -r6, ror #12
    2374:	00666666 	rsbeq	r6, r6, r6, ror #12
    2378:	54415f5f 	strbpl	r5, [r1], #-3935	; 0xfffff0a1
    237c:	43494d4f 	movtmi	r4, #40271	; 0x9d4f
    2380:	5145535f 	cmppl	r5, pc, asr r3
    2384:	5453435f 	ldrbpl	r4, [r3], #-863	; 0xfffffca1
    2388:	5f003520 	svcpl	0x00003520
    238c:	44414552 	strbmi	r4, [r1], #-1362	; 0xfffffaae
    2390:	4952575f 	ldmdbmi	r2, {r0, r1, r2, r3, r4, r6, r8, r9, sl, ip, lr}^
    2394:	525f4554 	subspl	r4, pc, #84, 10	; 0x15000000
    2398:	52555445 	subspl	r5, r5, #1157627904	; 0x45000000
    239c:	59545f4e 	ldmdbpl	r4, {r1, r2, r3, r6, r8, r9, sl, fp, ip, lr}^
    23a0:	69204550 	stmdbvs	r0!, {r4, r6, r8, sl, lr}
    23a4:	4e00746e 	cdpmi	4, 0, cr7, cr0, cr14, {3}
    23a8:	5f434956 	svcpl	0x00434956
    23ac:	34515249 	ldrbcc	r5, [r1], #-585	; 0xfffffdb7
    23b0:	58455f30 	stmdapl	r5, {r4, r5, r8, r9, sl, fp, ip, lr}^
    23b4:	30314954 	eorscc	r4, r1, r4, asr r9
    23b8:	5f35315f 	svcpl	0x0035315f
    23bc:	61736944 	cmnvs	r3, r4, asr #18
    23c0:	20656c62 	rsbcs	r6, r5, r2, ror #24
    23c4:	49564e28 	ldmdbmi	r6, {r3, r5, r9, sl, fp, lr}^
    23c8:	43495f43 	movtmi	r5, #40771	; 0x9f43
    23cc:	20315245 	eorscs	r5, r1, r5, asr #4
    23d0:	28203d7c 	stmdacs	r0!, {r2, r3, r4, r5, r6, r8, sl, fp, ip, sp}
    23d4:	383c3c31 	ldmdacc	ip!, {r0, r4, r5, sl, fp, ip, sp}
    23d8:	5f002929 	svcpl	0x00002929
    23dc:	4843414d 	stmdami	r3, {r0, r2, r3, r6, r8, lr}^
    23e0:	4c445453 	cfstrdmi	mvd5, [r4], {83}	; 0x53
    23e4:	485f4249 	ldmdami	pc, {r0, r3, r6, r9, lr}^	; <UNPREDICTABLE>
    23e8:	5f00205f 	svcpl	0x0000205f
    23ec:	70736e75 	rsbsvc	r6, r3, r5, ror lr
    23f0:	66696365 	strbtvs	r6, [r9], -r5, ror #6
    23f4:	5f646569 	svcpl	0x00646569
    23f8:	61636f6c 	cmnvs	r3, ip, ror #30
    23fc:	695f656c 	ldmdbvs	pc, {r2, r3, r5, r6, r8, sl, sp, lr}^	; <UNPREDICTABLE>
    2400:	006f666e 	rsbeq	r6, pc, lr, ror #12
    2404:	656e5f5f 	strbvs	r5, [lr, #-3935]!	; 0xfffff0a1
    2408:	775f6465 	ldrbvc	r6, [pc, -r5, ror #8]
    240c:	5f746e69 	svcpl	0x00746e69
    2410:	5f5f0074 	svcpl	0x005f0074
    2414:	5f6d7973 	svcpl	0x006d7973
    2418:	61666564 	cmnvs	r6, r4, ror #10
    241c:	28746c75 	ldmdacs	r4!, {r0, r2, r4, r5, r6, sl, fp, sp, lr}^
    2420:	2c6d7973 			; <UNDEFINED> instruction: 0x2c6d7973
    2424:	6c706d69 	ldclvs	13, cr6, [r0], #-420	; 0xfffffe5c
    2428:	7265762c 	rsbvc	r7, r5, #44, 12	; 0x2c00000
    242c:	20296469 	eorcs	r6, r9, r9, ror #8
    2430:	73615f5f 	cmnvc	r1, #380	; 0x17c
    2434:	285f5f6d 	ldmdacs	pc, {r0, r2, r3, r5, r6, r8, r9, sl, fp, ip, lr}^	; <UNPREDICTABLE>
    2438:	79732e22 	ldmdbvc	r3!, {r1, r5, r9, sl, fp, sp}^
    243c:	7265766d 	rsbvc	r7, r5, #114294784	; 0x6d00000
    2440:	23202220 			; <UNDEFINED> instruction: 0x23202220
    2444:	6c706d69 	ldclvs	13, cr6, [r0], #-420	; 0xfffffe5c
    2448:	202c2220 	eorcs	r2, ip, r0, lsr #4
    244c:	73232022 			; <UNDEFINED> instruction: 0x73232022
    2450:	22206d79 	eorcs	r6, r0, #7744	; 0x1e40
    2454:	20224040 	eorcs	r4, r2, r0, asr #32
    2458:	72657623 	rsbvc	r7, r5, #36700160	; 0x2300000
    245c:	00296469 	eoreq	r6, r9, r9, ror #8
    2460:	5f544e49 	svcpl	0x00544e49
    2464:	54534146 	ldrbpl	r4, [r3], #-326	; 0xfffffeba
    2468:	414d5f38 	cmpmi	sp, r8, lsr pc
    246c:	5f282058 	svcpl	0x00282058
    2470:	544e495f 	strbpl	r4, [lr], #-2399	; 0xfffff6a1
    2474:	5341465f 	movtpl	r4, #5727	; 0x165f
    2478:	4d5f3854 	ldclmi	8, cr3, [pc, #-336]	; 2330 <_Min_Stack_Size+0x1f30>
    247c:	5f5f5841 	svcpl	0x005f5841
    2480:	5f5f0029 	svcpl	0x005f0029
    2484:	544e4955 	strbpl	r4, [lr], #-2389	; 0xfffff6ab
    2488:	4d5f3631 	ldclmi	6, cr3, [pc, #-196]	; 23cc <_Min_Stack_Size+0x1fcc>
    248c:	5f5f5841 	svcpl	0x005f5841
    2490:	66783020 	ldrbtvs	r3, [r8], -r0, lsr #32
    2494:	00666666 	rsbeq	r6, r6, r6, ror #12
    2498:	51545f5f 	cmppl	r4, pc, asr pc
    249c:	4942465f 	stmdbmi	r2, {r0, r1, r2, r3, r4, r6, r9, sl, lr}^
    24a0:	205f5f54 	subscs	r5, pc, r4, asr pc	; <UNPREDICTABLE>
    24a4:	00373231 	eorseq	r3, r7, r1, lsr r2
    24a8:	4f494641 	svcmi	0x00494641
    24ac:	41282820 			; <UNDEFINED> instruction: 0x41282820
    24b0:	5f4f4946 	svcpl	0x004f4946
    24b4:	65707954 	ldrbvs	r7, [r0, #-2388]!	; 0xfffff6ac
    24b8:	20666564 	rsbcs	r6, r6, r4, ror #10
    24bc:	4641292a 	strbmi	r2, [r1], -sl, lsr #18
    24c0:	425f4f49 	subsmi	r4, pc, #292	; 0x124
    24c4:	29455341 	stmdbcs	r5, {r0, r6, r8, r9, ip, lr}^
    24c8:	445f5f00 	ldrbmi	r5, [pc], #-3840	; 24d0 <_Min_Stack_Size+0x20d0>
    24cc:	32314345 	eorscc	r4, r1, #335544321	; 0x14000001
    24d0:	55535f38 	ldrbpl	r5, [r3, #-3896]	; 0xfffff0c8
    24d4:	524f4e42 	subpl	r4, pc, #1056	; 0x420
    24d8:	5f4c414d 	svcpl	0x004c414d
    24dc:	5f4e494d 	svcpl	0x004e494d
    24e0:	2e30205f 	mrccs	0, 1, r2, cr0, cr15, {2}
    24e4:	30303030 	eorscc	r3, r0, r0, lsr r0
    24e8:	30303030 	eorscc	r3, r0, r0, lsr r0
    24ec:	30303030 	eorscc	r3, r0, r0, lsr r0
    24f0:	30303030 	eorscc	r3, r0, r0, lsr r0
    24f4:	30303030 	eorscc	r3, r0, r0, lsr r0
    24f8:	30303030 	eorscc	r3, r0, r0, lsr r0
    24fc:	30303030 	eorscc	r3, r0, r0, lsr r0
    2500:	30303030 	eorscc	r3, r0, r0, lsr r0
    2504:	362d4531 			; <UNDEFINED> instruction: 0x362d4531
    2508:	44333431 	ldrtmi	r3, [r3], #-1073	; 0xfffffbcf
    250c:	485f004c 	ldmdami	pc, {r2, r3, r6}^	; <UNPREDICTABLE>
    2510:	5f455641 	svcpl	0x00455641
    2514:	474e4f4c 	strbmi	r4, [lr, -ip, asr #30]
    2518:	554f445f 	strbpl	r4, [pc, #-1119]	; 20c1 <_Min_Stack_Size+0x1cc1>
    251c:	20454c42 	subcs	r4, r5, r2, asr #24
    2520:	5f5f0031 	svcpl	0x005f0031
    2524:	5f746e69 	svcpl	0x00746e69
    2528:	74736166 	ldrbtvc	r6, [r3], #-358	; 0xfffffe9a
    252c:	745f3436 	ldrbvc	r3, [pc], #-1078	; 2534 <_Min_Stack_Size+0x2134>
    2530:	6665645f 			; <UNDEFINED> instruction: 0x6665645f
    2534:	64656e69 	strbtvs	r6, [r5], #-3689	; 0xfffff197
    2538:	5f003120 	svcpl	0x00003120
    253c:	4e454552 	mcrmi	5, 2, r4, cr5, cr2, {2}
    2540:	424d5f54 	submi	r5, sp, #84, 30	; 0x150
    2544:	574f5452 	smlsldpl	r5, pc, r2, r4	; <UNPREDICTABLE>
    2548:	54535f43 	ldrbpl	r5, [r3], #-3907	; 0xfffff0bd
    254c:	28455441 	stmdacs	r5, {r0, r6, sl, ip, lr}^
    2550:	29727470 	ldmdbcs	r2!, {r4, r5, r6, sl, ip, sp, lr}^
    2554:	70282820 	eorvc	r2, r8, r0, lsr #16
    2558:	2d297274 	sfmcs	f7, 4, [r9, #-464]!	; 0xfffffe30
    255c:	696d5f3e 	stmdbvs	sp!, {r1, r2, r3, r4, r5, r8, r9, sl, fp, ip, lr}^
    2560:	3e2d6373 	mcrcc	3, 1, r6, cr13, cr3, {3}
    2564:	72626d5f 	rsbvc	r6, r2, #6080	; 0x17c0
    2568:	63776f74 	cmnvs	r7, #116, 30	; 0x1d0
    256c:	6174735f 	cmnvs	r4, pc, asr r3
    2570:	00296574 	eoreq	r6, r9, r4, ror r5
    2574:	4349564e 	movtmi	r5, #38478	; 0x964e
    2578:	5152495f 	cmppl	r2, pc, asr r9
    257c:	455f3031 	ldrbmi	r3, [pc, #-49]	; 2553 <_Min_Stack_Size+0x2153>
    2580:	34495458 	strbcc	r5, [r9], #-1112	; 0xfffffba8
    2584:	616e455f 	cmnvs	lr, pc, asr r5
    2588:	20656c62 	rsbcs	r6, r5, r2, ror #24
    258c:	49564e28 	ldmdbmi	r6, {r3, r5, r9, sl, fp, lr}^
    2590:	53495f43 	movtpl	r5, #40771	; 0x9f43
    2594:	20305245 	eorscs	r5, r0, r5, asr #4
    2598:	28203d7c 	stmdacs	r0!, {r2, r3, r4, r5, r6, r8, sl, fp, ip, sp}
    259c:	313c3c31 	teqcc	ip, r1, lsr ip
    25a0:	00292930 	eoreq	r2, r9, r0, lsr r9
    25a4:	4f495047 	svcmi	0x00495047
    25a8:	4550535f 	ldrbmi	r5, [r0, #-863]	; 0xfffffca1
    25ac:	355f4445 	ldrbcc	r4, [pc, #-1093]	; 216f <_Min_Stack_Size+0x1d6f>
    25b0:	5a484d30 	bpl	1215a78 <_Min_Stack_Size+0x1215678>
    25b4:	30783020 	rsbscc	r3, r8, r0, lsr #32
    25b8:	30303030 	eorscc	r3, r0, r0, lsr r0
    25bc:	75333030 	ldrvc	r3, [r3, #-48]!	; 0xffffffd0
    25c0:	535f5f00 	cmppl	pc, #0, 30
    25c4:	4f455a49 	svcmi	0x00455a49
    25c8:	48535f46 	ldmdami	r3, {r1, r2, r6, r8, r9, sl, fp, ip, lr}^
    25cc:	5f54524f 	svcpl	0x0054524f
    25d0:	0032205f 	eorseq	r2, r2, pc, asr r0
    25d4:	4c555f5f 	mrrcmi	15, 5, r5, r5, cr15	; <UNPREDICTABLE>
    25d8:	4343414c 	movtmi	r4, #12620	; 0x314c
    25dc:	465f4d55 			; <UNDEFINED> instruction: 0x465f4d55
    25e0:	5f544942 	svcpl	0x00544942
    25e4:	3233205f 	eorscc	r2, r3, #95	; 0x5f
    25e8:	445f5f00 	ldrbmi	r5, [pc], #-3840	; 25f0 <_Min_Stack_Size+0x21f0>
    25ec:	4e4f4345 	cdpmi	3, 4, cr4, cr15, cr5, {2}
    25f0:	74285453 	strtvc	r5, [r8], #-1107	; 0xfffffbad
    25f4:	2c657079 	stclcs	0, cr7, [r5], #-484	; 0xfffffe1c
    25f8:	29726176 	ldmdbcs	r2!, {r1, r2, r4, r5, r6, r8, sp, lr}^
    25fc:	74282820 	strtvc	r2, [r8], #-2080	; 0xfffff7e0
    2600:	29657079 	stmdbcs	r5!, {r0, r3, r4, r5, r6, ip, sp, lr}^
    2604:	755f5f28 	ldrbvc	r5, [pc, #-3880]	; 16e4 <_Min_Stack_Size+0x12e4>
    2608:	70746e69 	rsbsvc	r6, r4, r9, ror #28
    260c:	745f7274 	ldrbvc	r7, [pc], #-628	; 2614 <_Min_Stack_Size+0x2214>
    2610:	6f632829 	svcvs	0x00632829
    2614:	2074736e 	rsbscs	r7, r4, lr, ror #6
    2618:	64696f76 	strbtvs	r6, [r9], #-3958	; 0xfffff08a
    261c:	28292a20 	stmdacs	r9!, {r5, r9, fp, sp}
    2620:	29726176 	ldmdbcs	r2!, {r1, r2, r4, r5, r6, r8, sp, lr}^
    2624:	535f0029 	cmppl	pc, #41	; 0x29
    2628:	465f5359 			; <UNDEFINED> instruction: 0x465f5359
    262c:	55544145 	ldrbpl	r4, [r4, #-325]	; 0xfffffebb
    2630:	5f534552 	svcpl	0x00534552
    2634:	55002048 	strpl	r2, [r0, #-72]	; 0xffffffb8
    2638:	5f544e49 	svcpl	0x00544e49
    263c:	5341454c 	movtpl	r4, #5452	; 0x154c
    2640:	5f343654 	svcpl	0x00343654
    2644:	2058414d 	subscs	r4, r8, sp, asr #2
    2648:	555f5f28 	ldrbpl	r5, [pc, #-3880]	; 1728 <_Min_Stack_Size+0x1328>
    264c:	5f544e49 	svcpl	0x00544e49
    2650:	5341454c 	movtpl	r4, #5452	; 0x154c
    2654:	5f343654 	svcpl	0x00343654
    2658:	5f58414d 	svcpl	0x0058414d
    265c:	5f00295f 	svcpl	0x0000295f
    2660:	00636e69 	rsbeq	r6, r3, r9, ror #28
    2664:	646e695f 	strbtvs	r6, [lr], #-2399	; 0xfffff6a1
    2668:	49504700 	ldmdbmi	r0, {r8, r9, sl, lr}^
    266c:	49505f4f 	ldmdbmi	r0, {r0, r1, r2, r3, r6, r8, r9, sl, fp, ip, lr}^
    2670:	20335f4e 	eorscs	r5, r3, lr, asr #30
    2674:	69752828 	ldmdbvs	r5!, {r3, r5, fp, sp}^
    2678:	3631746e 	ldrtcc	r7, [r1], -lr, ror #8
    267c:	3029745f 	eorcc	r7, r9, pc, asr r4
    2680:	30303078 	eorscc	r3, r0, r8, ror r0
    2684:	5f002938 	svcpl	0x00002938
    2688:	5a49535f 	bpl	125740c <_Min_Stack_Size+0x125700c>
    268c:	5f464f45 	svcpl	0x00464f45
    2690:	474e4f4c 	strbmi	r4, [lr, -ip, asr #30]
    2694:	554f445f 	strbpl	r4, [pc, #-1119]	; 223d <_Min_Stack_Size+0x1e3d>
    2698:	5f454c42 	svcpl	0x00454c42
    269c:	0038205f 	eorseq	r2, r8, pc, asr r0
    26a0:	49545845 	ldmdbmi	r4, {r0, r2, r6, fp, ip, lr}^
    26a4:	32415032 	subcc	r5, r1, #50	; 0x32
    26a8:	58452820 	stmdapl	r5, {r5, fp, sp}^
    26ac:	475f4954 			; <UNDEFINED> instruction: 0x475f4954
    26b0:	5f4f4950 	svcpl	0x004f4950
    26b4:	6970614d 	ldmdbvs	r0!, {r0, r2, r3, r6, r8, sp, lr}^
    26b8:	745f676e 	ldrbvc	r6, [pc], #-1902	; 26c0 <_Min_Stack_Size+0x22c0>
    26bc:	58457b29 	stmdapl	r5, {r0, r3, r5, r8, r9, fp, ip, sp, lr}^
    26c0:	2c324954 			; <UNDEFINED> instruction: 0x2c324954
    26c4:	4f495047 	svcmi	0x00495047
    26c8:	50472c41 	subpl	r2, r7, r1, asr #24
    26cc:	505f4f49 	subspl	r4, pc, r9, asr #30
    26d0:	325f4e49 	subscc	r4, pc, #1168	; 0x490
    26d4:	5458452c 	ldrbpl	r4, [r8], #-1324	; 0xfffffad4
    26d8:	495f3249 	ldmdbmi	pc, {r0, r3, r6, r9, ip, sp}^	; <UNPREDICTABLE>
    26dc:	007d5152 	rsbseq	r5, sp, r2, asr r1
    26e0:	52505f5f 	subspl	r5, r0, #380	; 0x17c
    26e4:	414d4741 	cmpmi	sp, r1, asr #14
    26e8:	4445525f 	strbmi	r5, [r5], #-607	; 0xfffffda1
    26ec:	4e494645 	cdpmi	6, 4, cr4, cr9, cr5, {2}
    26f0:	58455f45 	stmdapl	r5, {r0, r2, r6, r8, r9, sl, fp, ip, lr}^
    26f4:	4d414e54 	stclmi	14, cr4, [r1, #-336]	; 0xfffffeb0
    26f8:	00312045 	eorseq	r2, r1, r5, asr #32
    26fc:	43575f5f 	cmpmi	r7, #380	; 0x17c
    2700:	5f524148 	svcpl	0x00524148
    2704:	45505954 	ldrbmi	r5, [r0, #-2388]	; 0xfffff6ac
    2708:	75205f5f 	strvc	r5, [r0, #-3935]!	; 0xfffff0a1
    270c:	6769736e 	strbvs	r7, [r9, -lr, ror #6]!
    2710:	2064656e 	rsbcs	r6, r4, lr, ror #10
    2714:	00746e69 	rsbseq	r6, r4, r9, ror #28
    2718:	4545525f 	strbmi	r5, [r5, #-607]	; 0xfffffda1
    271c:	535f544e 	cmppl	pc, #1308622848	; 0x4e000000
    2720:	474e4749 	strbmi	r4, [lr, -r9, asr #14]
    2724:	70284d41 	eorvc	r4, r8, r1, asr #26
    2728:	20297274 	eorcs	r7, r9, r4, ror r2
    272c:	74702828 	ldrbtvc	r2, [r0], #-2088	; 0xfffff7d8
    2730:	3e2d2972 			; <UNDEFINED> instruction: 0x3e2d2972
    2734:	6d61675f 	stclvs	7, cr6, [r1, #-380]!	; 0xfffffe84
    2738:	735f616d 	cmpvc	pc, #1073741851	; 0x4000001b
    273c:	676e6769 	strbvs	r6, [lr, -r9, ror #14]!
    2740:	00296d61 	eoreq	r6, r9, r1, ror #26
    2744:	49545845 	ldmdbmi	r4, {r0, r2, r6, fp, ip, lr}^
    2748:	42503131 	subsmi	r3, r0, #1073741836	; 0x4000000c
    274c:	28203131 	stmdacs	r0!, {r0, r4, r5, r8, ip, sp}
    2750:	49545845 	ldmdbmi	r4, {r0, r2, r6, fp, ip, lr}^
    2754:	4950475f 	ldmdbmi	r0, {r0, r1, r2, r3, r4, r6, r8, r9, sl, lr}^
    2758:	614d5f4f 	cmpvs	sp, pc, asr #30
    275c:	676e6970 			; <UNDEFINED> instruction: 0x676e6970
    2760:	7b29745f 	blvc	a5f8e4 <_Min_Stack_Size+0xa5f4e4>
    2764:	49545845 	ldmdbmi	r4, {r0, r2, r6, fp, ip, lr}^
    2768:	472c3131 			; <UNDEFINED> instruction: 0x472c3131
    276c:	424f4950 	submi	r4, pc, #80, 18	; 0x140000
    2770:	4950472c 	ldmdbmi	r0, {r2, r3, r5, r8, r9, sl, lr}^
    2774:	49505f4f 	ldmdbmi	r0, {r0, r1, r2, r3, r6, r8, r9, sl, fp, ip, lr}^
    2778:	31315f4e 	teqcc	r1, lr, asr #30
    277c:	5458452c 	ldrbpl	r4, [r8], #-1324	; 0xfffffad4
    2780:	5f313149 	svcpl	0x00313149
    2784:	7d515249 	lfmvc	f5, 2, [r1, #-292]	; 0xfffffedc
    2788:	555f5f00 	ldrbpl	r5, [pc, #-3840]	; 1890 <_Min_Stack_Size+0x1490>
    278c:	495f4153 	ldmdbmi	pc, {r0, r1, r4, r6, r8, lr}^	; <UNPREDICTABLE>
    2790:	5f544942 	svcpl	0x00544942
    2794:	3631205f 			; <UNDEFINED> instruction: 0x3631205f
    2798:	54584500 	ldrbpl	r4, [r8], #-1280	; 0xfffffb00
    279c:	495f3149 	ldmdbmi	pc, {r0, r3, r6, r8, ip, sp}^	; <UNPREDICTABLE>
    27a0:	37205152 			; <UNDEFINED> instruction: 0x37205152
    27a4:	475f5f00 	ldrbmi	r5, [pc, -r0, lsl #30]
    27a8:	485f4343 	ldmdami	pc, {r0, r1, r6, r8, r9, lr}^	; <UNPREDICTABLE>
    27ac:	5f455641 	svcpl	0x00455641
    27b0:	434e5953 	movtmi	r5, #59731	; 0xe953
    27b4:	4d4f435f 	stclmi	3, cr4, [pc, #-380]	; 2640 <_Min_Stack_Size+0x2240>
    27b8:	45524150 	ldrbmi	r4, [r2, #-336]	; 0xfffffeb0
    27bc:	444e415f 	strbmi	r4, [lr], #-351	; 0xfffffea1
    27c0:	4157535f 	cmpmi	r7, pc, asr r3
    27c4:	20325f50 	eorscs	r5, r2, r0, asr pc
    27c8:	4e490031 	mcrmi	0, 2, r0, cr9, cr1, {1}
    27cc:	58414d54 	stmdapl	r1, {r2, r4, r6, r8, sl, fp, lr}^
    27d0:	7828435f 	stmdavc	r8!, {r0, r1, r2, r3, r4, r6, r8, r9, lr}
    27d4:	5f5f2029 	svcpl	0x005f2029
    27d8:	4d544e49 	ldclmi	14, cr4, [r4, #-292]	; 0xfffffedc
    27dc:	435f5841 	cmpmi	pc, #4259840	; 0x410000
    27e0:	00297828 	eoreq	r7, r9, r8, lsr #16
    27e4:	656e5f5f 	strbvs	r5, [lr, #-3935]!	; 0xfffff0a1
    27e8:	775f6465 	ldrbvc	r6, [pc, -r5, ror #8]
    27ec:	72616863 	rsbvc	r6, r1, #6488064	; 0x630000
    27f0:	0020745f 	eoreq	r7, r0, pc, asr r4
    27f4:	69685f5f 	stmdbvs	r8!, {r0, r1, r2, r3, r4, r6, r8, r9, sl, fp, ip, lr}^
    27f8:	6e656464 	cdpvs	4, 6, cr6, cr5, cr4, {3}
    27fc:	615f5f20 	cmpvs	pc, r0, lsr #30
    2800:	69727474 	ldmdbvs	r2!, {r2, r4, r5, r6, sl, ip, sp, lr}^
    2804:	65747562 	ldrbvs	r7, [r4, #-1378]!	; 0xfffffa9e
    2808:	28285f5f 	stmdacs	r8!, {r0, r1, r2, r3, r4, r6, r8, r9, sl, fp, ip, lr}
    280c:	69765f5f 	ldmdbvs	r6!, {r0, r1, r2, r3, r4, r6, r8, r9, sl, fp, ip, lr}^
    2810:	69626973 	stmdbvs	r2!, {r0, r1, r4, r5, r6, r8, fp, sp, lr}^
    2814:	7974696c 	ldmdbvc	r4!, {r2, r3, r5, r6, r8, fp, sp, lr}^
    2818:	22285f5f 	eorcs	r5, r8, #380	; 0x17c
    281c:	64646968 	strbtvs	r6, [r4], #-2408	; 0xfffff698
    2820:	29226e65 	stmdbcs	r2!, {r0, r2, r5, r6, r9, sl, fp, sp, lr}
    2824:	49002929 	stmdbmi	r0, {r0, r3, r5, r8, fp, sp}
    2828:	4c5f544e 	cfldrdmi	mvd5, [pc], {78}	; 0x4e
    282c:	54534145 	ldrbpl	r4, [r3], #-325	; 0xfffffebb
    2830:	4d5f3233 	lfmmi	f3, 2, [pc, #-204]	; 276c <_Min_Stack_Size+0x236c>
    2834:	28205841 	stmdacs	r0!, {r0, r6, fp, ip, lr}
    2838:	4e495f5f 	mcrmi	15, 2, r5, cr9, cr15, {2}
    283c:	454c5f54 	strbmi	r5, [ip, #-3924]	; 0xfffff0ac
    2840:	33545341 	cmpcc	r4, #67108865	; 0x4000001
    2844:	414d5f32 	cmpmi	sp, r2, lsr pc
    2848:	295f5f58 	ldmdbcs	pc, {r3, r4, r6, r8, r9, sl, fp, ip, lr}^	; <UNPREDICTABLE>
    284c:	6e665f00 	cdpvs	15, 6, cr5, cr6, cr0, {0}
    2850:	5f5f0073 	svcpl	0x005f0073
    2854:	41524653 	cmpmi	r2, r3, asr r6
    2858:	4d5f5443 	cfldrdmi	mvd5, [pc, #-268]	; 2754 <_Min_Stack_Size+0x2354>
    285c:	5f5f5841 	svcpl	0x005f5841
    2860:	37583020 	ldrbcc	r3, [r8, -r0, lsr #32]
    2864:	372d5046 	strcc	r5, [sp, -r6, asr #32]!
    2868:	5f005248 	svcpl	0x00005248
    286c:	4e49555f 	mcrmi	5, 2, r5, cr9, cr15, {2}
    2870:	41465f54 	cmpmi	r6, r4, asr pc
    2874:	34365453 	ldrtcc	r5, [r6], #-1107	; 0xfffffbad
    2878:	5059545f 	subspl	r5, r9, pc, asr r4
    287c:	205f5f45 	subscs	r5, pc, r5, asr #30
    2880:	676e6f6c 	strbvs	r6, [lr, -ip, ror #30]!
    2884:	6e6f6c20 	cdpvs	12, 6, cr6, cr15, cr0, {1}
    2888:	6e752067 	cdpvs	0, 7, cr2, cr5, cr7, {3}
    288c:	6e676973 			; <UNDEFINED> instruction: 0x6e676973
    2890:	69206465 	stmdbvs	r0!, {r0, r2, r5, r6, sl, sp, lr}
    2894:	5400746e 	strpl	r7, [r0], #-1134	; 0xfffffb92
    2898:	416b7361 	cmnmi	fp, r1, ror #6
    289c:	73615400 	cmnvc	r1, #0, 8
    28a0:	5f00426b 	svcpl	0x0000426b
    28a4:	534d5f53 	movtpl	r5, #57171	; 0xdf53
    28a8:	575f0050 			; <UNDEFINED> instruction: 0x575f0050
    28ac:	5f544e49 	svcpl	0x00544e49
    28b0:	49002054 	stmdbmi	r0, {r2, r4, r6, sp}
    28b4:	4c5f544e 	cfldrdmi	mvd5, [pc], {78}	; 0x4e
    28b8:	54534145 	ldrbpl	r4, [r3], #-325	; 0xfffffebb
    28bc:	414d5f38 	cmpmi	sp, r8, lsr pc
    28c0:	5f282058 	svcpl	0x00282058
    28c4:	544e495f 	strbpl	r4, [lr], #-2399	; 0xfffff6a1
    28c8:	41454c5f 	cmpmi	r5, pc, asr ip
    28cc:	5f385453 	svcpl	0x00385453
    28d0:	5f58414d 	svcpl	0x0058414d
    28d4:	5f00295f 	svcpl	0x0000295f
    28d8:	636f6c5f 	cmnvs	pc, #24320	; 0x5f00
    28dc:	6c635f6b 	stclvs	15, cr5, [r3], #-428	; 0xfffffe54
    28e0:	2865736f 	stmdacs	r5!, {r0, r1, r2, r3, r5, r6, r8, r9, ip, sp, lr}^
    28e4:	6b636f6c 	blvs	18de69c <_Min_Stack_Size+0x18de29c>
    28e8:	28282029 	stmdacs	r8!, {r0, r3, r5, sp}
    28ec:	64696f76 	strbtvs	r6, [r9], #-3958	; 0xfffff08a
    28f0:	29302029 	ldmdbcs	r0!, {r0, r3, r5, sp}
    28f4:	465f5f00 	ldrbmi	r5, [pc], -r0, lsl #30
    28f8:	4d5f544c 	cfldrdmi	mvd5, [pc, #-304]	; 27d0 <_Min_Stack_Size+0x23d0>
    28fc:	5f5f4e49 	svcpl	0x005f4e49
    2900:	312e3120 			; <UNDEFINED> instruction: 0x312e3120
    2904:	39343537 	ldmdbcc	r4!, {r0, r1, r2, r4, r5, r8, sl, ip, sp}
    2908:	30353334 	eorscc	r3, r5, r4, lsr r3
    290c:	32323238 	eorscc	r3, r2, #56, 4	; 0x80000003
    2910:	65353738 	ldrvs	r3, [r5, #-1848]!	; 0xfffff8c8
    2914:	4638332d 	ldrtmi	r3, [r8], -sp, lsr #6
    2918:	6e5f5f00 	cdpvs	15, 5, cr5, cr15, cr0, {0}
    291c:	5f646565 	svcpl	0x00646565
    2920:	657a6973 	ldrbvs	r6, [sl, #-2419]!	; 0xfffff68d
    2924:	0020745f 	eoreq	r7, r0, pc, asr r4
    2928:	41485f5f 	cmpmi	r8, pc, asr pc
    292c:	4942465f 	stmdbmi	r2, {r0, r1, r2, r3, r4, r6, r9, sl, lr}^
    2930:	205f5f54 	subscs	r5, pc, r4, asr pc	; <UNPREDICTABLE>
    2934:	525f0037 	subspl	r0, pc, #55	; 0x37
    2938:	544e4545 	strbpl	r4, [lr], #-1349	; 0xfffffabb
    293c:	4c424d5f 	mcrrmi	13, 5, r4, r2, cr15
    2940:	535f4e45 	cmppl	pc, #1104	; 0x450
    2944:	45544154 	ldrbmi	r4, [r4, #-340]	; 0xfffffeac
    2948:	72747028 	rsbsvc	r7, r4, #40	; 0x28
    294c:	28282029 	stmdacs	r8!, {r0, r3, r5, sp}
    2950:	29727470 	ldmdbcs	r2!, {r4, r5, r6, sl, ip, sp, lr}^
    2954:	6d5f3e2d 	ldclvs	14, cr3, [pc, #-180]	; 28a8 <_Min_Stack_Size+0x24a8>
    2958:	2d637369 	stclcs	3, cr7, [r3, #-420]!	; 0xfffffe5c
    295c:	626d5f3e 	rsbvs	r5, sp, #62, 30	; 0xf8
    2960:	5f6e656c 	svcpl	0x006e656c
    2964:	74617473 	strbtvc	r7, [r1], #-1139	; 0xfffffb8d
    2968:	5f002965 	svcpl	0x00002965
    296c:	5246555f 	subpl	r5, r6, #398458880	; 0x17c00000
    2970:	5f544341 	svcpl	0x00544341
    2974:	5f4e494d 	svcpl	0x004e494d
    2978:	2e30205f 	mrccs	0, 1, r2, cr0, cr15, {2}
    297c:	00525530 	subseq	r5, r2, r0, lsr r5
    2980:	5f474953 	svcpl	0x00474953
    2984:	4d4f5441 	cfstrdmi	mvd5, [pc, #-260]	; 2888 <_Min_Stack_Size+0x2488>
    2988:	4d5f4349 	ldclmi	3, cr4, [pc, #-292]	; 286c <_Min_Stack_Size+0x246c>
    298c:	28205841 	stmdacs	r0!, {r0, r6, fp, ip, lr}
    2990:	54535f5f 	ldrbpl	r5, [r3], #-3935	; 0xfffff0a1
    2994:	544e4944 	strbpl	r4, [lr], #-2372	; 0xfffff6bc
    2998:	5058455f 	subspl	r4, r8, pc, asr r5
    299c:	544e4928 	strbpl	r4, [lr], #-2344	; 0xfffff6d8
    29a0:	58414d5f 	stmdapl	r1, {r0, r1, r2, r3, r4, r6, r8, sl, fp, lr}^
    29a4:	5f002929 	svcpl	0x00002929
    29a8:	696f6e5f 	stmdbvs	pc!, {r0, r1, r2, r3, r4, r6, r9, sl, fp, sp, lr}^	; <UNPREDICTABLE>
    29ac:	6e696c6e 	cdpvs	12, 6, cr6, cr9, cr14, {3}
    29b0:	5f5f2065 	svcpl	0x005f2065
    29b4:	72747461 	rsbsvc	r7, r4, #1627389952	; 0x61000000
    29b8:	74756269 	ldrbtvc	r6, [r5], #-617	; 0xfffffd97
    29bc:	205f5f65 	subscs	r5, pc, r5, ror #30
    29c0:	5f5f2828 	svcpl	0x005f2828
    29c4:	6e696f6e 	cdpvs	15, 6, cr6, cr9, cr14, {3}
    29c8:	656e696c 	strbvs	r6, [lr, #-2412]!	; 0xfffff694
    29cc:	29295f5f 	stmdbcs	r9!, {r0, r1, r2, r3, r4, r6, r8, r9, sl, fp, ip, lr}
    29d0:	49504700 	ldmdbmi	r0, {r8, r9, sl, lr}^
    29d4:	49505f4f 	ldmdbmi	r0, {r0, r1, r2, r3, r6, r8, r9, sl, fp, ip, lr}^
    29d8:	414d5f4e 	cmpmi	sp, lr, asr #30
    29dc:	30204b53 	eorcc	r4, r0, r3, asr fp
    29e0:	30303078 	eorscc	r3, r0, r8, ror r0
    29e4:	46464630 			; <UNDEFINED> instruction: 0x46464630
    29e8:	55007546 	strpl	r7, [r0, #-1350]	; 0xfffffaba
    29ec:	36544e49 	ldrbcc	r4, [r4], -r9, asr #28
    29f0:	414d5f34 	cmpmi	sp, r4, lsr pc
    29f4:	5f282058 	svcpl	0x00282058
    29f8:	4e49555f 	mcrmi	5, 2, r5, cr9, cr15, {2}
    29fc:	5f343654 	svcpl	0x00343654
    2a00:	5f58414d 	svcpl	0x0058414d
    2a04:	5f00295f 	svcpl	0x0000295f
    2a08:	4345445f 	movtmi	r4, #21599	; 0x545f
    2a0c:	4d5f3233 	lfmmi	f3, 2, [pc, #-204]	; 2948 <_Min_Stack_Size+0x2548>
    2a10:	455f4e49 	ldrbmi	r4, [pc, #-3657]	; 1bcf <_Min_Stack_Size+0x17cf>
    2a14:	5f5f5058 	svcpl	0x005f5058
    2a18:	392d2820 	pushcc	{r5, fp, sp}
    2a1c:	45002934 	strmi	r2, [r0, #-2356]	; 0xfffff6cc
    2a20:	31495458 	cmpcc	r9, r8, asr r4
    2a24:	52495f33 	subpl	r5, r9, #51, 30	; 0xcc
    2a28:	30342051 	eorscc	r2, r4, r1, asr r0
    2a2c:	555f5f00 	ldrbpl	r5, [pc, #-3840]	; 1b34 <_Min_Stack_Size+0x1734>
    2a30:	41524653 	cmpmi	r2, r3, asr r6
    2a34:	495f5443 	ldmdbmi	pc, {r0, r1, r6, sl, ip, lr}^	; <UNPREDICTABLE>
    2a38:	5f544942 	svcpl	0x00544942
    2a3c:	0030205f 	eorseq	r2, r0, pc, asr r0
    2a40:	4e495f5f 	mcrmi	15, 2, r5, cr9, cr15, {2}
    2a44:	5f323354 	svcpl	0x00323354
    2a48:	29632843 	stmdbcs	r3!, {r0, r1, r6, fp, sp}^
    2a4c:	23206320 			; <UNDEFINED> instruction: 0x23206320
    2a50:	004c2023 	subeq	r2, ip, r3, lsr #32
    2a54:	69755f5f 	ldmdbvs	r5!, {r0, r1, r2, r3, r4, r6, r8, r9, sl, fp, ip, lr}^
    2a58:	3631746e 	ldrtcc	r7, [r1], -lr, ror #8
    2a5c:	5400745f 	strpl	r7, [r0], #-1119	; 0xfffffba1
    2a60:	426b7361 	rsbmi	r7, fp, #-2080374783	; 0x84000001
    2a64:	616c465f 	cmnvs	ip, pc, asr r6
    2a68:	525f0067 	subspl	r0, pc, #103	; 0x67
    2a6c:	544e4545 	strbpl	r4, [lr], #-1349	; 0xfffffabb
    2a70:	4749535f 	smlsldmi	r5, r9, pc, r3	; <UNPREDICTABLE>
    2a74:	5f4c414e 	svcpl	0x004c414e
    2a78:	28465542 	stmdacs	r6, {r1, r6, r8, sl, ip, lr}^
    2a7c:	29727470 	ldmdbcs	r2!, {r4, r5, r6, sl, ip, sp, lr}^
    2a80:	70282820 	eorvc	r2, r8, r0, lsr #16
    2a84:	2d297274 	sfmcs	f7, 4, [r9, #-464]!	; 0xfffffe30
    2a88:	69735f3e 	ldmdbvs	r3!, {r1, r2, r3, r4, r5, r8, r9, sl, fp, ip, lr}^
    2a8c:	6c616e67 	stclvs	14, cr6, [r1], #-412	; 0xfffffe64
    2a90:	6675625f 			; <UNDEFINED> instruction: 0x6675625f
    2a94:	58450029 	stmdapl	r5, {r0, r3, r5}^
    2a98:	50324954 	eorspl	r4, r2, r4, asr r9
    2a9c:	28203243 	stmdacs	r0!, {r0, r1, r6, r9, ip, sp}
    2aa0:	49545845 	ldmdbmi	r4, {r0, r2, r6, fp, ip, lr}^
    2aa4:	4950475f 	ldmdbmi	r0, {r0, r1, r2, r3, r4, r6, r8, r9, sl, lr}^
    2aa8:	614d5f4f 	cmpvs	sp, pc, asr #30
    2aac:	676e6970 			; <UNDEFINED> instruction: 0x676e6970
    2ab0:	7b29745f 	blvc	a5fc34 <_Min_Stack_Size+0xa5f834>
    2ab4:	49545845 	ldmdbmi	r4, {r0, r2, r6, fp, ip, lr}^
    2ab8:	50472c32 	subpl	r2, r7, r2, lsr ip
    2abc:	2c434f49 	mcrrcs	15, 4, r4, r3, cr9
    2ac0:	4f495047 	svcmi	0x00495047
    2ac4:	4e49505f 	mcrmi	0, 2, r5, cr9, cr15, {2}
    2ac8:	452c325f 	strmi	r3, [ip, #-607]!	; 0xfffffda1
    2acc:	32495458 	subcc	r5, r9, #88, 8	; 0x58000000
    2ad0:	5152495f 	cmppl	r2, pc, asr r9
    2ad4:	5f5f007d 	svcpl	0x005f007d
    2ad8:	52465355 	subpl	r5, r6, #1409286145	; 0x54000001
    2adc:	5f544341 	svcpl	0x00544341
    2ae0:	5f4e494d 	svcpl	0x004e494d
    2ae4:	2e30205f 	mrccs	0, 1, r2, cr0, cr15, {2}
    2ae8:	52485530 	subpl	r5, r8, #48, 10	; 0xc000000
    2aec:	755f5f00 	ldrbvc	r5, [pc, #-3840]	; 1bf4 <_Min_Stack_Size+0x17f4>
    2af0:	20646573 	rsbcs	r6, r4, r3, ror r5
    2af4:	74615f5f 	strbtvc	r5, [r1], #-3935	; 0xfffff0a1
    2af8:	62697274 	rsbvs	r7, r9, #116, 4	; 0x40000007
    2afc:	5f657475 	svcpl	0x00657475
    2b00:	5f28285f 	svcpl	0x0028285f
    2b04:	6573755f 	ldrbvs	r7, [r3, #-1375]!	; 0xfffffaa1
    2b08:	295f5f64 	ldmdbcs	pc, {r2, r5, r6, r8, r9, sl, fp, ip, lr}^	; <UNPREDICTABLE>
    2b0c:	5f5f0029 	svcpl	0x005f0029
    2b10:	656e6567 	strbvs	r6, [lr, #-1383]!	; 0xfffffa99
    2b14:	28636972 	stmdacs	r3!, {r1, r4, r5, r6, r8, fp, sp, lr}^
    2b18:	72707865 	rsbsvc	r7, r0, #6619136	; 0x650000
    2b1c:	792c742c 	stmdbvc	ip!, {r2, r3, r5, sl, ip, sp, lr}
    2b20:	6e2c7365 	cdpvs	3, 2, cr7, cr12, cr5, {3}
    2b24:	5f20296f 	svcpl	0x0020296f
    2b28:	656e6547 	strbvs	r6, [lr, #-1351]!	; 0xfffffab9
    2b2c:	28636972 	stmdacs	r3!, {r1, r4, r5, r6, r8, fp, sp, lr}^
    2b30:	72707865 	rsbsvc	r7, r0, #6619136	; 0x650000
    2b34:	3a74202c 	bcc	1d0abec <_Min_Stack_Size+0x1d0a7ec>
    2b38:	73657920 	cmnvc	r5, #32, 18	; 0x80000
    2b3c:	6564202c 	strbvs	r2, [r4, #-44]!	; 0xffffffd4
    2b40:	6c756166 	ldfvse	f6, [r5], #-408	; 0xfffffe68
    2b44:	6e203a74 			; <UNDEFINED> instruction: 0x6e203a74
    2b48:	5f00296f 	svcpl	0x0000296f
    2b4c:	4d52415f 	ldfmie	f4, [r2, #-380]	; 0xfffffe84
    2b50:	4f454e5f 	svcmi	0x00454e5f
    2b54:	525f004e 	subspl	r0, pc, #78	; 0x4e
    2b58:	544e4545 	strbpl	r4, [lr], #-1349	; 0xfffffabb
    2b5c:	454d455f 	strbmi	r4, [sp, #-1375]	; 0xfffffaa1
    2b60:	4e454752 	mcrmi	7, 2, r4, cr5, cr2, {2}
    2b64:	70285943 	eorvc	r5, r8, r3, asr #18
    2b68:	20297274 	eorcs	r7, r9, r4, ror r2
    2b6c:	74702828 	ldrbtvc	r2, [r0], #-2088	; 0xfffff7d8
    2b70:	3e2d2972 			; <UNDEFINED> instruction: 0x3e2d2972
    2b74:	656d655f 	strbvs	r6, [sp, #-1375]!	; 0xfffffaa1
    2b78:	6e656772 	mcrvs	7, 3, r6, cr5, cr2, {3}
    2b7c:	00297963 	eoreq	r7, r9, r3, ror #18
    2b80:	4e475f5f 	mcrmi	15, 2, r5, cr7, cr15, {2}
    2b84:	494c4355 	stmdbmi	ip, {r0, r2, r4, r6, r8, r9, lr}^
    2b88:	435f454b 	cmpmi	pc, #314572800	; 0x12c00000
    2b8c:	5f524f54 	svcpl	0x00524f54
    2b90:	54434553 	strbpl	r4, [r3], #-1363	; 0xfffffaad
    2b94:	5f4e4f49 	svcpl	0x004e4f49
    2b98:	444e4148 	strbmi	r4, [lr], #-328	; 0xfffffeb8
    2b9c:	474e494c 	strbmi	r4, [lr, -ip, asr #18]
    2ba0:	5f003120 	svcpl	0x00003120
    2ba4:	4e49555f 	mcrmi	5, 2, r5, cr9, cr15, {2}
    2ba8:	4d5f3854 	ldclmi	8, cr3, [pc, #-336]	; 2a60 <_Min_Stack_Size+0x2660>
    2bac:	5f5f5841 	svcpl	0x005f5841
    2bb0:	66783020 	ldrbtvs	r3, [r8], -r0, lsr #32
    2bb4:	5f5f0066 	svcpl	0x005f0066
    2bb8:	746e695f 	strbtvc	r6, [lr], #-2399	; 0xfffff6a1
    2bbc:	745f3631 	ldrbvc	r3, [pc], #-1585	; 2bc4 <_Min_Stack_Size+0x27c4>
    2bc0:	6665645f 			; <UNDEFINED> instruction: 0x6665645f
    2bc4:	64656e69 	strbtvs	r6, [r5], #-3689	; 0xfffff197
    2bc8:	5f003120 	svcpl	0x00003120
    2bcc:	4e454552 	mcrmi	5, 2, r4, cr5, cr2, {2}
    2bd0:	695f2054 	ldmdbvs	pc, {r2, r4, r6, sp}^	; <UNPREDICTABLE>
    2bd4:	7275706d 	rsbsvc	r7, r5, #109	; 0x6d
    2bd8:	74705f65 	ldrbtvc	r5, [r0], #-3941	; 0xfffff09b
    2bdc:	5f5f0072 	svcpl	0x005f0072
    2be0:	4c42444c 	cfstrdmi	mvd4, [r2], {76}	; 0x4c
    2be4:	58414d5f 	stmdapl	r1, {r0, r1, r2, r3, r4, r6, r8, sl, fp, lr}^
    2be8:	5058455f 	subspl	r4, r8, pc, asr r5
    2bec:	31205f5f 			; <UNDEFINED> instruction: 0x31205f5f
    2bf0:	00343230 	eorseq	r3, r4, r0, lsr r2
    2bf4:	49545845 	ldmdbmi	r4, {r0, r2, r6, fp, ip, lr}^
    2bf8:	6e69505f 	mcrvs	0, 3, r5, cr9, cr15, {2}
    2bfc:	666e6f43 	strbtvs	r6, [lr], -r3, asr #30
    2c00:	745f6769 	ldrbvc	r6, [pc], #-1897	; 2c08 <_Min_Stack_Size+0x2808>
    2c04:	655f5f00 	ldrbvs	r5, [pc, #-3840]	; 1d0c <_Min_Stack_Size+0x190c>
    2c08:	726f7078 	rsbvc	r7, pc, #120	; 0x78
    2c0c:	20646574 	rsbcs	r6, r4, r4, ror r5
    2c10:	74615f5f 	strbtvc	r5, [r1], #-3935	; 0xfffff0a1
    2c14:	62697274 	rsbvs	r7, r9, #116, 4	; 0x40000007
    2c18:	5f657475 	svcpl	0x00657475
    2c1c:	5f28285f 	svcpl	0x0028285f
    2c20:	7369765f 	cmnvc	r9, #99614720	; 0x5f00000
    2c24:	6c696269 	sfmvs	f6, 2, [r9], #-420	; 0xfffffe5c
    2c28:	5f797469 	svcpl	0x00797469
    2c2c:	6422285f 	strtvs	r2, [r2], #-2143	; 0xfffff7a1
    2c30:	75616665 	strbvc	r6, [r1, #-1637]!	; 0xfffff99b
    2c34:	2922746c 	stmdbcs	r2!, {r2, r3, r5, r6, sl, ip, sp, lr}
    2c38:	5f002929 	svcpl	0x00002929
    2c3c:	4c42445f 	cfstrdmi	mvd4, [r2], {95}	; 0x5f
    2c40:	5341485f 	movtpl	r4, #6239	; 0x185f
    2c44:	4e45445f 	mcrmi	4, 2, r4, cr5, cr15, {2}
    2c48:	5f4d524f 	svcpl	0x004d524f
    2c4c:	0031205f 	eorseq	r2, r1, pc, asr r0
    2c50:	43435f5f 	movtmi	r5, #16223	; 0x3f5f
    2c54:	5055535f 	subspl	r5, r5, pc, asr r3
    2c58:	54524f50 	ldrbpl	r4, [r2], #-3920	; 0xfffff0b0
    2c5c:	5f5f5f53 	svcpl	0x005f5f53
    2c60:	494c4e49 	stmdbmi	ip, {r0, r3, r6, r9, sl, fp, lr}^
    2c64:	3120454e 			; <UNDEFINED> instruction: 0x3120454e
    2c68:	424d5f00 	submi	r5, sp, #0, 30
    2c6c:	4e454c5f 	mcrmi	12, 2, r4, cr5, cr15, {2}
    2c70:	58414d5f 	stmdapl	r1, {r0, r1, r2, r3, r4, r6, r8, sl, fp, lr}^
    2c74:	5f003120 	svcpl	0x00003120
    2c78:	626f696e 	rsbvs	r6, pc, #1802240	; 0x1b8000
    2c7c:	4e490073 	mcrmi	0, 2, r0, cr9, cr3, {3}
    2c80:	5f323354 	svcpl	0x00323354
    2c84:	2058414d 	subscs	r4, r8, sp, asr #2
    2c88:	495f5f28 	ldmdbmi	pc, {r3, r5, r8, r9, sl, fp, ip, lr}^	; <UNPREDICTABLE>
    2c8c:	3233544e 	eorscc	r5, r3, #1308622848	; 0x4e000000
    2c90:	58414d5f 	stmdapl	r1, {r0, r1, r2, r3, r4, r6, r8, sl, fp, lr}^
    2c94:	00295f5f 	eoreq	r5, r9, pc, asr pc
    2c98:	58475f5f 	stmdapl	r7, {r0, r1, r2, r3, r4, r6, r8, r9, sl, fp, ip, lr}^
    2c9c:	42415f58 	submi	r5, r1, #88, 30	; 0x160
    2ca0:	45565f49 	ldrbmi	r5, [r6, #-3913]	; 0xfffff0b7
    2ca4:	4f495352 	svcmi	0x00495352
    2ca8:	3031204e 	eorscc	r2, r1, lr, asr #32
    2cac:	5f003131 	svcpl	0x00003131
    2cb0:	5858475f 	ldmdapl	r8, {r0, r1, r2, r3, r4, r6, r8, r9, sl, lr}^
    2cb4:	5059545f 	subspl	r5, r9, pc, asr r4
    2cb8:	464e4945 	strbmi	r4, [lr], -r5, asr #18
    2cbc:	51455f4f 	cmppl	r5, pc, asr #30
    2cc0:	494c4155 	stmdbmi	ip, {r0, r2, r4, r6, r8, lr}^
    2cc4:	495f5954 	ldmdbmi	pc, {r2, r4, r6, r8, fp, ip, lr}^	; <UNPREDICTABLE>
    2cc8:	4e494c4e 	cdpmi	12, 4, cr4, cr9, cr14, {2}
    2ccc:	00302045 	eorseq	r2, r0, r5, asr #32
    2cd0:	4349564e 	movtmi	r5, #38478	; 0x964e
    2cd4:	5152495f 	cmppl	r2, pc, asr r9
    2cd8:	58455f37 	stmdapl	r5, {r0, r1, r2, r4, r5, r8, r9, sl, fp, ip, lr}^
    2cdc:	5f314954 	svcpl	0x00314954
    2ce0:	62616e45 	rsbvs	r6, r1, #1104	; 0x450
    2ce4:	2820656c 	stmdacs	r0!, {r2, r3, r5, r6, r8, sl, sp, lr}
    2ce8:	4349564e 	movtmi	r5, #38478	; 0x964e
    2cec:	4553495f 	ldrbmi	r4, [r3, #-2399]	; 0xfffff6a1
    2cf0:	7c203052 	stcvc	0, cr3, [r0], #-328	; 0xfffffeb8
    2cf4:	3128203d 			; <UNDEFINED> instruction: 0x3128203d
    2cf8:	29373c3c 	ldmdbcs	r7!, {r2, r3, r4, r5, sl, fp, ip, sp}
    2cfc:	5f5f0029 	svcpl	0x005f0029
    2d00:	5f544e49 	svcpl	0x00544e49
    2d04:	5341454c 	movtpl	r4, #5452	; 0x154c
    2d08:	5f363154 	svcpl	0x00363154
    2d0c:	5f58414d 	svcpl	0x0058414d
    2d10:	7830205f 	ldmdavc	r0!, {r0, r1, r2, r3, r4, r6, sp}
    2d14:	66666637 			; <UNDEFINED> instruction: 0x66666637
    2d18:	465f5f00 	ldrbmi	r5, [pc], -r0, lsl #30
    2d1c:	445f544c 	ldrbmi	r5, [pc], #-1100	; 2d24 <_Min_Stack_Size+0x2924>
    2d20:	524f4e45 	subpl	r4, pc, #1104	; 0x450
    2d24:	494d5f4d 	stmdbmi	sp, {r0, r2, r3, r6, r8, r9, sl, fp, ip, lr}^
    2d28:	205f5f4e 	subscs	r5, pc, lr, asr #30
    2d2c:	30342e31 	eorscc	r2, r4, r1, lsr lr
    2d30:	38393231 	ldmdacc	r9!, {r0, r4, r5, r9, ip, sp}
    2d34:	33343634 	teqcc	r4, #52, 12	; 0x3400000
    2d38:	31383432 	teqcc	r8, r2, lsr r4
    2d3c:	2d653137 	stfcse	f3, [r5, #-220]!	; 0xffffff24
    2d40:	00463534 	subeq	r3, r6, r4, lsr r5
    2d44:	444c5f5f 	strbmi	r5, [ip], #-3935	; 0xfffff0a1
    2d48:	4d5f4c42 	ldclmi	12, cr4, [pc, #-264]	; 2c48 <_Min_Stack_Size+0x2848>
    2d4c:	5f5f5841 	svcpl	0x005f5841
    2d50:	372e3120 	strcc	r3, [lr, -r0, lsr #2]!
    2d54:	39363739 	ldmdbcc	r6!, {r0, r3, r4, r5, r8, r9, sl, ip, sp}
    2d58:	34333133 	ldrtcc	r3, [r3], #-307	; 0xfffffecd
    2d5c:	33323638 	teqcc	r2, #56, 12	; 0x3800000
    2d60:	65373531 	ldrvs	r3, [r7, #-1329]!	; 0xfffffacf
    2d64:	3830332b 	ldmdacc	r0!, {r0, r1, r3, r5, r8, r9, ip, sp}
    2d68:	4955004c 	ldmdbmi	r5, {r2, r3, r6}^
    2d6c:	465f544e 	ldrbmi	r5, [pc], -lr, asr #8
    2d70:	31545341 	cmpcc	r4, r1, asr #6
    2d74:	414d5f36 	cmpmi	sp, r6, lsr pc
    2d78:	5f282058 	svcpl	0x00282058
    2d7c:	4e49555f 	mcrmi	5, 2, r5, cr9, cr15, {2}
    2d80:	41465f54 	cmpmi	r6, r4, asr pc
    2d84:	36315453 			; <UNDEFINED> instruction: 0x36315453
    2d88:	58414d5f 	stmdapl	r1, {r0, r1, r2, r3, r4, r6, r8, sl, fp, lr}^
    2d8c:	00295f5f 	eoreq	r5, r9, pc, asr pc
    2d90:	49545845 	ldmdbmi	r4, {r0, r2, r6, fp, ip, lr}^
    2d94:	42503431 	subsmi	r3, r0, #822083584	; 0x31000000
    2d98:	28203431 	stmdacs	r0!, {r0, r4, r5, sl, ip, sp}
    2d9c:	49545845 	ldmdbmi	r4, {r0, r2, r6, fp, ip, lr}^
    2da0:	4950475f 	ldmdbmi	r0, {r0, r1, r2, r3, r4, r6, r8, r9, sl, lr}^
    2da4:	614d5f4f 	cmpvs	sp, pc, asr #30
    2da8:	676e6970 			; <UNDEFINED> instruction: 0x676e6970
    2dac:	7b29745f 	blvc	a5ff30 <_Min_Stack_Size+0xa5fb30>
    2db0:	49545845 	ldmdbmi	r4, {r0, r2, r6, fp, ip, lr}^
    2db4:	472c3431 			; <UNDEFINED> instruction: 0x472c3431
    2db8:	424f4950 	submi	r4, pc, #80, 18	; 0x140000
    2dbc:	4950472c 	ldmdbmi	r0, {r2, r3, r5, r8, r9, sl, lr}^
    2dc0:	49505f4f 	ldmdbmi	r0, {r0, r1, r2, r3, r6, r8, r9, sl, fp, ip, lr}^
    2dc4:	34315f4e 	ldrtcc	r5, [r1], #-3918	; 0xfffff0b2
    2dc8:	5458452c 	ldrbpl	r4, [r8], #-1324	; 0xfffffad4
    2dcc:	5f343149 	svcpl	0x00343149
    2dd0:	7d515249 	lfmvc	f5, 2, [r1, #-292]	; 0xfffffedc
    2dd4:	6e6f5f00 	cdpvs	15, 6, cr5, cr15, cr0, {0}
    2dd8:	6978655f 	ldmdbvs	r8!, {r0, r1, r2, r3, r4, r6, r8, sl, sp, lr}^
    2ddc:	72615f74 	rsbvc	r5, r1, #116, 30	; 0x1d0
    2de0:	705f7367 	subsvc	r7, pc, r7, ror #6
    2de4:	45007274 	strmi	r7, [r0, #-628]	; 0xfffffd8c
    2de8:	30495458 	subcc	r5, r9, r8, asr r4
    2dec:	20304150 	eorscs	r4, r0, r0, asr r1
    2df0:	54584528 	ldrbpl	r4, [r8], #-1320	; 0xfffffad8
    2df4:	50475f49 	subpl	r5, r7, r9, asr #30
    2df8:	4d5f4f49 	ldclmi	15, cr4, [pc, #-292]	; 2cdc <_Min_Stack_Size+0x28dc>
    2dfc:	6e697061 	cdpvs	0, 6, cr7, cr9, cr1, {3}
    2e00:	29745f67 	ldmdbcs	r4!, {r0, r1, r2, r5, r6, r8, r9, sl, fp, ip, lr}^
    2e04:	5458457b 	ldrbpl	r4, [r8], #-1403	; 0xfffffa85
    2e08:	472c3049 	strmi	r3, [ip, -r9, asr #32]!
    2e0c:	414f4950 	cmpmi	pc, r0, asr r9	; <UNPREDICTABLE>
    2e10:	4950472c 	ldmdbmi	r0, {r2, r3, r5, r8, r9, sl, lr}^
    2e14:	49505f4f 	ldmdbmi	r0, {r0, r1, r2, r3, r6, r8, r9, sl, fp, ip, lr}^
    2e18:	2c305f4e 	ldccs	15, cr5, [r0], #-312	; 0xfffffec8
    2e1c:	49545845 	ldmdbmi	r4, {r0, r2, r6, fp, ip, lr}^
    2e20:	52495f30 	subpl	r5, r9, #48, 30	; 0xc0
    2e24:	5f007d51 	svcpl	0x00007d51
    2e28:	5f444e45 	svcpl	0x00444e45
    2e2c:	5f445453 	svcpl	0x00445453
    2e30:	5f002043 	svcpl	0x00002043
    2e34:	5248545f 	subpl	r5, r8, #1593835520	; 0x5f000000
    2e38:	0020574f 	eoreq	r5, r0, pc, asr #14
    2e3c:	61685f5f 	cmnvs	r8, pc, asr pc
    2e40:	6e695f73 	mcrvs	15, 3, r5, cr9, cr3, {3}
    2e44:	64756c63 	ldrbtvs	r6, [r5], #-3171	; 0xfffff39d
    2e48:	656e5f65 	strbvs	r5, [lr, #-3941]!	; 0xfffff09b
    2e4c:	53287478 			; <UNDEFINED> instruction: 0x53287478
    2e50:	20295254 	eorcs	r5, r9, r4, asr r2
    2e54:	61685f5f 	cmnvs	r8, pc, asr pc
    2e58:	6e695f73 	mcrvs	15, 3, r5, cr9, cr3, {3}
    2e5c:	64756c63 	ldrbtvs	r6, [r5], #-3171	; 0xfffff39d
    2e60:	656e5f65 	strbvs	r5, [lr, #-3941]!	; 0xfffff09b
    2e64:	5f5f7478 	svcpl	0x005f7478
    2e68:	52545328 	subspl	r5, r4, #40, 6	; 0xa0000000
    2e6c:	49550029 	ldmdbmi	r5, {r0, r3, r5}^
    2e70:	4c5f544e 	cfldrdmi	mvd5, [pc], {78}	; 0x4e
    2e74:	54534145 	ldrbpl	r4, [r3], #-325	; 0xfffffebb
    2e78:	4d5f3631 	ldclmi	6, cr3, [pc, #-196]	; 2dbc <_Min_Stack_Size+0x29bc>
    2e7c:	28205841 	stmdacs	r0!, {r0, r6, fp, ip, lr}
    2e80:	49555f5f 	ldmdbmi	r5, {r0, r1, r2, r3, r4, r6, r8, r9, sl, fp, ip, lr}^
    2e84:	4c5f544e 	cfldrdmi	mvd5, [pc], {78}	; 0x4e
    2e88:	54534145 	ldrbpl	r4, [r3], #-325	; 0xfffffebb
    2e8c:	4d5f3631 	ldclmi	6, cr3, [pc, #-196]	; 2dd0 <_Min_Stack_Size+0x29d0>
    2e90:	5f5f5841 	svcpl	0x005f5841
    2e94:	5f5f0029 	svcpl	0x005f0029
    2e98:	544e4955 	strbpl	r4, [lr], #-2389	; 0xfffff6ab
    2e9c:	435f3233 	cmpmi	pc, #805306371	; 0x30000003
    2ea0:	20296328 	eorcs	r6, r9, r8, lsr #6
    2ea4:	23232063 			; <UNDEFINED> instruction: 0x23232063
    2ea8:	004c5520 	subeq	r5, ip, r0, lsr #10
    2eac:	49545845 	ldmdbmi	r4, {r0, r2, r6, fp, ip, lr}^
    2eb0:	43503331 	cmpmi	r0, #-1006632960	; 0xc4000000
    2eb4:	28203331 	stmdacs	r0!, {r0, r4, r5, r8, r9, ip, sp}
    2eb8:	49545845 	ldmdbmi	r4, {r0, r2, r6, fp, ip, lr}^
    2ebc:	4950475f 	ldmdbmi	r0, {r0, r1, r2, r3, r4, r6, r8, r9, sl, lr}^
    2ec0:	614d5f4f 	cmpvs	sp, pc, asr #30
    2ec4:	676e6970 			; <UNDEFINED> instruction: 0x676e6970
    2ec8:	7b29745f 	blvc	a6004c <_Min_Stack_Size+0xa5fc4c>
    2ecc:	49545845 	ldmdbmi	r4, {r0, r2, r6, fp, ip, lr}^
    2ed0:	472c3331 			; <UNDEFINED> instruction: 0x472c3331
    2ed4:	434f4950 	movtmi	r4, #63824	; 0xf950
    2ed8:	4950472c 	ldmdbmi	r0, {r2, r3, r5, r8, r9, sl, lr}^
    2edc:	49505f4f 	ldmdbmi	r0, {r0, r1, r2, r3, r6, r8, r9, sl, fp, ip, lr}^
    2ee0:	33315f4e 	teqcc	r1, #312	; 0x138
    2ee4:	5458452c 	ldrbpl	r4, [r8], #-1324	; 0xfffffad4
    2ee8:	5f333149 	svcpl	0x00333149
    2eec:	7d515249 	lfmvc	f5, 2, [r1, #-292]	; 0xfffffedc
    2ef0:	54584500 	ldrbpl	r4, [r8], #-1280	; 0xfffffb00
    2ef4:	44503449 	ldrbmi	r3, [r0], #-1097	; 0xfffffbb7
    2ef8:	45282034 	strmi	r2, [r8, #-52]!	; 0xffffffcc
    2efc:	5f495458 	svcpl	0x00495458
    2f00:	4f495047 	svcmi	0x00495047
    2f04:	70614d5f 	rsbvc	r4, r1, pc, asr sp
    2f08:	5f676e69 	svcpl	0x00676e69
    2f0c:	457b2974 	ldrbmi	r2, [fp, #-2420]!	; 0xfffff68c
    2f10:	34495458 	strbcc	r5, [r9], #-1112	; 0xfffffba8
    2f14:	4950472c 	ldmdbmi	r0, {r2, r3, r5, r8, r9, sl, lr}^
    2f18:	472c444f 	strmi	r4, [ip, -pc, asr #8]!
    2f1c:	5f4f4950 	svcpl	0x004f4950
    2f20:	5f4e4950 	svcpl	0x004e4950
    2f24:	58452c34 	stmdapl	r5, {r2, r4, r5, sl, fp, sp}^
    2f28:	5f344954 	svcpl	0x00344954
    2f2c:	7d515249 	lfmvc	f5, 2, [r1, #-292]	; 0xfffffedc
    2f30:	45525f00 	ldrbmi	r5, [r2, #-3840]	; 0xfffff100
    2f34:	5f544e45 	svcpl	0x00544e45
    2f38:	4f54424d 	svcmi	0x0054424d
    2f3c:	535f4357 	cmppl	pc, #1543503873	; 0x5c000001
    2f40:	45544154 	ldrbmi	r4, [r4, #-340]	; 0xfffffeac
    2f44:	72747028 	rsbsvc	r7, r4, #40	; 0x28
    2f48:	28282029 	stmdacs	r8!, {r0, r3, r5, sp}
    2f4c:	29727470 	ldmdbcs	r2!, {r4, r5, r6, sl, ip, sp, lr}^
    2f50:	6d5f3e2d 	ldclvs	14, cr3, [pc, #-180]	; 2ea4 <_Min_Stack_Size+0x2aa4>
    2f54:	2d637369 	stclcs	3, cr7, [r3, #-420]!	; 0xfffffe5c
    2f58:	626d5f3e 	rsbvs	r5, sp, #62, 30	; 0xf8
    2f5c:	63776f74 	cmnvs	r7, #116, 30	; 0x1d0
    2f60:	6174735f 	cmnvs	r4, pc, asr r3
    2f64:	00296574 	eoreq	r6, r9, r4, ror r5
    2f68:	6c754e5f 	ldclvs	14, cr4, [r5], #-380	; 0xfffffe84
    2f6c:	6e755f6c 	cdpvs	15, 7, cr5, cr5, cr12, {3}
    2f70:	63657073 	cmnvs	r5, #115	; 0x73
    2f74:	65696669 	strbvs	r6, [r9, #-1641]!	; 0xfffff997
    2f78:	5f002064 	svcpl	0x00002064
    2f7c:	544c465f 	strbpl	r4, [ip], #-1631	; 0xfffff9a1
    2f80:	5350455f 	cmppl	r0, #398458880	; 0x17c00000
    2f84:	4e4f4c49 	cdpmi	12, 4, cr4, cr15, cr9, {2}
    2f88:	31205f5f 			; <UNDEFINED> instruction: 0x31205f5f
    2f8c:	3239312e 	eorscc	r3, r9, #-2147483637	; 0x8000000b
    2f90:	38323930 	ldmdacc	r2!, {r4, r5, r8, fp, ip, sp}
    2f94:	30353539 	eorscc	r3, r5, r9, lsr r5
    2f98:	32313837 	eorscc	r3, r1, #3604480	; 0x370000
    2f9c:	372d6535 			; <UNDEFINED> instruction: 0x372d6535
    2fa0:	58450046 	stmdapl	r5, {r1, r2, r6}^
    2fa4:	34314954 	ldrtcc	r4, [r1], #-2388	; 0xfffff6ac
    2fa8:	34314350 	ldrtcc	r4, [r1], #-848	; 0xfffffcb0
    2fac:	58452820 	stmdapl	r5, {r5, fp, sp}^
    2fb0:	475f4954 			; <UNDEFINED> instruction: 0x475f4954
    2fb4:	5f4f4950 	svcpl	0x004f4950
    2fb8:	6970614d 	ldmdbvs	r0!, {r0, r2, r3, r6, r8, sp, lr}^
    2fbc:	745f676e 	ldrbvc	r6, [pc], #-1902	; 2fc4 <_Min_Stack_Size+0x2bc4>
    2fc0:	58457b29 	stmdapl	r5, {r0, r3, r5, r8, r9, fp, ip, sp, lr}^
    2fc4:	34314954 	ldrtcc	r4, [r1], #-2388	; 0xfffff6ac
    2fc8:	4950472c 	ldmdbmi	r0, {r2, r3, r5, r8, r9, sl, lr}^
    2fcc:	472c434f 	strmi	r4, [ip, -pc, asr #6]!
    2fd0:	5f4f4950 	svcpl	0x004f4950
    2fd4:	5f4e4950 	svcpl	0x004e4950
    2fd8:	452c3431 	strmi	r3, [ip, #-1073]!	; 0xfffffbcf
    2fdc:	31495458 	cmpcc	r9, r8, asr r4
    2fe0:	52495f34 	subpl	r5, r9, #52, 30	; 0xd0
    2fe4:	5f007d51 	svcpl	0x00007d51
    2fe8:	5453585f 	ldrbpl	r5, [r3], #-2143	; 0xfffff7a1
    2fec:	474e4952 	smlsldmi	r4, lr, r2, r9
    2ff0:	20297828 	eorcs	r7, r9, r8, lsr #16
    2ff4:	54535f5f 	ldrbpl	r5, [r3], #-3935	; 0xfffff0a1
    2ff8:	474e4952 	smlsldmi	r4, lr, r2, r9
    2ffc:	00297828 	eoreq	r7, r9, r8, lsr #16
    3000:	74615f5f 	strbtvc	r5, [r1], #-3935	; 0xfffff0a1
    3004:	62697274 	rsbvs	r7, r9, #116, 4	; 0x40000007
    3008:	5f657475 	svcpl	0x00657475
    300c:	65727570 	ldrbvs	r7, [r2, #-1392]!	; 0xfffffa90
    3010:	00205f5f 	eoreq	r5, r0, pc, asr pc
    3014:	43475f5f 	movtmi	r5, #32607	; 0x7f5f
    3018:	54415f43 	strbpl	r5, [r1], #-3907	; 0xfffff0bd
    301c:	43494d4f 	movtmi	r4, #40271	; 0x9d4f
    3020:	4f48535f 	svcmi	0x0048535f
    3024:	4c5f5452 	cfldrdmi	mvd5, [pc], {82}	; 0x52
    3028:	5f4b434f 	svcpl	0x004b434f
    302c:	45455246 	strbmi	r5, [r5, #-582]	; 0xfffffdba
    3030:	45003220 	strmi	r3, [r0, #-544]	; 0xfffffde0
    3034:	35495458 	strbcc	r5, [r9, #-1112]	; 0xfffffba8
    3038:	20354350 	eorscs	r4, r5, r0, asr r3
    303c:	54584528 	ldrbpl	r4, [r8], #-1320	; 0xfffffad8
    3040:	50475f49 	subpl	r5, r7, r9, asr #30
    3044:	4d5f4f49 	ldclmi	15, cr4, [pc, #-292]	; 2f28 <_Min_Stack_Size+0x2b28>
    3048:	6e697061 	cdpvs	0, 6, cr7, cr9, cr1, {3}
    304c:	29745f67 	ldmdbcs	r4!, {r0, r1, r2, r5, r6, r8, r9, sl, fp, ip, lr}^
    3050:	5458457b 	ldrbpl	r4, [r8], #-1403	; 0xfffffa85
    3054:	472c3549 	strmi	r3, [ip, -r9, asr #10]!
    3058:	434f4950 	movtmi	r4, #63824	; 0xf950
    305c:	4950472c 	ldmdbmi	r0, {r2, r3, r5, r8, r9, sl, lr}^
    3060:	49505f4f 	ldmdbmi	r0, {r0, r1, r2, r3, r6, r8, r9, sl, fp, ip, lr}^
    3064:	2c355f4e 	ldccs	15, cr5, [r5], #-312	; 0xfffffec8
    3068:	49545845 	ldmdbmi	r4, {r0, r2, r6, fp, ip, lr}^
    306c:	52495f35 	subpl	r5, r9, #53, 30	; 0xd4
    3070:	5f007d51 	svcpl	0x00007d51
    3074:	5254505f 	subspl	r5, r4, #95	; 0x5f
    3078:	46464944 	strbmi	r4, [r6], -r4, asr #18
    307c:	5059545f 	subspl	r5, r9, pc, asr r4
    3080:	205f5f45 	subscs	r5, pc, r5, asr #30
    3084:	00746e69 	rsbseq	r6, r4, r9, ror #28
    3088:	4f495047 	svcmi	0x00495047
    308c:	444f4d5f 	strbmi	r4, [pc], #-3423	; 3094 <_Min_Stack_Size+0x2c94>
    3090:	4e495f45 	cdpmi	15, 4, cr5, cr9, cr5, {2}
    3094:	5f545550 	svcpl	0x00545550
    3098:	414f4c46 	cmpmi	pc, r6, asr #24
    309c:	474e4954 	smlsldmi	r4, lr, r4, r9
    30a0:	30783020 	rsbscc	r3, r8, r0, lsr #32
    30a4:	30303030 	eorscc	r3, r0, r0, lsr r0
    30a8:	75313030 	ldrvc	r3, [r1, #-48]!	; 0xffffffd0
    30ac:	51524900 	cmppl	r2, r0, lsl #18
    30b0:	616c465f 	cmnvs	ip, pc, asr r6
    30b4:	614d0067 	cmpvs	sp, r7, rrx
    30b8:	4f5f6e69 	svcmi	0x005f6e69
    30bc:	5f5f0053 	svcpl	0x005f0053
    30c0:	43434155 	movtmi	r4, #12629	; 0x3155
    30c4:	455f4d55 	ldrbmi	r4, [pc, #-3413]	; 2377 <_Min_Stack_Size+0x1f77>
    30c8:	4c495350 	mcrrmi	3, 5, r5, r9, cr0
    30cc:	5f5f4e4f 	svcpl	0x005f4e4f
    30d0:	31783020 	cmncc	r8, r0, lsr #32
    30d4:	36312d50 			; <UNDEFINED> instruction: 0x36312d50
    30d8:	45004b55 	strmi	r4, [r0, #-2901]	; 0xfffff4ab
    30dc:	31495458 	cmpcc	r9, r8, asr r4
    30e0:	31415030 	cmpcc	r1, r0, lsr r0
    30e4:	45282030 	strmi	r2, [r8, #-48]!	; 0xffffffd0
    30e8:	5f495458 	svcpl	0x00495458
    30ec:	4f495047 	svcmi	0x00495047
    30f0:	70614d5f 	rsbvc	r4, r1, pc, asr sp
    30f4:	5f676e69 	svcpl	0x00676e69
    30f8:	457b2974 	ldrbmi	r2, [fp, #-2420]!	; 0xfffff68c
    30fc:	31495458 	cmpcc	r9, r8, asr r4
    3100:	50472c30 	subpl	r2, r7, r0, lsr ip
    3104:	2c414f49 	mcrrcs	15, 4, r4, r1, cr9
    3108:	4f495047 	svcmi	0x00495047
    310c:	4e49505f 	mcrmi	0, 2, r5, cr9, cr15, {2}
    3110:	2c30315f 	ldfcss	f3, [r0], #-380	; 0xfffffe84
    3114:	49545845 	ldmdbmi	r4, {r0, r2, r6, fp, ip, lr}^
    3118:	495f3031 	ldmdbmi	pc, {r0, r4, r5, ip, sp}^	; <UNPREDICTABLE>
    311c:	007d5152 	rsbseq	r5, sp, r2, asr r1
    3120:	49555f5f 	ldmdbmi	r5, {r0, r1, r2, r3, r4, r6, r8, r9, sl, fp, ip, lr}^
    3124:	5f38544e 	svcpl	0x0038544e
    3128:	45505954 	ldrbmi	r5, [r0, #-2388]	; 0xfffff6ac
    312c:	75205f5f 	strvc	r5, [r0, #-3935]!	; 0xfffff0a1
    3130:	6769736e 	strbvs	r7, [r9, -lr, ror #6]!
    3134:	2064656e 	rsbcs	r6, r4, lr, ror #10
    3138:	72616863 	rsbvc	r6, r1, #6488064	; 0x630000
    313c:	20324400 	eorscs	r4, r2, r0, lsl #8
    3140:	4f495047 	svcmi	0x00495047
    3144:	4e49505f 	mcrmi	0, 2, r5, cr9, cr15, {2}
    3148:	4900325f 	stmdbmi	r0, {r0, r1, r2, r3, r4, r6, r9, ip, sp}
    314c:	4c5f544e 	cfldrdmi	mvd5, [pc], {78}	; 0x4e
    3150:	54534145 	ldrbpl	r4, [r3], #-325	; 0xfffffebb
    3154:	4d5f3233 	lfmmi	f3, 2, [pc, #-204]	; 3090 <_Min_Stack_Size+0x2c90>
    3158:	28204e49 	stmdacs	r0!, {r0, r3, r6, r9, sl, fp, lr}
    315c:	495f5f2d 	ldmdbmi	pc, {r0, r2, r3, r5, r8, r9, sl, fp, ip, lr}^	; <UNPREDICTABLE>
    3160:	4c5f544e 	cfldrdmi	mvd5, [pc], {78}	; 0x4e
    3164:	54534145 	ldrbpl	r4, [r3], #-325	; 0xfffffebb
    3168:	4d5f3233 	lfmmi	f3, 2, [pc, #-204]	; 30a4 <_Min_Stack_Size+0x2ca4>
    316c:	5f5f5841 	svcpl	0x005f5841
    3170:	31202d20 			; <UNDEFINED> instruction: 0x31202d20
    3174:	58450029 	stmdapl	r5, {r0, r3, r5}^
    3178:	32314954 	eorscc	r4, r1, #84, 18	; 0x150000
    317c:	32314150 	eorscc	r4, r1, #80, 2
    3180:	58452820 	stmdapl	r5, {r5, fp, sp}^
    3184:	475f4954 			; <UNDEFINED> instruction: 0x475f4954
    3188:	5f4f4950 	svcpl	0x004f4950
    318c:	6970614d 	ldmdbvs	r0!, {r0, r2, r3, r6, r8, sp, lr}^
    3190:	745f676e 	ldrbvc	r6, [pc], #-1902	; 3198 <_Min_Stack_Size+0x2d98>
    3194:	58457b29 	stmdapl	r5, {r0, r3, r5, r8, r9, fp, ip, sp, lr}^
    3198:	32314954 	eorscc	r4, r1, #84, 18	; 0x150000
    319c:	4950472c 	ldmdbmi	r0, {r2, r3, r5, r8, r9, sl, lr}^
    31a0:	472c414f 	strmi	r4, [ip, -pc, asr #2]!
    31a4:	5f4f4950 	svcpl	0x004f4950
    31a8:	5f4e4950 	svcpl	0x004e4950
    31ac:	452c3231 	strmi	r3, [ip, #-561]!	; 0xfffffdcf
    31b0:	31495458 	cmpcc	r9, r8, asr r4
    31b4:	52495f32 	subpl	r5, r9, #50, 30	; 0xc8
    31b8:	2e007d51 	mcrcs	13, 0, r7, cr0, cr1, {2}
    31bc:	72532f2e 	subsvc	r2, r3, #46, 30	; 0xb8
    31c0:	616d2f63 	cmnvs	sp, r3, ror #30
    31c4:	632e6e69 			; <UNDEFINED> instruction: 0x632e6e69
    31c8:	43435200 	movtmi	r5, #12800	; 0x3200
    31cc:	5341425f 	movtpl	r4, #4703	; 0x125f
    31d0:	78302045 	ldmdavc	r0!, {r0, r2, r6, sp}
    31d4:	32303034 	eorscc	r3, r0, #52	; 0x34
    31d8:	30303031 	eorscc	r3, r0, r1, lsr r0
    31dc:	5f004c55 	svcpl	0x00004c55
    31e0:	5342465f 	movtpl	r4, #9823	; 0x265f
    31e4:	28444944 	stmdacs	r4, {r2, r6, r8, fp, lr}^
    31e8:	73202973 			; <UNDEFINED> instruction: 0x73202973
    31ec:	63757274 	cmnvs	r5, #116, 4	; 0x40000007
    31f0:	5f5f2074 	svcpl	0x005f2074
    31f4:	6b636168 	blvs	18db79c <_Min_Stack_Size+0x18db39c>
    31f8:	555f5f00 	ldrbpl	r5, [pc, #-3840]	; 2300 <_Min_Stack_Size+0x1f00>
    31fc:	43434153 	movtmi	r4, #12627	; 0x3153
    3200:	465f4d55 			; <UNDEFINED> instruction: 0x465f4d55
    3204:	5f544942 	svcpl	0x00544942
    3208:	0038205f 	eorseq	r2, r8, pc, asr r0
    320c:	494c455f 	stmdbmi	ip, {r0, r1, r2, r3, r4, r6, r8, sl, lr}^
    3210:	4c424144 	stfmie	f4, [r2], {68}	; 0x44
    3214:	4e495f45 	cdpmi	15, 4, cr5, cr9, cr5, {2}
    3218:	454e494c 	strbmi	r4, [lr, #-2380]	; 0xfffff6b4
    321c:	61747320 	cmnvs	r4, r0, lsr #6
    3220:	20636974 	rsbcs	r6, r3, r4, ror r9
    3224:	6e695f5f 	mcrvs	15, 3, r5, cr9, cr15, {2}
    3228:	656e696c 	strbvs	r6, [lr, #-2412]!	; 0xfffff694
    322c:	5f005f5f 	svcpl	0x00005f5f
    3230:	4c554e5f 	mrrcmi	14, 5, r4, r5, cr15
    3234:	4942414c 	stmdbmi	r2, {r2, r3, r6, r8, lr}^
    3238:	5954494c 	ldmdbpl	r4, {r2, r3, r6, r8, fp, lr}^
    323c:	4152505f 	cmpmi	r2, pc, asr r0
    3240:	5f414d47 	svcpl	0x00414d47
    3244:	20504f50 	subscs	r4, r0, r0, asr pc
    3248:	4d5f5f00 	ldclmi	15, cr5, [pc, #-0]	; 3250 <_Min_Stack_Size+0x2e50>
    324c:	5f435349 	svcpl	0x00435349
    3250:	49534956 	ldmdbmi	r3, {r1, r2, r4, r6, r8, fp, lr}^
    3254:	20454c42 	subcs	r4, r5, r2, asr #24
    3258:	44420031 	strbmi	r0, [r2], #-49	; 0xffffffcf
    325c:	45005243 	strmi	r5, [r0, #-579]	; 0xfffffdbd
    3260:	31495458 	cmpcc	r9, r8, asr r4
    3264:	20314350 	eorscs	r4, r1, r0, asr r3
    3268:	54584528 	ldrbpl	r4, [r8], #-1320	; 0xfffffad8
    326c:	50475f49 	subpl	r5, r7, r9, asr #30
    3270:	4d5f4f49 	ldclmi	15, cr4, [pc, #-292]	; 3154 <_Min_Stack_Size+0x2d54>
    3274:	6e697061 	cdpvs	0, 6, cr7, cr9, cr1, {3}
    3278:	29745f67 	ldmdbcs	r4!, {r0, r1, r2, r5, r6, r8, r9, sl, fp, ip, lr}^
    327c:	5458457b 	ldrbpl	r4, [r8], #-1403	; 0xfffffa85
    3280:	472c3149 	strmi	r3, [ip, -r9, asr #2]!
    3284:	434f4950 	movtmi	r4, #63824	; 0xf950
    3288:	4950472c 	ldmdbmi	r0, {r2, r3, r5, r8, r9, sl, lr}^
    328c:	49505f4f 	ldmdbmi	r0, {r0, r1, r2, r3, r6, r8, r9, sl, fp, ip, lr}^
    3290:	2c315f4e 	ldccs	15, cr5, [r1], #-312	; 0xfffffec8
    3294:	49545845 	ldmdbmi	r4, {r0, r2, r6, fp, ip, lr}^
    3298:	52495f31 	subpl	r5, r9, #49, 30	; 0xc4
    329c:	46007d51 			; <UNDEFINED> instruction: 0x46007d51
    32a0:	4853414c 	ldmdami	r3, {r2, r3, r6, r8, lr}^
    32a4:	6d654d5f 	stclvs	13, cr4, [r5, #-380]!	; 0xfffffe84
    32a8:	5f79726f 	svcpl	0x0079726f
    32ac:	45534142 	ldrbmi	r4, [r3, #-322]	; 0xfffffebe
    32b0:	30783020 	rsbscc	r3, r8, r0, lsr #32
    32b4:	30303038 	eorscc	r3, r0, r8, lsr r0
    32b8:	55303030 	ldrpl	r3, [r0, #-48]!	; 0xffffffd0
    32bc:	5f5f004c 	svcpl	0x005f004c
    32c0:	33544c46 	cmpcc	r4, #17920	; 0x4600
    32c4:	41485f32 	cmpmi	r8, r2, lsr pc
    32c8:	55515f53 	ldrbpl	r5, [r1, #-3923]	; 0xfffff0ad
    32cc:	5f544549 	svcpl	0x00544549
    32d0:	5f4e414e 	svcpl	0x004e414e
    32d4:	0031205f 	eorseq	r2, r1, pc, asr r0
    32d8:	424f5f5f 	submi	r5, pc, #380	; 0x17c
    32dc:	454c4f53 	strbmi	r4, [ip, #-3923]	; 0xfffff0ad
    32e0:	4d5f4554 	cfldr64mi	mvdx4, [pc, #-336]	; 3198 <_Min_Stack_Size+0x2d98>
    32e4:	20485441 	subcs	r5, r8, r1, asr #8
    32e8:	424f5f5f 	submi	r5, pc, #380	; 0x17c
    32ec:	454c4f53 	strbmi	r4, [ip, #-3923]	; 0xfffff0ad
    32f0:	4d5f4554 	cfldr64mi	mvdx4, [pc, #-336]	; 31a8 <_Min_Stack_Size+0x2da8>
    32f4:	5f485441 	svcpl	0x00485441
    32f8:	41464544 	cmpmi	r6, r4, asr #10
    32fc:	00544c55 	subseq	r4, r4, r5, asr ip
    3300:	49545845 	ldmdbmi	r4, {r0, r2, r6, fp, ip, lr}^
    3304:	6972545f 	ldmdbvs	r2!, {r0, r1, r2, r3, r4, r6, sl, ip, lr}^
    3308:	72656767 	rsbvc	r6, r5, #27000832	; 0x19c0000
    330c:	5349525f 	movtpl	r5, #37471	; 0x925f
    3310:	20474e49 	subcs	r4, r7, r9, asr #28
    3314:	504b0030 	subpl	r0, fp, r0, lsr r0
    3318:	38555f44 	ldmdacc	r5, {r2, r6, r8, r9, sl, fp, ip, lr}^
    331c:	544f4e5f 	strbpl	r4, [pc], #-3679	; 3324 <_Min_Stack_Size+0x2f24>
    3320:	4552505f 	ldrbmi	r5, [r2, #-95]	; 0xffffffa1
    3324:	44455353 	strbmi	r5, [r5], #-851	; 0xfffffcad
    3328:	66783020 	ldrbtvs	r3, [r8], -r0, lsr #32
    332c:	5f5f0066 	svcpl	0x005f0066
    3330:	4c42444c 	cfstrdmi	mvd4, [r2], {76}	; 0x4c
    3334:	5341485f 	movtpl	r4, #6239	; 0x185f
    3338:	464e495f 			; <UNDEFINED> instruction: 0x464e495f
    333c:	54494e49 	strbpl	r4, [r9], #-3657	; 0xfffff1b7
    3340:	205f5f59 	subscs	r5, pc, r9, asr pc	; <UNPREDICTABLE>
    3344:	58450031 	stmdapl	r5, {r0, r4, r5}^
    3348:	50354954 	eorspl	r4, r5, r4, asr r9
    334c:	28203542 	stmdacs	r0!, {r1, r6, r8, sl, ip, sp}
    3350:	49545845 	ldmdbmi	r4, {r0, r2, r6, fp, ip, lr}^
    3354:	4950475f 	ldmdbmi	r0, {r0, r1, r2, r3, r4, r6, r8, r9, sl, lr}^
    3358:	614d5f4f 	cmpvs	sp, pc, asr #30
    335c:	676e6970 			; <UNDEFINED> instruction: 0x676e6970
    3360:	7b29745f 	blvc	a604e4 <_Min_Stack_Size+0xa600e4>
    3364:	49545845 	ldmdbmi	r4, {r0, r2, r6, fp, ip, lr}^
    3368:	50472c35 	subpl	r2, r7, r5, lsr ip
    336c:	2c424f49 	mcrrcs	15, 4, r4, r2, cr9
    3370:	4f495047 	svcmi	0x00495047
    3374:	4e49505f 	mcrmi	0, 2, r5, cr9, cr15, {2}
    3378:	452c355f 	strmi	r3, [ip, #-1375]!	; 0xfffffaa1
    337c:	35495458 	strbcc	r5, [r9, #-1112]	; 0xfffffba8
    3380:	5152495f 	cmppl	r2, pc, asr r9
    3384:	4955007d 	ldmdbmi	r5, {r0, r2, r3, r4, r5, r6}^
    3388:	465f544e 	ldrbmi	r5, [pc], -lr, asr #8
    338c:	36545341 	ldrbcc	r5, [r4], -r1, asr #6
    3390:	414d5f34 	cmpmi	sp, r4, lsr pc
    3394:	5f282058 	svcpl	0x00282058
    3398:	4e49555f 	mcrmi	5, 2, r5, cr9, cr15, {2}
    339c:	41465f54 	cmpmi	r6, r4, asr pc
    33a0:	34365453 	ldrtcc	r5, [r6], #-1107	; 0xfffffbad
    33a4:	58414d5f 	stmdapl	r1, {r0, r1, r2, r3, r4, r6, r8, sl, fp, lr}^
    33a8:	00295f5f 	eoreq	r5, r9, pc, asr pc
    33ac:	45445f5f 	strbmi	r5, [r4, #-3935]	; 0xfffff0a1
    33b0:	5f323343 	svcpl	0x00323343
    33b4:	5f58414d 	svcpl	0x0058414d
    33b8:	2e39205f 	mrccs	0, 1, r2, cr9, cr15, {2}
    33bc:	39393939 	ldmdbcc	r9!, {r0, r3, r4, r5, r8, fp, ip, sp}
    33c0:	39453939 	stmdbcc	r5, {r0, r3, r4, r5, r8, fp, ip, sp}^
    33c4:	00464436 	subeq	r4, r6, r6, lsr r4
    33c8:	49545845 	ldmdbmi	r4, {r0, r2, r6, fp, ip, lr}^
    33cc:	00302030 	eorseq	r2, r0, r0, lsr r0
    33d0:	49545845 	ldmdbmi	r4, {r0, r2, r6, fp, ip, lr}^
    33d4:	52495f33 	subpl	r5, r9, #51, 30	; 0xcc
    33d8:	00392051 	eorseq	r2, r9, r1, asr r0
    33dc:	4c465f5f 	mcrrmi	15, 5, r5, r6, cr15
    33e0:	58323354 	ldmdapl	r2!, {r2, r4, r6, r8, r9, ip, sp}
    33e4:	58414d5f 	stmdapl	r1, {r0, r1, r2, r3, r4, r6, r8, sl, fp, lr}^
    33e8:	5f30315f 	svcpl	0x0030315f
    33ec:	5f505845 	svcpl	0x00505845
    33f0:	3033205f 	eorscc	r2, r3, pc, asr r0
    33f4:	5f5f0038 	svcpl	0x005f0038
    33f8:	5f4d5241 	svcpl	0x004d5241
    33fc:	48435241 	stmdami	r3, {r0, r6, r9, ip, lr}^
    3400:	5458455f 	ldrbpl	r4, [r8], #-1375	; 0xfffffaa1
    3404:	4944495f 	stmdbmi	r4, {r0, r1, r2, r3, r4, r6, r8, fp, lr}^
    3408:	205f5f56 	subscs	r5, pc, r6, asr pc	; <UNPREDICTABLE>
    340c:	5f5f0031 	svcpl	0x005f0031
    3410:	5f4d5241 	svcpl	0x004d5241
    3414:	20534350 	subscs	r4, r3, r0, asr r3
    3418:	4e490031 	mcrmi	0, 2, r0, cr9, cr1, {1}
    341c:	52455f43 	subpl	r5, r5, #268	; 0x10c
    3420:	53524f52 	cmppl	r2, #328	; 0x148
    3424:	45544154 	ldrbmi	r4, [r4, #-340]	; 0xfffffeac
    3428:	5f485f53 	svcpl	0x00485f53
    342c:	5f5f0020 	svcpl	0x005f0020
    3430:	65727570 	ldrbvs	r7, [r2, #-1392]!	; 0xfffffa90
    3434:	615f5f20 	cmpvs	pc, r0, lsr #30
    3438:	69727474 	ldmdbvs	r2!, {r2, r4, r5, r6, sl, ip, sp, lr}^
    343c:	65747562 	ldrbvs	r7, [r4, #-1378]!	; 0xfffffa9e
    3440:	28285f5f 	stmdacs	r8!, {r0, r1, r2, r3, r4, r6, r8, r9, sl, fp, ip, lr}
    3444:	75705f5f 	ldrbvc	r5, [r0, #-3935]!	; 0xfffff0a1
    3448:	5f5f6572 	svcpl	0x005f6572
    344c:	5f002929 	svcpl	0x00002929
    3450:	5151555f 	cmppl	r1, pc, asr r5
    3454:	4942495f 	stmdbmi	r2, {r0, r1, r2, r3, r4, r6, r8, fp, lr}^
    3458:	205f5f54 	subscs	r5, pc, r4, asr pc	; <UNPREDICTABLE>
    345c:	5f5f0030 	svcpl	0x005f0030
    3460:	5f474953 	svcpl	0x00474953
    3464:	4d4f5441 	cfstrdmi	mvd5, [pc, #-260]	; 3368 <_Min_Stack_Size+0x2f68>
    3468:	4d5f4349 	ldclmi	3, cr4, [pc, #-292]	; 334c <_Min_Stack_Size+0x2f4c>
    346c:	5f5f4e49 	svcpl	0x005f4e49
    3470:	5f2d2820 	svcpl	0x002d2820
    3474:	4749535f 	smlsldmi	r5, r9, pc, r3	; <UNPREDICTABLE>
    3478:	4f54415f 	svcmi	0x0054415f
    347c:	5f43494d 	svcpl	0x0043494d
    3480:	5f58414d 	svcpl	0x0058414d
    3484:	202d205f 	eorcs	r2, sp, pc, asr r0
    3488:	49002931 	stmdbmi	r0, {r0, r4, r5, r8, fp, sp}
    348c:	4c5f544e 	cfldrdmi	mvd5, [pc], {78}	; 0x4e
    3490:	54534145 	ldrbpl	r4, [r3], #-325	; 0xfffffebb
    3494:	4d5f3631 	ldclmi	6, cr3, [pc, #-196]	; 33d8 <_Min_Stack_Size+0x2fd8>
    3498:	28205841 	stmdacs	r0!, {r0, r6, fp, ip, lr}
    349c:	4e495f5f 	mcrmi	15, 2, r5, cr9, cr15, {2}
    34a0:	454c5f54 	strbmi	r5, [ip, #-3924]	; 0xfffff0ac
    34a4:	31545341 	cmpcc	r4, r1, asr #6
    34a8:	414d5f36 	cmpmi	sp, r6, lsr pc
    34ac:	295f5f58 	ldmdbcs	pc, {r3, r4, r6, r8, r9, sl, fp, ip, lr}^	; <UNPREDICTABLE>
    34b0:	54584500 	ldrbpl	r4, [r8], #-1280	; 0xfffffb00
    34b4:	35203549 	strcc	r3, [r0, #-1353]!	; 0xfffffab7
    34b8:	555f5f00 	ldrbpl	r5, [pc, #-3840]	; 25c0 <_Min_Stack_Size+0x21c0>
    34bc:	55434341 	strbpl	r4, [r3, #-833]	; 0xfffffcbf
    34c0:	494d5f4d 	stmdbmi	sp, {r0, r2, r3, r6, r8, r9, sl, fp, ip, lr}^
    34c4:	205f5f4e 	subscs	r5, pc, lr, asr #30
    34c8:	55302e30 	ldrpl	r2, [r0, #-3632]!	; 0xfffff1d0
    34cc:	5845004b 	stmdapl	r5, {r0, r1, r3, r6}^
    34d0:	28204954 	stmdacs	r0!, {r2, r4, r6, r8, fp, lr}
    34d4:	54584528 	ldrbpl	r4, [r8], #-1320	; 0xfffffad8
    34d8:	79545f49 	ldmdbvc	r4, {r0, r3, r6, r8, r9, sl, fp, ip, lr}^
    34dc:	65646570 	strbvs	r6, [r4, #-1392]!	; 0xfffffa90
    34e0:	292a2066 	stmdbcs	sl!, {r1, r2, r5, r6, sp}
    34e4:	49545845 	ldmdbmi	r4, {r0, r2, r6, fp, ip, lr}^
    34e8:	5341425f 	movtpl	r4, #4703	; 0x125f
    34ec:	45002945 	strmi	r2, [r0, #-2373]	; 0xfffff6bb
    34f0:	31495458 	cmpcc	r9, r8, asr r4
    34f4:	20314250 	eorscs	r4, r1, r0, asr r2
    34f8:	54584528 	ldrbpl	r4, [r8], #-1320	; 0xfffffad8
    34fc:	50475f49 	subpl	r5, r7, r9, asr #30
    3500:	4d5f4f49 	ldclmi	15, cr4, [pc, #-292]	; 33e4 <_Min_Stack_Size+0x2fe4>
    3504:	6e697061 	cdpvs	0, 6, cr7, cr9, cr1, {3}
    3508:	29745f67 	ldmdbcs	r4!, {r0, r1, r2, r5, r6, r8, r9, sl, fp, ip, lr}^
    350c:	5458457b 	ldrbpl	r4, [r8], #-1403	; 0xfffffa85
    3510:	472c3149 	strmi	r3, [ip, -r9, asr #2]!
    3514:	424f4950 	submi	r4, pc, #80, 18	; 0x140000
    3518:	4950472c 	ldmdbmi	r0, {r2, r3, r5, r8, r9, sl, lr}^
    351c:	49505f4f 	ldmdbmi	r0, {r0, r1, r2, r3, r6, r8, r9, sl, fp, ip, lr}^
    3520:	2c315f4e 	ldccs	15, cr5, [r1], #-312	; 0xfffffec8
    3524:	49545845 	ldmdbmi	r4, {r0, r2, r6, fp, ip, lr}^
    3528:	52495f31 	subpl	r5, r9, #49, 30	; 0xc4
    352c:	5f007d51 	svcpl	0x00007d51
    3530:	5f445342 	svcpl	0x00445342
    3534:	41484357 	cmpmi	r8, r7, asr r3
    3538:	5f545f52 	svcpl	0x00545f52
    353c:	534f0020 	movtpl	r0, #61472	; 0xf020
    3540:	4957535f 	ldmdbmi	r7, {r0, r1, r2, r3, r4, r6, r8, r9, ip, lr}^
    3544:	5f484354 	svcpl	0x00484354
    3548:	745f5053 	ldrbvc	r5, [pc], #-83	; 3550 <_Min_Stack_Size+0x3150>
    354c:	53505f6f 	cmppl	r0, #444	; 0x1bc
    3550:	5f5f2050 	svcpl	0x005f2050
    3554:	206d7361 	rsbcs	r7, sp, r1, ror #6
    3558:	616c6f76 	smcvs	50934	; 0xc6f6
    355c:	656c6974 	strbvs	r6, [ip, #-2420]!	; 0xfffff68c
    3560:	726d2228 	rsbvc	r2, sp, #40, 4	; 0x80000002
    3564:	30722073 	rsbscc	r2, r2, r3, ror r0
    3568:	4f43202c 	svcmi	0x0043202c
    356c:	4f52544e 	svcmi	0x0052544e
    3570:	6e5c204c 	cdpvs	0, 5, cr2, cr12, cr12, {2}
    3574:	6f20745c 	svcvs	0x0020745c
    3578:	72207272 	eorvc	r7, r0, #536870919	; 0x20000007
    357c:	30722c30 	rsbscc	r2, r2, r0, lsr ip
    3580:	7830232c 	ldmdavc	r0!, {r2, r3, r5, r8, r9, sp}
    3584:	5c203230 	sfmpl	f3, 4, [r0], #-192	; 0xffffff40
    3588:	20745c6e 	rsbscs	r5, r4, lr, ror #24
    358c:	2072736d 	rsbscs	r7, r2, sp, ror #6
    3590:	544e4f43 	strbpl	r4, [lr], #-3907	; 0xfffff0bd
    3594:	2c4c4f52 	mcrrcs	15, 5, r4, ip, cr2
    3598:	22307220 	eorscs	r7, r0, #32, 4
    359c:	525f0029 	subspl	r0, pc, #41	; 0x29
    35a0:	544e4545 	strbpl	r4, [lr], #-1349	; 0xfffffabb
    35a4:	5f504d5f 	svcpl	0x00504d5f
    35a8:	28533550 	ldmdacs	r3, {r4, r6, r8, sl, ip, sp}^
    35ac:	29727470 	ldmdbcs	r2!, {r4, r5, r6, sl, ip, sp, lr}^
    35b0:	70282820 	eorvc	r2, r8, r0, lsr #16
    35b4:	2d297274 	sfmcs	f7, 4, [r9, #-464]!	; 0xfffffe30
    35b8:	706d5f3e 	rsbvc	r5, sp, lr, lsr pc
    35bc:	705f3e2d 	subsvc	r3, pc, sp, lsr #28
    35c0:	00297335 	eoreq	r7, r9, r5, lsr r3
    35c4:	5f474953 	svcpl	0x00474953
    35c8:	4d4f5441 	cfstrdmi	mvd5, [pc, #-260]	; 34cc <_Min_Stack_Size+0x30cc>
    35cc:	4d5f4349 	ldclmi	3, cr4, [pc, #-292]	; 34b0 <_Min_Stack_Size+0x30b0>
    35d0:	28204e49 	stmdacs	r0!, {r0, r3, r6, r9, sl, fp, lr}
    35d4:	535f5f2d 	cmppl	pc, #45, 30	; 0xb4
    35d8:	4e494454 	mcrmi	4, 2, r4, cr9, cr4, {2}
    35dc:	58455f54 	stmdapl	r5, {r2, r4, r6, r8, r9, sl, fp, ip, lr}^
    35e0:	4e492850 	mcrmi	8, 2, r2, cr9, cr0, {2}
    35e4:	414d5f54 	cmpmi	sp, r4, asr pc
    35e8:	2d202958 			; <UNDEFINED> instruction: 0x2d202958
    35ec:	00293120 	eoreq	r3, r9, r0, lsr #2
    35f0:	6f6f635f 	svcvs	0x006f635f
    35f4:	0065696b 	rsbeq	r6, r5, fp, ror #18
    35f8:	544e495f 	strbpl	r4, [lr], #-2399	; 0xfffff6a1
    35fc:	545f3631 	ldrbpl	r3, [pc], #-1585	; 3604 <_Min_Stack_Size+0x3204>
    3600:	4345445f 	movtmi	r4, #21599	; 0x545f
    3604:	4552414c 	ldrbmi	r4, [r2, #-332]	; 0xfffffeb4
    3608:	5f002044 	svcpl	0x00002044
    360c:	00733570 	rsbseq	r3, r3, r0, ror r5
    3610:	4d505f5f 	ldclmi	15, cr5, [r0, #-380]	; 0xfffffe84
    3614:	72612854 	rsbvc	r2, r1, #84, 16	; 0x540000
    3618:	20297367 	eorcs	r7, r9, r7, ror #6
    361c:	73677261 	cmnvc	r7, #268435462	; 0x10000006
    3620:	49504700 	ldmdbmi	r0, {r8, r9, sl, lr}^
    3624:	4f4d5f4f 	svcmi	0x004d5f4f
    3628:	4f5f4544 	svcmi	0x005f4544
    362c:	55505455 	ldrbpl	r5, [r0, #-1109]	; 0xfffffbab
    3630:	55505f54 	ldrbpl	r5, [r0, #-3924]	; 0xfffff0ac
    3634:	55504853 	ldrbpl	r4, [r0, #-2131]	; 0xfffff7ad
    3638:	30204c4c 	eorcc	r4, r0, ip, asr #24
    363c:	30303078 	eorscc	r3, r0, r8, ror r0
    3640:	30303030 	eorscc	r3, r0, r0, lsr r0
    3644:	5f007534 	svcpl	0x00007534
    3648:	4946735f 	stmdbmi	r6, {r0, r1, r2, r3, r4, r6, r8, r9, ip, sp, lr}^
    364c:	665f454c 	ldrbvs	r4, [pc], -ip, asr #10
    3650:	00656b61 	rsbeq	r6, r5, r1, ror #22
    3654:	4554415f 	ldrbmi	r4, [r4, #-351]	; 0xfffffea1
    3658:	5f544958 	svcpl	0x00544958
    365c:	54494e49 	strbpl	r4, [r9], #-3657	; 0xfffff1b7
    3660:	4e5f7b20 	vnmlsmi.f64	d23, d15, d16
    3664:	2c4c4c55 	mcrrcs	12, 5, r4, ip, cr5
    3668:	202c3020 	eorcs	r3, ip, r0, lsr #32
    366c:	554e5f7b 	strbpl	r5, [lr, #-3963]	; 0xfffff085
    3670:	2c7d4c4c 	ldclcs	12, cr4, [sp], #-304	; 0xfffffed0
    3674:	554e5f20 	strbpl	r5, [lr, #-3872]	; 0xfffff0e0
    3678:	007d4c4c 	rsbseq	r4, sp, ip, asr #24
    367c:	7364775f 	cmnvc	r4, #24903680	; 0x17c0000
    3680:	495f5f00 	ldmdbmi	pc, {r8, r9, sl, fp, ip, lr}^	; <UNPREDICTABLE>
    3684:	4c5f544e 	cfldrdmi	mvd5, [pc], {78}	; 0x4e
    3688:	54534145 	ldrbpl	r4, [r3], #-325	; 0xfffffebb
    368c:	575f3631 	smmlarpl	pc, r1, r6, r3	; <UNPREDICTABLE>
    3690:	48544449 	ldmdami	r4, {r0, r3, r6, sl, lr}^
    3694:	31205f5f 			; <UNDEFINED> instruction: 0x31205f5f
    3698:	5f5f0036 	svcpl	0x005f0036
    369c:	5f434544 	svcpl	0x00434544
    36a0:	4c415645 	mcrrmi	6, 4, r5, r1, cr5
    36a4:	54454d5f 	strbpl	r4, [r5], #-3423	; 0xfffff2a1
    36a8:	5f444f48 	svcpl	0x00444f48
    36ac:	0032205f 	eorseq	r2, r2, pc, asr r0
    36b0:	4545525f 	strbmi	r5, [r5, #-607]	; 0xfffffda1
    36b4:	435f544e 	cmpmi	pc, #1308622848	; 0x4e000000
    36b8:	4b434548 	blmi	10d4be0 <_Min_Stack_Size+0x10d47e0>
    36bc:	4749535f 	smlsldmi	r5, r9, pc, r3	; <UNPREDICTABLE>
    36c0:	5f4c414e 	svcpl	0x004c414e
    36c4:	28465542 	stmdacs	r6, {r1, r6, r8, sl, ip, lr}^
    36c8:	29726176 	ldmdbcs	r2!, {r1, r2, r4, r5, r6, r8, sp, lr}^
    36cc:	45525f20 	ldrbmi	r5, [r2, #-3872]	; 0xfffff0e0
    36d0:	5f544e45 	svcpl	0x00544e45
    36d4:	43454843 	movtmi	r4, #22595	; 0x5843
    36d8:	6176284b 	cmnvs	r6, fp, asr #16
    36dc:	5f202c72 	svcpl	0x00202c72
    36e0:	6e676973 			; <UNDEFINED> instruction: 0x6e676973
    36e4:	625f6c61 	subsvs	r6, pc, #24832	; 0x6100
    36e8:	202c6675 	eorcs	r6, ip, r5, ror r6
    36ec:	72616863 	rsbvc	r6, r1, #6488064	; 0x630000
    36f0:	202c2a20 	eorcs	r2, ip, r0, lsr #20
    36f4:	4545525f 	strbmi	r5, [r5, #-607]	; 0xfffffda1
    36f8:	535f544e 	cmppl	pc, #1308622848	; 0x4e000000
    36fc:	414e4749 	cmpmi	lr, r9, asr #14
    3700:	49535f4c 	ldmdbmi	r3, {r2, r3, r6, r8, r9, sl, fp, ip, lr}^
    3704:	202c455a 	eorcs	r4, ip, sl, asr r5
    3708:	3a430029 	bcc	10c37b4 <_Min_Stack_Size+0x10c33b4>
    370c:	6573552f 	ldrbvs	r5, [r3, #-1327]!	; 0xfffffad1
    3710:	412f7372 			; <UNDEFINED> instruction: 0x412f7372
    3714:	6c616462 	cfstrdvs	mvd6, [r1], #-392	; 0xfffffe78
    3718:	2f68616c 	svccs	0x0068616c
    371c:	334d5453 	movtcc	r5, #54355	; 0xd453
    3720:	62754332 	rsbsvs	r4, r5, #-939524096	; 0xc8000000
    3724:	45444965 	strbmi	r4, [r4, #-2405]	; 0xfffff69b
    3728:	726f772f 	rsbvc	r7, pc, #12320768	; 0xbc0000
    372c:	6170736b 	cmnvs	r0, fp, ror #6
    3730:	315f6563 	cmpcc	pc, r3, ror #10
    3734:	302e342e 	eorcc	r3, lr, lr, lsr #8
    3738:	6972442f 	ldmdbvs	r2!, {r0, r1, r2, r3, r5, sl, lr}^
    373c:	73726576 	cmnvc	r2, #494927872	; 0x1d800000
    3740:	58455f32 	stmdapl	r5, {r1, r4, r5, r8, r9, sl, fp, ip, lr}^
    3744:	442f4954 	strtmi	r4, [pc], #-2388	; 374c <_Min_Stack_Size+0x334c>
    3748:	67756265 	ldrbvs	r6, [r5, -r5, ror #4]!
    374c:	454e5f00 	strbmi	r5, [lr, #-3840]	; 0xfffff100
    3750:	42494c57 	submi	r4, r9, #22272	; 0x5700
    3754:	5245565f 	subpl	r5, r5, #99614720	; 0x5f00000
    3758:	4e4f4953 			; <UNDEFINED> instruction: 0x4e4f4953
    375c:	2e332220 	cdpcs	2, 3, cr2, cr3, cr0, {1}
    3760:	22302e30 	eorscs	r2, r0, #48, 28	; 0x300
    3764:	4e495500 	cdpmi	5, 4, cr5, cr9, cr0, {0}
    3768:	5f323354 	svcpl	0x00323354
    376c:	2058414d 	subscs	r4, r8, sp, asr #2
    3770:	555f5f28 	ldrbpl	r5, [pc, #-3880]	; 2850 <_Min_Stack_Size+0x2450>
    3774:	33544e49 	cmpcc	r4, #1168	; 0x490
    3778:	414d5f32 	cmpmi	sp, r2, lsr pc
    377c:	295f5f58 	ldmdbcs	pc, {r3, r4, r6, r8, r9, sl, fp, ip, lr}^	; <UNPREDICTABLE>
    3780:	69735f00 	ldmdbvs	r3!, {r8, r9, sl, fp, ip, lr}^
    3784:	75665f67 	strbvc	r5, [r6, #-3943]!	; 0xfffff099
    3788:	5f00636e 	svcpl	0x0000636e
    378c:	4345445f 	movtmi	r4, #21599	; 0x545f
    3790:	535f3436 	cmppl	pc, #905969664	; 0x36000000
    3794:	4f4e4255 	svcmi	0x004e4255
    3798:	4c414d52 	mcrrmi	13, 5, r4, r1, cr2
    379c:	4e494d5f 	mcrmi	13, 2, r4, cr9, cr15, {2}
    37a0:	30205f5f 	eorcc	r5, r0, pc, asr pc
    37a4:	3030302e 	eorscc	r3, r0, lr, lsr #32
    37a8:	30303030 	eorscc	r3, r0, r0, lsr r0
    37ac:	30303030 	eorscc	r3, r0, r0, lsr r0
    37b0:	31303030 	teqcc	r0, r0, lsr r0
    37b4:	38332d45 	ldmdacc	r3!, {r0, r2, r6, r8, sl, fp, sp}
    37b8:	00444433 	subeq	r4, r4, r3, lsr r4
    37bc:	53555f5f 	cmppl	r5, #380	; 0x17c
    37c0:	43415246 	movtmi	r5, #4678	; 0x1246
    37c4:	50455f54 	subpl	r5, r5, r4, asr pc
    37c8:	4f4c4953 	svcmi	0x004c4953
    37cc:	205f5f4e 	subscs	r5, pc, lr, asr #30
    37d0:	50317830 	eorspl	r7, r1, r0, lsr r8
    37d4:	4855382d 	ldmdami	r5, {r0, r2, r3, r5, fp, ip, sp}^
    37d8:	554e0052 	strbpl	r0, [lr, #-82]	; 0xffffffae
    37dc:	28204c4c 	stmdacs	r0!, {r2, r3, r6, sl, fp, lr}
    37e0:	696f7628 	stmdbvs	pc!, {r3, r5, r9, sl, ip, sp, lr}^	; <UNPREDICTABLE>
    37e4:	292a2064 	stmdbcs	sl!, {r2, r5, r6, sp}
    37e8:	5f002930 	svcpl	0x00002930
    37ec:	4e454552 	mcrmi	5, 2, r4, cr5, cr2, {2}
    37f0:	48435f54 	stmdami	r3, {r2, r4, r6, r8, r9, sl, fp, ip, lr}^
    37f4:	5f4b4345 	svcpl	0x004b4345
    37f8:	7628504d 	strtvc	r5, [r8], -sp, asr #32
    37fc:	20297261 	eorcs	r7, r9, r1, ror #4
    3800:	4545525f 	strbmi	r5, [r5, #-607]	; 0xfffffda1
    3804:	435f544e 	cmpmi	pc, #1308622848	; 0x4e000000
    3808:	4b434548 	blmi	10d4d30 <_Min_Stack_Size+0x10d4930>
    380c:	72617628 	rsbvc	r7, r1, #40, 12	; 0x2800000
    3810:	6d5f202c 	ldclvs	0, cr2, [pc, #-176]	; 3768 <_Min_Stack_Size+0x3368>
    3814:	73202c70 			; <UNDEFINED> instruction: 0x73202c70
    3818:	63757274 	cmnvs	r5, #116, 4	; 0x40000007
    381c:	6d5f2074 	ldclvs	0, cr2, [pc, #-464]	; 3654 <_Min_Stack_Size+0x3254>
    3820:	63657270 	cmnvs	r5, #112, 4
    3824:	202c2a20 	eorcs	r2, ip, r0, lsr #20
    3828:	657a6973 	ldrbvs	r6, [sl, #-2419]!	; 0xfffff68d
    382c:	2a20666f 	bcs	81d1f0 <_Min_Stack_Size+0x81cdf0>
    3830:	61762828 	cmnvs	r6, r8, lsr #16
    3834:	3e2d2972 			; <UNDEFINED> instruction: 0x3e2d2972
    3838:	29706d5f 	ldmdbcs	r0!, {r0, r1, r2, r3, r4, r6, r8, sl, fp, sp, lr}^
    383c:	525f202c 	subspl	r2, pc, #44	; 0x2c
    3840:	544e4545 	strbpl	r4, [lr], #-1349	; 0xfffffabb
    3844:	494e495f 	stmdbmi	lr, {r0, r1, r2, r3, r4, r6, r8, fp, lr}^
    3848:	504d5f54 	subpl	r5, sp, r4, asr pc
    384c:	72617628 	rsbvc	r7, r1, #40, 12	; 0x2800000
    3850:	5f002929 	svcpl	0x00002929
    3854:	7373615f 	cmnvc	r3, #-1073741801	; 0xc0000017
    3858:	73747265 	cmnvc	r4, #1342177286	; 0x50000006
    385c:	6378655f 	cmnvs	r8, #398458880	; 0x17c00000
    3860:	6973756c 	ldmdbvs	r3!, {r2, r3, r5, r6, r8, sl, ip, sp, lr}^
    3864:	2e286576 	mcrcs	5, 1, r6, cr8, cr6, {3}
    3868:	20292e2e 	eorcs	r2, r9, lr, lsr #28
    386c:	6f6c5f5f 	svcvs	0x006c5f5f
    3870:	615f6b63 	cmpvs	pc, r3, ror #22
    3874:	746f6e6e 	strbtvc	r6, [pc], #-3694	; 387c <_Min_Stack_Size+0x347c>
    3878:	28657461 	stmdacs	r5!, {r0, r5, r6, sl, ip, sp, lr}^
    387c:	65737361 	ldrbvs	r7, [r3, #-865]!	; 0xfffffc9f
    3880:	655f7472 	ldrbvs	r7, [pc, #-1138]	; 3416 <_Min_Stack_Size+0x3016>
    3884:	756c6378 	strbvc	r6, [ip, #-888]!	; 0xfffffc88
    3888:	65766973 	ldrbvs	r6, [r6, #-2419]!	; 0xfffff68d
    388c:	636f6c5f 	cmnvs	pc, #24320	; 0x5f00
    3890:	5f5f286b 	svcpl	0x005f286b
    3894:	415f4156 	cmpmi	pc, r6, asr r1	; <UNPREDICTABLE>
    3898:	5f534752 	svcpl	0x00534752
    389c:	0029295f 	eoreq	r2, r9, pc, asr r9
    38a0:	52474643 	subpl	r4, r7, #70254592	; 0x4300000
    38a4:	555f5f00 	ldrbpl	r5, [pc, #-3840]	; 29ac <_Min_Stack_Size+0x25ac>
    38a8:	41524653 	cmpmi	r2, r3, asr r6
    38ac:	465f5443 	ldrbmi	r5, [pc], -r3, asr #8
    38b0:	5f544942 	svcpl	0x00544942
    38b4:	0038205f 	eorseq	r2, r8, pc, asr r0
    38b8:	4c4c5f5f 	mcrrmi	15, 5, r5, ip, cr15
    38bc:	55434341 	strbpl	r4, [r3, #-833]	; 0xfffffcbf
    38c0:	414d5f4d 	cmpmi	sp, sp, asr #30
    38c4:	205f5f58 	subscs	r5, pc, r8, asr pc	; <UNPREDICTABLE>
    38c8:	46375830 			; <UNDEFINED> instruction: 0x46375830
    38cc:	46464646 	strbmi	r4, [r6], -r6, asr #12
    38d0:	46464646 	strbmi	r4, [r6], -r6, asr #12
    38d4:	46464646 	strbmi	r4, [r6], -r6, asr #12
    38d8:	2d504646 	ldclcs	6, cr4, [r0, #-280]	; 0xfffffee8
    38dc:	4c4c3133 	stfmie	f3, [ip], {51}	; 0x33
    38e0:	6f5f004b 	svcvs	0x005f004b
    38e4:	65736666 	ldrbvs	r6, [r3, #-1638]!	; 0xfffff99a
    38e8:	425f0074 	subsmi	r0, pc, #116	; 0x74
    38ec:	505f4453 	subspl	r4, pc, r3, asr r4	; <UNPREDICTABLE>
    38f0:	49445254 	stmdbmi	r4, {r2, r4, r6, r9, ip, lr}^
    38f4:	545f4646 	ldrbpl	r4, [pc], #-1606	; 38fc <_Min_Stack_Size+0x34fc>
    38f8:	5f00205f 	svcpl	0x0000205f
    38fc:	62747663 	rsbsvs	r7, r4, #103809024	; 0x6300000
    3900:	5f006675 	svcpl	0x00006675
    3904:	4553555f 	ldrbmi	r5, [r3, #-1375]	; 0xfffffaa1
    3908:	414c5f52 	cmpmi	ip, r2, asr pc
    390c:	5f4c4542 	svcpl	0x004c4542
    3910:	46455250 			; <UNDEFINED> instruction: 0x46455250
    3914:	5f5f5849 	svcpl	0x005f5849
    3918:	5f5f0020 	svcpl	0x005f0020
    391c:	544e4955 	strbpl	r4, [lr], #-2389	; 0xfffff6ab
    3920:	4d5f3436 	cfldrdmi	mvd3, [pc, #-216]	; 3850 <_Min_Stack_Size+0x3450>
    3924:	5f5f5841 	svcpl	0x005f5841
    3928:	66783020 	ldrbtvs	r3, [r8], -r0, lsr #32
    392c:	66666666 	strbtvs	r6, [r6], -r6, ror #12
    3930:	66666666 	strbtvs	r6, [r6], -r6, ror #12
    3934:	66666666 	strbtvs	r6, [r6], -r6, ror #12
    3938:	55666666 	strbpl	r6, [r6, #-1638]!	; 0xfffff99a
    393c:	5f004c4c 	svcpl	0x00004c4c
    3940:	4e454552 	mcrmi	5, 2, r4, cr5, cr2, {2}
    3944:	54535f54 	ldrbpl	r5, [r3], #-3924	; 0xfffff0ac
    3948:	4b4f5452 	blmi	13d8a98 <_Min_Stack_Size+0x13d8698>
    394c:	53414c5f 	movtpl	r4, #7263	; 0x1c5f
    3950:	74702854 	ldrbtvc	r2, [r0], #-2132	; 0xfffff7ac
    3954:	28202972 	stmdacs	r0!, {r1, r4, r5, r6, r8, fp, sp}
    3958:	72747028 	rsbsvc	r7, r4, #40	; 0x28
    395c:	5f3e2d29 	svcpl	0x003e2d29
    3960:	6373696d 	cmnvs	r3, #1785856	; 0x1b4000
    3964:	735f3e2d 	cmpvc	pc, #720	; 0x2d0
    3968:	6f747274 	svcvs	0x00747274
    396c:	616c5f6b 	cmnvs	ip, fp, ror #30
    3970:	00297473 	eoreq	r7, r9, r3, ror r4
    3974:	49555f5f 	ldmdbmi	r5, {r0, r1, r2, r3, r4, r6, r8, r9, sl, fp, ip, lr}^
    3978:	3233544e 	eorscc	r5, r3, #1308622848	; 0x4e000000
    397c:	58414d5f 	stmdapl	r1, {r0, r1, r2, r3, r4, r6, r8, sl, fp, lr}^
    3980:	30205f5f 	eorcc	r5, r0, pc, asr pc
    3984:	66666678 			; <UNDEFINED> instruction: 0x66666678
    3988:	66666666 	strbtvs	r6, [r6], -r6, ror #12
    398c:	004c5566 	subeq	r5, ip, r6, ror #10
    3990:	4545525f 	strbmi	r5, [r5, #-607]	; 0xfffffda1
    3994:	495f544e 	ldmdbmi	pc, {r1, r2, r3, r6, sl, ip, lr}^	; <UNPREDICTABLE>
    3998:	5f54494e 	svcpl	0x0054494e
    399c:	4353494d 	cmpmi	r3, #1261568	; 0x134000
    39a0:	72617628 	rsbvc	r7, r1, #40, 12	; 0x2800000
    39a4:	6f642029 	svcvs	0x00642029
    39a8:	73207b20 			; <UNDEFINED> instruction: 0x73207b20
    39ac:	63757274 	cmnvs	r5, #116, 4	; 0x40000007
    39b0:	725f2074 	subsvc	r2, pc, #116	; 0x74
    39b4:	746e6565 	strbtvc	r6, [lr], #-1381	; 0xfffffa9b
    39b8:	725f2a20 	subsvc	r2, pc, #32, 20	; 0x20000
    39bc:	28203d20 	stmdacs	r0!, {r5, r8, sl, fp, ip, sp}
    39c0:	29726176 	ldmdbcs	r2!, {r1, r2, r4, r5, r6, r8, sp, lr}^
    39c4:	725f203b 	subsvc	r2, pc, #59	; 0x3b
    39c8:	6d5f3e2d 	ldclvs	14, cr3, [pc, #-180]	; 391c <_Min_Stack_Size+0x351c>
    39cc:	2d637369 	stclcs	3, cr7, [r3, #-420]!	; 0xfffffe5c
    39d0:	74735f3e 	ldrbtvc	r5, [r3], #-3902	; 0xfffff0c2
    39d4:	6b6f7472 	blvs	1be0ba4 <_Min_Stack_Size+0x1be07a4>
    39d8:	73616c5f 	cmnvc	r1, #24320	; 0x5f00
    39dc:	203d2074 	eorscs	r2, sp, r4, ror r0
    39e0:	4c554e5f 	mrrcmi	14, 5, r4, r5, cr15
    39e4:	5f203b4c 	svcpl	0x00203b4c
    39e8:	5f3e2d72 	svcpl	0x003e2d72
    39ec:	6373696d 	cmnvs	r3, #1785856	; 0x1b4000
    39f0:	6d5f3e2d 	ldclvs	14, cr3, [pc, #-180]	; 3944 <_Min_Stack_Size+0x3544>
    39f4:	6e656c62 	cdpvs	12, 6, cr6, cr5, cr2, {3}
    39f8:	6174735f 	cmnvs	r4, pc, asr r3
    39fc:	5f2e6574 	svcpl	0x002e6574
    3a00:	756f635f 	strbvc	r6, [pc, #-863]!	; 36a9 <_Min_Stack_Size+0x32a9>
    3a04:	3d20746e 	cfstrscc	mvf7, [r0, #-440]!	; 0xfffffe48
    3a08:	203b3020 	eorscs	r3, fp, r0, lsr #32
    3a0c:	3e2d725f 	mcrcc	2, 1, r7, cr13, cr15, {2}
    3a10:	73696d5f 	cmnvc	r9, #6080	; 0x17c0
    3a14:	5f3e2d63 	svcpl	0x003e2d63
    3a18:	656c626d 	strbvs	r6, [ip, #-621]!	; 0xfffffd93
    3a1c:	74735f6e 	ldrbtvc	r5, [r3], #-3950	; 0xfffff092
    3a20:	2e657461 	cdpcs	4, 6, cr7, cr5, cr1, {3}
    3a24:	61765f5f 	cmnvs	r6, pc, asr pc
    3a28:	2e65756c 	cdpcs	5, 6, cr7, cr5, cr12, {3}
    3a2c:	63775f5f 	cmnvs	r7, #380	; 0x17c
    3a30:	203d2068 	eorscs	r2, sp, r8, rrx
    3a34:	5f203b30 	svcpl	0x00203b30
    3a38:	5f3e2d72 	svcpl	0x003e2d72
    3a3c:	6373696d 	cmnvs	r3, #1785856	; 0x1b4000
    3a40:	775f3e2d 	ldrbvc	r3, [pc, -sp, lsr #28]
    3a44:	6d6f7463 	cfstrdvs	mvd7, [pc, #-396]!	; 38c0 <_Min_Stack_Size+0x34c0>
    3a48:	74735f62 	ldrbtvc	r5, [r3], #-3938	; 0xfffff09e
    3a4c:	2e657461 	cdpcs	4, 6, cr7, cr5, cr1, {3}
    3a50:	6f635f5f 	svcvs	0x00635f5f
    3a54:	20746e75 	rsbscs	r6, r4, r5, ror lr
    3a58:	3b30203d 	blcc	c0bb54 <_Min_Stack_Size+0xc0b754>
    3a5c:	2d725f20 	ldclcs	15, cr5, [r2, #-128]!	; 0xffffff80
    3a60:	696d5f3e 	stmdbvs	sp!, {r1, r2, r3, r4, r5, r8, r9, sl, fp, ip, lr}^
    3a64:	3e2d6373 	mcrcc	3, 1, r6, cr13, cr3, {3}
    3a68:	7463775f 	strbtvc	r7, [r3], #-1887	; 0xfffff8a1
    3a6c:	5f626d6f 	svcpl	0x00626d6f
    3a70:	74617473 	strbtvc	r7, [r1], #-1139	; 0xfffffb8d
    3a74:	5f5f2e65 	svcpl	0x005f2e65
    3a78:	756c6176 	strbvc	r6, [ip, #-374]!	; 0xfffffe8a
    3a7c:	5f5f2e65 	svcpl	0x005f2e65
    3a80:	20686377 	rsbcs	r6, r8, r7, ror r3
    3a84:	3b30203d 	blcc	c0bb80 <_Min_Stack_Size+0xc0b780>
    3a88:	2d725f20 	ldclcs	15, cr5, [r2, #-128]!	; 0xffffff80
    3a8c:	696d5f3e 	stmdbvs	sp!, {r1, r2, r3, r4, r5, r8, r9, sl, fp, ip, lr}^
    3a90:	3e2d6373 	mcrcc	3, 1, r6, cr13, cr3, {3}
    3a94:	74626d5f 	strbtvc	r6, [r2], #-3423	; 0xfffff2a1
    3a98:	5f63776f 	svcpl	0x0063776f
    3a9c:	74617473 	strbtvc	r7, [r1], #-1139	; 0xfffffb8d
    3aa0:	5f5f2e65 	svcpl	0x005f2e65
    3aa4:	6e756f63 	cdpvs	15, 7, cr6, cr5, cr3, {3}
    3aa8:	203d2074 	eorscs	r2, sp, r4, ror r0
    3aac:	5f203b30 	svcpl	0x00203b30
    3ab0:	5f3e2d72 	svcpl	0x003e2d72
    3ab4:	6373696d 	cmnvs	r3, #1785856	; 0x1b4000
    3ab8:	6d5f3e2d 	ldclvs	14, cr3, [pc, #-180]	; 3a0c <_Min_Stack_Size+0x360c>
    3abc:	776f7462 	strbvc	r7, [pc, -r2, ror #8]!
    3ac0:	74735f63 	ldrbtvc	r5, [r3], #-3939	; 0xfffff09d
    3ac4:	2e657461 	cdpcs	4, 6, cr7, cr5, cr1, {3}
    3ac8:	61765f5f 	cmnvs	r6, pc, asr pc
    3acc:	2e65756c 	cdpcs	5, 6, cr7, cr5, cr12, {3}
    3ad0:	63775f5f 	cmnvs	r7, #380	; 0x17c
    3ad4:	203d2068 	eorscs	r2, sp, r8, rrx
    3ad8:	5f203b30 	svcpl	0x00203b30
    3adc:	5f3e2d72 	svcpl	0x003e2d72
    3ae0:	6373696d 	cmnvs	r3, #1785856	; 0x1b4000
    3ae4:	6d5f3e2d 	ldclvs	14, cr3, [pc, #-180]	; 3a38 <_Min_Stack_Size+0x3638>
    3ae8:	656c7262 	strbvs	r7, [ip, #-610]!	; 0xfffffd9e
    3aec:	74735f6e 	ldrbtvc	r5, [r3], #-3950	; 0xfffff092
    3af0:	2e657461 	cdpcs	4, 6, cr7, cr5, cr1, {3}
    3af4:	6f635f5f 	svcvs	0x00635f5f
    3af8:	20746e75 	rsbscs	r6, r4, r5, ror lr
    3afc:	3b30203d 	blcc	c0bbf8 <_Min_Stack_Size+0xc0b7f8>
    3b00:	2d725f20 	ldclcs	15, cr5, [r2, #-128]!	; 0xffffff80
    3b04:	696d5f3e 	stmdbvs	sp!, {r1, r2, r3, r4, r5, r8, r9, sl, fp, ip, lr}^
    3b08:	3e2d6373 	mcrcc	3, 1, r6, cr13, cr3, {3}
    3b0c:	72626d5f 	rsbvc	r6, r2, #6080	; 0x17c0
    3b10:	5f6e656c 	svcpl	0x006e656c
    3b14:	74617473 	strbtvc	r7, [r1], #-1139	; 0xfffffb8d
    3b18:	5f5f2e65 	svcpl	0x005f2e65
    3b1c:	756c6176 	strbvc	r6, [ip, #-374]!	; 0xfffffe8a
    3b20:	5f5f2e65 	svcpl	0x005f2e65
    3b24:	20686377 	rsbcs	r6, r8, r7, ror r3
    3b28:	3b30203d 	blcc	c0bc24 <_Min_Stack_Size+0xc0b824>
    3b2c:	2d725f20 	ldclcs	15, cr5, [r2, #-128]!	; 0xffffff80
    3b30:	696d5f3e 	stmdbvs	sp!, {r1, r2, r3, r4, r5, r8, r9, sl, fp, ip, lr}^
    3b34:	3e2d6373 	mcrcc	3, 1, r6, cr13, cr3, {3}
    3b38:	72626d5f 	rsbvc	r6, r2, #6080	; 0x17c0
    3b3c:	63776f74 	cmnvs	r7, #116, 30	; 0x1d0
    3b40:	6174735f 	cmnvs	r4, pc, asr r3
    3b44:	5f2e6574 	svcpl	0x002e6574
    3b48:	756f635f 	strbvc	r6, [pc, #-863]!	; 37f1 <_Min_Stack_Size+0x33f1>
    3b4c:	3d20746e 	cfstrscc	mvf7, [r0, #-440]!	; 0xfffffe48
    3b50:	203b3020 	eorscs	r3, fp, r0, lsr #32
    3b54:	3e2d725f 	mcrcc	2, 1, r7, cr13, cr15, {2}
    3b58:	73696d5f 	cmnvc	r9, #6080	; 0x17c0
    3b5c:	5f3e2d63 	svcpl	0x003e2d63
    3b60:	7472626d 	ldrbtvc	r6, [r2], #-621	; 0xfffffd93
    3b64:	5f63776f 	svcpl	0x0063776f
    3b68:	74617473 	strbtvc	r7, [r1], #-1139	; 0xfffffb8d
    3b6c:	5f5f2e65 	svcpl	0x005f2e65
    3b70:	756c6176 	strbvc	r6, [ip, #-374]!	; 0xfffffe8a
    3b74:	5f5f2e65 	svcpl	0x005f2e65
    3b78:	20686377 	rsbcs	r6, r8, r7, ror r3
    3b7c:	3b30203d 	blcc	c0bc78 <_Min_Stack_Size+0xc0b878>
    3b80:	2d725f20 	ldclcs	15, cr5, [r2, #-128]!	; 0xffffff80
    3b84:	696d5f3e 	stmdbvs	sp!, {r1, r2, r3, r4, r5, r8, r9, sl, fp, ip, lr}^
    3b88:	3e2d6373 	mcrcc	3, 1, r6, cr13, cr3, {3}
    3b8c:	73626d5f 	cmnvc	r2, #6080	; 0x17c0
    3b90:	776f7472 			; <UNDEFINED> instruction: 0x776f7472
    3b94:	735f7363 	cmpvc	pc, #-1946157055	; 0x8c000001
    3b98:	65746174 	ldrbvs	r6, [r4, #-372]!	; 0xfffffe8c
    3b9c:	635f5f2e 	cmpvs	pc, #46, 30	; 0xb8
    3ba0:	746e756f 	strbtvc	r7, [lr], #-1391	; 0xfffffa91
    3ba4:	30203d20 	eorcc	r3, r0, r0, lsr #26
    3ba8:	725f203b 	subsvc	r2, pc, #59	; 0x3b
    3bac:	6d5f3e2d 	ldclvs	14, cr3, [pc, #-180]	; 3b00 <_Min_Stack_Size+0x3700>
    3bb0:	2d637369 	stclcs	3, cr7, [r3, #-420]!	; 0xfffffe5c
    3bb4:	626d5f3e 	rsbvs	r5, sp, #62, 30	; 0xf8
    3bb8:	6f747273 	svcvs	0x00747273
    3bbc:	5f736377 	svcpl	0x00736377
    3bc0:	74617473 	strbtvc	r7, [r1], #-1139	; 0xfffffb8d
    3bc4:	5f5f2e65 	svcpl	0x005f2e65
    3bc8:	756c6176 	strbvc	r6, [ip, #-374]!	; 0xfffffe8a
    3bcc:	5f5f2e65 	svcpl	0x005f2e65
    3bd0:	20686377 	rsbcs	r6, r8, r7, ror r3
    3bd4:	3b30203d 	blcc	c0bcd0 <_Min_Stack_Size+0xc0b8d0>
    3bd8:	2d725f20 	ldclcs	15, cr5, [r2, #-128]!	; 0xffffff80
    3bdc:	696d5f3e 	stmdbvs	sp!, {r1, r2, r3, r4, r5, r8, r9, sl, fp, ip, lr}^
    3be0:	3e2d6373 	mcrcc	3, 1, r6, cr13, cr3, {3}
    3be4:	7263775f 	rsbvc	r7, r3, #24903680	; 0x17c0000
    3be8:	626d6f74 	rsbvs	r6, sp, #116, 30	; 0x1d0
    3bec:	6174735f 	cmnvs	r4, pc, asr r3
    3bf0:	5f2e6574 	svcpl	0x002e6574
    3bf4:	756f635f 	strbvc	r6, [pc, #-863]!	; 389d <_Min_Stack_Size+0x349d>
    3bf8:	3d20746e 	cfstrscc	mvf7, [r0, #-440]!	; 0xfffffe48
    3bfc:	203b3020 	eorscs	r3, fp, r0, lsr #32
    3c00:	3e2d725f 	mcrcc	2, 1, r7, cr13, cr15, {2}
    3c04:	73696d5f 	cmnvc	r9, #6080	; 0x17c0
    3c08:	5f3e2d63 	svcpl	0x003e2d63
    3c0c:	74726377 	ldrbtvc	r6, [r2], #-887	; 0xfffffc89
    3c10:	5f626d6f 	svcpl	0x00626d6f
    3c14:	74617473 	strbtvc	r7, [r1], #-1139	; 0xfffffb8d
    3c18:	5f5f2e65 	svcpl	0x005f2e65
    3c1c:	756c6176 	strbvc	r6, [ip, #-374]!	; 0xfffffe8a
    3c20:	5f5f2e65 	svcpl	0x005f2e65
    3c24:	20686377 	rsbcs	r6, r8, r7, ror r3
    3c28:	3b30203d 	blcc	c0bd24 <_Min_Stack_Size+0xc0b924>
    3c2c:	2d725f20 	ldclcs	15, cr5, [r2, #-128]!	; 0xffffff80
    3c30:	696d5f3e 	stmdbvs	sp!, {r1, r2, r3, r4, r5, r8, r9, sl, fp, ip, lr}^
    3c34:	3e2d6373 	mcrcc	3, 1, r6, cr13, cr3, {3}
    3c38:	7363775f 	cmnvc	r3, #24903680	; 0x17c0000
    3c3c:	6d6f7472 	cfstrdvs	mvd7, [pc, #-456]!	; 3a7c <_Min_Stack_Size+0x367c>
    3c40:	735f7362 	cmpvc	pc, #-2013265919	; 0x88000001
    3c44:	65746174 	ldrbvs	r6, [r4, #-372]!	; 0xfffffe8c
    3c48:	635f5f2e 	cmpvs	pc, #46, 30	; 0xb8
    3c4c:	746e756f 	strbtvc	r7, [lr], #-1391	; 0xfffffa91
    3c50:	30203d20 	eorcc	r3, r0, r0, lsr #26
    3c54:	725f203b 	subsvc	r2, pc, #59	; 0x3b
    3c58:	6d5f3e2d 	ldclvs	14, cr3, [pc, #-180]	; 3bac <_Min_Stack_Size+0x37ac>
    3c5c:	2d637369 	stclcs	3, cr7, [r3, #-420]!	; 0xfffffe5c
    3c60:	63775f3e 	cmnvs	r7, #62, 30	; 0xf8
    3c64:	6f747273 	svcvs	0x00747273
    3c68:	5f73626d 	svcpl	0x0073626d
    3c6c:	74617473 	strbtvc	r7, [r1], #-1139	; 0xfffffb8d
    3c70:	5f5f2e65 	svcpl	0x005f2e65
    3c74:	756c6176 	strbvc	r6, [ip, #-374]!	; 0xfffffe8a
    3c78:	5f5f2e65 	svcpl	0x005f2e65
    3c7c:	20686377 	rsbcs	r6, r8, r7, ror r3
    3c80:	3b30203d 	blcc	c0bd7c <_Min_Stack_Size+0xc0b97c>
    3c84:	2d725f20 	ldclcs	15, cr5, [r2, #-128]!	; 0xffffff80
    3c88:	696d5f3e 	stmdbvs	sp!, {r1, r2, r3, r4, r5, r8, r9, sl, fp, ip, lr}^
    3c8c:	3e2d6373 	mcrcc	3, 1, r6, cr13, cr3, {3}
    3c90:	34366c5f 	ldrtcc	r6, [r6], #-3167	; 0xfffff3a1
    3c94:	75625f61 	strbvc	r5, [r2, #-3937]!	; 0xfffff09f
    3c98:	5d305b66 	vldmdbpl	r0!, {d5-<overflow reg d55>}
    3c9c:	27203d20 	strcs	r3, [r0, -r0, lsr #26]!
    3ca0:	3b27305c 	blcc	9cfe18 <_Min_Stack_Size+0x9cfa18>
    3ca4:	2d725f20 	ldclcs	15, cr5, [r2, #-128]!	; 0xffffff80
    3ca8:	696d5f3e 	stmdbvs	sp!, {r1, r2, r3, r4, r5, r8, r9, sl, fp, ip, lr}^
    3cac:	3e2d6373 	mcrcc	3, 1, r6, cr13, cr3, {3}
    3cb0:	7465675f 	strbtvc	r6, [r5], #-1887	; 0xfffff8a1
    3cb4:	65746164 	ldrbvs	r6, [r4, #-356]!	; 0xfffffe9c
    3cb8:	7272655f 	rsbsvc	r6, r2, #398458880	; 0x17c00000
    3cbc:	30203d20 	eorcc	r3, r0, r0, lsr #26
    3cc0:	207d203b 	rsbscs	r2, sp, fp, lsr r0
    3cc4:	6c696877 	stclvs	8, cr6, [r9], #-476	; 0xfffffe24
    3cc8:	30282065 	eorcc	r2, r8, r5, rrx
    3ccc:	415f0029 	cmpmi	pc, r9, lsr #32
    3cd0:	4c494654 	mcrrmi	6, 5, r4, r9, cr4
    3cd4:	4f535f45 	svcmi	0x00535f45
    3cd8:	45435255 	strbmi	r5, [r3, #-597]	; 0xfffffdab
    3cdc:	544e4900 	strbpl	r4, [lr], #-2304	; 0xfffff700
    3ce0:	5341465f 	movtpl	r4, #5727	; 0x165f
    3ce4:	5f363154 	svcpl	0x00363154
    3ce8:	204e494d 	subcs	r4, lr, sp, asr #18
    3cec:	5f5f2d28 	svcpl	0x005f2d28
    3cf0:	5f544e49 	svcpl	0x00544e49
    3cf4:	54534146 	ldrbpl	r4, [r3], #-326	; 0xfffffeba
    3cf8:	4d5f3631 	ldclmi	6, cr3, [pc, #-196]	; 3c3c <_Min_Stack_Size+0x383c>
    3cfc:	5f5f5841 	svcpl	0x005f5841
    3d00:	31202d20 			; <UNDEFINED> instruction: 0x31202d20
    3d04:	5f5f0029 	svcpl	0x005f0029
    3d08:	43445453 	movtmi	r5, #17491	; 0x4453
    3d0c:	5245565f 	subpl	r5, r5, #99614720	; 0x5f00000
    3d10:	4e4f4953 			; <UNDEFINED> instruction: 0x4e4f4953
    3d14:	32205f5f 	eorcc	r5, r0, #380	; 0x17c
    3d18:	31313130 	teqcc	r1, r0, lsr r1
    3d1c:	5f004c32 	svcpl	0x00004c32
    3d20:	6c616d5f 	stclvs	13, cr6, [r1], #-380	; 0xfffffe84
    3d24:	5f636f6c 	svcpl	0x00636f6c
    3d28:	656b696c 	strbvs	r6, [fp, #-2412]!	; 0xfffff694
    3d2c:	615f5f20 	cmpvs	pc, r0, lsr #30
    3d30:	69727474 	ldmdbvs	r2!, {r2, r4, r5, r6, sl, ip, sp, lr}^
    3d34:	65747562 	ldrbvs	r7, [r4, #-1378]!	; 0xfffffa9e
    3d38:	28285f5f 	stmdacs	r8!, {r0, r1, r2, r3, r4, r6, r8, r9, sl, fp, ip, lr}
    3d3c:	616d5f5f 	cmnvs	sp, pc, asr pc
    3d40:	636f6c6c 	cmnvs	pc, #108, 24	; 0x6c00
    3d44:	29295f5f 	stmdbcs	r9!, {r0, r1, r2, r3, r4, r6, r8, r9, sl, fp, ip, lr}
    3d48:	745f5f00 	ldrbvc	r5, [pc], #-3840	; 3d50 <_Min_Stack_Size+0x3950>
    3d4c:	6f6c7972 	svcvs	0x006c7972
    3d50:	5f736b63 	svcpl	0x00736b63
    3d54:	72616873 	rsbvc	r6, r1, #7536640	; 0x730000
    3d58:	2e286465 	cdpcs	4, 2, cr6, cr8, cr5, {3}
    3d5c:	20292e2e 	eorcs	r2, r9, lr, lsr #28
    3d60:	6f6c5f5f 	svcvs	0x006c5f5f
    3d64:	615f6b63 	cmpvs	pc, r3, ror #22
    3d68:	746f6e6e 	strbtvc	r6, [pc], #-3694	; 3d70 <_Min_Stack_Size+0x3970>
    3d6c:	28657461 	stmdacs	r5!, {r0, r5, r6, sl, ip, sp, lr}^
    3d70:	72616873 	rsbvc	r6, r1, #7536640	; 0x730000
    3d74:	745f6465 	ldrbvc	r6, [pc], #-1125	; 3d7c <_Min_Stack_Size+0x397c>
    3d78:	6f6c7972 	svcvs	0x006c7972
    3d7c:	665f6b63 	ldrbvs	r6, [pc], -r3, ror #22
    3d80:	74636e75 	strbtvc	r6, [r3], #-3701	; 0xfffff18b
    3d84:	286e6f69 	stmdacs	lr!, {r0, r3, r5, r6, r8, r9, sl, fp, sp, lr}^
    3d88:	41565f5f 	cmpmi	r6, pc, asr pc
    3d8c:	4752415f 			; <UNDEFINED> instruction: 0x4752415f
    3d90:	295f5f53 	ldmdbcs	pc, {r0, r1, r4, r6, r8, r9, sl, fp, ip, lr}^	; <UNPREDICTABLE>
    3d94:	5f5f0029 	svcpl	0x005f0029
    3d98:	5f544e49 	svcpl	0x00544e49
    3d9c:	5341454c 	movtpl	r4, #5452	; 0x154c
    3da0:	4d5f3854 	ldclmi	8, cr3, [pc, #-336]	; 3c58 <_Min_Stack_Size+0x3858>
    3da4:	5f5f5841 	svcpl	0x005f5841
    3da8:	37783020 	ldrbcc	r3, [r8, -r0, lsr #32]!
    3dac:	58450066 	stmdapl	r5, {r1, r2, r5, r6}^
    3db0:	495f4954 	ldmdbmi	pc, {r2, r4, r6, r8, fp, lr}^	; <UNPREDICTABLE>
    3db4:	455f5152 	ldrbmi	r5, [pc, #-338]	; 3c6a <_Min_Stack_Size+0x386a>
    3db8:	6c62616e 	stfvse	f6, [r2], #-440	; 0xfffffe48
    3dbc:	00312065 	eorseq	r2, r1, r5, rrx
    3dc0:	43475f5f 	movtmi	r5, #32607	; 0x7f5f
    3dc4:	54415f43 	strbpl	r5, [r1], #-3907	; 0xfffff0bd
    3dc8:	43494d4f 	movtmi	r4, #40271	; 0x9d4f
    3dcc:	494f505f 	stmdbmi	pc, {r0, r1, r2, r3, r4, r6, ip, lr}^	; <UNPREDICTABLE>
    3dd0:	5245544e 	subpl	r5, r5, #1308622848	; 0x4e000000
    3dd4:	434f4c5f 	movtmi	r4, #64607	; 0xfc5f
    3dd8:	52465f4b 	subpl	r5, r6, #300	; 0x12c
    3ddc:	32204545 	eorcc	r4, r0, #289406976	; 0x11400000
    3de0:	415f5f00 	cmpmi	pc, r0, lsl #30
    3de4:	465f4d52 			; <UNDEFINED> instruction: 0x465f4d52
    3de8:	55544145 	ldrbpl	r4, [r4, #-325]	; 0xfffffebb
    3dec:	515f4552 	cmppl	pc, r2, asr r5	; <UNPREDICTABLE>
    3df0:	20544942 	subscs	r4, r4, r2, asr #18
    3df4:	5f5f0031 	svcpl	0x005f0031
    3df8:	5f4d5241 	svcpl	0x004d5241
    3dfc:	54414546 	strbpl	r4, [r1], #-1350	; 0xfffffaba
    3e00:	5f455255 	svcpl	0x00455255
    3e04:	205a4c43 	subscs	r4, sl, r3, asr #24
    3e08:	5f5f0031 	svcpl	0x005f0031
    3e0c:	535f4343 	cmppl	pc, #201326593	; 0xc000001
    3e10:	4f505055 	svcmi	0x00505055
    3e14:	5f535452 	svcpl	0x00535452
    3e18:	4e524157 	mrcmi	1, 2, r4, cr2, cr7, {2}
    3e1c:	20474e49 	subcs	r4, r7, r9, asr #28
    3e20:	5f5f0031 	svcpl	0x005f0031
    3e24:	4d4f5441 	cfstrdmi	mvd5, [pc, #-260]	; 3d28 <_Min_Stack_Size+0x3928>
    3e28:	415f4349 	cmpmi	pc, r9, asr #6
    3e2c:	49555143 	ldmdbmi	r5, {r0, r1, r6, r8, ip, lr}^
    3e30:	32204552 	eorcc	r4, r0, #343932928	; 0x14800000
    3e34:	49504700 	ldmdbmi	r0, {r8, r9, sl, lr}^
    3e38:	2820434f 	stmdacs	r0!, {r0, r1, r2, r3, r6, r8, r9, lr}
    3e3c:	49504728 	ldmdbmi	r0, {r3, r5, r8, r9, sl, lr}^
    3e40:	79545f4f 	ldmdbvc	r4, {r0, r1, r2, r3, r6, r8, r9, sl, fp, ip, lr}^
    3e44:	65446570 	strbvs	r6, [r4, #-1392]	; 0xfffffa90
    3e48:	292a2066 	stmdbcs	sl!, {r1, r2, r5, r6, sp}
    3e4c:	4f495047 	svcmi	0x00495047
    3e50:	41425f43 	cmpmi	r2, r3, asr #30
    3e54:	00294553 	eoreq	r4, r9, r3, asr r5
    3e58:	6f6c5f5f 	svcvs	0x006c5f5f
    3e5c:	5f736b63 	svcpl	0x00736b63
    3e60:	72616873 	rsbvc	r6, r1, #7536640	; 0x730000
    3e64:	2e286465 	cdpcs	4, 2, cr6, cr8, cr5, {3}
    3e68:	20292e2e 	eorcs	r2, r9, lr, lsr #28
    3e6c:	6f6c5f5f 	svcvs	0x006c5f5f
    3e70:	615f6b63 	cmpvs	pc, r3, ror #22
    3e74:	746f6e6e 	strbtvc	r6, [pc], #-3694	; 3e7c <_Min_Stack_Size+0x3a7c>
    3e78:	28657461 	stmdacs	r5!, {r0, r5, r6, sl, ip, sp, lr}^
    3e7c:	72616873 	rsbvc	r6, r1, #7536640	; 0x730000
    3e80:	6c5f6465 	cfldrdvs	mvd6, [pc], {101}	; 0x65
    3e84:	5f6b636f 	svcpl	0x006b636f
    3e88:	636e7566 	cmnvs	lr, #427819008	; 0x19800000
    3e8c:	6e6f6974 			; <UNDEFINED> instruction: 0x6e6f6974
    3e90:	565f5f28 	ldrbpl	r5, [pc], -r8, lsr #30
    3e94:	52415f41 	subpl	r5, r1, #260	; 0x104
    3e98:	5f5f5347 	svcpl	0x005f5347
    3e9c:	5f002929 	svcpl	0x00002929
    3ea0:	544e495f 	strbpl	r4, [lr], #-2399	; 0xfffff6a1
    3ea4:	22203631 	eorcs	r3, r0, #51380224	; 0x3100000
    3ea8:	75002268 	strvc	r2, [r0, #-616]	; 0xfffffd98
    3eac:	6769736e 	strbvs	r7, [r9, -lr, ror #6]!
    3eb0:	2064656e 	rsbcs	r6, r4, lr, ror #10
    3eb4:	6e676973 			; <UNDEFINED> instruction: 0x6e676973
    3eb8:	5f006465 	svcpl	0x00006465
    3ebc:	50544e49 	subspl	r4, r4, r9, asr #28
    3ec0:	455f5254 	ldrbmi	r5, [pc, #-596]	; 3c74 <_Min_Stack_Size+0x3874>
    3ec4:	4e495f51 	mcrmi	15, 2, r5, cr9, cr1, {2}
    3ec8:	5f002054 	svcpl	0x00002054
    3ecc:	4d52415f 	ldfmie	f4, [r2, #-380]	; 0xfffffe84
    3ed0:	5a49535f 	bpl	1258c54 <_Min_Stack_Size+0x1258854>
    3ed4:	5f464f45 	svcpl	0x00464f45
    3ed8:	41484357 	cmpmi	r8, r7, asr r3
    3edc:	20545f52 	subscs	r5, r4, r2, asr pc
    3ee0:	5f5f0034 	svcpl	0x005f0034
    3ee4:	33544c46 	cmpcc	r4, #17920	; 0x4600
    3ee8:	4d5f5832 	ldclmi	8, cr5, [pc, #-200]	; 3e28 <_Min_Stack_Size+0x3a28>
    3eec:	455f5841 	ldrbmi	r5, [pc, #-2113]	; 36b3 <_Min_Stack_Size+0x32b3>
    3ef0:	5f5f5058 	svcpl	0x005f5058
    3ef4:	32303120 	eorscc	r3, r0, #32, 2
    3ef8:	5f5f0034 	svcpl	0x005f0034
    3efc:	5f736168 	svcpl	0x00736168
    3f00:	6c636e69 	stclvs	14, cr6, [r3], #-420	; 0xfffffe5c
    3f04:	28656475 	stmdacs	r5!, {r0, r2, r4, r5, r6, sl, sp, lr}^
    3f08:	29525453 	ldmdbcs	r2, {r0, r1, r4, r6, sl, ip, lr}^
    3f0c:	685f5f20 	ldmdavs	pc, {r5, r8, r9, sl, fp, ip, lr}^	; <UNPREDICTABLE>
    3f10:	695f7361 	ldmdbvs	pc, {r0, r5, r6, r8, r9, ip, sp, lr}^	; <UNPREDICTABLE>
    3f14:	756c636e 	strbvc	r6, [ip, #-878]!	; 0xfffffc92
    3f18:	5f5f6564 	svcpl	0x005f6564
    3f1c:	52545328 	subspl	r5, r4, #40, 6	; 0xa0000000
    3f20:	50470029 	subpl	r0, r7, r9, lsr #32
    3f24:	4d5f4f49 	ldclmi	15, cr4, [pc, #-292]	; 3e08 <_Min_Stack_Size+0x3a08>
    3f28:	5f45444f 	svcpl	0x0045444f
    3f2c:	6c616e41 	stclvs	14, cr6, [r1], #-260	; 0xfffffefc
    3f30:	3020676f 	eorcc	r6, r0, pc, ror #14
    3f34:	30303078 	eorscc	r3, r0, r8, ror r0
    3f38:	30303030 	eorscc	r3, r0, r0, lsr r0
    3f3c:	4e007530 	cfmv64hrmi	mvdx0, r7
    3f40:	5f434956 	svcpl	0x00434956
    3f44:	45534142 	ldrbmi	r4, [r3, #-322]	; 0xfffffebe
    3f48:	78302820 	ldmdavc	r0!, {r5, fp, sp}
    3f4c:	30303045 	eorscc	r3, r0, r5, asr #32
    3f50:	30303145 	eorscc	r3, r0, r5, asr #2
    3f54:	00294c55 	eoreq	r4, r9, r5, asr ip
    3f58:	49555f5f 	ldmdbmi	r5, {r0, r1, r2, r3, r4, r6, r8, r9, sl, fp, ip, lr}^
    3f5c:	4c5f544e 	cfldrdmi	mvd5, [pc], {78}	; 0x4e
    3f60:	54534145 	ldrbpl	r4, [r3], #-325	; 0xfffffebb
    3f64:	4d5f3233 	lfmmi	f3, 2, [pc, #-204]	; 3ea0 <_Min_Stack_Size+0x3aa0>
    3f68:	5f5f5841 	svcpl	0x005f5841
    3f6c:	66783020 	ldrbtvs	r3, [r8], -r0, lsr #32
    3f70:	66666666 	strbtvs	r6, [r6], -r6, ror #12
    3f74:	55666666 	strbpl	r6, [r6, #-1638]!	; 0xfffff99a
    3f78:	5f5f004c 	svcpl	0x005f004c
    3f7c:	5f4c4244 	svcpl	0x004c4244
    3f80:	49535045 	ldmdbmi	r3, {r0, r2, r6, ip, lr}^
    3f84:	5f4e4f4c 	svcpl	0x004e4f4c
    3f88:	2828205f 	stmdacs	r8!, {r0, r1, r2, r3, r4, r6, sp}
    3f8c:	62756f64 	rsbsvs	r6, r5, #100, 30	; 0x190
    3f90:	3229656c 	eorcc	r6, r9, #108, 10	; 0x1b000000
    3f94:	3032322e 	eorscc	r3, r2, lr, lsr #4
    3f98:	30363434 	eorscc	r3, r6, r4, lsr r4
    3f9c:	35323934 	ldrcc	r3, [r2, #-2356]!	; 0xfffff6cc
    3fa0:	33313330 	teqcc	r1, #48, 6	; 0xc0000000
    3fa4:	312d6531 			; <UNDEFINED> instruction: 0x312d6531
    3fa8:	00294c36 	eoreq	r4, r9, r6, lsr ip
    3fac:	6f6c5f5f 	svcvs	0x006c5f5f
    3fb0:	615f6b63 	cmpvs	pc, r3, ror #22
    3fb4:	69757163 	ldmdbvs	r5!, {r0, r1, r5, r6, r8, ip, sp, lr}^
    3fb8:	6c286572 	cfstr32vs	mvfx6, [r8], #-456	; 0xfffffe38
    3fbc:	296b636f 	stmdbcs	fp!, {r0, r1, r2, r3, r5, r6, r8, r9, sp, lr}^
    3fc0:	76282820 	strtvc	r2, [r8], -r0, lsr #16
    3fc4:	2964696f 	stmdbcs	r4!, {r0, r1, r2, r3, r5, r6, r8, fp, sp, lr}^
    3fc8:	00293020 	eoreq	r3, r9, r0, lsr #32
    3fcc:	464c5f5f 			; <UNDEFINED> instruction: 0x464c5f5f
    3fd0:	54434152 	strbpl	r4, [r3], #-338	; 0xfffffeae
    3fd4:	4e494d5f 	mcrmi	13, 2, r4, cr9, cr15, {2}
    3fd8:	28205f5f 	stmdacs	r0!, {r0, r1, r2, r3, r4, r6, r8, r9, sl, fp, ip, lr}
    3fdc:	352e302d 	strcc	r3, [lr, #-45]!	; 0xffffffd3
    3fe0:	302d524c 	eorcc	r5, sp, ip, asr #4
    3fe4:	524c352e 	subpl	r3, ip, #192937984	; 0xb800000
    3fe8:	525f0029 	subspl	r0, pc, #41	; 0x29
    3fec:	544e4545 	strbpl	r4, [lr], #-1349	; 0xfffffabb
    3ff0:	5343575f 	movtpl	r5, #14175	; 0x375f
    3ff4:	4d4f5452 	cfstrdmi	mvd5, [pc, #-328]	; 3eb4 <_Min_Stack_Size+0x3ab4>
    3ff8:	535f5342 	cmppl	pc, #134217729	; 0x8000001
    3ffc:	45544154 	ldrbmi	r4, [r4, #-340]	; 0xfffffeac
    4000:	72747028 	rsbsvc	r7, r4, #40	; 0x28
    4004:	28282029 	stmdacs	r8!, {r0, r3, r5, sp}
    4008:	29727470 	ldmdbcs	r2!, {r4, r5, r6, sl, ip, sp, lr}^
    400c:	6d5f3e2d 	ldclvs	14, cr3, [pc, #-180]	; 3f60 <_Min_Stack_Size+0x3b60>
    4010:	2d637369 	stclcs	3, cr7, [r3, #-420]!	; 0xfffffe5c
    4014:	63775f3e 	cmnvs	r7, #62, 30	; 0xf8
    4018:	6f747273 	svcvs	0x00747273
    401c:	5f73626d 	svcpl	0x0073626d
    4020:	74617473 	strbtvc	r7, [r1], #-1139	; 0xfffffb8d
    4024:	5f002965 	svcpl	0x00002965
    4028:	544e495f 	strbpl	r4, [lr], #-2399	; 0xfffff6a1
    402c:	41454c5f 	cmpmi	r5, pc, asr ip
    4030:	34365453 	ldrtcc	r5, [r6], #-1107	; 0xfffffbad
    4034:	4449575f 	strbmi	r5, [r9], #-1887	; 0xfffff8a1
    4038:	5f5f4854 	svcpl	0x005f4854
    403c:	00343620 	eorseq	r3, r4, r0, lsr #12
    4040:	4c465f5f 	mcrrmi	15, 5, r5, r6, cr15
    4044:	41485f54 	cmpmi	r8, r4, asr pc
    4048:	4e495f53 	mcrmi	15, 2, r5, cr9, cr3, {2}
    404c:	494e4946 	stmdbmi	lr, {r1, r2, r6, r8, fp, lr}^
    4050:	5f5f5954 	svcpl	0x005f5954
    4054:	5f003120 	svcpl	0x00003120
    4058:	4e454552 	mcrmi	5, 2, r4, cr5, cr2, {2}
    405c:	4c475f54 	mcrrmi	15, 5, r5, r7, cr4
    4060:	4c41424f 	sfmmi	f4, 2, [r1], {79}	; 0x4f
    4064:	4554415f 	ldrbmi	r4, [r4, #-351]	; 0xfffffea1
    4068:	20544958 	subscs	r4, r4, r8, asr r9
    406c:	5f5f0031 	svcpl	0x005f0031
    4070:	55434341 	strbpl	r4, [r3, #-833]	; 0xfffffcbf
    4074:	414d5f4d 	cmpmi	sp, sp, asr #30
    4078:	205f5f58 	subscs	r5, pc, r8, asr pc	; <UNPREDICTABLE>
    407c:	46375830 			; <UNDEFINED> instruction: 0x46375830
    4080:	46464646 	strbmi	r4, [r6], -r6, asr #12
    4084:	2d504646 	ldclcs	6, cr4, [r0, #-280]	; 0xfffffee8
    4088:	004b3531 	subeq	r3, fp, r1, lsr r5
    408c:	4f495047 	svcmi	0x00495047
    4090:	28282041 	stmdacs	r8!, {r0, r6, sp}
    4094:	4f495047 	svcmi	0x00495047
    4098:	7079545f 	rsbsvc	r5, r9, pc, asr r4
    409c:	66654465 	strbtvs	r4, [r5], -r5, ror #8
    40a0:	47292a20 	strmi	r2, [r9, -r0, lsr #20]!
    40a4:	414f4950 	cmpmi	pc, r0, asr r9	; <UNPREDICTABLE>
    40a8:	5341425f 	movtpl	r4, #4703	; 0x125f
    40ac:	5f002945 	svcpl	0x00002945
    40b0:	544e495f 	strbpl	r4, [lr], #-2399	; 0xfffff6a1
    40b4:	414d5f38 	cmpmi	sp, r8, lsr pc
    40b8:	205f5f58 	subscs	r5, pc, r8, asr pc	; <UNPREDICTABLE>
    40bc:	66377830 			; <UNDEFINED> instruction: 0x66377830
    40c0:	54584500 	ldrbpl	r4, [r8], #-1280	; 0xfffffb00
    40c4:	50323149 	eorspl	r3, r2, r9, asr #2
    40c8:	20323142 	eorscs	r3, r2, r2, asr #2
    40cc:	54584528 	ldrbpl	r4, [r8], #-1320	; 0xfffffad8
    40d0:	50475f49 	subpl	r5, r7, r9, asr #30
    40d4:	4d5f4f49 	ldclmi	15, cr4, [pc, #-292]	; 3fb8 <_Min_Stack_Size+0x3bb8>
    40d8:	6e697061 	cdpvs	0, 6, cr7, cr9, cr1, {3}
    40dc:	29745f67 	ldmdbcs	r4!, {r0, r1, r2, r5, r6, r8, r9, sl, fp, ip, lr}^
    40e0:	5458457b 	ldrbpl	r4, [r8], #-1403	; 0xfffffa85
    40e4:	2c323149 	ldfcss	f3, [r2], #-292	; 0xfffffedc
    40e8:	4f495047 	svcmi	0x00495047
    40ec:	50472c42 	subpl	r2, r7, r2, asr #24
    40f0:	505f4f49 	subspl	r4, pc, r9, asr #30
    40f4:	315f4e49 	cmpcc	pc, r9, asr #28
    40f8:	58452c32 	stmdapl	r5, {r1, r4, r5, sl, fp, sp}^
    40fc:	32314954 	eorscc	r4, r1, #84, 18	; 0x150000
    4100:	5152495f 	cmppl	r2, pc, asr r9
    4104:	5047007d 	subpl	r0, r7, sp, ror r0
    4108:	20444f49 	subcs	r4, r4, r9, asr #30
    410c:	50472828 	subpl	r2, r7, r8, lsr #16
    4110:	545f4f49 	ldrbpl	r4, [pc], #-3913	; 4118 <_Min_Stack_Size+0x3d18>
    4114:	44657079 	strbtmi	r7, [r5], #-121	; 0xffffff87
    4118:	2a206665 	bcs	81dab4 <_Min_Stack_Size+0x81d6b4>
    411c:	49504729 	ldmdbmi	r0, {r0, r3, r5, r8, r9, sl, lr}^
    4120:	425f444f 	subsmi	r4, pc, #1325400064	; 0x4f000000
    4124:	29455341 	stmdbcs	r5, {r0, r6, r8, r9, ip, lr}^
    4128:	475f5f00 	ldrbmi	r5, [pc, -r0, lsl #30]
    412c:	485f4343 	ldmdami	pc, {r0, r1, r6, r8, r9, lr}^	; <UNPREDICTABLE>
    4130:	5f455641 	svcpl	0x00455641
    4134:	52415744 	subpl	r5, r1, #68, 14	; 0x1100000
    4138:	435f3246 	cmpmi	pc, #1610612740	; 0x60000004
    413c:	415f4946 	cmpmi	pc, r6, asr #18
    4140:	31204d53 			; <UNDEFINED> instruction: 0x31204d53
    4144:	5f5f5f00 	svcpl	0x005f5f00
    4148:	38746e69 	ldmdacc	r4!, {r0, r3, r5, r6, r9, sl, fp, sp, lr}^
    414c:	645f745f 	ldrbvs	r7, [pc], #-1119	; 4154 <_Min_Stack_Size+0x3d54>
    4150:	6e696665 	cdpvs	6, 6, cr6, cr9, cr5, {3}
    4154:	31206465 			; <UNDEFINED> instruction: 0x31206465
    4158:	535f5f00 	cmppl	pc, #0, 30
    415c:	43415246 	movtmi	r5, #4678	; 0x1246
    4160:	494d5f54 	stmdbmi	sp, {r2, r4, r6, r8, r9, sl, fp, ip, lr}^
    4164:	205f5f4e 	subscs	r5, pc, lr, asr #30
    4168:	2e302d28 	cdpcs	13, 3, cr2, cr0, cr8, {1}
    416c:	2d524835 	ldclcs	8, cr4, [r2, #-212]	; 0xffffff2c
    4170:	48352e30 	ldmdami	r5!, {r4, r5, r9, sl, fp, sp}
    4174:	5f002952 	svcpl	0x00002952
    4178:	5f41535f 	svcpl	0x0041535f
    417c:	54494249 	strbpl	r4, [r9], #-585	; 0xfffffdb7
    4180:	31205f5f 			; <UNDEFINED> instruction: 0x31205f5f
    4184:	5f5f0036 	svcpl	0x005f0036
    4188:	7366666f 	cmnvc	r6, #116391936	; 0x6f00000
    418c:	666f7465 	strbtvs	r7, [pc], -r5, ror #8
    4190:	70797428 	rsbsvc	r7, r9, r8, lsr #8
    4194:	69662c65 	stmdbvs	r6!, {r0, r2, r5, r6, sl, fp, sp}^
    4198:	29646c65 	stmdbcs	r4!, {r0, r2, r5, r6, sl, fp, sp, lr}^
    419c:	66666f20 	strbtvs	r6, [r6], -r0, lsr #30
    41a0:	6f746573 	svcvs	0x00746573
    41a4:	79742866 	ldmdbvc	r4!, {r1, r2, r5, r6, fp, sp}^
    41a8:	202c6570 	eorcs	r6, ip, r0, ror r5
    41ac:	6c656966 			; <UNDEFINED> instruction: 0x6c656966
    41b0:	5f002964 	svcpl	0x00002964
    41b4:	4343475f 	movtmi	r4, #14175	; 0x375f
    41b8:	4345495f 	movtmi	r4, #22879	; 0x595f
    41bc:	3935355f 	ldmdbcc	r5!, {r0, r1, r2, r3, r4, r6, r8, sl, ip, sp}
    41c0:	4d4f435f 	stclmi	3, cr4, [pc, #-380]	; 404c <_Min_Stack_Size+0x3c4c>
    41c4:	58454c50 	stmdapl	r5, {r4, r6, sl, fp, lr}^
    41c8:	50003020 	andpl	r3, r0, r0, lsr #32
    41cc:	70697265 	rsbvc	r7, r9, r5, ror #4
    41d0:	61726568 	cmnvs	r2, r8, ror #10
    41d4:	425f736c 	subsmi	r7, pc, #108, 6	; 0xb0000001
    41d8:	20455341 	subcs	r5, r5, r1, asr #6
    41dc:	30347830 	eorscc	r7, r4, r0, lsr r8
    41e0:	30303030 	eorscc	r3, r0, r0, lsr r0
    41e4:	4c553030 	mrrcmi	0, 3, r3, r5, cr0
    41e8:	6e5f5f00 	cdpvs	15, 5, cr5, cr15, cr0, {0}
    41ec:	756e6e6f 	strbvc	r6, [lr, #-3695]!	; 0xfffff191
    41f0:	615f6c6c 	cmpvs	pc, ip, ror #24
    41f4:	5f206c6c 	svcpl	0x00206c6c
    41f8:	7474615f 	ldrbtvc	r6, [r4], #-351	; 0xfffffea1
    41fc:	75626972 	strbvc	r6, [r2, #-2418]!	; 0xfffff68e
    4200:	5f5f6574 	svcpl	0x005f6574
    4204:	5f5f2828 	svcpl	0x005f2828
    4208:	6e6e6f6e 	cdpvs	15, 6, cr6, cr14, cr14, {3}
    420c:	5f6c6c75 	svcpl	0x006c6c75
    4210:	0029295f 	eoreq	r2, r9, pc, asr r9
    4214:	4e475f5f 	mcrmi	15, 2, r5, cr7, cr15, {2}
    4218:	5f5f4355 	svcpl	0x005f4355
    421c:	5f003720 	svcpl	0x00003720
    4220:	4d52415f 	ldfmie	f4, [r2, #-380]	; 0xfffffe84
    4224:	3150465f 	cmpcc	r0, pc, asr r6
    4228:	4f465f36 	svcmi	0x00465f36
    422c:	54414d52 	strbpl	r4, [r1], #-3410	; 0xfffff2ae
    4230:	4545495f 	strbmi	r4, [r5, #-2399]	; 0xfffff6a1
    4234:	5f5f0045 	svcpl	0x005f0045
    4238:	544e4955 	strbpl	r4, [lr], #-2389	; 0xfffff6ab
    423c:	545f3631 	ldrbpl	r3, [pc], #-1585	; 4244 <_Min_Stack_Size+0x3e44>
    4240:	5f455059 	svcpl	0x00455059
    4244:	6873205f 	ldmdavs	r3!, {r0, r1, r2, r3, r4, r6, sp}^
    4248:	2074726f 	rsbscs	r7, r4, pc, ror #4
    424c:	69736e75 	ldmdbvs	r3!, {r0, r2, r4, r5, r6, r9, sl, fp, sp, lr}^
    4250:	64656e67 	strbtvs	r6, [r5], #-3687	; 0xfffff199
    4254:	746e6920 	strbtvc	r6, [lr], #-2336	; 0xfffff6e0
    4258:	4f505f00 	svcmi	0x00505f00
    425c:	5f584953 	svcpl	0x00584953
    4260:	52554f53 	subspl	r4, r5, #332	; 0x14c
    4264:	52004543 	andpl	r4, r0, #281018368	; 0x10c00000
    4268:	5f444e41 	svcpl	0x00444e41
    426c:	2058414d 	subscs	r4, r8, sp, asr #2
    4270:	41525f5f 	cmpmi	r2, pc, asr pc
    4274:	4d5f444e 	cfldrdmi	mvd4, [pc, #-312]	; 4144 <_Min_Stack_Size+0x3d44>
    4278:	5f005841 	svcpl	0x00005841
    427c:	6e69755f 	mcrvs	5, 3, r7, cr9, cr15, {2}
    4280:	5f323374 	svcpl	0x00323374
    4284:	58450074 	stmdapl	r5, {r2, r4, r5, r6}^
    4288:	50384954 	eorspl	r4, r8, r4, asr r9
    428c:	28203841 	stmdacs	r0!, {r0, r6, fp, ip, sp}
    4290:	49545845 	ldmdbmi	r4, {r0, r2, r6, fp, ip, lr}^
    4294:	4950475f 	ldmdbmi	r0, {r0, r1, r2, r3, r4, r6, r8, r9, sl, lr}^
    4298:	614d5f4f 	cmpvs	sp, pc, asr #30
    429c:	676e6970 			; <UNDEFINED> instruction: 0x676e6970
    42a0:	7b29745f 	blvc	a61424 <_Min_Stack_Size+0xa61024>
    42a4:	49545845 	ldmdbmi	r4, {r0, r2, r6, fp, ip, lr}^
    42a8:	50472c38 	subpl	r2, r7, r8, lsr ip
    42ac:	2c414f49 	mcrrcs	15, 4, r4, r1, cr9
    42b0:	4f495047 	svcmi	0x00495047
    42b4:	4e49505f 	mcrmi	0, 2, r5, cr9, cr15, {2}
    42b8:	452c385f 	strmi	r3, [ip, #-2143]!	; 0xfffff7a1
    42bc:	38495458 	stmdacc	r9, {r3, r4, r6, sl, ip, lr}^
    42c0:	5152495f 	cmppl	r2, pc, asr r9
    42c4:	5f5f007d 	svcpl	0x005f007d
    42c8:	54464f53 	strbpl	r4, [r6], #-3923	; 0xfffff0ad
    42cc:	5f5f5046 	svcpl	0x005f5046
    42d0:	5f003120 	svcpl	0x00003120
    42d4:	4e454552 	mcrmi	5, 2, r4, cr5, cr2, {2}
    42d8:	4d545f54 	ldclmi	15, cr5, [r4, #-336]	; 0xfffffeb0
    42dc:	72747028 	rsbsvc	r7, r4, #40	; 0x28
    42e0:	28282029 	stmdacs	r8!, {r0, r3, r5, sp}
    42e4:	29727470 	ldmdbcs	r2!, {r4, r5, r6, sl, ip, sp, lr}^
    42e8:	6c5f3e2d 	mrrcvs	14, 2, r3, pc, cr13	; <UNPREDICTABLE>
    42ec:	6c61636f 	stclvs	3, cr6, [r1], #-444	; 0xfffffe44
    42f0:	656d6974 	strbvs	r6, [sp, #-2420]!	; 0xfffff68c
    42f4:	6675625f 			; <UNDEFINED> instruction: 0x6675625f
    42f8:	5f5f0029 	svcpl	0x005f0029
    42fc:	4c494673 	mcrrmi	6, 7, r4, r9, cr3
    4300:	5f5f0045 	svcpl	0x005f0045
    4304:	64696473 	strbtvs	r6, [r9], #-1139	; 0xfffffb8d
    4308:	74696e69 	strbtvc	r6, [r9], #-3689	; 0xfffff197
    430c:	445f5f00 	ldrbmi	r5, [pc], #-3840	; 4314 <_Min_Stack_Size+0x3f14>
    4310:	32334345 	eorscc	r4, r3, #335544321	; 0x14000001
    4314:	58414d5f 	stmdapl	r1, {r0, r1, r2, r3, r4, r6, r8, sl, fp, lr}^
    4318:	5058455f 	subspl	r4, r8, pc, asr r5
    431c:	39205f5f 	stmdbcc	r0!, {r0, r1, r2, r3, r4, r6, r8, r9, sl, fp, ip, lr}
    4320:	545f0037 	ldrbpl	r0, [pc], #-55	; 4328 <_Min_Stack_Size+0x3f28>
    4324:	5a49535f 	bpl	12590a8 <_Min_Stack_Size+0x1258ca8>
    4328:	00205f45 	eoreq	r5, r0, r5, asr #30
    432c:	4c465f5f 	mcrrmi	15, 5, r5, r6, cr15
    4330:	56455f54 			; <UNDEFINED> instruction: 0x56455f54
    4334:	4d5f4c41 	ldclmi	12, cr4, [pc, #-260]	; 4238 <_Min_Stack_Size+0x3e38>
    4338:	4f485445 	svcmi	0x00485445
    433c:	53545f44 	cmppl	r4, #68, 30	; 0x110
    4340:	3638315f 			; <UNDEFINED> instruction: 0x3638315f
    4344:	335f3136 	cmpcc	pc, #-2147483635	; 0x8000000d
    4348:	30205f5f 	eorcc	r5, r0, pc, asr pc
    434c:	615f5f00 	cmpvs	pc, r0, lsl #30
    4350:	69727474 	ldmdbvs	r2!, {r2, r4, r5, r6, sl, ip, sp, lr}^
    4354:	65747562 	ldrbvs	r7, [r4, #-1378]!	; 0xfffffa9e
    4358:	6c616d5f 	stclvs	13, cr6, [r1], #-380	; 0xfffffe84
    435c:	5f636f6c 	svcpl	0x00636f6c
    4360:	5f00205f 	svcpl	0x0000205f
    4364:	4843535f 	stmdami	r3, {r0, r1, r2, r3, r4, r6, r8, r9, ip, lr}^
    4368:	575f5241 	ldrbpl	r5, [pc, -r1, asr #4]
    436c:	48544449 	ldmdami	r4, {r0, r3, r6, sl, lr}^
    4370:	38205f5f 	stmdacc	r0!, {r0, r1, r2, r3, r4, r6, r8, r9, sl, fp, ip, lr}
    4374:	6c5f5f00 	mrrcvs	15, 0, r5, pc, cr0	; <UNPREDICTABLE>
    4378:	5f6b636f 	svcpl	0x006b636f
    437c:	75716361 	ldrbvc	r6, [r1, #-865]!	; 0xfffffc9f
    4380:	5f657269 	svcpl	0x00657269
    4384:	75636572 	strbvc	r6, [r3, #-1394]!	; 0xfffffa8e
    4388:	76697372 			; <UNDEFINED> instruction: 0x76697372
    438c:	6f6c2865 	svcvs	0x006c2865
    4390:	20296b63 	eorcs	r6, r9, r3, ror #22
    4394:	6f762828 	svcvs	0x00762828
    4398:	20296469 	eorcs	r6, r9, r9, ror #8
    439c:	5f002930 	svcpl	0x00002930
    43a0:	7365725f 	cmnvc	r5, #-268435451	; 0xf0000005
    43a4:	63697274 	cmnvs	r9, #116, 4	; 0x40000007
    43a8:	65722074 	ldrbvs	r2, [r2, #-116]!	; 0xffffff8c
    43ac:	69727473 	ldmdbvs	r2!, {r0, r1, r4, r5, r6, sl, ip, sp, lr}^
    43b0:	5f007463 	svcpl	0x00007463
    43b4:	4e49555f 	mcrmi	5, 2, r5, cr9, cr15, {2}
    43b8:	41465f54 	cmpmi	r6, r4, asr pc
    43bc:	5f385453 	svcpl	0x00385453
    43c0:	45505954 	ldrbmi	r5, [r0, #-2388]	; 0xfffff6ac
    43c4:	75205f5f 	strvc	r5, [r0, #-3935]!	; 0xfffff0a1
    43c8:	6769736e 	strbvs	r7, [r9, -lr, ror #6]!
    43cc:	2064656e 	rsbcs	r6, r4, lr, ror #10
    43d0:	00746e69 	rsbseq	r6, r4, r9, ror #28
    43d4:	4c4c5f5f 	mcrrmi	15, 5, r5, ip, cr15
    43d8:	55434341 	strbpl	r4, [r3, #-833]	; 0xfffffcbf
    43dc:	42495f4d 	submi	r5, r9, #308	; 0x134
    43e0:	5f5f5449 	svcpl	0x005f5449
    43e4:	00323320 	eorseq	r3, r2, r0, lsr #6
    43e8:	52465f5f 	subpl	r5, r6, #380	; 0x17c
    43ec:	5f544341 	svcpl	0x00544341
    43f0:	49535045 	ldmdbmi	r3, {r0, r2, r6, ip, lr}^
    43f4:	5f4e4f4c 	svcpl	0x004e4f4c
    43f8:	7830205f 	ldmdavc	r0!, {r0, r1, r2, r3, r4, r6, sp}
    43fc:	312d5031 			; <UNDEFINED> instruction: 0x312d5031
    4400:	5f005235 	svcpl	0x00005235
    4404:	7165725f 	cmnvc	r5, pc, asr r2
    4408:	65726975 	ldrbvs	r6, [r2, #-2421]!	; 0xfffff68b
    440c:	6e755f73 	mrcvs	15, 3, r5, cr5, cr3, {3}
    4410:	6b636f6c 	blvs	18e01c8 <_Min_Stack_Size+0x18dfdc8>
    4414:	2e286465 	cdpcs	4, 2, cr6, cr8, cr5, {3}
    4418:	20292e2e 	eorcs	r2, r9, lr, lsr #28
    441c:	6f6c5f5f 	svcvs	0x006c5f5f
    4420:	615f6b63 	cmpvs	pc, r3, ror #22
    4424:	746f6e6e 	strbtvc	r6, [pc], #-3694	; 442c <_Min_Stack_Size+0x402c>
    4428:	28657461 	stmdacs	r5!, {r0, r5, r6, sl, ip, sp, lr}^
    442c:	6b636f6c 	blvs	18e01e4 <_Min_Stack_Size+0x18dfde4>
    4430:	78655f73 	stmdavc	r5!, {r0, r1, r4, r5, r6, r8, r9, sl, fp, ip, lr}^
    4434:	64756c63 	ldrbtvs	r6, [r5], #-3171	; 0xfffff39d
    4438:	5f286465 	svcpl	0x00286465
    443c:	5f41565f 	svcpl	0x0041565f
    4440:	53475241 	movtpl	r5, #29249	; 0x7241
    4444:	29295f5f 	stmdbcs	r9!, {r0, r1, r2, r3, r4, r6, r8, r9, sl, fp, ip, lr}
    4448:	544e4900 	strbpl	r4, [lr], #-2304	; 0xfffff700
    444c:	28435f38 	stmdacs	r3, {r3, r4, r5, r8, r9, sl, fp, ip, lr}^
    4450:	5f202978 	svcpl	0x00202978
    4454:	544e495f 	strbpl	r4, [lr], #-2399	; 0xfffff6a1
    4458:	28435f38 	stmdacs	r3, {r3, r4, r5, r8, r9, sl, fp, ip, lr}^
    445c:	45002978 	strmi	r2, [r0, #-2424]	; 0xfffff688
    4460:	31495458 	cmpcc	r9, r8, asr r4
    4464:	31445035 	cmpcc	r4, r5, lsr r0
    4468:	45282035 	strmi	r2, [r8, #-53]!	; 0xffffffcb
    446c:	5f495458 	svcpl	0x00495458
    4470:	4f495047 	svcmi	0x00495047
    4474:	70614d5f 	rsbvc	r4, r1, pc, asr sp
    4478:	5f676e69 	svcpl	0x00676e69
    447c:	457b2974 	ldrbmi	r2, [fp, #-2420]!	; 0xfffff68c
    4480:	31495458 	cmpcc	r9, r8, asr r4
    4484:	50472c35 	subpl	r2, r7, r5, lsr ip
    4488:	2c444f49 	mcrrcs	15, 4, r4, r4, cr9
    448c:	4f495047 	svcmi	0x00495047
    4490:	4e49505f 	mcrmi	0, 2, r5, cr9, cr15, {2}
    4494:	2c35315f 	ldfcss	f3, [r5], #-380	; 0xfffffe84
    4498:	49545845 	ldmdbmi	r4, {r0, r2, r6, fp, ip, lr}^
    449c:	495f3531 	ldmdbmi	pc, {r0, r4, r5, r8, sl, ip, sp}^	; <UNPREDICTABLE>
    44a0:	007d5152 	rsbseq	r5, sp, r2, asr r1
    44a4:	4e495f5f 	mcrmi	15, 2, r5, cr9, cr15, {2}
    44a8:	5f323354 	svcpl	0x00323354
    44ac:	5f58414d 	svcpl	0x0058414d
    44b0:	7830205f 	ldmdavc	r0!, {r0, r1, r2, r3, r4, r6, sp}
    44b4:	66666637 			; <UNDEFINED> instruction: 0x66666637
    44b8:	66666666 	strbtvs	r6, [r6], -r6, ror #12
    44bc:	5f5f004c 	svcpl	0x005f004c
    44c0:	5f6e696d 	svcpl	0x006e696d
    44c4:	657a6973 	ldrbvs	r6, [sl, #-2419]!	; 0xfffff68d
    44c8:	20297828 	eorcs	r7, r9, r8, lsr #16
    44cc:	74617473 	strbtvc	r7, [r1], #-1139	; 0xfffffb8d
    44d0:	28206369 	stmdacs	r0!, {r0, r3, r5, r6, r8, r9, sp, lr}
    44d4:	5f002978 	svcpl	0x00002978
    44d8:	454d4954 	strbmi	r4, [sp, #-2388]	; 0xfffff6ac
    44dc:	5f545f52 	svcpl	0x00545f52
    44e0:	736e7520 	cmnvc	lr, #32, 10	; 0x8000000
    44e4:	656e6769 	strbvs	r6, [lr, #-1897]!	; 0xfffff897
    44e8:	6f6c2064 	svcvs	0x006c2064
    44ec:	5f00676e 	svcpl	0x0000676e
    44f0:	4b434f4c 	blmi	10d8228 <_Min_Stack_Size+0x10d7e28>
    44f4:	4345525f 	movtmi	r5, #21087	; 0x525f
    44f8:	49535255 	ldmdbmi	r3, {r0, r2, r4, r6, r9, ip, lr}^
    44fc:	545f4556 	ldrbpl	r4, [pc], #-1366	; 4504 <_Min_Stack_Size+0x4104>
    4500:	425f5f00 	subsmi	r5, pc, #0, 30
    4504:	4e494745 	cdpmi	7, 4, cr4, cr9, cr5, {2}
    4508:	4345445f 	movtmi	r4, #21599	; 0x545f
    450c:	0020534c 	eoreq	r5, r0, ip, asr #6
    4510:	4e495f5f 	mcrmi	15, 2, r5, cr9, cr15, {2}
    4514:	454c5f54 	strbmi	r5, [ip, #-3924]	; 0xfffff0ac
    4518:	36545341 	ldrbcc	r5, [r4], -r1, asr #6
    451c:	414d5f34 	cmpmi	sp, r4, lsr pc
    4520:	205f5f58 	subscs	r5, pc, r8, asr pc	; <UNPREDICTABLE>
    4524:	66377830 			; <UNDEFINED> instruction: 0x66377830
    4528:	66666666 	strbtvs	r6, [r6], -r6, ror #12
    452c:	66666666 	strbtvs	r6, [r6], -r6, ror #12
    4530:	66666666 	strbtvs	r6, [r6], -r6, ror #12
    4534:	4c4c6666 	mcrrmi	6, 6, r6, ip, cr6
    4538:	45525f00 	ldrbmi	r5, [r2, #-3840]	; 0xfffff100
    453c:	5f544e45 	svcpl	0x00544e45
    4540:	4c52424d 	lfmmi	f4, 2, [r2], {77}	; 0x4d
    4544:	535f4e45 	cmppl	pc, #1104	; 0x450
    4548:	45544154 	ldrbmi	r4, [r4, #-340]	; 0xfffffeac
    454c:	72747028 	rsbsvc	r7, r4, #40	; 0x28
    4550:	28282029 	stmdacs	r8!, {r0, r3, r5, sp}
    4554:	29727470 	ldmdbcs	r2!, {r4, r5, r6, sl, ip, sp, lr}^
    4558:	6d5f3e2d 	ldclvs	14, cr3, [pc, #-180]	; 44ac <_Min_Stack_Size+0x40ac>
    455c:	2d637369 	stclcs	3, cr7, [r3, #-420]!	; 0xfffffe5c
    4560:	626d5f3e 	rsbvs	r5, sp, #62, 30	; 0xf8
    4564:	6e656c72 	mcrvs	12, 3, r6, cr5, cr2, {3}
    4568:	6174735f 	cmnvs	r4, pc, asr r3
    456c:	00296574 	eoreq	r6, r9, r4, ror r5
    4570:	66735f5f 	uhsaxvs	r5, r3, pc	; <UNPREDICTABLE>
    4574:	6b61665f 	blvs	185def8 <_Min_Stack_Size+0x185daf8>
    4578:	74735f65 	ldrbtvc	r5, [r3], #-3941	; 0xfffff09b
    457c:	72726564 	rsbsvc	r6, r2, #100, 10	; 0x19000000
    4580:	59535f00 	ldmdbpl	r3, {r8, r9, sl, fp, ip, lr}^
    4584:	535f5f53 	cmppl	pc, #332	; 0x14c
    4588:	4e494454 	mcrmi	4, 2, r4, cr9, cr4, {2}
    458c:	20485f54 	subcs	r5, r8, r4, asr pc
    4590:	6e5f5f00 	cdpvs	15, 5, cr5, cr15, cr0, {0}
    4594:	5f646565 	svcpl	0x00646565
    4598:	4c4c554e 	cfstr64mi	mvdx5, [ip], {78}	; 0x4e
    459c:	50470020 	subpl	r0, r7, r0, lsr #32
    45a0:	505f4f49 	subspl	r4, pc, r9, asr #30
    45a4:	395f4e49 	ldmdbcc	pc, {r0, r3, r6, r9, sl, fp, lr}^	; <UNPREDICTABLE>
    45a8:	75282820 	strvc	r2, [r8, #-2080]!	; 0xfffff7e0
    45ac:	31746e69 	cmncc	r4, r9, ror #28
    45b0:	29745f36 	ldmdbcs	r4!, {r1, r2, r4, r5, r8, r9, sl, fp, ip, lr}^
    45b4:	32307830 	eorscc	r7, r0, #48, 16	; 0x300000
    45b8:	00293030 	eoreq	r3, r9, r0, lsr r0
    45bc:	4645445f 			; <UNDEFINED> instruction: 0x4645445f
    45c0:	544c5541 	strbpl	r5, [ip], #-1345	; 0xfffffabf
    45c4:	554f535f 	strbpl	r5, [pc, #-863]	; 426d <_Min_Stack_Size+0x3e6d>
    45c8:	20454352 	subcs	r4, r5, r2, asr r3
    45cc:	564e0031 			; <UNDEFINED> instruction: 0x564e0031
    45d0:	495f4349 	ldmdbmi	pc, {r0, r3, r6, r8, r9, lr}^	; <UNPREDICTABLE>
    45d4:	32524543 	subscc	r4, r2, #281018368	; 0x10c00000
    45d8:	76282a20 	strtvc	r2, [r8], -r0, lsr #20
    45dc:	74616c6f 	strbtvc	r6, [r1], #-3183	; 0xfffff391
    45e0:	20656c69 	rsbcs	r6, r5, r9, ror #24
    45e4:	746e6975 	strbtvc	r6, [lr], #-2421	; 0xfffff68b
    45e8:	745f3233 	ldrbvc	r3, [pc], #-563	; 45f0 <_Min_Stack_Size+0x41f0>
    45ec:	4e28292a 	vmulmi.f16	s4, s16, s21	; <UNPREDICTABLE>
    45f0:	5f434956 	svcpl	0x00434956
    45f4:	45534142 	ldrbmi	r4, [r3, #-322]	; 0xfffffebe
    45f8:	30202b20 	eorcc	r2, r0, r0, lsr #22
    45fc:	29383878 	ldmdbcs	r8!, {r3, r4, r5, r6, fp, ip, sp}
    4600:	465f5f00 	ldrbmi	r5, [pc], -r0, lsl #30
    4604:	3233544c 	eorscc	r5, r3, #76, 8	; 0x4c000000
    4608:	4e414d5f 	mcrmi	13, 2, r4, cr1, cr15, {2}
    460c:	49445f54 	stmdbmi	r4, {r2, r4, r6, r8, r9, sl, fp, ip, lr}^
    4610:	205f5f47 	subscs	r5, pc, r7, asr #30
    4614:	5f003432 	svcpl	0x00003432
    4618:	6e727265 	cdpvs	2, 7, cr7, cr2, cr5, {3}
    461c:	5f5f006f 	svcpl	0x005f006f
    4620:	53524556 	cmppl	r2, #360710144	; 0x15800000
    4624:	5f4e4f49 	svcpl	0x004e4f49
    4628:	3722205f 			; <UNDEFINED> instruction: 0x3722205f
    462c:	312e332e 			; <UNDEFINED> instruction: 0x312e332e
    4630:	31303220 	teqcc	r0, r0, lsr #4
    4634:	32363038 	eorscc	r3, r6, #56	; 0x38
    4638:	72282032 	eorvc	r2, r8, #50	; 0x32
    463c:	61656c65 	cmnvs	r5, r5, ror #24
    4640:	20296573 	eorcs	r6, r9, r3, ror r5
    4644:	4d52415b 	ldfmie	f4, [r2, #-364]	; 0xfffffe94
    4648:	626d652f 	rsbvs	r6, sp, #197132288	; 0xbc00000
    464c:	65646465 	strbvs	r6, [r4, #-1125]!	; 0xfffffb9b
    4650:	2d372d64 	ldccs	13, cr2, [r7, #-400]!	; 0xfffffe70
    4654:	6e617262 	cdpvs	2, 6, cr7, cr1, cr2, {3}
    4658:	72206863 	eorvc	r6, r0, #6488064	; 0x630000
    465c:	73697665 	cmnvc	r9, #105906176	; 0x6500000
    4660:	206e6f69 	rsbcs	r6, lr, r9, ror #30
    4664:	39313632 	ldmdbcc	r1!, {r1, r4, r5, r9, sl, ip, sp}
    4668:	225d3730 	subscs	r3, sp, #48, 14	; 0xc00000
    466c:	5f455f00 	svcpl	0x00455f00
    4670:	0050534d 	subseq	r5, r0, sp, asr #6
    4674:	5f434e49 	svcpl	0x00434e49
    4678:	334d5453 	movtcc	r5, #54355	; 0xd453
    467c:	30314632 	eorscc	r4, r1, r2, lsr r6
    4680:	5f364333 	svcpl	0x00364333
    4684:	00205f48 	eoreq	r5, r0, r8, asr #30
    4688:	7366666f 	cmnvc	r6, #116391936	; 0x6f00000
    468c:	666f7465 	strbtvs	r7, [pc], -r5, ror #8
    4690:	50595428 	subspl	r5, r9, r8, lsr #8
    4694:	454d2c45 	strbmi	r2, [sp, #-3141]	; 0xfffff3bb
    4698:	5245424d 	subpl	r4, r5, #-805306364	; 0xd0000004
    469c:	5f5f2029 	svcpl	0x005f2029
    46a0:	6c697562 	cfstr64vs	mvdx7, [r9], #-392	; 0xfffffe78
    46a4:	5f6e6974 	svcpl	0x006e6974
    46a8:	7366666f 	cmnvc	r6, #116391936	; 0x6f00000
    46ac:	666f7465 	strbtvs	r7, [pc], -r5, ror #8
    46b0:	59542820 	ldmdbpl	r4, {r5, fp, sp}^
    46b4:	202c4550 	eorcs	r4, ip, r0, asr r5
    46b8:	424d454d 	submi	r4, sp, #322961408	; 0x13400000
    46bc:	00295245 	eoreq	r5, r9, r5, asr #4
    46c0:	49555f5f 	ldmdbmi	r5, {r0, r1, r2, r3, r4, r6, r8, r9, sl, fp, ip, lr}^
    46c4:	3436544e 	ldrtcc	r5, [r6], #-1102	; 0xfffffbb2
    46c8:	6328435f 			; <UNDEFINED> instruction: 0x6328435f
    46cc:	20632029 	rsbcs	r2, r3, r9, lsr #32
    46d0:	55202323 	strpl	r2, [r0, #-803]!	; 0xfffffcdd
    46d4:	5f004c4c 	svcpl	0x00004c4c
    46d8:	4e49555f 	mcrmi	5, 2, r5, cr9, cr15, {2}
    46dc:	454c5f54 	strbmi	r5, [ip, #-3924]	; 0xfffff0ac
    46e0:	36545341 	ldrbcc	r5, [r4], -r1, asr #6
    46e4:	59545f34 	ldmdbpl	r4, {r2, r4, r5, r8, r9, sl, fp, ip, lr}^
    46e8:	5f5f4550 	svcpl	0x005f4550
    46ec:	6e6f6c20 	cdpvs	12, 6, cr6, cr15, cr0, {1}
    46f0:	6f6c2067 	svcvs	0x006c2067
    46f4:	7520676e 	strvc	r6, [r0, #-1902]!	; 0xfffff892
    46f8:	6769736e 	strbvs	r7, [r9, -lr, ror #6]!
    46fc:	2064656e 	rsbcs	r6, r4, lr, ror #10
    4700:	00746e69 	rsbseq	r6, r4, r9, ror #28
    4704:	444c5f5f 	strbmi	r5, [ip], #-3935	; 0xfffff0a1
    4708:	455f4c42 	ldrbmi	r4, [pc, #-3138]	; 3ace <_Min_Stack_Size+0x36ce>
    470c:	4c495350 	mcrrmi	3, 5, r5, r9, cr0
    4710:	5f5f4e4f 	svcpl	0x005f4e4f
    4714:	322e3220 	eorcc	r3, lr, #32, 4
    4718:	34343032 	ldrtcc	r3, [r4], #-50	; 0xffffffce
    471c:	39343036 	ldmdbcc	r4!, {r1, r2, r4, r5, ip, sp}
    4720:	33303532 	teqcc	r0, #209715200	; 0xc800000
    4724:	65313331 	ldrvs	r3, [r1, #-817]!	; 0xfffffccf
    4728:	4c36312d 	ldfmis	f3, [r6], #-180	; 0xffffff4c
    472c:	5f535f00 	svcpl	0x00535f00
    4730:	5f505350 	svcpl	0x00505350
    4734:	46004254 			; <UNDEFINED> instruction: 0x46004254
    4738:	5f72756f 	svcpl	0x0072756f
    473c:	4d746942 			; <UNDEFINED> instruction: 0x4d746942
    4740:	2065646f 	rsbcs	r6, r5, pc, ror #8
    4744:	32307830 	eorscc	r7, r0, #48, 16	; 0x300000
    4748:	725f5f00 	subsvc	r5, pc, #0, 30
    474c:	69757165 	ldmdbvs	r5!, {r0, r2, r5, r6, r8, ip, sp, lr}^
    4750:	5f736572 	svcpl	0x00736572
    4754:	72616873 	rsbvc	r6, r1, #7536640	; 0x730000
    4758:	2e286465 	cdpcs	4, 2, cr6, cr8, cr5, {3}
    475c:	20292e2e 	eorcs	r2, r9, lr, lsr #28
    4760:	6f6c5f5f 	svcvs	0x006c5f5f
    4764:	615f6b63 	cmpvs	pc, r3, ror #22
    4768:	746f6e6e 	strbtvc	r6, [pc], #-3694	; 4770 <_Min_Stack_Size+0x4370>
    476c:	28657461 	stmdacs	r5!, {r0, r5, r6, sl, ip, sp, lr}^
    4770:	72616873 	rsbvc	r6, r1, #7536640	; 0x730000
    4774:	6c5f6465 	cfldrdvs	mvd6, [pc], {101}	; 0x65
    4778:	736b636f 	cmnvc	fp, #-1140850687	; 0xbc000001
    477c:	7165725f 	cmnvc	r5, pc, asr r2
    4780:	65726975 	ldrbvs	r6, [r2, #-2421]!	; 0xfffff68b
    4784:	5f5f2864 	svcpl	0x005f2864
    4788:	415f4156 	cmpmi	pc, r6, asr r1	; <UNPREDICTABLE>
    478c:	5f534752 	svcpl	0x00534752
    4790:	0029295f 	eoreq	r2, r9, pc, asr r9
    4794:	75705f5f 	ldrbvc	r5, [r0, #-3935]!	; 0xfffff0a1
    4798:	20326572 	eorscs	r6, r2, r2, ror r5
    479c:	74615f5f 	strbtvc	r5, [r1], #-3935	; 0xfffff0a1
    47a0:	62697274 	rsbvs	r7, r9, #116, 4	; 0x40000007
    47a4:	5f657475 	svcpl	0x00657475
    47a8:	5f28285f 	svcpl	0x0028285f
    47ac:	6e6f635f 	mcrvs	3, 3, r6, cr15, cr15, {2}
    47b0:	5f5f7473 	svcpl	0x005f7473
    47b4:	5f002929 	svcpl	0x00002929
    47b8:	4343475f 	movtmi	r4, #14175	; 0x375f
    47bc:	4f54415f 	svcmi	0x0054415f
    47c0:	5f43494d 	svcpl	0x0043494d
    47c4:	52414843 	subpl	r4, r1, #4390912	; 0x430000
    47c8:	545f3631 	ldrbpl	r3, [pc], #-1585	; 47d0 <_Min_Stack_Size+0x43d0>
    47cc:	434f4c5f 	movtmi	r4, #64607	; 0xfc5f
    47d0:	52465f4b 	subpl	r5, r6, #300	; 0x12c
    47d4:	32204545 	eorcc	r4, r0, #289406976	; 0x11400000
    47d8:	4e5f5f00 	cdpmi	15, 5, cr5, cr15, cr0, {0}
    47dc:	414c4c55 	cmpmi	ip, r5, asr ip
    47e0:	494c4942 	stmdbmi	ip, {r1, r6, r8, fp, lr}^
    47e4:	505f5954 	subspl	r5, pc, r4, asr r9	; <UNPREDICTABLE>
    47e8:	4d474152 	stfmie	f4, [r7, #-328]	; 0xfffffeb8
    47ec:	55505f41 	ldrbpl	r5, [r0, #-3905]	; 0xfffff0bf
    47f0:	00204853 	eoreq	r4, r0, r3, asr r8
    47f4:	6769735f 			; <UNDEFINED> instruction: 0x6769735f
    47f8:	5f6c616e 	svcpl	0x006c616e
    47fc:	00667562 	rsbeq	r7, r6, r2, ror #10
    4800:	524b434c 	subpl	r4, fp, #76, 6	; 0x30000001
    4804:	445f5f00 	ldrbmi	r5, [pc], #-3840	; 480c <_Min_Stack_Size+0x440c>
    4808:	4d5f4c42 	ldclmi	12, cr4, [pc, #-264]	; 4708 <_Min_Stack_Size+0x4308>
    480c:	455f5841 	ldrbmi	r5, [pc, #-2113]	; 3fd3 <_Min_Stack_Size+0x3bd3>
    4810:	5f5f5058 	svcpl	0x005f5058
    4814:	32303120 	eorscc	r3, r0, #32, 2
    4818:	5f5f0034 	svcpl	0x005f0034
    481c:	54534146 	ldrbpl	r4, [r3], #-326	; 0xfffffeba
    4820:	22203436 	eorcs	r3, r0, #905969664	; 0x36000000
    4824:	00226c6c 	eoreq	r6, r2, ip, ror #24
    4828:	54415f5f 	strbpl	r5, [r1], #-3935	; 0xfffff0a1
    482c:	43494d4f 	movtmi	r4, #40271	; 0x9d4f
    4830:	4c45525f 	sfmmi	f5, 2, [r5], {95}	; 0x5f
    4834:	45534145 	ldrbmi	r4, [r3, #-325]	; 0xfffffebb
    4838:	75003320 	strvc	r3, [r0, #-800]	; 0xfffffce0
    483c:	6769736e 	strbvs	r7, [r9, -lr, ror #6]!
    4840:	2064656e 	rsbcs	r6, r4, lr, ror #10
    4844:	5f00302b 	svcpl	0x0000302b
    4848:	544c465f 	strbpl	r4, [ip], #-1631	; 0xfffff9a1
    484c:	5f583233 	svcpl	0x00583233
    4850:	5f534148 	svcpl	0x00534148
    4854:	4f4e4544 	svcmi	0x004e4544
    4858:	5f5f4d52 	svcpl	0x005f4d52
    485c:	5f003120 	svcpl	0x00003120
    4860:	544c465f 	strbpl	r4, [ip], #-1631	; 0xfffff9a1
    4864:	4e414d5f 	mcrmi	13, 2, r4, cr1, cr15, {2}
    4868:	49445f54 	stmdbmi	r4, {r2, r4, r6, r8, r9, sl, fp, ip, lr}^
    486c:	205f5f47 	subscs	r5, pc, r7, asr #30
    4870:	5f003432 	svcpl	0x00003432
    4874:	444e4152 	strbmi	r4, [lr], #-338	; 0xfffffeae
    4878:	535f3834 	cmppl	pc, #52, 16	; 0x340000
    487c:	5f444545 	svcpl	0x00444545
    4880:	30282031 	eorcc	r2, r8, r1, lsr r0
    4884:	63626178 	cmnvs	r2, #120, 2
    4888:	5f002964 	svcpl	0x00002964
    488c:	5144555f 	cmppl	r4, pc, asr r5
    4890:	4942495f 	stmdbmi	r2, {r0, r1, r2, r3, r4, r6, r8, fp, lr}^
    4894:	205f5f54 	subscs	r5, pc, r4, asr pc	; <UNPREDICTABLE>
    4898:	475f0030 	smmlarmi	pc, r0, r0, r0	; <UNPREDICTABLE>
    489c:	41424f4c 	cmpmi	r2, ip, asr #30
    48a0:	54415f4c 	strbpl	r5, [r1], #-3916	; 0xfffff0b4
    48a4:	54495845 	strbpl	r5, [r9], #-2117	; 0xfffff7bb
    48a8:	6c675f20 	stclvs	15, cr5, [r7], #-128	; 0xffffff80
    48ac:	6c61626f 	sfmvs	f6, 2, [r1], #-444	; 0xfffffe44
    48b0:	6574615f 	ldrbvs	r6, [r4, #-351]!	; 0xfffffea1
    48b4:	00746978 	rsbseq	r6, r4, r8, ror r9
    48b8:	4e495f5f 	mcrmi	15, 2, r5, cr9, cr15, {2}
    48bc:	454c5f54 	strbmi	r5, [ip, #-3924]	; 0xfffff0ac
    48c0:	33545341 	cmpcc	r4, #67108865	; 0x4000001
    48c4:	59545f32 	ldmdbpl	r4, {r1, r4, r5, r8, r9, sl, fp, ip, lr}^
    48c8:	5f5f4550 	svcpl	0x005f4550
    48cc:	6e6f6c20 	cdpvs	12, 6, cr6, cr15, cr0, {1}
    48d0:	6e692067 	cdpvs	0, 6, cr2, cr9, cr7, {3}
    48d4:	49550074 	ldmdbmi	r5, {r2, r4, r5, r6}^
    48d8:	414d544e 	cmpmi	sp, lr, asr #8
    48dc:	414d5f58 	cmpmi	sp, r8, asr pc
    48e0:	5f282058 	svcpl	0x00282058
    48e4:	4e49555f 	mcrmi	5, 2, r5, cr9, cr15, {2}
    48e8:	58414d54 	stmdapl	r1, {r2, r4, r6, r8, sl, fp, lr}^
    48ec:	58414d5f 	stmdapl	r1, {r0, r1, r2, r3, r4, r6, r8, sl, fp, lr}^
    48f0:	00295f5f 	eoreq	r5, r9, pc, asr pc
    48f4:	4f4c5f5f 	svcmi	0x004c5f5f
    48f8:	495f4b43 	ldmdbmi	pc, {r0, r1, r6, r8, r9, fp, lr}^	; <UNPREDICTABLE>
    48fc:	5f54494e 	svcpl	0x0054494e
    4900:	55434552 	strbpl	r4, [r3, #-1362]	; 0xfffffaae
    4904:	56495352 			; <UNDEFINED> instruction: 0x56495352
    4908:	6c632845 	stclvs	8, cr2, [r3], #-276	; 0xfffffeec
    490c:	2c737361 	ldclcs	3, cr7, [r3], #-388	; 0xfffffe7c
    4910:	6b636f6c 	blvs	18e06c8 <_Min_Stack_Size+0x18e02c8>
    4914:	74732029 	ldrbtvc	r2, [r3], #-41	; 0xffffffd7
    4918:	63697461 	cmnvs	r9, #1627389952	; 0x61000000
    491c:	746e6920 	strbtvc	r6, [lr], #-2336	; 0xfffff6e0
    4920:	636f6c20 	cmnvs	pc, #32, 24	; 0x2000
    4924:	203d206b 	eorscs	r2, sp, fp, rrx
    4928:	4c003b30 			; <UNDEFINED> instruction: 0x4c003b30
    492c:	4d5f4443 	cfldrdmi	mvd4, [pc, #-268]	; 4828 <_Min_Stack_Size+0x4428>
    4930:	2045444f 	subcs	r4, r5, pc, asr #8
    4934:	52554f46 	subspl	r4, r5, #280	; 0x118
    4938:	5449425f 	strbpl	r4, [r9], #-607	; 0xfffffda1
    493c:	444f4d5f 	strbmi	r4, [pc], #-3423	; 4944 <_Min_Stack_Size+0x4544>
    4940:	5f5f0045 	svcpl	0x005f0045
    4944:	535f4343 	cmppl	pc, #201326593	; 0xc000001
    4948:	4f505055 	svcmi	0x00505055
    494c:	5f535452 	svcpl	0x00535452
    4950:	55465f5f 	strbpl	r5, [r6, #-3935]	; 0xfffff0a1
    4954:	5f5f434e 	svcpl	0x005f434e
    4958:	5f003120 	svcpl	0x00003120
    495c:	69676942 	stmdbvs	r7!, {r1, r6, r8, fp, sp, lr}^
    4960:	4500746e 	strmi	r7, [r0, #-1134]	; 0xfffffb92
    4964:	31495458 	cmpcc	r9, r8, asr r4
    4968:	31445033 	cmpcc	r4, r3, lsr r0
    496c:	45282033 	strmi	r2, [r8, #-51]!	; 0xffffffcd
    4970:	5f495458 	svcpl	0x00495458
    4974:	4f495047 	svcmi	0x00495047
    4978:	70614d5f 	rsbvc	r4, r1, pc, asr sp
    497c:	5f676e69 	svcpl	0x00676e69
    4980:	457b2974 	ldrbmi	r2, [fp, #-2420]!	; 0xfffff68c
    4984:	31495458 	cmpcc	r9, r8, asr r4
    4988:	50472c33 	subpl	r2, r7, r3, lsr ip
    498c:	2c444f49 	mcrrcs	15, 4, r4, r4, cr9
    4990:	4f495047 	svcmi	0x00495047
    4994:	4e49505f 	mcrmi	0, 2, r5, cr9, cr15, {2}
    4998:	2c33315f 	ldfcss	f3, [r3], #-380	; 0xfffffe84
    499c:	49545845 	ldmdbmi	r4, {r0, r2, r6, fp, ip, lr}^
    49a0:	495f3331 	ldmdbmi	pc, {r0, r4, r5, r8, r9, ip, sp}^	; <UNPREDICTABLE>
    49a4:	007d5152 	rsbseq	r5, sp, r2, asr r1
    49a8:	49535f5f 	ldmdbmi	r3, {r0, r1, r2, r3, r4, r6, r8, r9, sl, fp, ip, lr}^
    49ac:	545f455a 	ldrbpl	r4, [pc], #-1370	; 49b4 <_Min_Stack_Size+0x45b4>
    49b0:	00205f5f 	eoreq	r5, r0, pc, asr pc
    49b4:	505f545f 	subspl	r5, pc, pc, asr r4	; <UNPREDICTABLE>
    49b8:	49445254 	stmdbmi	r4, {r2, r4, r6, r9, ip, lr}^
    49bc:	205f4646 	subscs	r4, pc, r6, asr #12
    49c0:	49504700 	ldmdbmi	r0, {r8, r9, sl, lr}^
    49c4:	4f4d5f4f 	svcmi	0x004d5f4f
    49c8:	415f4544 	cmpmi	pc, r4, asr #10
    49cc:	554f5f46 	strbpl	r5, [pc, #-3910]	; 3a8e <_Min_Stack_Size+0x368e>
    49d0:	54555054 	ldrbpl	r5, [r5], #-84	; 0xffffffac
    49d4:	45504f5f 	ldrbmi	r4, [r0, #-3935]	; 0xfffff0a1
    49d8:	4152444e 	cmpmi	r2, lr, asr #8
    49dc:	30204e49 	eorcc	r4, r0, r9, asr #28
    49e0:	30303078 	eorscc	r3, r0, r8, ror r0
    49e4:	30303030 	eorscc	r3, r0, r0, lsr r0
    49e8:	47007537 	smladxmi	r0, r7, r5, r7
    49ec:	5f4f4950 	svcpl	0x004f4950
    49f0:	45444f4d 	strbmi	r4, [r4, #-3917]	; 0xfffff0b3
    49f4:	5f46415f 	svcpl	0x0046415f
    49f8:	5054554f 	subspl	r5, r4, pc, asr #10
    49fc:	505f5455 	subspl	r5, pc, r5, asr r4	; <UNPREDICTABLE>
    4a00:	50485355 	subpl	r5, r8, r5, asr r3
    4a04:	204c4c55 	subcs	r4, ip, r5, asr ip
    4a08:	30307830 	eorscc	r7, r0, r0, lsr r8
    4a0c:	30303030 	eorscc	r3, r0, r0, lsr r0
    4a10:	00753630 	rsbseq	r3, r5, r0, lsr r6
    4a14:	444c5f5f 	strbmi	r5, [ip], #-3935	; 0xfffff0a1
    4a18:	445f4c42 	ldrbmi	r4, [pc], #-3138	; 4a20 <_Min_Stack_Size+0x4620>
    4a1c:	524f4e45 	subpl	r4, pc, #1104	; 0x450
    4a20:	494d5f4d 	stmdbmi	sp, {r0, r2, r3, r6, r8, r9, sl, fp, ip, lr}^
    4a24:	205f5f4e 	subscs	r5, pc, lr, asr #30
    4a28:	34392e34 	ldrtcc	r2, [r9], #-3636	; 0xfffff1cc
    4a2c:	36353630 			; <UNDEFINED> instruction: 0x36353630
    4a30:	34383534 	ldrtcc	r3, [r8], #-1332	; 0xfffffacc
    4a34:	36343231 			; <UNDEFINED> instruction: 0x36343231
    4a38:	2d653435 	cfstrdcs	mvd3, [r5, #-212]!	; 0xffffff2c
    4a3c:	4c343233 	lfmmi	f3, 4, [r4], #-204	; 0xffffff34
    4a40:	54584500 	ldrbpl	r4, [r8], #-1280	; 0xfffffb00
    4a44:	495f3449 	ldmdbmi	pc, {r0, r3, r6, sl, ip, sp}^	; <UNPREDICTABLE>
    4a48:	31205152 			; <UNDEFINED> instruction: 0x31205152
    4a4c:	5f5f0030 	svcpl	0x005f0030
    4a50:	36544e49 	ldrbcc	r4, [r4], -r9, asr #28
    4a54:	414d5f34 	cmpmi	sp, r4, lsr pc
    4a58:	205f5f58 	subscs	r5, pc, r8, asr pc	; <UNPREDICTABLE>
    4a5c:	66377830 			; <UNDEFINED> instruction: 0x66377830
    4a60:	66666666 	strbtvs	r6, [r6], -r6, ror #12
    4a64:	66666666 	strbtvs	r6, [r6], -r6, ror #12
    4a68:	66666666 	strbtvs	r6, [r6], -r6, ror #12
    4a6c:	4c4c6666 	mcrrmi	6, 6, r6, ip, cr6
    4a70:	415f5f00 	cmpmi	pc, r0, lsl #30
    4a74:	465f4d52 			; <UNDEFINED> instruction: 0x465f4d52
    4a78:	55544145 	ldrbpl	r4, [r4, #-325]	; 0xfffffebb
    4a7c:	535f4552 	cmppl	pc, #343932928	; 0x14800000
    4a80:	31205441 			; <UNDEFINED> instruction: 0x31205441
    4a84:	45525f00 	ldrbmi	r5, [r2, #-3840]	; 0xfffff100
    4a88:	5f544e45 	svcpl	0x00544e45
    4a8c:	43454843 	movtmi	r4, #22595	; 0x5843
    4a90:	4d455f4b 	stclmi	15, cr5, [r5, #-300]	; 0xfffffed4
    4a94:	45475245 	strbmi	r5, [r7, #-581]	; 0xfffffdbb
    4a98:	2859434e 	ldmdacs	r9, {r1, r2, r3, r6, r8, r9, lr}^
    4a9c:	29726176 	ldmdbcs	r2!, {r1, r2, r4, r5, r6, r8, sp, lr}^
    4aa0:	45525f20 	ldrbmi	r5, [r2, #-3872]	; 0xfffff0e0
    4aa4:	5f544e45 	svcpl	0x00544e45
    4aa8:	43454843 	movtmi	r4, #22595	; 0x5843
    4aac:	6176284b 	cmnvs	r6, fp, asr #16
    4ab0:	5f202c72 	svcpl	0x00202c72
    4ab4:	72656d65 	rsbvc	r6, r5, #6464	; 0x1940
    4ab8:	636e6567 	cmnvs	lr, #432013312	; 0x19c00000
    4abc:	63202c79 			; <UNDEFINED> instruction: 0x63202c79
    4ac0:	20726168 	rsbscs	r6, r2, r8, ror #2
    4ac4:	5f202c2a 	svcpl	0x00202c2a
    4ac8:	4e454552 	mcrmi	5, 2, r4, cr5, cr2, {2}
    4acc:	4d455f54 	stclmi	15, cr5, [r5, #-336]	; 0xfffffeb0
    4ad0:	45475245 	strbmi	r5, [r7, #-581]	; 0xfffffdbb
    4ad4:	5f59434e 	svcpl	0x0059434e
    4ad8:	455a4953 	ldrbmi	r4, [sl, #-2387]	; 0xfffff6ad
    4adc:	0029202c 	eoreq	r2, r9, ip, lsr #32
    4ae0:	4c555f5f 	mrrcmi	15, 5, r5, r5, cr15	; <UNPREDICTABLE>
    4ae4:	4152464c 	cmpmi	r2, ip, asr #12
    4ae8:	495f5443 	ldmdbmi	pc, {r0, r1, r6, sl, ip, lr}^	; <UNPREDICTABLE>
    4aec:	5f544942 	svcpl	0x00544942
    4af0:	0030205f 	eorseq	r2, r0, pc, asr r0
    4af4:	7473655f 	ldrbtvc	r6, [r3], #-1375	; 0xfffffaa1
    4af8:	006b6361 	rsbeq	r6, fp, r1, ror #6
    4afc:	63726f46 	cmnvs	r2, #280	; 0x118
    4b00:	646e3265 	strbtvs	r3, [lr], #-613	; 0xfffffd9b
    4b04:	656e696c 	strbvs	r6, [lr, #-2412]!	; 0xfffff694
    4b08:	43783020 	cmnmi	r8, #32
    4b0c:	415f0030 	cmpmi	pc, r0, lsr r0	; <UNPREDICTABLE>
    4b10:	5f49534e 	svcpl	0x0049534e
    4b14:	44445453 	strbmi	r5, [r4], #-1107	; 0xfffffbad
    4b18:	485f4645 	ldmdami	pc, {r0, r2, r6, r9, sl, lr}^	; <UNPREDICTABLE>
    4b1c:	4e490020 	cdpmi	0, 4, cr0, cr9, cr0, {1}
    4b20:	58414d54 	stmdapl	r1, {r2, r4, r6, r8, sl, fp, lr}^
    4b24:	58414d5f 	stmdapl	r1, {r0, r1, r2, r3, r4, r6, r8, sl, fp, lr}^
    4b28:	5f5f2820 	svcpl	0x005f2820
    4b2c:	4d544e49 	ldclmi	14, cr4, [r4, #-292]	; 0xfffffedc
    4b30:	4d5f5841 	ldclmi	8, cr5, [pc, #-260]	; 4a34 <_Min_Stack_Size+0x4634>
    4b34:	5f5f5841 	svcpl	0x005f5841
    4b38:	5f5f0029 	svcpl	0x005f0029
    4b3c:	61656c63 	cmnvs	r5, r3, ror #24
    4b40:	0070756e 	rsbseq	r7, r0, lr, ror #10
    4b44:	49545845 	ldmdbmi	r4, {r0, r2, r6, fp, ip, lr}^
    4b48:	6e696c5f 	mcrvs	12, 3, r6, cr9, cr15, {2}
    4b4c:	6d754e65 	ldclvs	14, cr4, [r5, #-404]!	; 0xfffffe6c
    4b50:	00726562 	rsbseq	r6, r2, r2, ror #10
    4b54:	49545845 	ldmdbmi	r4, {r0, r2, r6, fp, ip, lr}^
    4b58:	41503331 	cmpmi	r0, r1, lsr r3
    4b5c:	28203331 	stmdacs	r0!, {r0, r4, r5, r8, r9, ip, sp}
    4b60:	49545845 	ldmdbmi	r4, {r0, r2, r6, fp, ip, lr}^
    4b64:	4950475f 	ldmdbmi	r0, {r0, r1, r2, r3, r4, r6, r8, r9, sl, lr}^
    4b68:	614d5f4f 	cmpvs	sp, pc, asr #30
    4b6c:	676e6970 			; <UNDEFINED> instruction: 0x676e6970
    4b70:	7b29745f 	blvc	a61cf4 <_Min_Stack_Size+0xa618f4>
    4b74:	49545845 	ldmdbmi	r4, {r0, r2, r6, fp, ip, lr}^
    4b78:	472c3331 			; <UNDEFINED> instruction: 0x472c3331
    4b7c:	414f4950 	cmpmi	pc, r0, asr r9	; <UNPREDICTABLE>
    4b80:	4950472c 	ldmdbmi	r0, {r2, r3, r5, r8, r9, sl, lr}^
    4b84:	49505f4f 	ldmdbmi	r0, {r0, r1, r2, r3, r6, r8, r9, sl, fp, ip, lr}^
    4b88:	33315f4e 	teqcc	r1, #312	; 0x138
    4b8c:	5458452c 	ldrbpl	r4, [r8], #-1324	; 0xfffffad4
    4b90:	5f333149 	svcpl	0x00333149
    4b94:	7d515249 	lfmvc	f5, 2, [r1, #-292]	; 0xfffffedc
    4b98:	49564e00 	ldmdbmi	r6, {r9, sl, fp, lr}^
    4b9c:	52495f43 	subpl	r5, r9, #268	; 0x10c
    4ba0:	5f333251 	svcpl	0x00333251
    4ba4:	49545845 	ldmdbmi	r4, {r0, r2, r6, fp, ip, lr}^
    4ba8:	5f395f35 	svcpl	0x00395f35
    4bac:	62616e45 	rsbvs	r6, r1, #1104	; 0x450
    4bb0:	2820656c 	stmdacs	r0!, {r2, r3, r5, r6, r8, sl, sp, lr}
    4bb4:	4349564e 	movtmi	r5, #38478	; 0x964e
    4bb8:	4553495f 	ldrbmi	r4, [r3, #-2399]	; 0xfffff6a1
    4bbc:	7c203052 	stcvc	0, cr3, [r0], #-328	; 0xfffffeb8
    4bc0:	3128203d 			; <UNDEFINED> instruction: 0x3128203d
    4bc4:	33323c3c 	teqcc	r2, #60, 24	; 0x3c00
    4bc8:	45002929 	strmi	r2, [r0, #-2345]	; 0xfffff6d7
    4bcc:	31495458 	cmpcc	r9, r8, asr r4
    4bd0:	31435035 	cmpcc	r3, r5, lsr r0
    4bd4:	45282035 	strmi	r2, [r8, #-53]!	; 0xffffffcb
    4bd8:	5f495458 	svcpl	0x00495458
    4bdc:	4f495047 	svcmi	0x00495047
    4be0:	70614d5f 	rsbvc	r4, r1, pc, asr sp
    4be4:	5f676e69 	svcpl	0x00676e69
    4be8:	457b2974 	ldrbmi	r2, [fp, #-2420]!	; 0xfffff68c
    4bec:	31495458 	cmpcc	r9, r8, asr r4
    4bf0:	50472c35 	subpl	r2, r7, r5, lsr ip
    4bf4:	2c434f49 	mcrrcs	15, 4, r4, r3, cr9
    4bf8:	4f495047 	svcmi	0x00495047
    4bfc:	4e49505f 	mcrmi	0, 2, r5, cr9, cr15, {2}
    4c00:	2c35315f 	ldfcss	f3, [r5], #-380	; 0xfffffe84
    4c04:	49545845 	ldmdbmi	r4, {r0, r2, r6, fp, ip, lr}^
    4c08:	495f3531 	ldmdbmi	pc, {r0, r4, r5, r8, sl, ip, sp}^	; <UNPREDICTABLE>
    4c0c:	007d5152 	rsbseq	r5, sp, r2, asr r1
    4c10:	4545525f 	strbmi	r5, [r5, #-607]	; 0xfffffda1
    4c14:	575f544e 	ldrbpl	r5, [pc, -lr, asr #8]
    4c18:	4f545243 	svcmi	0x00545243
    4c1c:	535f424d 	cmppl	pc, #-805306364	; 0xd0000004
    4c20:	45544154 	ldrbmi	r4, [r4, #-340]	; 0xfffffeac
    4c24:	72747028 	rsbsvc	r7, r4, #40	; 0x28
    4c28:	28282029 	stmdacs	r8!, {r0, r3, r5, sp}
    4c2c:	29727470 	ldmdbcs	r2!, {r4, r5, r6, sl, ip, sp, lr}^
    4c30:	6d5f3e2d 	ldclvs	14, cr3, [pc, #-180]	; 4b84 <_Min_Stack_Size+0x4784>
    4c34:	2d637369 	stclcs	3, cr7, [r3, #-420]!	; 0xfffffe5c
    4c38:	63775f3e 	cmnvs	r7, #62, 30	; 0xf8
    4c3c:	6d6f7472 	cfstrdvs	mvd7, [pc, #-456]!	; 4a7c <_Min_Stack_Size+0x467c>
    4c40:	74735f62 	ldrbtvc	r5, [r3], #-3938	; 0xfffff09e
    4c44:	29657461 	stmdbcs	r5!, {r0, r5, r6, sl, ip, sp, lr}^
    4c48:	615f5f00 	cmpvs	pc, r0, lsl #30
    4c4c:	636f6c6c 	cmnvs	pc, #108, 24	; 0x6c00
    4c50:	7a69735f 	bvc	1a619d4 <_Min_Stack_Size+0x1a615d4>
    4c54:	29782865 	ldmdbcs	r8!, {r0, r2, r5, r6, fp, sp}^
    4c58:	615f5f20 	cmpvs	pc, r0, lsr #30
    4c5c:	69727474 	ldmdbvs	r2!, {r2, r4, r5, r6, sl, ip, sp, lr}^
    4c60:	65747562 	ldrbvs	r7, [r4, #-1378]!	; 0xfffffa9e
    4c64:	28285f5f 	stmdacs	r8!, {r0, r1, r2, r3, r4, r6, r8, r9, sl, fp, ip, lr}
    4c68:	6c615f5f 	stclvs	15, cr5, [r1], #-380	; 0xfffffe84
    4c6c:	5f636f6c 	svcpl	0x00636f6c
    4c70:	657a6973 	ldrbvs	r6, [sl, #-2419]!	; 0xfffff68d
    4c74:	78285f5f 	stmdavc	r8!, {r0, r1, r2, r3, r4, r6, r8, r9, sl, fp, ip, lr}
    4c78:	00292929 	eoreq	r2, r9, r9, lsr #18
    4c7c:	4f4c5f5f 	svcmi	0x004c5f5f
    4c80:	575f474e 	ldrbpl	r4, [pc, -lr, asr #14]
    4c84:	48544449 	ldmdami	r4, {r0, r3, r6, sl, lr}^
    4c88:	33205f5f 			; <UNDEFINED> instruction: 0x33205f5f
    4c8c:	564e0032 			; <UNDEFINED> instruction: 0x564e0032
    4c90:	495f4349 	ldmdbmi	pc, {r0, r3, r6, r8, r9, lr}^	; <UNPREDICTABLE>
    4c94:	30524543 	subscc	r4, r2, r3, asr #10
    4c98:	76282a20 	strtvc	r2, [r8], -r0, lsr #20
    4c9c:	74616c6f 	strbtvc	r6, [r1], #-3183	; 0xfffff391
    4ca0:	20656c69 	rsbcs	r6, r5, r9, ror #24
    4ca4:	746e6975 	strbtvc	r6, [lr], #-2421	; 0xfffff68b
    4ca8:	745f3233 	ldrbvc	r3, [pc], #-563	; 4cb0 <_Min_Stack_Size+0x48b0>
    4cac:	4e28292a 	vmulmi.f16	s4, s16, s21	; <UNPREDICTABLE>
    4cb0:	5f434956 	svcpl	0x00434956
    4cb4:	45534142 	ldrbmi	r4, [r3, #-322]	; 0xfffffebe
    4cb8:	30202b20 	eorcc	r2, r0, r0, lsr #22
    4cbc:	29303878 	ldmdbcs	r0!, {r3, r4, r5, r6, fp, ip, sp}
    4cc0:	465f5f00 	ldrbmi	r5, [pc], -r0, lsl #30
    4cc4:	4d5f544c 	cfldrdmi	mvd5, [pc, #-304]	; 4b9c <_Min_Stack_Size+0x479c>
    4cc8:	5f5f5841 	svcpl	0x005f5841
    4ccc:	342e3320 	strtcc	r3, [lr], #-800	; 0xfffffce0
    4cd0:	32383230 	eorscc	r3, r8, #48, 4
    4cd4:	36363433 			; <UNDEFINED> instruction: 0x36363433
    4cd8:	32353833 	eorscc	r3, r5, #3342336	; 0x330000
    4cdc:	65363838 	ldrvs	r3, [r6, #-2104]!	; 0xfffff7c8
    4ce0:	4638332b 	ldrtmi	r3, [r8], -fp, lsr #6
    4ce4:	555f5f00 	ldrbpl	r5, [pc, #-3840]	; 3dec <_Min_Stack_Size+0x39ec>
    4ce8:	55434341 	strbpl	r4, [r3, #-833]	; 0xfffffcbf
    4cec:	42465f4d 	submi	r5, r6, #308	; 0x134
    4cf0:	5f5f5449 	svcpl	0x005f5449
    4cf4:	00363120 	eorseq	r3, r6, r0, lsr #2
    4cf8:	61775f5f 	cmnvs	r7, pc, asr pc
    4cfc:	725f6e72 	subsvc	r6, pc, #1824	; 0x720
    4d00:	72656665 	rsbvc	r6, r5, #105906176	; 0x6500000
    4d04:	65636e65 	strbvs	r6, [r3, #-3685]!	; 0xfffff19b
    4d08:	79732873 	ldmdbvc	r3!, {r0, r1, r4, r5, r6, fp, sp}^
    4d0c:	736d2c6d 	cmnvc	sp, #27904	; 0x6d00
    4d10:	5f202967 	svcpl	0x00202967
    4d14:	6d73615f 	ldfvse	f6, [r3, #-380]!	; 0xfffffe84
    4d18:	22285f5f 	eorcs	r5, r8, #380	; 0x17c
    4d1c:	6365732e 	cmnvs	r5, #-1207959552	; 0xb8000000
    4d20:	6e6f6974 			; <UNDEFINED> instruction: 0x6e6f6974
    4d24:	6e672e20 	cdpvs	14, 6, cr2, cr7, cr0, {1}
    4d28:	61772e75 	cmnvs	r7, r5, ror lr
    4d2c:	6e696e72 	mcrvs	14, 3, r6, cr9, cr2, {3}
    4d30:	20222e67 	eorcs	r2, r2, r7, ror #28
    4d34:	6d797323 	ldclvs	3, cr7, [r9, #-140]!	; 0xffffff74
    4d38:	5f203b29 	svcpl	0x00203b29
    4d3c:	6d73615f 	ldfvse	f6, [r3, #-380]!	; 0xfffffe84
    4d40:	22285f5f 	eorcs	r5, r8, #380	; 0x17c
    4d44:	6373612e 	cmnvs	r3, #-2147483637	; 0x8000000b
    4d48:	5c207a69 			; <UNDEFINED> instruction: 0x5c207a69
    4d4c:	6d202222 	sfmvs	f2, 4, [r0, #-136]!	; 0xffffff78
    4d50:	22206773 	eorcs	r6, r0, #30146560	; 0x1cc0000
    4d54:	2922225c 	stmdbcs	r2!, {r2, r3, r4, r6, r9, sp}
    4d58:	5f5f203b 	svcpl	0x005f203b
    4d5c:	5f6d7361 	svcpl	0x006d7361
    4d60:	2e22285f 	mcrcs	8, 1, r2, cr2, cr15, {2}
    4d64:	76657270 			; <UNDEFINED> instruction: 0x76657270
    4d68:	73756f69 	cmnvc	r5, #420	; 0x1a4
    4d6c:	47002922 	strmi	r2, [r0, -r2, lsr #18]
    4d70:	5f4f4950 	svcpl	0x004f4950
    4d74:	5f4e4950 	svcpl	0x004e4950
    4d78:	28203331 	stmdacs	r0!, {r0, r4, r5, r8, r9, ip, sp}
    4d7c:	6e697528 	cdpvs	5, 6, cr7, cr9, cr8, {1}
    4d80:	5f363174 	svcpl	0x00363174
    4d84:	78302974 	ldmdavc	r0!, {r2, r4, r5, r6, r8, fp, sp}
    4d88:	30303032 	eorscc	r3, r0, r2, lsr r0
    4d8c:	5f5f0029 	svcpl	0x005f0029
    4d90:	41524655 	cmpmi	r2, r5, asr r6
    4d94:	455f5443 	ldrbmi	r5, [pc, #-1091]	; 4959 <_Min_Stack_Size+0x4559>
    4d98:	4c495350 	mcrrmi	3, 5, r5, r9, cr0
    4d9c:	5f5f4e4f 	svcpl	0x005f4e4f
    4da0:	31783020 	cmncc	r8, r0, lsr #32
    4da4:	36312d50 			; <UNDEFINED> instruction: 0x36312d50
    4da8:	5f005255 	svcpl	0x00005255
    4dac:	4843575f 	stmdami	r3, {r0, r1, r2, r3, r4, r6, r8, r9, sl, ip, lr}^
    4db0:	4d5f5241 	lfmmi	f5, 2, [pc, #-260]	; 4cb4 <_Min_Stack_Size+0x48b4>
    4db4:	5f5f4e49 	svcpl	0x005f4e49
    4db8:	00553020 	subseq	r3, r5, r0, lsr #32
    4dbc:	5f434e49 	svcpl	0x00434e49
    4dc0:	334d5453 	movtcc	r5, #54355	; 0xd453
    4dc4:	31465f32 	cmpcc	r6, r2, lsr pc
    4dc8:	36433330 			; <UNDEFINED> instruction: 0x36433330
    4dcc:	4950475f 	ldmdbmi	r0, {r0, r1, r2, r3, r4, r6, r8, r9, sl, lr}^
    4dd0:	52445f4f 	subpl	r5, r4, #316	; 0x13c
    4dd4:	52455649 	subpl	r5, r5, #76546048	; 0x4900000
    4dd8:	205f485f 	subscs	r4, pc, pc, asr r8	; <UNPREDICTABLE>
    4ddc:	454e5f00 	strbmi	r5, [lr, #-3840]	; 0xfffff100
    4de0:	42494c57 	submi	r4, r9, #22272	; 0x5700
    4de4:	5245565f 	subpl	r5, r5, #99614720	; 0x5f00000
    4de8:	4e4f4953 			; <UNDEFINED> instruction: 0x4e4f4953
    4dec:	5f5f485f 	svcpl	0x005f485f
    4df0:	5f003120 	svcpl	0x00003120
    4df4:	4343475f 	movtmi	r4, #14175	; 0x375f
    4df8:	4f54415f 	svcmi	0x0054415f
    4dfc:	5f43494d 	svcpl	0x0043494d
    4e00:	474e4f4c 	strbmi	r4, [lr, -ip, asr #30]
    4e04:	434f4c5f 	movtmi	r4, #64607	; 0xfc5f
    4e08:	52465f4b 	subpl	r5, r6, #300	; 0x12c
    4e0c:	32204545 	eorcc	r4, r0, #289406976	; 0x11400000
    4e10:	555f5f00 	ldrbpl	r5, [pc, #-3840]	; 3f18 <_Min_Stack_Size+0x3b18>
    4e14:	4343414c 	movtmi	r4, #12620	; 0x314c
    4e18:	4d5f4d55 	ldclmi	13, cr4, [pc, #-340]	; 4ccc <_Min_Stack_Size+0x48cc>
    4e1c:	5f5f4e49 	svcpl	0x005f4e49
    4e20:	302e3020 	eorcc	r3, lr, r0, lsr #32
    4e24:	004b4c55 	subeq	r4, fp, r5, asr ip
    4e28:	4554415f 	ldrbmi	r4, [r4, #-351]	; 0xfffffea1
    4e2c:	5f544958 	svcpl	0x00544958
    4e30:	414e5944 	cmpmi	lr, r4, asr #18
    4e34:	5f43494d 	svcpl	0x0043494d
    4e38:	4f4c4c41 	svcmi	0x004c4c41
    4e3c:	00312043 	eorseq	r2, r1, r3, asr #32
    4e40:	656e5f5f 	strbvs	r5, [lr, #-3935]!	; 0xfffff0a1
    4e44:	735f6465 	cmpvc	pc, #1694498816	; 0x65000000
    4e48:	5f657a69 	svcpl	0x00657a69
    4e4c:	5f5f0074 	svcpl	0x005f0074
    4e50:	5f544e49 	svcpl	0x00544e49
    4e54:	5f58414d 	svcpl	0x0058414d
    4e58:	7830205f 	ldmdavc	r0!, {r0, r1, r2, r3, r4, r6, sp}
    4e5c:	66666637 			; <UNDEFINED> instruction: 0x66666637
    4e60:	66666666 	strbtvs	r6, [r6], -r6, ror #12
    4e64:	415f5f00 	cmpmi	pc, r0, lsl #30
    4e68:	415f4d52 	cmpmi	pc, r2, asr sp	; <UNPREDICTABLE>
    4e6c:	20484352 	subcs	r4, r8, r2, asr r3
    4e70:	4e450037 	mcrmi	0, 2, r0, cr5, cr7, {1}
    4e74:	49504720 	ldmdbmi	r0, {r5, r8, r9, sl, lr}^
    4e78:	49505f4f 	ldmdbmi	r0, {r0, r1, r2, r3, r6, r8, r9, sl, fp, ip, lr}^
    4e7c:	00315f4e 	eorseq	r5, r1, lr, asr #30
    4e80:	4f495047 	svcmi	0x00495047
    4e84:	4e49505f 	mcrmi	0, 2, r5, cr9, cr15, {2}
    4e88:	2820325f 	stmdacs	r0!, {r0, r1, r2, r3, r4, r6, r9, ip, sp}
    4e8c:	6e697528 	cdpvs	5, 6, cr7, cr9, cr8, {1}
    4e90:	5f363174 	svcpl	0x00363174
    4e94:	78302974 	ldmdavc	r0!, {r2, r4, r5, r6, r8, fp, sp}
    4e98:	34303030 	ldrtcc	r3, [r0], #-48	; 0xffffffd0
    4e9c:	5f5f0029 	svcpl	0x005f0029
    4ea0:	5f544c46 	svcpl	0x00544c46
    4ea4:	49444152 	stmdbmi	r4, {r1, r4, r6, r8, lr}^
    4ea8:	205f5f58 	subscs	r5, pc, r8, asr pc	; <UNPREDICTABLE>
    4eac:	5f5f0032 	svcpl	0x005f0032
    4eb0:	33544c46 	cmpcc	r4, #17920	; 0x4600
    4eb4:	41485f32 	cmpmi	r8, r2, lsr pc
    4eb8:	4e495f53 	mcrmi	15, 2, r5, cr9, cr3, {2}
    4ebc:	494e4946 	stmdbmi	lr, {r1, r2, r6, r8, fp, lr}^
    4ec0:	5f5f5954 	svcpl	0x005f5954
    4ec4:	49003120 	stmdbmi	r0, {r5, r8, ip, sp}
    4ec8:	3436544e 	ldrtcc	r5, [r6], #-1102	; 0xfffffbb2
    4ecc:	58414d5f 	stmdapl	r1, {r0, r1, r2, r3, r4, r6, r8, sl, fp, lr}^
    4ed0:	5f5f2820 	svcpl	0x005f2820
    4ed4:	36544e49 	ldrbcc	r4, [r4], -r9, asr #28
    4ed8:	414d5f34 	cmpmi	sp, r4, lsr pc
    4edc:	295f5f58 	ldmdbcs	pc, {r3, r4, r6, r8, r9, sl, fp, ip, lr}^	; <UNPREDICTABLE>
    4ee0:	4c5f5f00 	mrrcmi	15, 0, r5, pc, cr0	; <UNPREDICTABLE>
    4ee4:	55434341 	strbpl	r4, [r3, #-833]	; 0xfffffcbf
    4ee8:	50455f4d 	subpl	r5, r5, sp, asr #30
    4eec:	4f4c4953 	svcmi	0x004c4953
    4ef0:	205f5f4e 	subscs	r5, pc, lr, asr #30
    4ef4:	50317830 	eorspl	r7, r1, r0, lsr r8
    4ef8:	4c31332d 	ldcmi	3, cr3, [r1], #-180	; 0xffffff4c
    4efc:	534f004b 	movtpl	r0, #61515	; 0xf04b
    4f00:	4957535f 	ldmdbmi	r7, {r0, r1, r2, r3, r4, r6, r8, r9, ip, lr}^
    4f04:	5f484354 	svcpl	0x00484354
    4f08:	745f5053 	ldrbvc	r5, [pc], #-83	; 4f10 <_Min_Stack_Size+0x4b10>
    4f0c:	534d5f6f 	movtpl	r5, #57199	; 0xdf6f
    4f10:	5f5f2050 	svcpl	0x005f2050
    4f14:	206d7361 	rsbcs	r7, sp, r1, ror #6
    4f18:	616c6f76 	smcvs	50934	; 0xc6f6
    4f1c:	656c6974 	strbvs	r6, [ip, #-2420]!	; 0xfffff68c
    4f20:	726d2228 	rsbvc	r2, sp, #40, 4	; 0x80000002
    4f24:	30722073 	rsbscc	r2, r2, r3, ror r0
    4f28:	4f43202c 	svcmi	0x0043202c
    4f2c:	4f52544e 	svcmi	0x0052544e
    4f30:	6e5c204c 	cdpvs	0, 5, cr2, cr12, cr12, {2}
    4f34:	6d20745c 	cfstrsvs	mvf7, [r0, #-368]!	; 0xfffffe90
    4f38:	7220766f 	eorvc	r7, r0, #116391936	; 0x6f00000
    4f3c:	30232c31 	eorcc	r2, r3, r1, lsr ip
    4f40:	20353078 	eorscs	r3, r5, r8, ror r0
    4f44:	745c6e5c 	ldrbvc	r6, [ip], #-3676	; 0xfffff1a4
    4f48:	646e6120 	strbtvs	r6, [lr], #-288	; 0xfffffee0
    4f4c:	2c307220 	lfmcs	f7, 4, [r0], #-128	; 0xffffff80
    4f50:	722c3072 	eorvc	r3, ip, #114	; 0x72
    4f54:	6e5c2031 	mrcvs	0, 2, r2, cr12, cr1, {1}
    4f58:	6d20745c 	cfstrsvs	mvf7, [r0, #-368]!	; 0xfffffe90
    4f5c:	43207273 			; <UNDEFINED> instruction: 0x43207273
    4f60:	52544e4f 	subspl	r4, r4, #1264	; 0x4f0
    4f64:	202c4c4f 	eorcs	r4, ip, pc, asr #24
    4f68:	29223072 	stmdbcs	r2!, {r1, r4, r5, r6, ip, sp}
    4f6c:	775f5f00 	ldrbvc	r5, [pc, -r0, lsl #30]
    4f70:	72616863 	rsbvc	r6, r1, #6488064	; 0x630000
    4f74:	5f5f745f 	svcpl	0x005f745f
    4f78:	5f5f0020 	svcpl	0x005f0020
    4f7c:	4c42444c 	cfstrdmi	mvd4, [r2], {76}	; 0x4c
    4f80:	5341485f 	movtpl	r4, #6239	; 0x185f
    4f84:	4955515f 	ldmdbmi	r5, {r0, r1, r2, r3, r4, r6, r8, ip, lr}^
    4f88:	4e5f5445 	cdpmi	4, 5, cr5, cr15, cr5, {2}
    4f8c:	5f5f4e41 	svcpl	0x005f4e41
    4f90:	5f003120 	svcpl	0x00003120
    4f94:	65656e5f 	strbvs	r6, [r5, #-3679]!	; 0xfffff1a1
    4f98:	554e5f64 	strbpl	r5, [lr, #-3940]	; 0xfffff09c
    4f9c:	5f004c4c 	svcpl	0x00004c4c
    4fa0:	4e4f4c5f 	mcrmi	12, 2, r4, cr15, cr15, {2}
    4fa4:	4f4c5f47 	svcmi	0x004c5f47
    4fa8:	575f474e 	ldrbpl	r4, [pc, -lr, asr #14]
    4fac:	48544449 	ldmdami	r4, {r0, r3, r6, sl, lr}^
    4fb0:	36205f5f 	qsaxcc	r5, r0, pc	; <UNPREDICTABLE>
    4fb4:	58450034 	stmdapl	r5, {r2, r4, r5}^
    4fb8:	5f324954 	svcpl	0x00324954
    4fbc:	20515249 	subscs	r5, r1, r9, asr #4
    4fc0:	49570038 	ldmdbmi	r7, {r3, r4, r5}^
    4fc4:	4d5f544e 	cfldrdmi	mvd5, [pc, #-312]	; 4e94 <_Min_Stack_Size+0x4a94>
    4fc8:	28205841 	stmdacs	r0!, {r0, r6, fp, ip, lr}
    4fcc:	49575f5f 	ldmdbmi	r7, {r0, r1, r2, r3, r4, r6, r8, r9, sl, fp, ip, lr}^
    4fd0:	4d5f544e 	cfldrdmi	mvd5, [pc, #-312]	; 4ea0 <_Min_Stack_Size+0x4aa0>
    4fd4:	5f5f5841 	svcpl	0x005f5841
    4fd8:	50470029 	subpl	r0, r7, r9, lsr #32
    4fdc:	505f4f49 	subspl	r4, pc, r9, asr #30
    4fe0:	315f4e49 	cmpcc	pc, r9, asr #28
    4fe4:	28282030 	stmdacs	r8!, {r4, r5, sp}
    4fe8:	746e6975 	strbtvc	r6, [lr], #-2421	; 0xfffff68b
    4fec:	745f3631 	ldrbvc	r3, [pc], #-1585	; 4ff4 <_Min_Stack_Size+0x4bf4>
    4ff0:	30783029 	rsbscc	r3, r8, r9, lsr #32
    4ff4:	29303034 	ldmdbcs	r0!, {r2, r4, r5, ip, sp}
    4ff8:	555f5f00 	ldrbpl	r5, [pc, #-3840]	; 4100 <_Min_Stack_Size+0x3d00>
    4ffc:	5f544e49 	svcpl	0x00544e49
    5000:	54534146 	ldrbpl	r4, [r3], #-326	; 0xfffffeba
    5004:	4d5f3436 	cfldrdmi	mvd3, [pc, #-216]	; 4f34 <_Min_Stack_Size+0x4b34>
    5008:	5f5f5841 	svcpl	0x005f5841
    500c:	66783020 	ldrbtvs	r3, [r8], -r0, lsr #32
    5010:	66666666 	strbtvs	r6, [r6], -r6, ror #12
    5014:	66666666 	strbtvs	r6, [r6], -r6, ror #12
    5018:	66666666 	strbtvs	r6, [r6], -r6, ror #12
    501c:	55666666 	strbpl	r6, [r6, #-1638]!	; 0xfffff99a
    5020:	5f004c4c 	svcpl	0x00004c4c
    5024:	4d52415f 	ldfmie	f4, [r2, #-380]	; 0xfffffe84
    5028:	0050465f 	subseq	r4, r0, pc, asr r6
    502c:	49545845 	ldmdbmi	r4, {r0, r2, r6, fp, ip, lr}^
    5030:	39435039 	stmdbcc	r3, {r0, r3, r4, r5, ip, lr}^
    5034:	58452820 	stmdapl	r5, {r5, fp, sp}^
    5038:	475f4954 			; <UNDEFINED> instruction: 0x475f4954
    503c:	5f4f4950 	svcpl	0x004f4950
    5040:	6970614d 	ldmdbvs	r0!, {r0, r2, r3, r6, r8, sp, lr}^
    5044:	745f676e 	ldrbvc	r6, [pc], #-1902	; 504c <_Min_Stack_Size+0x4c4c>
    5048:	58457b29 	stmdapl	r5, {r0, r3, r5, r8, r9, fp, ip, sp, lr}^
    504c:	2c394954 			; <UNDEFINED> instruction: 0x2c394954
    5050:	4f495047 	svcmi	0x00495047
    5054:	50472c43 	subpl	r2, r7, r3, asr #24
    5058:	505f4f49 	subspl	r4, pc, r9, asr #30
    505c:	395f4e49 	ldmdbcc	pc, {r0, r3, r6, r9, sl, fp, lr}^	; <UNPREDICTABLE>
    5060:	5458452c 	ldrbpl	r4, [r8], #-1324	; 0xfffffad4
    5064:	495f3949 	ldmdbmi	pc, {r0, r3, r6, r8, fp, ip, sp}^	; <UNPREDICTABLE>
    5068:	007d5152 	rsbseq	r5, sp, r2, asr r1
    506c:	41485f5f 	cmpmi	r8, pc, asr pc
    5070:	4942495f 	stmdbmi	r2, {r0, r1, r2, r3, r4, r6, r8, fp, lr}^
    5074:	205f5f54 	subscs	r5, pc, r4, asr pc	; <UNPREDICTABLE>
    5078:	5f5f0038 	svcpl	0x005f0038
    507c:	5f4d5241 	svcpl	0x004d5241
    5080:	54414546 	strbpl	r4, [r1], #-1350	; 0xfffffaba
    5084:	5f455255 	svcpl	0x00455255
    5088:	00505344 	subseq	r5, r0, r4, asr #6
    508c:	43475f5f 	movtmi	r5, #32607	; 0x7f5f
    5090:	54415f43 	strbpl	r5, [r1], #-3907	; 0xfffff0bd
    5094:	43494d4f 	movtmi	r4, #40271	; 0x9d4f
    5098:	4f4c4c5f 	svcmi	0x004c4c5f
    509c:	4c5f474e 	mrrcmi	7, 4, r4, pc, cr14	; <UNPREDICTABLE>
    50a0:	5f4b434f 	svcpl	0x004b434f
    50a4:	45455246 	strbmi	r5, [r5, #-582]	; 0xfffffdba
    50a8:	5f003120 	svcpl	0x00003120
    50ac:	4e454552 	mcrmi	5, 2, r4, cr5, cr2, {2}
    50b0:	53415f54 	movtpl	r5, #8020	; 0x1f54
    50b4:	4d495443 	cfstrdmi	mvd5, [r9, #-268]	; 0xfffffef4
    50b8:	55425f45 	strbpl	r5, [r2, #-3909]	; 0xfffff0bb
    50bc:	74702846 	ldrbtvc	r2, [r0], #-2118	; 0xfffff7ba
    50c0:	28202972 	stmdacs	r0!, {r1, r4, r5, r6, r8, fp, sp}
    50c4:	72747028 	rsbsvc	r7, r4, #40	; 0x28
    50c8:	5f3e2d29 	svcpl	0x003e2d29
    50cc:	74637361 	strbtvc	r7, [r3], #-865	; 0xfffffc9f
    50d0:	5f656d69 	svcpl	0x00656d69
    50d4:	29667562 	stmdbcs	r6!, {r1, r5, r6, r8, sl, ip, sp, lr}^
    50d8:	54584500 	ldrbpl	r4, [r8], #-1280	; 0xfffffb00
    50dc:	50353149 	eorspl	r3, r5, r9, asr #2
    50e0:	20353141 	eorscs	r3, r5, r1, asr #2
    50e4:	54584528 	ldrbpl	r4, [r8], #-1320	; 0xfffffad8
    50e8:	50475f49 	subpl	r5, r7, r9, asr #30
    50ec:	4d5f4f49 	ldclmi	15, cr4, [pc, #-292]	; 4fd0 <_Min_Stack_Size+0x4bd0>
    50f0:	6e697061 	cdpvs	0, 6, cr7, cr9, cr1, {3}
    50f4:	29745f67 	ldmdbcs	r4!, {r0, r1, r2, r5, r6, r8, r9, sl, fp, ip, lr}^
    50f8:	5458457b 	ldrbpl	r4, [r8], #-1403	; 0xfffffa85
    50fc:	2c353149 	ldfcss	f3, [r5], #-292	; 0xfffffedc
    5100:	4f495047 	svcmi	0x00495047
    5104:	50472c41 	subpl	r2, r7, r1, asr #24
    5108:	505f4f49 	subspl	r4, pc, r9, asr #30
    510c:	315f4e49 	cmpcc	pc, r9, asr #28
    5110:	58452c35 	stmdapl	r5, {r0, r2, r4, r5, sl, fp, sp}^
    5114:	35314954 	ldrcc	r4, [r1, #-2388]!	; 0xfffff6ac
    5118:	5152495f 	cmppl	r2, pc, asr r9
    511c:	5f5f007d 	svcpl	0x005f007d
    5120:	33544c46 	cmpcc	r4, #17920	; 0x4600
    5124:	4d5f5832 	ldclmi	8, cr5, [pc, #-200]	; 5064 <_Min_Stack_Size+0x4c64>
    5128:	5f5f4e49 	svcpl	0x005f4e49
    512c:	322e3220 	eorcc	r3, lr, #32, 4
    5130:	37303532 			; <UNDEFINED> instruction: 0x37303532
    5134:	38353833 	ldmdacc	r5!, {r0, r1, r4, r5, fp, ip, sp}
    5138:	32373035 	eorscc	r3, r7, #53	; 0x35
    513c:	65343130 	ldrvs	r3, [r4, #-304]!	; 0xfffffed0
    5140:	3830332d 	ldmdacc	r0!, {r0, r2, r3, r5, r8, r9, ip, sp}
    5144:	78323346 	ldmdavc	r2!, {r1, r2, r6, r8, r9, ip, sp}
    5148:	45525f00 	ldrbmi	r5, [r2, #-3840]	; 0xfffff100
    514c:	5f544e45 	svcpl	0x00544e45
    5150:	444e4152 	strbmi	r4, [lr], #-338	; 0xfffffeae
    5154:	4d5f3834 	ldclmi	8, cr3, [pc, #-208]	; 508c <_Min_Stack_Size+0x4c8c>
    5158:	28544c55 	ldmdacs	r4, {r0, r2, r4, r6, sl, fp, lr}^
    515c:	29727470 	ldmdbcs	r2!, {r4, r5, r6, sl, ip, sp, lr}^
    5160:	70282820 	eorvc	r2, r8, r0, lsr #16
    5164:	2d297274 	sfmcs	f7, 4, [r9, #-464]!	; 0xfffffe30
    5168:	34725f3e 	ldrbtcc	r5, [r2], #-3902	; 0xfffff0c2
    516c:	5f3e2d38 	svcpl	0x003e2d38
    5170:	746c756d 	strbtvc	r7, [ip], #-1389	; 0xfffffa93
    5174:	5f5f0029 	svcpl	0x005f0029
    5178:	36544c46 	ldrbcc	r4, [r4], -r6, asr #24
    517c:	414d5f34 	cmpmi	sp, r4, lsr pc
    5180:	58455f58 	stmdapl	r5, {r3, r4, r6, r8, r9, sl, fp, ip, lr}^
    5184:	205f5f50 	subscs	r5, pc, r0, asr pc	; <UNPREDICTABLE>
    5188:	34323031 	ldrtcc	r3, [r2], #-49	; 0xffffffcf
    518c:	725f5f00 	subsvc	r5, pc, #0, 30
    5190:	72757465 	rsbsvc	r7, r5, #1694498816	; 0x65000000
    5194:	745f736e 	ldrbvc	r7, [pc], #-878	; 519c <_Min_Stack_Size+0x4d9c>
    5198:	65636977 	strbvs	r6, [r3, #-2423]!	; 0xfffff689
    519c:	615f5f20 	cmpvs	pc, r0, lsr #30
    51a0:	69727474 	ldmdbvs	r2!, {r2, r4, r5, r6, sl, ip, sp, lr}^
    51a4:	65747562 	ldrbvs	r7, [r4, #-1378]!	; 0xfffffa9e
    51a8:	28285f5f 	stmdacs	r8!, {r0, r1, r2, r3, r4, r6, r8, r9, sl, fp, ip, lr}
    51ac:	65725f5f 	ldrbvs	r5, [r2, #-3935]!	; 0xfffff0a1
    51b0:	6e727574 	mrcvs	5, 3, r7, cr2, cr4, {3}
    51b4:	77745f73 			; <UNDEFINED> instruction: 0x77745f73
    51b8:	5f656369 	svcpl	0x00656369
    51bc:	0029295f 	eoreq	r2, r9, pc, asr r9
    51c0:	43575f5f 	cmpmi	r7, #380	; 0x17c
    51c4:	5f524148 	svcpl	0x00524148
    51c8:	4d002054 	stcmi	0, cr2, [r0, #-336]	; 0xfffffeb0
    51cc:	55435f42 	strbpl	r5, [r3, #-3906]	; 0xfffff0be
    51d0:	414d5f52 	cmpmi	sp, r2, asr pc
    51d4:	5f5f2058 	svcpl	0x005f2058
    51d8:	61636f6c 	cmnvs	r3, ip, ror #30
    51dc:	6d5f656c 	cfldr64vs	mvdx6, [pc, #-432]	; 5034 <_Min_Stack_Size+0x4c34>
    51e0:	75635f62 	strbvc	r5, [r3, #-3938]!	; 0xfffff09e
    51e4:	616d5f72 	smcvs	54770	; 0xd5f2
    51e8:	00292878 	eoreq	r2, r9, r8, ror r8
    51ec:	4c465f5f 	mcrrmi	15, 5, r5, r6, cr15
    51f0:	5f343654 	svcpl	0x00343654
    51f4:	5f4e494d 	svcpl	0x004e494d
    51f8:	2e32205f 	mrccs	0, 1, r2, cr2, cr15, {2}
    51fc:	30353232 	eorscc	r3, r5, r2, lsr r2
    5200:	35383337 	ldrcc	r3, [r8, #-823]!	; 0xfffffcc9
    5204:	37303538 			; <UNDEFINED> instruction: 0x37303538
    5208:	34313032 	ldrtcc	r3, [r1], #-50	; 0xffffffce
    520c:	30332d65 	eorscc	r2, r3, r5, ror #26
    5210:	34364638 	ldrtcc	r4, [r6], #-1592	; 0xfffff9c8
    5214:	5f5f5f00 	svcpl	0x005f5f00
    5218:	33746e69 	cmncc	r4, #1680	; 0x690
    521c:	5f745f32 	svcpl	0x00745f32
    5220:	69666564 	stmdbvs	r6!, {r2, r5, r6, r8, sl, sp, lr}^
    5224:	2064656e 	rsbcs	r6, r4, lr, ror #10
    5228:	675f0031 	smmlarvs	pc, r1, r0, r0	; <UNPREDICTABLE>
    522c:	616d6d61 	cmnvs	sp, r1, ror #26
    5230:	6769735f 			; <UNDEFINED> instruction: 0x6769735f
    5234:	6d61676e 	stclvs	7, cr6, [r1, #-440]!	; 0xfffffe48
    5238:	42504100 	subsmi	r4, r0, #0, 2
    523c:	54535232 	ldrbpl	r5, [r3], #-562	; 0xfffffdce
    5240:	5f5f0052 	svcpl	0x005f0052
    5244:	5f544c46 	svcpl	0x00544c46
    5248:	5f4e494d 	svcpl	0x004e494d
    524c:	5f505845 	svcpl	0x00505845
    5250:	2d28205f 	stccs	0, cr2, [r8, #-380]!	; 0xfffffe84
    5254:	29353231 	ldmdbcs	r5!, {r0, r4, r5, r9, ip, sp}
    5258:	575f5f00 	ldrbpl	r5, [pc, -r0, lsl #30]
    525c:	5f544e49 	svcpl	0x00544e49
    5260:	54444957 	strbpl	r4, [r4], #-2391	; 0xfffff6a9
    5264:	205f5f48 	subscs	r5, pc, r8, asr #30
    5268:	5f003233 	svcpl	0x00003233
    526c:	544e495f 	strbpl	r4, [lr], #-2399	; 0xfffff6a1
    5270:	545f3436 	ldrbpl	r3, [pc], #-1078	; 5278 <_Min_Stack_Size+0x4e78>
    5274:	5f455059 	svcpl	0x00455059
    5278:	6f6c205f 	svcvs	0x006c205f
    527c:	6c20676e 	stcvs	7, cr6, [r0], #-440	; 0xfffffe48
    5280:	20676e6f 	rsbcs	r6, r7, pc, ror #28
    5284:	00746e69 	rsbseq	r6, r4, r9, ror #28
    5288:	65735f5f 	ldrbvs	r5, [r3, #-3935]!	; 0xfffff0a1
    528c:	6f697463 	svcvs	0x00697463
    5290:	2978286e 	ldmdbcs	r8!, {r1, r2, r3, r5, r6, fp, sp}^
    5294:	615f5f20 	cmpvs	pc, r0, lsr #30
    5298:	69727474 	ldmdbvs	r2!, {r2, r4, r5, r6, sl, ip, sp, lr}^
    529c:	65747562 	ldrbvs	r7, [r4, #-1378]!	; 0xfffffa9e
    52a0:	28285f5f 	stmdacs	r8!, {r0, r1, r2, r3, r4, r6, r8, r9, sl, fp, ip, lr}
    52a4:	65735f5f 	ldrbvs	r5, [r3, #-3935]!	; 0xfffff0a1
    52a8:	6f697463 	svcvs	0x00697463
    52ac:	285f5f6e 	ldmdacs	pc, {r1, r2, r3, r5, r6, r8, r9, sl, fp, ip, lr}^	; <UNPREDICTABLE>
    52b0:	29292978 	stmdbcs	r9!, {r3, r4, r5, r6, r8, fp, sp}
    52b4:	4c5f5f00 	mrrcmi	15, 0, r5, pc, cr0	; <UNPREDICTABLE>
    52b8:	43415246 	movtmi	r5, #4678	; 0x1246
    52bc:	42465f54 	submi	r5, r6, #84, 30	; 0x150
    52c0:	5f5f5449 	svcpl	0x005f5449
    52c4:	00313320 	eorseq	r3, r1, r0, lsr #6
    52c8:	48435f5f 	stmdami	r3, {r0, r1, r2, r3, r4, r6, r8, r9, sl, fp, ip, lr}^
    52cc:	425f5241 	subsmi	r5, pc, #268435460	; 0x10000004
    52d0:	5f5f5449 	svcpl	0x005f5449
    52d4:	45003820 	strmi	r3, [r0, #-2080]	; 0xfffff7e0
    52d8:	5f495458 	svcpl	0x00495458
    52dc:	004e4950 	subeq	r4, lr, r0, asr r9
    52e0:	53425f5f 	movtpl	r5, #12127	; 0x2f5f
    52e4:	49565f44 	ldmdbmi	r6, {r2, r6, r8, r9, sl, fp, ip, lr}^
    52e8:	4c424953 	mcrrmi	9, 5, r4, r2, cr3	; <UNPREDICTABLE>
    52ec:	00312045 	eorseq	r2, r1, r5, asr #32
    52f0:	5f544e49 	svcpl	0x00544e49
    52f4:	5341454c 	movtpl	r4, #5452	; 0x154c
    52f8:	5f363154 	svcpl	0x00363154
    52fc:	204e494d 	subcs	r4, lr, sp, asr #18
    5300:	5f5f2d28 	svcpl	0x005f2d28
    5304:	5f544e49 	svcpl	0x00544e49
    5308:	5341454c 	movtpl	r4, #5452	; 0x154c
    530c:	5f363154 	svcpl	0x00363154
    5310:	5f58414d 	svcpl	0x0058414d
    5314:	202d205f 	eorcs	r2, sp, pc, asr r0
    5318:	5f002931 	svcpl	0x00002931
    531c:	756e755f 	strbvc	r7, [lr, #-1375]!	; 0xfffffaa1
    5320:	20646573 	rsbcs	r6, r4, r3, ror r5
    5324:	74615f5f 	strbtvc	r5, [r1], #-3935	; 0xfffff0a1
    5328:	62697274 	rsbvs	r7, r9, #116, 4	; 0x40000007
    532c:	5f657475 	svcpl	0x00657475
    5330:	5f28285f 	svcpl	0x0028285f
    5334:	756e755f 	strbvc	r7, [lr, #-1375]!	; 0xfffffaa1
    5338:	5f646573 	svcpl	0x00646573
    533c:	0029295f 	eoreq	r2, r9, pc, asr r9
    5340:	4f495047 	svcmi	0x00495047
    5344:	434f4c5f 	movtmi	r4, #64607	; 0xfc5f
    5348:	4b4f5f4b 	blmi	13dd07c <_Min_Stack_Size+0x13dcc7c>
    534c:	43003120 	movwmi	r3, #288	; 0x120
    5350:	6574726f 	ldrbvs	r7, [r4, #-623]!	; 0xfffffd91
    5354:	334d5f78 	movtcc	r5, #57208	; 0xdf78
    5358:	746e495f 	strbtvc	r4, [lr], #-2399	; 0xfffff6a1
    535c:	616e7265 	cmnvs	lr, r5, ror #4
    5360:	65505f6c 	ldrbvs	r5, [r0, #-3948]	; 0xfffff094
    5364:	68706972 	ldmdavs	r0!, {r1, r4, r5, r6, r8, fp, sp, lr}^
    5368:	6c617265 	sfmvs	f7, 2, [r1], #-404	; 0xfffffe6c
    536c:	41425f73 	hvcmi	9715	; 0x25f3
    5370:	30204553 	eorcc	r4, r0, r3, asr r5
    5374:	30304578 	eorscc	r4, r0, r8, ror r5
    5378:	30303030 	eorscc	r3, r0, r0, lsr r0
    537c:	004c5530 	subeq	r5, ip, r0, lsr r5
    5380:	6572665f 	ldrbvs	r6, [r2, #-1631]!	; 0xfffff9a1
    5384:	73696c65 	cmnvc	r9, #25856	; 0x6500
    5388:	31440074 	hvccc	16388	; 0x4004
    538c:	49504720 	ldmdbmi	r0, {r5, r8, r9, sl, lr}^
    5390:	49505f4f 	ldmdbmi	r0, {r0, r1, r2, r3, r6, r8, r9, sl, fp, ip, lr}^
    5394:	00315f4e 	eorseq	r5, r1, lr, asr #30
    5398:	46555f5f 	usaxmi	r5, r5, pc	; <UNPREDICTABLE>
    539c:	54434152 	strbpl	r4, [r3], #-338	; 0xfffffeae
    53a0:	58414d5f 	stmdapl	r1, {r0, r1, r2, r3, r4, r6, r8, sl, fp, lr}^
    53a4:	30205f5f 	eorcc	r5, r0, pc, asr pc
    53a8:	46464658 			; <UNDEFINED> instruction: 0x46464658
    53ac:	312d5046 			; <UNDEFINED> instruction: 0x312d5046
    53b0:	00525536 	subseq	r5, r2, r6, lsr r5
    53b4:	5f434352 	svcpl	0x00434352
    53b8:	4f495047 	svcmi	0x00495047
    53bc:	4c435f43 	mcrrmi	15, 4, r5, r3, cr3
    53c0:	4e455f4b 	cdpmi	15, 4, cr5, cr5, cr11, {2}
    53c4:	28202928 	stmdacs	r0!, {r3, r5, r8, fp, sp}
    53c8:	2d434352 	stclcs	3, cr4, [r3, #-328]	; 0xfffffeb8
    53cc:	4250413e 	subsmi	r4, r0, #-2147483633	; 0x8000000f
    53d0:	524e4532 	subpl	r4, lr, #209715200	; 0xc800000
    53d4:	203d7c20 	eorscs	r7, sp, r0, lsr #24
    53d8:	343c3c31 	ldrtcc	r3, [ip], #-3121	; 0xfffff3cf
    53dc:	695f0029 	ldmdbvs	pc, {r0, r3, r5}^	; <UNPREDICTABLE>
    53e0:	0073626f 	rsbseq	r6, r3, pc, ror #4
    53e4:	5f434352 	svcpl	0x00434352
    53e8:	4f495047 	svcmi	0x00495047
    53ec:	4c435f42 	mcrrmi	15, 4, r5, r3, cr2
    53f0:	4e455f4b 	cdpmi	15, 4, cr5, cr5, cr11, {2}
    53f4:	28202928 	stmdacs	r0!, {r3, r5, r8, fp, sp}
    53f8:	2d434352 	stclcs	3, cr4, [r3, #-328]	; 0xfffffeb8
    53fc:	4250413e 	subsmi	r4, r0, #-2147483633	; 0x8000000f
    5400:	524e4532 	subpl	r4, lr, #209715200	; 0xc800000
    5404:	203d7c20 	eorscs	r7, sp, r0, lsr #24
    5408:	333c3c31 	teqcc	ip, #12544	; 0x3100
    540c:	575f0029 	ldrbpl	r0, [pc, -r9, lsr #32]
    5410:	5f544e41 	svcpl	0x00544e41
    5414:	4e454552 	mcrmi	5, 2, r4, cr5, cr2, {2}
    5418:	4d535f54 	ldclmi	15, cr5, [r3, #-336]	; 0xfffffeb0
    541c:	204c4c41 	subcs	r4, ip, r1, asr #24
    5420:	675f0031 	smmlarvs	pc, r1, r0, r0	; <UNPREDICTABLE>
    5424:	0065756c 	rsbeq	r7, r5, ip, ror #10
    5428:	49545845 	ldmdbmi	r4, {r0, r2, r6, fp, ip, lr}^
    542c:	44503031 	ldrbmi	r3, [r0], #-49	; 0xffffffcf
    5430:	28203031 	stmdacs	r0!, {r0, r4, r5, ip, sp}
    5434:	49545845 	ldmdbmi	r4, {r0, r2, r6, fp, ip, lr}^
    5438:	4950475f 	ldmdbmi	r0, {r0, r1, r2, r3, r4, r6, r8, r9, sl, lr}^
    543c:	614d5f4f 	cmpvs	sp, pc, asr #30
    5440:	676e6970 			; <UNDEFINED> instruction: 0x676e6970
    5444:	7b29745f 	blvc	a625c8 <_Min_Stack_Size+0xa621c8>
    5448:	49545845 	ldmdbmi	r4, {r0, r2, r6, fp, ip, lr}^
    544c:	472c3031 			; <UNDEFINED> instruction: 0x472c3031
    5450:	444f4950 	strbmi	r4, [pc], #-2384	; 5458 <_Min_Stack_Size+0x5058>
    5454:	4950472c 	ldmdbmi	r0, {r2, r3, r5, r8, r9, sl, lr}^
    5458:	49505f4f 	ldmdbmi	r0, {r0, r1, r2, r3, r6, r8, r9, sl, fp, ip, lr}^
    545c:	30315f4e 	eorscc	r5, r1, lr, asr #30
    5460:	5458452c 	ldrbpl	r4, [r8], #-1324	; 0xfffffad4
    5464:	5f303149 	svcpl	0x00303149
    5468:	7d515249 	lfmvc	f5, 2, [r1, #-292]	; 0xfffffedc
    546c:	555f5f00 	ldrbpl	r5, [pc, #-3840]	; 4574 <_Min_Stack_Size+0x4174>
    5470:	465f4148 	ldrbmi	r4, [pc], -r8, asr #2
    5474:	5f544942 	svcpl	0x00544942
    5478:	0038205f 	eorseq	r2, r8, pc, asr r0
    547c:	6769735f 			; <UNDEFINED> instruction: 0x6769735f
    5480:	5f5f006e 	svcpl	0x005f006e
    5484:	41524653 	cmpmi	r2, r3, asr r6
    5488:	495f5443 	ldmdbmi	pc, {r0, r1, r6, sl, ip, lr}^	; <UNPREDICTABLE>
    548c:	5f544942 	svcpl	0x00544942
    5490:	0030205f 	eorseq	r2, r0, pc, asr r0
    5494:	4654415f 			; <UNDEFINED> instruction: 0x4654415f
    5498:	5f454c49 	svcpl	0x00454c49
    549c:	52554f53 	subspl	r4, r5, #332	; 0x14c
    54a0:	31204543 			; <UNDEFINED> instruction: 0x31204543
    54a4:	535f5f00 	cmppl	pc, #0, 30
    54a8:	4e494454 	mcrmi	4, 2, r4, cr9, cr4, {2}
    54ac:	58455f54 	stmdapl	r5, {r2, r4, r6, r8, r9, sl, fp, ip, lr}^
    54b0:	29782850 	ldmdbcs	r8!, {r4, r6, fp, sp}^
    54b4:	205f5f20 	subscs	r5, pc, r0, lsr #30
    54b8:	20782323 	rsbscs	r2, r8, r3, lsr #6
    54bc:	5f5f2323 	svcpl	0x005f2323
    54c0:	455f5f00 	ldrbmi	r5, [pc, #-3840]	; 45c8 <_Min_Stack_Size+0x41c8>
    54c4:	78285058 	stmdavc	r8!, {r3, r4, r6, ip, lr}
    54c8:	5f5f2029 	svcpl	0x005f2029
    54cc:	78232320 	stmdavc	r3!, {r5, r8, r9, sp}
    54d0:	5f232320 	svcpl	0x00232320
    54d4:	5f5f005f 	svcpl	0x005f005f
    54d8:	45545942 	ldrbmi	r5, [r4, #-2370]	; 0xfffff6be
    54dc:	44524f5f 	ldrbmi	r4, [r2], #-3935	; 0xfffff0a1
    54e0:	5f5f5245 	svcpl	0x005f5245
    54e4:	4f5f5f20 	svcmi	0x005f5f20
    54e8:	52454452 	subpl	r4, r5, #1375731712	; 0x52000000
    54ec:	54494c5f 	strbpl	r4, [r9], #-3167	; 0xfffff3a1
    54f0:	5f454c54 	svcpl	0x00454c54
    54f4:	49444e45 	stmdbmi	r4, {r0, r2, r6, r9, sl, fp, lr}^
    54f8:	5f5f4e41 	svcpl	0x005f4e41
    54fc:	465f5f00 	ldrbmi	r5, [pc], -r0, lsl #30
    5500:	3233544c 	eorscc	r5, r3, #76, 8	; 0x4c000000
    5504:	5350455f 	cmppl	r0, #398458880	; 0x17c00000
    5508:	4e4f4c49 	cdpmi	12, 4, cr4, cr15, cr9, {2}
    550c:	31205f5f 			; <UNDEFINED> instruction: 0x31205f5f
    5510:	3239312e 	eorscc	r3, r9, #-2147483637	; 0x8000000b
    5514:	38323930 	ldmdacc	r2!, {r4, r5, r8, fp, ip, sp}
    5518:	30353539 	eorscc	r3, r5, r9, lsr r5
    551c:	32313837 	eorscc	r3, r1, #3604480	; 0x370000
    5520:	372d6535 			; <UNDEFINED> instruction: 0x372d6535
    5524:	00323346 	eorseq	r3, r2, r6, asr #6
    5528:	52415f5f 	subpl	r5, r1, #380	; 0x17c
    552c:	454e5f4d 	strbmi	r5, [lr, #-3917]	; 0xfffff0b3
    5530:	465f4e4f 	ldrbmi	r4, [pc], -pc, asr #28
    5534:	4e5f0050 	mrcmi	0, 2, r0, cr15, cr0, {2}
    5538:	5248544f 	subpl	r5, r8, #1325400064	; 0x4f000000
    553c:	0020574f 	eoreq	r5, r0, pc, asr #14
    5540:	4349564e 	movtmi	r5, #38478	; 0x964e
    5544:	4553495f 	ldrbmi	r4, [r3, #-2399]	; 0xfffff6a1
    5548:	2a203252 	bcs	811e98 <_Min_Stack_Size+0x811a98>
    554c:	6c6f7628 	stclvs	6, cr7, [pc], #-160	; 54b4 <_Min_Stack_Size+0x50b4>
    5550:	6c697461 	cfstrdvs	mvd7, [r9], #-388	; 0xfffffe7c
    5554:	69752065 	ldmdbvs	r5!, {r0, r2, r5, r6, sp}^
    5558:	3233746e 	eorscc	r7, r3, #1845493760	; 0x6e000000
    555c:	292a745f 	stmdbcs	sl!, {r0, r1, r2, r3, r4, r6, sl, ip, sp, lr}
    5560:	49564e28 	ldmdbmi	r6, {r3, r5, r9, sl, fp, lr}^
    5564:	41425f43 	cmpmi	r2, r3, asr #30
    5568:	2b204553 	blcs	816abc <_Min_Stack_Size+0x8166bc>
    556c:	38783020 	ldmdacc	r8!, {r5, ip, sp}^
    5570:	5f5f0029 	svcpl	0x005f0029
    5574:	52464c4c 	subpl	r4, r6, #76, 24	; 0x4c00
    5578:	5f544341 	svcpl	0x00544341
    557c:	5f58414d 	svcpl	0x0058414d
    5580:	5830205f 	ldmdapl	r0!, {r0, r1, r2, r3, r4, r6, sp}
    5584:	46464637 			; <UNDEFINED> instruction: 0x46464637
    5588:	46464646 	strbmi	r4, [r6], -r6, asr #12
    558c:	46464646 	strbmi	r4, [r6], -r6, asr #12
    5590:	46464646 	strbmi	r4, [r6], -r6, asr #12
    5594:	33362d50 	teqcc	r6, #80, 26	; 0x1400
    5598:	00524c4c 	subseq	r4, r2, ip, asr #24
    559c:	534e415f 	movtpl	r4, #57695	; 0xe15f
    55a0:	43454449 	movtmi	r4, #21577	; 0x5449
    55a4:	5f485f4c 	svcpl	0x00485f4c
    55a8:	58450020 	stmdapl	r5, {r5}^
    55ac:	30314954 	eorscc	r4, r1, r4, asr r9
    55b0:	5152495f 	cmppl	r2, pc, asr r9
    55b4:	00303420 	eorseq	r3, r0, r0, lsr #8
    55b8:	4f505f5f 	svcmi	0x00505f5f
    55bc:	5f584953 	svcpl	0x00584953
    55c0:	49534956 	ldmdbmi	r3, {r1, r2, r4, r6, r8, fp, lr}^
    55c4:	20454c42 	subcs	r4, r5, r2, asr #24
    55c8:	38303032 	ldmdacc	r0!, {r1, r4, r5, ip, sp}
    55cc:	4f003930 	svcmi	0x00003930
    55d0:	57535f53 			; <UNDEFINED> instruction: 0x57535f53
    55d4:	48435449 	stmdami	r3, {r0, r3, r6, sl, ip, lr}^
    55d8:	5f4f545f 	svcpl	0x004f545f
    55dc:	52504e55 	subspl	r4, r0, #1360	; 0x550
    55e0:	4c495649 	mcrrmi	6, 4, r5, r9, cr9
    55e4:	20454749 	subcs	r4, r5, r9, asr #14
    55e8:	73615f5f 	cmnvc	r1, #380	; 0x17c
    55ec:	6f76206d 	svcvs	0x0076206d
    55f0:	6974616c 	ldmdbvs	r4!, {r2, r3, r5, r6, r8, sp, lr}^
    55f4:	2228656c 	eorcs	r6, r8, #108, 10	; 0x1b000000
    55f8:	2073726d 	rsbscs	r7, r3, sp, ror #4
    55fc:	432c3372 			; <UNDEFINED> instruction: 0x432c3372
    5600:	52544e4f 	subspl	r4, r4, #1264	; 0x4f0
    5604:	5c204c4f 	stcpl	12, cr4, [r0], #-316	; 0xfffffec4
    5608:	20745c6e 	rsbscs	r5, r4, lr, ror #24
    560c:	2072726f 	rsbscs	r7, r2, pc, ror #4
    5610:	722c3372 	eorvc	r3, ip, #-939524095	; 0xc8000001
    5614:	30232c33 	eorcc	r2, r3, r3, lsr ip
    5618:	20313078 	eorscs	r3, r1, r8, ror r0
    561c:	745c6e5c 	ldrbvc	r6, [ip], #-3676	; 0xfffff1a4
    5620:	72736d20 	rsbsvc	r6, r3, #32, 26	; 0x800
    5624:	4e4f4320 	cdpmi	3, 4, cr4, cr15, cr0, {1}
    5628:	4c4f5254 	sfmmi	f5, 2, [pc], {84}	; 0x54
    562c:	2233722c 	eorscs	r7, r3, #44, 4	; 0xc0000002
    5630:	58450029 	stmdapl	r5, {r0, r3, r5}^
    5634:	34314954 	ldrtcc	r4, [r1], #-2388	; 0xfffff6ac
    5638:	5152495f 	cmppl	r2, pc, asr r9
    563c:	00303420 	eorseq	r3, r0, r0, lsr #8
    5640:	46555f5f 	usaxmi	r5, r5, pc	; <UNPREDICTABLE>
    5644:	54434152 	strbpl	r4, [r3], #-338	; 0xfffffeae
    5648:	4942465f 	stmdbmi	r2, {r0, r1, r2, r3, r4, r6, r9, sl, lr}^
    564c:	205f5f54 	subscs	r5, pc, r4, asr pc	; <UNPREDICTABLE>
    5650:	45003631 	strmi	r3, [r0, #-1585]	; 0xfffff9cf
    5654:	5f495458 	svcpl	0x00495458
    5658:	5f515249 	svcpl	0x00515249
    565c:	61736944 	cmnvs	r3, r4, asr #18
    5660:	20656c62 	rsbcs	r6, r5, r2, ror #24
    5664:	5f5f0030 	svcpl	0x005f0030
    5668:	5f514455 	svcpl	0x00514455
    566c:	54494246 	strbpl	r4, [r9], #-582	; 0xfffffdba
    5670:	36205f5f 	qsaxcc	r5, r0, pc	; <UNPREDICTABLE>
    5674:	5f5f0034 	svcpl	0x005f0034
    5678:	43554e47 	cmpmi	r5, #1136	; 0x470
    567c:	454b494c 	strbmi	r4, [fp, #-2380]	; 0xfffff6b4
    5680:	4955425f 	ldmdbmi	r5, {r0, r1, r2, r3, r4, r6, r9, lr}^
    5684:	4e49544c 	cdpmi	4, 4, cr5, cr9, cr12, {2}
    5688:	4d454d5f 	stclmi	13, cr4, [r5, #-380]	; 0xfffffe84
    568c:	20595043 	subscs	r5, r9, r3, asr #32
    5690:	50470031 	subpl	r0, r7, r1, lsr r0
    5694:	20454f49 	subcs	r4, r5, r9, asr #30
    5698:	50472828 	subpl	r2, r7, r8, lsr #16
    569c:	545f4f49 	ldrbpl	r4, [pc], #-3913	; 56a4 <_Min_Stack_Size+0x52a4>
    56a0:	44657079 	strbtmi	r7, [r5], #-121	; 0xffffff87
    56a4:	2a206665 	bcs	81f040 <_Min_Stack_Size+0x81ec40>
    56a8:	49504729 	ldmdbmi	r0, {r0, r3, r5, r8, r9, sl, lr}^
    56ac:	425f454f 	subsmi	r4, pc, #331350016	; 0x13c00000
    56b0:	29455341 	stmdbcs	r5, {r0, r6, r8, r9, ip, lr}^
    56b4:	4c5f5f00 	mrrcmi	15, 0, r5, pc, cr0	; <UNPREDICTABLE>
    56b8:	5f4c4244 	svcpl	0x004c4244
    56bc:	5f58414d 	svcpl	0x0058414d
    56c0:	455f3031 	ldrbmi	r3, [pc, #-49]	; 5697 <_Min_Stack_Size+0x5297>
    56c4:	5f5f5058 	svcpl	0x005f5058
    56c8:	38303320 	ldmdacc	r0!, {r5, r8, r9, ip, sp}
    56cc:	415f5f00 	cmpmi	pc, r0, lsl #30
    56d0:	465f4d52 			; <UNDEFINED> instruction: 0x465f4d52
    56d4:	55544145 	ldrbpl	r4, [r4, #-325]	; 0xfffffebb
    56d8:	435f4552 	cmpmi	pc, #343932928	; 0x14800000
    56dc:	4f52504f 	svcmi	0x0052504f
    56e0:	35312043 	ldrcc	r2, [r1, #-67]!	; 0xffffffbd
    56e4:	735f5f00 	cmpvc	pc, #0, 30
    56e8:	61665f66 	cmnvs	r6, r6, ror #30
    56ec:	735f656b 	cmpvc	pc, #448790528	; 0x1ac00000
    56f0:	756f6474 	strbvc	r6, [pc, #-1140]!	; 5284 <_Min_Stack_Size+0x4e84>
    56f4:	5f5f0074 	svcpl	0x005f0074
    56f8:	5f4c4244 	svcpl	0x004c4244
    56fc:	4f4e4544 	svcmi	0x004e4544
    5700:	4d5f4d52 	ldclmi	13, cr4, [pc, #-328]	; 55c0 <_Min_Stack_Size+0x51c0>
    5704:	5f5f4e49 	svcpl	0x005f4e49
    5708:	64282820 	strtvs	r2, [r8], #-2080	; 0xfffff7e0
    570c:	6c62756f 	cfstr64vs	mvdx7, [r2], #-444	; 0xfffffe44
    5710:	2e342965 	vsubcs.f16	s4, s8, s11	; <UNPREDICTABLE>
    5714:	36303439 			; <UNDEFINED> instruction: 0x36303439
    5718:	35343635 	ldrcc	r3, [r4, #-1589]!	; 0xfffff9cb
    571c:	32313438 	eorscc	r3, r1, #56, 8	; 0x38000000
    5720:	34353634 	ldrtcc	r3, [r5], #-1588	; 0xfffff9cc
    5724:	32332d65 	eorscc	r2, r3, #6464	; 0x1940
    5728:	00294c34 	eoreq	r4, r9, r4, lsr ip
    572c:	616c665f 	cmnvs	ip, pc, asr r6
    5730:	00327367 	eorseq	r7, r2, r7, ror #6
    5734:	4e495f5f 	mcrmi	15, 2, r5, cr9, cr15, {2}
    5738:	41465f54 	cmpmi	r6, r4, asr pc
    573c:	32335453 	eorscc	r5, r3, #1392508928	; 0x53000000
    5740:	5059545f 	subspl	r5, r9, pc, asr r4
    5744:	205f5f45 	subscs	r5, pc, r5, asr #30
    5748:	00746e69 	rsbseq	r6, r4, r9, ror #28
    574c:	4e49555f 	mcrmi	5, 2, r5, cr9, cr15, {2}
    5750:	5f343654 	svcpl	0x00343654
    5754:	45445f54 	strbmi	r5, [r4, #-3924]	; 0xfffff0ac
    5758:	52414c43 	subpl	r4, r1, #17152	; 0x4300
    575c:	00204445 	eoreq	r4, r0, r5, asr #8
    5760:	334d5453 	movtcc	r5, #54355	; 0xd453
    5764:	30314632 	eorscc	r4, r1, r2, lsr r6
    5768:	54364333 	ldrtpl	r4, [r6], #-819	; 0xfffffccd
    576c:	00312078 	eorseq	r2, r1, r8, ror r0
    5770:	656d655f 	strbvs	r6, [sp, #-1375]!	; 0xfffffaa1
    5774:	6e656772 	mcrvs	7, 3, r6, cr5, cr2, {3}
    5778:	45007963 	strmi	r7, [r0, #-2403]	; 0xfffff69d
    577c:	36495458 			; <UNDEFINED> instruction: 0x36495458
    5780:	5f003620 	svcpl	0x00003620
    5784:	57454e5f 	smlsldpl	r4, r5, pc, lr	; <UNPREDICTABLE>
    5788:	5f42494c 	svcpl	0x0042494c
    578c:	4f4e494d 	svcmi	0x004e494d
    5790:	205f5f52 	subscs	r5, pc, r2, asr pc	; <UNPREDICTABLE>
    5794:	5f5f0030 	svcpl	0x005f0030
    5798:	5341454c 	movtpl	r4, #5452	; 0x154c
    579c:	22203854 	eorcs	r3, r0, #84, 16	; 0x540000
    57a0:	00226868 	eoreq	r6, r2, r8, ror #16
    57a4:	49545845 	ldmdbmi	r4, {r0, r2, r6, fp, ip, lr}^
    57a8:	52495f35 	subpl	r5, r9, #53, 30	; 0xd4
    57ac:	33322051 	teqcc	r2, #81	; 0x51
    57b0:	49535f00 	ldmdbmi	r3, {r8, r9, sl, fp, ip, lr}^
    57b4:	5f54455a 	svcpl	0x0054455a
    57b8:	5f5f0020 	svcpl	0x005f0020
    57bc:	36544c46 	ldrbcc	r4, [r4], -r6, asr #24
    57c0:	41485f34 	cmpmi	r8, r4, lsr pc
    57c4:	55515f53 	ldrbpl	r5, [r1, #-3923]	; 0xfffff0ad
    57c8:	5f544549 	svcpl	0x00544549
    57cc:	5f4e414e 	svcpl	0x004e414e
    57d0:	0031205f 	eorseq	r2, r1, pc, asr r0
    57d4:	544e4955 	strbpl	r4, [lr], #-2389	; 0xfffff6ab
    57d8:	435f3233 	cmpmi	pc, #805306371	; 0x30000003
    57dc:	20297828 	eorcs	r7, r9, r8, lsr #16
    57e0:	49555f5f 	ldmdbmi	r5, {r0, r1, r2, r3, r4, r6, r8, r9, sl, fp, ip, lr}^
    57e4:	3233544e 	eorscc	r5, r3, #1308622848	; 0x4e000000
    57e8:	7828435f 	stmdavc	r8!, {r0, r1, r2, r3, r4, r6, r8, r9, lr}
    57ec:	5f5f0029 	svcpl	0x005f0029
    57f0:	43415355 	movtmi	r5, #4949	; 0x1355
    57f4:	5f4d5543 	svcpl	0x004d5543
    57f8:	54494249 	strbpl	r4, [r9], #-585	; 0xfffffdb7
    57fc:	38205f5f 	stmdacc	r0!, {r0, r1, r2, r3, r4, r6, r8, r9, sl, fp, ip, lr}
    5800:	54584500 	ldrbpl	r4, [r8], #-1280	; 0xfffffb00
    5804:	41503949 	cmpmi	r0, r9, asr #18
    5808:	45282039 	strmi	r2, [r8, #-57]!	; 0xffffffc7
    580c:	5f495458 	svcpl	0x00495458
    5810:	4f495047 	svcmi	0x00495047
    5814:	70614d5f 	rsbvc	r4, r1, pc, asr sp
    5818:	5f676e69 	svcpl	0x00676e69
    581c:	457b2974 	ldrbmi	r2, [fp, #-2420]!	; 0xfffff68c
    5820:	39495458 	stmdbcc	r9, {r3, r4, r6, sl, ip, lr}^
    5824:	4950472c 	ldmdbmi	r0, {r2, r3, r5, r8, r9, sl, lr}^
    5828:	472c414f 	strmi	r4, [ip, -pc, asr #2]!
    582c:	5f4f4950 	svcpl	0x004f4950
    5830:	5f4e4950 	svcpl	0x004e4950
    5834:	58452c39 	stmdapl	r5, {r0, r3, r4, r5, sl, fp, sp}^
    5838:	5f394954 	svcpl	0x00394954
    583c:	7d515249 	lfmvc	f5, 2, [r1, #-292]	; 0xfffffedc
    5840:	555f5f00 	ldrbpl	r5, [pc, #-3840]	; 4948 <_Min_Stack_Size+0x4548>
    5844:	465f4144 	ldrbmi	r4, [pc], -r4, asr #2
    5848:	5f544942 	svcpl	0x00544942
    584c:	3233205f 	eorscc	r2, r3, #95	; 0x5f
    5850:	465f5f00 	ldrbmi	r5, [pc], -r0, lsl #30
    5854:	3436544c 	ldrtcc	r5, [r6], #-1100	; 0xfffffbb4
    5858:	5341485f 	movtpl	r4, #6239	; 0x185f
    585c:	4e45445f 	mcrmi	4, 2, r4, cr5, cr15, {2}
    5860:	5f4d524f 	svcpl	0x004d524f
    5864:	0031205f 	eorseq	r2, r1, pc, asr r0
    5868:	4c465f5f 	mcrrmi	15, 5, r5, r6, cr15
    586c:	49445f54 	stmdbmi	r4, {r2, r4, r6, r8, r9, sl, fp, ip, lr}^
    5870:	205f5f47 	subscs	r5, pc, r7, asr #30
    5874:	5f5f0036 	svcpl	0x005f0036
    5878:	544e4955 	strbpl	r4, [lr], #-2389	; 0xfffff6ab
    587c:	5f58414d 	svcpl	0x0058414d
    5880:	45505954 	ldrbmi	r5, [r0, #-2388]	; 0xfffff6ac
    5884:	6c205f5f 	stcvs	15, cr5, [r0], #-380	; 0xfffffe84
    5888:	20676e6f 	rsbcs	r6, r7, pc, ror #28
    588c:	676e6f6c 	strbvs	r6, [lr, -ip, ror #30]!
    5890:	736e7520 	cmnvc	lr, #32, 10	; 0x8000000
    5894:	656e6769 	strbvs	r6, [lr, #-1897]!	; 0xfffff897
    5898:	6e692064 	cdpvs	0, 6, cr2, cr9, cr4, {3}
    589c:	575f0074 			; <UNDEFINED> instruction: 0x575f0074
    58a0:	52414843 	subpl	r4, r1, #4390912	; 0x430000
    58a4:	445f545f 	ldrbmi	r5, [pc], #-1119	; 58ac <_Min_Stack_Size+0x54ac>
    58a8:	414c4345 	cmpmi	ip, r5, asr #6
    58ac:	20444552 	subcs	r4, r4, r2, asr r5
    58b0:	544e4900 	strbpl	r4, [lr], #-2304	; 0xfffff700
    58b4:	5341465f 	movtpl	r4, #5727	; 0x165f
    58b8:	5f363154 	svcpl	0x00363154
    58bc:	2058414d 	subscs	r4, r8, sp, asr #2
    58c0:	495f5f28 	ldmdbmi	pc, {r3, r5, r8, r9, sl, fp, ip, lr}^	; <UNPREDICTABLE>
    58c4:	465f544e 	ldrbmi	r5, [pc], -lr, asr #8
    58c8:	31545341 	cmpcc	r4, r1, asr #6
    58cc:	414d5f36 	cmpmi	sp, r6, lsr pc
    58d0:	295f5f58 	ldmdbcs	pc, {r3, r4, r6, r8, r9, sl, fp, ip, lr}^	; <UNPREDICTABLE>
    58d4:	59535f00 	ldmdbpl	r3, {r8, r9, sl, fp, ip, lr}^
    58d8:	45525f53 	ldrbmi	r5, [r2, #-3923]	; 0xfffff0ad
    58dc:	5f544e45 	svcpl	0x00544e45
    58e0:	00205f48 	eoreq	r5, r0, r8, asr #30
    58e4:	4c465f5f 	mcrrmi	15, 5, r5, r6, cr15
    58e8:	56455f54 			; <UNDEFINED> instruction: 0x56455f54
    58ec:	4d5f4c41 	ldclmi	12, cr4, [pc, #-260]	; 57f0 <_Min_Stack_Size+0x53f0>
    58f0:	4f485445 	svcmi	0x00485445
    58f4:	205f5f44 	subscs	r5, pc, r4, asr #30
    58f8:	5f5f0030 	svcpl	0x005f0030
    58fc:	5f746e69 	svcpl	0x00746e69
    5900:	74736166 	ldrbtvc	r6, [r3], #-358	; 0xfffffe9a
    5904:	745f3631 	ldrbvc	r3, [pc], #-1585	; 590c <_Min_Stack_Size+0x550c>
    5908:	6665645f 			; <UNDEFINED> instruction: 0x6665645f
    590c:	64656e69 	strbtvs	r6, [r5], #-3689	; 0xfffff197
    5910:	5f003120 	svcpl	0x00003120
    5914:	4843535f 	stmdami	r3, {r0, r1, r2, r3, r4, r6, r8, r9, ip, lr}^
    5918:	4d5f5241 	lfmmi	f5, 2, [pc, #-260]	; 581c <_Min_Stack_Size+0x541c>
    591c:	5f5f5841 	svcpl	0x005f5841
    5920:	37783020 	ldrbcc	r3, [r8, -r0, lsr #32]!
    5924:	564e0066 	strbpl	r0, [lr], -r6, rrx
    5928:	495f4349 	ldmdbmi	pc, {r0, r3, r6, r8, r9, lr}^	; <UNPREDICTABLE>
    592c:	30345152 	eorscc	r5, r4, r2, asr r1
    5930:	5458455f 	ldrbpl	r4, [r8], #-1375	; 0xfffffaa1
    5934:	5f303149 	svcpl	0x00303149
    5938:	455f3531 	ldrbmi	r3, [pc, #-1329]	; 540f <_Min_Stack_Size+0x500f>
    593c:	6c62616e 	stfvse	f6, [r2], #-440	; 0xfffffe48
    5940:	4e282065 	cdpmi	0, 2, cr2, cr8, cr5, {3}
    5944:	5f434956 	svcpl	0x00434956
    5948:	52455349 	subpl	r5, r5, #603979777	; 0x24000001
    594c:	3d7c2031 	ldclcc	0, cr2, [ip, #-196]!	; 0xffffff3c
    5950:	3c312820 	ldccc	8, cr2, [r1], #-128	; 0xffffff80
    5954:	2929383c 	stmdbcs	r9!, {r2, r3, r4, r5, fp, ip, sp}
    5958:	495f5f00 	ldmdbmi	pc, {r8, r9, sl, fp, ip, lr}^	; <UNPREDICTABLE>
    595c:	465f544e 	ldrbmi	r5, [pc], -lr, asr #8
    5960:	38545341 	ldmdacc	r4, {r0, r6, r8, r9, ip, lr}^
    5964:	4449575f 	strbmi	r5, [r9], #-1887	; 0xfffff8a1
    5968:	5f5f4854 	svcpl	0x005f4854
    596c:	00323320 	eorseq	r3, r2, r0, lsr #6
    5970:	54535f5f 	ldrbpl	r5, [r3], #-3935	; 0xfffff0a1
    5974:	555f4344 	ldrbpl	r4, [pc, #-836]	; 5638 <_Min_Stack_Size+0x5238>
    5978:	315f4654 	cmpcc	pc, r4, asr r6	; <UNPREDICTABLE>
    597c:	205f5f36 	subscs	r5, pc, r6, lsr pc	; <UNPREDICTABLE>
    5980:	525f0031 	subspl	r0, pc, #49	; 0x31
    5984:	34444e41 	strbcc	r4, [r4], #-3649	; 0xfffff1bf
    5988:	554d5f38 	strbpl	r5, [sp, #-3896]	; 0xfffff0c8
    598c:	325f544c 	subscc	r5, pc, #76, 8	; 0x4c000000
    5990:	78302820 	ldmdavc	r0!, {r5, fp, sp}
    5994:	35303030 	ldrcc	r3, [r0, #-48]!	; 0xffffffd0
    5998:	525f0029 	subspl	r0, pc, #41	; 0x29
    599c:	544e4545 	strbpl	r4, [lr], #-1349	; 0xfffffabb
    59a0:	4548435f 	strbmi	r4, [r8, #-863]	; 0xfffffca1
    59a4:	4d5f4b43 	vldrmi	d20, [pc, #-268]	; 58a0 <_Min_Stack_Size+0x54a0>
    59a8:	28435349 	stmdacs	r3, {r0, r3, r6, r8, r9, ip, lr}^
    59ac:	29726176 	ldmdbcs	r2!, {r1, r2, r4, r5, r6, r8, sp, lr}^
    59b0:	45525f20 	ldrbmi	r5, [r2, #-3872]	; 0xfffff0e0
    59b4:	5f544e45 	svcpl	0x00544e45
    59b8:	43454843 	movtmi	r4, #22595	; 0x5843
    59bc:	6176284b 	cmnvs	r6, fp, asr #16
    59c0:	5f202c72 	svcpl	0x00202c72
    59c4:	6373696d 	cmnvs	r3, #1785856	; 0x1b4000
    59c8:	7473202c 	ldrbtvc	r2, [r3], #-44	; 0xffffffd4
    59cc:	74637572 	strbtvc	r7, [r3], #-1394	; 0xfffffa8e
    59d0:	696d5f20 	stmdbvs	sp!, {r5, r8, r9, sl, fp, ip, lr}^
    59d4:	725f6373 	subsvc	r6, pc, #-872415231	; 0xcc000001
    59d8:	746e6565 	strbtvc	r6, [lr], #-1381	; 0xfffffa9b
    59dc:	202c2a20 	eorcs	r2, ip, r0, lsr #20
    59e0:	657a6973 	ldrbvs	r6, [sl, #-2419]!	; 0xfffff68d
    59e4:	2a20666f 	bcs	81f3a8 <_Min_Stack_Size+0x81efa8>
    59e8:	61762828 	cmnvs	r6, r8, lsr #16
    59ec:	3e2d2972 			; <UNDEFINED> instruction: 0x3e2d2972
    59f0:	73696d5f 	cmnvc	r9, #6080	; 0x17c0
    59f4:	202c2963 	eorcs	r2, ip, r3, ror #18
    59f8:	4545525f 	strbmi	r5, [r5, #-607]	; 0xfffffda1
    59fc:	495f544e 	ldmdbmi	pc, {r1, r2, r3, r6, sl, ip, lr}^	; <UNPREDICTABLE>
    5a00:	5f54494e 	svcpl	0x0054494e
    5a04:	4353494d 	cmpmi	r3, #1261568	; 0x134000
    5a08:	72617628 	rsbvc	r7, r1, #40, 12	; 0x2800000
    5a0c:	5f002929 	svcpl	0x00002929
    5a10:	54505f54 	ldrbpl	r5, [r0], #-3924	; 0xfffff0ac
    5a14:	46494452 			; <UNDEFINED> instruction: 0x46494452
    5a18:	5f002046 	svcpl	0x00002046
    5a1c:	5151555f 	cmppl	r1, pc, asr r5
    5a20:	4942465f 	stmdbmi	r2, {r0, r1, r2, r3, r4, r6, r9, sl, lr}^
    5a24:	205f5f54 	subscs	r5, pc, r4, asr pc	; <UNPREDICTABLE>
    5a28:	775f0038 	smmlarvc	pc, r8, r0, r0	; <UNPREDICTABLE>
    5a2c:	6f747263 	svcvs	0x00747263
    5a30:	735f626d 	cmpvc	pc, #-805306362	; 0xd0000006
    5a34:	65746174 	ldrbvs	r6, [r4, #-372]!	; 0xfffffe8c
    5a38:	746e6900 	strbtvc	r6, [lr], #-2304	; 0xfffff700
    5a3c:	00322b20 	eorseq	r2, r2, r0, lsr #22
    5a40:	45445f5f 	strbmi	r5, [r4, #-3935]	; 0xfffff0a1
    5a44:	5f343643 	svcpl	0x00343643
    5a48:	5f4e494d 	svcpl	0x004e494d
    5a4c:	5f505845 	svcpl	0x00505845
    5a50:	2d28205f 	stccs	0, cr2, [r8, #-380]!	; 0xfffffe84
    5a54:	29323833 	ldmdbcs	r2!, {r0, r1, r4, r5, fp, ip, sp}
    5a58:	555f5f00 	ldrbpl	r5, [pc, #-3840]	; 4b60 <_Min_Stack_Size+0x4760>
    5a5c:	55434341 	strbpl	r4, [r3, #-833]	; 0xfffffcbf
    5a60:	414d5f4d 	cmpmi	sp, sp, asr #30
    5a64:	205f5f58 	subscs	r5, pc, r8, asr pc	; <UNPREDICTABLE>
    5a68:	46465830 			; <UNDEFINED> instruction: 0x46465830
    5a6c:	46464646 	strbmi	r4, [r6], -r6, asr #12
    5a70:	2d504646 	ldclcs	6, cr4, [r0, #-280]	; 0xfffffee8
    5a74:	4b553631 	blmi	1553340 <_Min_Stack_Size+0x1552f40>
    5a78:	45525f00 	ldrbmi	r5, [r2, #-3840]	; 0xfffff100
    5a7c:	5f544e45 	svcpl	0x00544e45
    5a80:	4f544357 	svcmi	0x00544357
    5a84:	535f424d 	cmppl	pc, #-805306364	; 0xd0000004
    5a88:	45544154 	ldrbmi	r4, [r4, #-340]	; 0xfffffeac
    5a8c:	72747028 	rsbsvc	r7, r4, #40	; 0x28
    5a90:	28282029 	stmdacs	r8!, {r0, r3, r5, sp}
    5a94:	29727470 	ldmdbcs	r2!, {r4, r5, r6, sl, ip, sp, lr}^
    5a98:	6d5f3e2d 	ldclvs	14, cr3, [pc, #-180]	; 59ec <_Min_Stack_Size+0x55ec>
    5a9c:	2d637369 	stclcs	3, cr7, [r3, #-420]!	; 0xfffffe5c
    5aa0:	63775f3e 	cmnvs	r7, #62, 30	; 0xf8
    5aa4:	626d6f74 	rsbvs	r6, sp, #116, 30	; 0x1d0
    5aa8:	6174735f 	cmnvs	r4, pc, asr r3
    5aac:	00296574 	eoreq	r6, r9, r4, ror r5
    5ab0:	6d745f5f 	ldclvs	15, cr5, [r4, #-380]!	; 0xfffffe84
    5ab4:	61646d5f 	cmnvs	r4, pc, asr sp
    5ab8:	68630079 	stmdavs	r3!, {r0, r3, r4, r5, r6}^
    5abc:	2b207261 	blcs	822448 <_Min_Stack_Size+0x822048>
    5ac0:	6c610030 	stclvs	0, cr0, [r1], #-192	; 0xffffff40
    5ac4:	61636f6c 	cmnvs	r3, ip, ror #30
    5ac8:	4c5f5f00 	mrrcmi	15, 0, r5, pc, cr0	; <UNPREDICTABLE>
    5acc:	43415246 	movtmi	r5, #4678	; 0x1246
    5ad0:	414d5f54 	cmpmi	sp, r4, asr pc
    5ad4:	205f5f58 	subscs	r5, pc, r8, asr pc	; <UNPREDICTABLE>
    5ad8:	46375830 			; <UNDEFINED> instruction: 0x46375830
    5adc:	46464646 	strbmi	r4, [r6], -r6, asr #12
    5ae0:	2d504646 	ldclcs	6, cr4, [r0, #-280]	; 0xfffffee8
    5ae4:	524c3133 	subpl	r3, ip, #-1073741812	; 0xc000000c
    5ae8:	535f5f00 	cmppl	pc, #0, 30
    5aec:	4f455a49 	svcmi	0x00455a49
    5af0:	54505f46 	ldrbpl	r5, [r0], #-3910	; 0xfffff0ba
    5af4:	46494452 			; <UNDEFINED> instruction: 0x46494452
    5af8:	5f545f46 	svcpl	0x00545f46
    5afc:	0034205f 	eorseq	r2, r4, pc, asr r0
    5b00:	49545845 	ldmdbmi	r4, {r0, r2, r6, fp, ip, lr}^
    5b04:	31203131 			; <UNDEFINED> instruction: 0x31203131
    5b08:	5f5f0031 	svcpl	0x005f0031
    5b0c:	41484357 	cmpmi	r8, r7, asr r3
    5b10:	5f545f52 	svcpl	0x00545f52
    5b14:	5f00205f 	svcpl	0x0000205f
    5b18:	6e695f5f 	mcrvs	15, 3, r5, cr9, cr15, {2}
    5b1c:	656c5f74 	strbvs	r5, [ip, #-3956]!	; 0xfffff08c
    5b20:	38747361 	ldmdacc	r4!, {r0, r5, r6, r8, r9, ip, sp, lr}^
    5b24:	645f745f 	ldrbvs	r7, [pc], #-1119	; 5b2c <_Min_Stack_Size+0x572c>
    5b28:	6e696665 	cdpvs	6, 6, cr6, cr9, cr5, {3}
    5b2c:	31206465 			; <UNDEFINED> instruction: 0x31206465
    5b30:	415f5f00 	cmpmi	pc, r0, lsl #30
    5b34:	465f4d52 			; <UNDEFINED> instruction: 0x465f4d52
    5b38:	55544145 	ldrbpl	r4, [r4, #-325]	; 0xfffffebb
    5b3c:	495f4552 	ldmdbmi	pc, {r1, r4, r6, r8, sl, lr}^	; <UNPREDICTABLE>
    5b40:	20564944 	subscs	r4, r6, r4, asr #18
    5b44:	755f0031 	ldrbvc	r0, [pc, #-49]	; 5b1b <_Min_Stack_Size+0x571b>
    5b48:	00667562 	rsbeq	r7, r6, r2, ror #10
    5b4c:	4c465f5f 	mcrrmi	15, 5, r5, r6, cr15
    5b50:	5f54414f 	svcpl	0x0054414f
    5b54:	44524f57 	ldrbmi	r4, [r2], #-3927	; 0xfffff0a9
    5b58:	44524f5f 	ldrbmi	r4, [r2], #-3935	; 0xfffff0a1
    5b5c:	5f5f5245 	svcpl	0x005f5245
    5b60:	4f5f5f20 	svcmi	0x005f5f20
    5b64:	52454452 	subpl	r4, r5, #1375731712	; 0x52000000
    5b68:	54494c5f 	strbpl	r4, [r9], #-3167	; 0xfffff3a1
    5b6c:	5f454c54 	svcpl	0x00454c54
    5b70:	49444e45 	stmdbmi	r4, {r0, r2, r6, r9, sl, fp, lr}^
    5b74:	5f5f4e41 	svcpl	0x005f4e41
    5b78:	544e4900 	strbpl	r4, [lr], #-2304	; 0xfffff700
    5b7c:	5f58414d 	svcpl	0x0058414d
    5b80:	204e494d 	subcs	r4, lr, sp, asr #18
    5b84:	4e492d28 	cdpmi	13, 4, cr2, cr9, cr8, {1}
    5b88:	58414d54 	stmdapl	r1, {r2, r4, r6, r8, sl, fp, lr}^
    5b8c:	58414d5f 	stmdapl	r1, {r0, r1, r2, r3, r4, r6, r8, sl, fp, lr}^
    5b90:	31202d20 			; <UNDEFINED> instruction: 0x31202d20
    5b94:	475f0029 	ldrbmi	r0, [pc, -r9, lsr #32]
    5b98:	575f4343 	ldrbpl	r4, [pc, -r3, asr #6]
    5b9c:	52414843 	subpl	r4, r1, #4390912	; 0x430000
    5ba0:	0020545f 	eoreq	r5, r0, pc, asr r4
    5ba4:	6e755f5f 	mrcvs	15, 3, r5, cr5, cr15, {2}
    5ba8:	6b636f6c 	blvs	18e1960 <_Min_Stack_Size+0x18e1560>
    5bac:	2e2e2873 	mcrcs	8, 1, r2, cr14, cr3, {3}
    5bb0:	5f20292e 	svcpl	0x0020292e
    5bb4:	636f6c5f 	cmnvs	pc, #24320	; 0x5f00
    5bb8:	6e615f6b 	cdpvs	15, 6, cr5, cr1, cr11, {3}
    5bbc:	61746f6e 	cmnvs	r4, lr, ror #30
    5bc0:	75286574 	strvc	r6, [r8, #-1396]!	; 0xfffffa8c
    5bc4:	636f6c6e 	cmnvs	pc, #28160	; 0x6e00
    5bc8:	75665f6b 	strbvc	r5, [r6, #-3947]!	; 0xfffff095
    5bcc:	6974636e 	ldmdbvs	r4!, {r1, r2, r3, r5, r6, r8, r9, sp, lr}^
    5bd0:	5f286e6f 	svcpl	0x00286e6f
    5bd4:	5f41565f 	svcpl	0x0041565f
    5bd8:	53475241 	movtpl	r5, #29249	; 0x7241
    5bdc:	29295f5f 	stmdbcs	r9!, {r0, r1, r2, r3, r4, r6, r8, r9, sl, fp, ip, lr}
    5be0:	455f5f00 	ldrbmi	r5, [pc, #-3840]	; 4ce8 <_Min_Stack_Size+0x48e8>
    5be4:	524f5058 	subpl	r5, pc, #88	; 0x58
    5be8:	5f002054 	svcpl	0x00002054
    5bec:	6f746377 	svcvs	0x00746377
    5bf0:	735f626d 	cmpvc	pc, #-805306362	; 0xd0000006
    5bf4:	65746174 	ldrbvs	r6, [r4, #-372]!	; 0xfffffe8c
    5bf8:	4f5f5f00 	svcmi	0x005f5f00
    5bfc:	4c4f5342 	mcrrmi	3, 4, r5, pc, cr2
    5c00:	5f455445 	svcpl	0x00455445
    5c04:	4854414d 	ldmdami	r4, {r0, r2, r3, r6, r8, lr}^
    5c08:	4645445f 			; <UNDEFINED> instruction: 0x4645445f
    5c0c:	544c5541 	strbpl	r5, [ip], #-1345	; 0xfffffabf
    5c10:	5f003120 	svcpl	0x00003120
    5c14:	7473626d 	ldrbtvc	r6, [r3], #-621	; 0xfffffd93
    5c18:	00657461 	rsbeq	r7, r5, r1, ror #8
    5c1c:	43535f5f 	cmpmi	r3, #380	; 0x17c
    5c20:	44495343 	strbmi	r5, [r9], #-835	; 0xfffffcbd
    5c24:	20297328 	eorcs	r7, r9, r8, lsr #6
    5c28:	75727473 	ldrbvc	r7, [r2, #-1139]!	; 0xfffffb8d
    5c2c:	5f207463 	svcpl	0x00207463
    5c30:	6361685f 	cmnvs	r1, #6225920	; 0x5f0000
    5c34:	5845006b 	stmdapl	r5, {r0, r1, r3, r5, r6}^
    5c38:	545f4954 	ldrbpl	r4, [pc], #-2388	; 5c40 <_Min_Stack_Size+0x5840>
    5c3c:	67676972 			; <UNDEFINED> instruction: 0x67676972
    5c40:	525f7265 	subspl	r7, pc, #1342177286	; 0x50000006
    5c44:	4e495349 	cdpmi	3, 4, cr5, cr9, cr9, {2}
    5c48:	444e4147 	strbmi	r4, [lr], #-327	; 0xfffffeb9
    5c4c:	4c4c4146 	stfmie	f4, [ip], {70}	; 0x46
    5c50:	20474e49 	subcs	r4, r7, r9, asr #28
    5c54:	5f5f0032 	svcpl	0x005f0032
    5c58:	54524853 	ldrbpl	r4, [r2], #-2131	; 0xfffff7ad
    5c5c:	4449575f 	strbmi	r5, [r9], #-1887	; 0xfffff8a1
    5c60:	5f5f4854 	svcpl	0x005f4854
    5c64:	00363120 	eorseq	r3, r6, r0, lsr #2
    5c68:	524f5f5f 	subpl	r5, pc, #380	; 0x17c
    5c6c:	5f524544 	svcpl	0x00524544
    5c70:	5f504450 	svcpl	0x00504450
    5c74:	49444e45 	stmdbmi	r4, {r0, r2, r6, r9, sl, fp, lr}^
    5c78:	5f5f4e41 	svcpl	0x005f4e41
    5c7c:	31343320 	teqcc	r4, r0, lsr #6
    5c80:	725f0032 	subsvc	r0, pc, #50	; 0x32
    5c84:	5f646e61 	svcpl	0x00646e61
    5c88:	7478656e 	ldrbtvc	r6, [r8], #-1390	; 0xfffffa92
    5c8c:	445f5f00 	ldrbmi	r5, [pc], #-3840	; 5c94 <_Min_Stack_Size+0x5894>
    5c90:	32314345 	eorscc	r4, r1, #335544321	; 0x14000001
    5c94:	414d5f38 	cmpmi	sp, r8, lsr pc
    5c98:	58455f58 	stmdapl	r5, {r3, r4, r6, r8, r9, sl, fp, ip, lr}^
    5c9c:	205f5f50 	subscs	r5, pc, r0, asr pc	; <UNPREDICTABLE>
    5ca0:	35343136 	ldrcc	r3, [r4, #-310]!	; 0xfffffeca
    5ca4:	6c665f00 	stclvs	15, cr5, [r6], #-0
    5ca8:	00736761 	rsbseq	r6, r3, r1, ror #14
    5cac:	4d495f5f 	stclmi	15, cr5, [r9, #-380]	; 0xfffffe84
    5cb0:	54524f50 	ldrbpl	r4, [r2], #-3920	; 0xfffff0b0
    5cb4:	525f0020 	subspl	r0, pc, #32
    5cb8:	34444e41 	strbcc	r4, [r4], #-3649	; 0xfffff1bf
    5cbc:	45535f38 	ldrbmi	r5, [r3, #-3896]	; 0xfffff0c8
    5cc0:	325f4445 	subscc	r4, pc, #1157627904	; 0x45000000
    5cc4:	78302820 	ldmdavc	r0!, {r5, fp, sp}
    5cc8:	34333231 	ldrtcc	r3, [r3], #-561	; 0xfffffdcf
    5ccc:	505f0029 	subspl	r0, pc, r9, lsr #32
    5cd0:	49445254 	stmdbmi	r4, {r2, r4, r6, r9, ip, lr}^
    5cd4:	545f4646 	ldrbpl	r4, [pc], #-1606	; 5cdc <_Min_Stack_Size+0x58dc>
    5cd8:	4345445f 	movtmi	r4, #21599	; 0x545f
    5cdc:	4552414c 	ldrbmi	r4, [r2, #-332]	; 0xfffffeb4
    5ce0:	5f002044 	svcpl	0x00002044
    5ce4:	4153555f 	cmpmi	r3, pc, asr r5
    5ce8:	4942465f 	stmdbmi	r2, {r0, r1, r2, r3, r4, r6, r9, sl, lr}^
    5cec:	205f5f54 	subscs	r5, pc, r4, asr pc	; <UNPREDICTABLE>
    5cf0:	5f003631 	svcpl	0x00003631
    5cf4:	6c6f765f 	stclvs	6, cr7, [pc], #-380	; 5b80 <_Min_Stack_Size+0x5780>
    5cf8:	6c697461 	cfstrdvs	mvd7, [r9], #-388	; 0xfffffe7c
    5cfc:	6f762065 	svcvs	0x00762065
    5d00:	6974616c 	ldmdbvs	r4!, {r2, r3, r5, r6, r8, sp, lr}^
    5d04:	5f00656c 	svcpl	0x0000656c
    5d08:	4545495f 	strbmi	r4, [r5, #-2399]	; 0xfffff6a1
    5d0c:	494c5f45 	stmdbmi	ip, {r0, r2, r6, r8, r9, sl, fp, ip, lr}^
    5d10:	454c5454 	strbmi	r5, [ip, #-1108]	; 0xfffffbac
    5d14:	444e455f 	strbmi	r4, [lr], #-1375	; 0xfffffaa1
    5d18:	204e4149 	subcs	r4, lr, r9, asr #2
    5d1c:	4c5f5f00 	mrrcmi	15, 0, r5, pc, cr0	; <UNPREDICTABLE>
    5d20:	5f4c4244 	svcpl	0x004c4244
    5d24:	5f4e494d 	svcpl	0x004e494d
    5d28:	455f3031 	ldrbmi	r3, [pc, #-49]	; 5cff <_Min_Stack_Size+0x58ff>
    5d2c:	5f5f5058 	svcpl	0x005f5058
    5d30:	332d2820 			; <UNDEFINED> instruction: 0x332d2820
    5d34:	00293730 	eoreq	r3, r9, r0, lsr r7
    5d38:	4349564e 	movtmi	r5, #38478	; 0x964e
    5d3c:	5152495f 	cmppl	r2, pc, asr r9
    5d40:	58455f38 	stmdapl	r5, {r3, r4, r5, r8, r9, sl, fp, ip, lr}^
    5d44:	5f324954 	svcpl	0x00324954
    5d48:	61736944 	cmnvs	r3, r4, asr #18
    5d4c:	20656c62 	rsbcs	r6, r5, r2, ror #24
    5d50:	49564e28 	ldmdbmi	r6, {r3, r5, r9, sl, fp, lr}^
    5d54:	43495f43 	movtmi	r5, #40771	; 0x9f43
    5d58:	20305245 	eorscs	r5, r0, r5, asr #4
    5d5c:	28203d7c 	stmdacs	r0!, {r2, r3, r4, r5, r6, r8, sl, fp, ip, sp}
    5d60:	383c3c31 	ldmdacc	ip!, {r0, r4, r5, sl, fp, ip, sp}
    5d64:	5f002929 	svcpl	0x00002929
    5d68:	544c465f 	strbpl	r4, [ip], #-1631	; 0xfffff9a1
    5d6c:	5341485f 	movtpl	r4, #6239	; 0x185f
    5d70:	4955515f 	ldmdbmi	r5, {r0, r1, r2, r3, r4, r6, r8, ip, lr}^
    5d74:	4e5f5445 	cdpmi	4, 5, cr5, cr15, cr5, {2}
    5d78:	5f5f4e41 	svcpl	0x005f4e41
    5d7c:	5f003120 	svcpl	0x00003120
    5d80:	4343475f 	movtmi	r4, #14175	; 0x375f
    5d84:	4f54415f 	svcmi	0x0054415f
    5d88:	5f43494d 	svcpl	0x0043494d
    5d8c:	52414843 	subpl	r4, r1, #4390912	; 0x430000
    5d90:	434f4c5f 	movtmi	r4, #64607	; 0xfc5f
    5d94:	52465f4b 	subpl	r5, r6, #300	; 0x12c
    5d98:	32204545 	eorcc	r4, r0, #289406976	; 0x11400000
    5d9c:	54584500 	ldrbpl	r4, [r8], #-1280	; 0xfffffb00
    5da0:	20353149 	eorscs	r3, r5, r9, asr #2
    5da4:	47003531 	smladxmi	r0, r1, r5, r3
    5da8:	5f4f4950 	svcpl	0x004f4950
    5dac:	5f4e4950 	svcpl	0x004e4950
    5db0:	28203431 	stmdacs	r0!, {r0, r4, r5, sl, ip, sp}
    5db4:	6e697528 	cdpvs	5, 6, cr7, cr9, cr8, {1}
    5db8:	5f363174 	svcpl	0x00363174
    5dbc:	78302974 	ldmdavc	r0!, {r2, r4, r5, r6, r8, fp, sp}
    5dc0:	30303034 	eorscc	r3, r0, r4, lsr r0
    5dc4:	5f5f0029 	svcpl	0x005f0029
    5dc8:	4152464c 	cmpmi	r2, ip, asr #12
    5dcc:	455f5443 	ldrbmi	r5, [pc, #-1091]	; 5991 <_Min_Stack_Size+0x5591>
    5dd0:	4c495350 	mcrrmi	3, 5, r5, r9, cr0
    5dd4:	5f5f4e4f 	svcpl	0x005f4e4f
    5dd8:	31783020 	cmncc	r8, r0, lsr #32
    5ddc:	31332d50 	teqcc	r3, r0, asr sp
    5de0:	5f00524c 	svcpl	0x0000524c
    5de4:	6572705f 	ldrbvs	r7, [r2, #-95]!	; 0xffffffa1
    5de8:	74636964 	strbtvc	r6, [r3], #-2404	; 0xfffff69c
    5dec:	6c61665f 	stclvs	6, cr6, [r1], #-380	; 0xfffffe84
    5df0:	65286573 	strvs	r6, [r8, #-1395]!	; 0xfffffa8d
    5df4:	20297078 	eorcs	r7, r9, r8, ror r0
    5df8:	75625f5f 	strbvc	r5, [r2, #-3935]!	; 0xfffff0a1
    5dfc:	69746c69 	ldmdbvs	r4!, {r0, r3, r5, r6, sl, fp, sp, lr}^
    5e00:	78655f6e 	stmdavc	r5!, {r1, r2, r3, r5, r6, r8, r9, sl, fp, ip, lr}^
    5e04:	74636570 	strbtvc	r6, [r3], #-1392	; 0xfffffa90
    5e08:	78652828 	stmdavc	r5!, {r3, r5, fp, sp}^
    5e0c:	202c2970 	eorcs	r2, ip, r0, ror r9
    5e10:	5f002930 	svcpl	0x00002930
    5e14:	49474542 	stmdbmi	r7, {r1, r6, r8, sl, lr}^
    5e18:	54535f4e 	ldrbpl	r5, [r3], #-3918	; 0xfffff0b2
    5e1c:	20435f44 	subcs	r5, r3, r4, asr #30
    5e20:	45525f00 	ldrbmi	r5, [r2, #-3840]	; 0xfffff100
    5e24:	5f544e45 	svcpl	0x00544e45
    5e28:	43454843 	movtmi	r4, #22595	; 0x5843
    5e2c:	53415f4b 	movtpl	r5, #8011	; 0x1f4b
    5e30:	4d495443 	cfstrdmi	mvd5, [r9, #-268]	; 0xfffffef4
    5e34:	55425f45 	strbpl	r5, [r2, #-3909]	; 0xfffff0bb
    5e38:	61762846 	cmnvs	r6, r6, asr #16
    5e3c:	5f202972 	svcpl	0x00202972
    5e40:	4e454552 	mcrmi	5, 2, r4, cr5, cr2, {2}
    5e44:	48435f54 	stmdami	r3, {r2, r4, r6, r8, r9, sl, fp, ip, lr}^
    5e48:	284b4345 	stmdacs	fp, {r0, r2, r6, r8, r9, lr}^
    5e4c:	2c726176 	ldfcse	f6, [r2], #-472	; 0xfffffe28
    5e50:	73615f20 	cmnvc	r1, #32, 30	; 0x80
    5e54:	6d697463 	cfstrdvs	mvd7, [r9, #-396]!	; 0xfffffe74
    5e58:	75625f65 	strbvc	r5, [r2, #-3941]!	; 0xfffff09b
    5e5c:	63202c66 			; <UNDEFINED> instruction: 0x63202c66
    5e60:	20726168 	rsbscs	r6, r2, r8, ror #2
    5e64:	5f202c2a 	svcpl	0x00202c2a
    5e68:	4e454552 	mcrmi	5, 2, r4, cr5, cr2, {2}
    5e6c:	53415f54 	movtpl	r5, #8020	; 0x1f54
    5e70:	4d495443 	cfstrdmi	mvd5, [r9, #-268]	; 0xfffffef4
    5e74:	49535f45 	ldmdbmi	r3, {r0, r2, r6, r8, r9, sl, fp, ip, lr}^
    5e78:	202c455a 	eorcs	r4, ip, sl, asr r5
    5e7c:	736d656d 	cmnvc	sp, #457179136	; 0x1b400000
    5e80:	28287465 	stmdacs	r8!, {r0, r2, r5, r6, sl, ip, sp, lr}
    5e84:	29726176 	ldmdbcs	r2!, {r1, r2, r4, r5, r6, r8, sp, lr}^
    5e88:	615f3e2d 	cmpvs	pc, sp, lsr #28
    5e8c:	69746373 	ldmdbvs	r4!, {r0, r1, r4, r5, r6, r8, r9, sp, lr}^
    5e90:	625f656d 	subsvs	r6, pc, #457179136	; 0x1b400000
    5e94:	202c6675 	eorcs	r6, ip, r5, ror r6
    5e98:	5f202c30 	svcpl	0x00202c30
    5e9c:	4e454552 	mcrmi	5, 2, r4, cr5, cr2, {2}
    5ea0:	53415f54 	movtpl	r5, #8020	; 0x1f54
    5ea4:	4d495443 	cfstrdmi	mvd5, [r9, #-268]	; 0xfffffef4
    5ea8:	49535f45 	ldmdbmi	r3, {r0, r2, r6, r8, r9, sl, fp, ip, lr}^
    5eac:	2929455a 	stmdbcs	r9!, {r1, r3, r4, r6, r8, sl, lr}
    5eb0:	54584500 	ldrbpl	r4, [r8], #-1280	; 0xfffffb00
    5eb4:	43503049 	cmpmi	r0, #73	; 0x49
    5eb8:	45282030 	strmi	r2, [r8, #-48]!	; 0xffffffd0
    5ebc:	5f495458 	svcpl	0x00495458
    5ec0:	4f495047 	svcmi	0x00495047
    5ec4:	70614d5f 	rsbvc	r4, r1, pc, asr sp
    5ec8:	5f676e69 	svcpl	0x00676e69
    5ecc:	457b2974 	ldrbmi	r2, [fp, #-2420]!	; 0xfffff68c
    5ed0:	30495458 	subcc	r5, r9, r8, asr r4
    5ed4:	4950472c 	ldmdbmi	r0, {r2, r3, r5, r8, r9, sl, lr}^
    5ed8:	472c434f 	strmi	r4, [ip, -pc, asr #6]!
    5edc:	5f4f4950 	svcpl	0x004f4950
    5ee0:	5f4e4950 	svcpl	0x004e4950
    5ee4:	58452c30 	stmdapl	r5, {r4, r5, sl, fp, sp}^
    5ee8:	5f304954 	svcpl	0x00304954
    5eec:	7d515249 	lfmvc	f5, 2, [r1, #-292]	; 0xfffffedc
    5ef0:	415f5f00 	cmpmi	pc, r0, lsl #30
    5ef4:	535f4d52 	cmppl	pc, #5248	; 0x1480
    5ef8:	4f455a49 	svcmi	0x00455a49
    5efc:	494d5f46 	stmdbmi	sp, {r1, r2, r6, r8, r9, sl, fp, ip, lr}^
    5f00:	414d494e 	cmpmi	sp, lr, asr #18
    5f04:	4e455f4c 	cdpmi	15, 4, cr5, cr5, cr12, {2}
    5f08:	31204d55 			; <UNDEFINED> instruction: 0x31204d55
    5f0c:	49564e00 	ldmdbmi	r6, {r9, sl, fp, lr}^
    5f10:	52495f43 	subpl	r5, r9, #268	; 0x10c
    5f14:	455f3951 	ldrbmi	r3, [pc, #-2385]	; 55cb <_Min_Stack_Size+0x51cb>
    5f18:	33495458 	movtcc	r5, #37976	; 0x9458
    5f1c:	7369445f 	cmnvc	r9, #1593835520	; 0x5f000000
    5f20:	656c6261 	strbvs	r6, [ip, #-609]!	; 0xfffffd9f
    5f24:	564e2820 	strbpl	r2, [lr], -r0, lsr #16
    5f28:	495f4349 	ldmdbmi	pc, {r0, r3, r6, r8, r9, lr}^	; <UNPREDICTABLE>
    5f2c:	30524543 	subscc	r4, r2, r3, asr #10
    5f30:	203d7c20 	eorscs	r7, sp, r0, lsr #24
    5f34:	3c3c3128 	ldfccs	f3, [ip], #-160	; 0xffffff60
    5f38:	00292939 	eoreq	r2, r9, r9, lsr r9
    5f3c:	72615f5f 	rsbvc	r5, r1, #380	; 0x17c
    5f40:	205f5f6d 	subscs	r5, pc, sp, ror #30
    5f44:	58450031 	stmdapl	r5, {r0, r4, r5}^
    5f48:	50344954 	eorspl	r4, r4, r4, asr r9
    5f4c:	28203442 	stmdacs	r0!, {r1, r6, sl, ip, sp}
    5f50:	49545845 	ldmdbmi	r4, {r0, r2, r6, fp, ip, lr}^
    5f54:	4950475f 	ldmdbmi	r0, {r0, r1, r2, r3, r4, r6, r8, r9, sl, lr}^
    5f58:	614d5f4f 	cmpvs	sp, pc, asr #30
    5f5c:	676e6970 			; <UNDEFINED> instruction: 0x676e6970
    5f60:	7b29745f 	blvc	a630e4 <_Min_Stack_Size+0xa62ce4>
    5f64:	49545845 	ldmdbmi	r4, {r0, r2, r6, fp, ip, lr}^
    5f68:	50472c34 	subpl	r2, r7, r4, lsr ip
    5f6c:	2c424f49 	mcrrcs	15, 4, r4, r2, cr9
    5f70:	4f495047 	svcmi	0x00495047
    5f74:	4e49505f 	mcrmi	0, 2, r5, cr9, cr15, {2}
    5f78:	452c345f 	strmi	r3, [ip, #-1119]!	; 0xfffffba1
    5f7c:	34495458 	strbcc	r5, [r9], #-1112	; 0xfffffba8
    5f80:	5152495f 	cmppl	r2, pc, asr r9
    5f84:	525f007d 	subspl	r0, pc, #125	; 0x7d
    5f88:	544e4545 	strbpl	r4, [lr], #-1349	; 0xfffffabb
    5f8c:	414d535f 	cmpmi	sp, pc, asr r3
    5f90:	435f4c4c 	cmpmi	pc, #76, 24	; 0x4c00
    5f94:	4b434548 	blmi	10d74bc <_Min_Stack_Size+0x10d70bc>
    5f98:	494e495f 	stmdbmi	lr, {r0, r1, r2, r3, r4, r6, r8, fp, lr}^
    5f9c:	74702854 	ldrbtvc	r2, [r0], #-2132	; 0xfffff7ac
    5fa0:	64202972 	strtvs	r2, [r0], #-2418	; 0xfffff68e
    5fa4:	207b206f 	rsbscs	r2, fp, pc, rrx
    5fa8:	28206669 	stmdacs	r0!, {r0, r3, r5, r6, r9, sl, sp, lr}
    5fac:	72747028 	rsbsvc	r7, r4, #40	; 0x28
    5fb0:	26262029 	strtcs	r2, [r6], -r9, lsr #32
    5fb4:	70282120 	eorvc	r2, r8, r0, lsr #2
    5fb8:	2d297274 	sfmcs	f7, 4, [r9, #-464]!	; 0xfffffe30
    5fbc:	735f5f3e 	cmpvc	pc, #62, 30	; 0xf8
    5fc0:	69646964 	stmdbvs	r4!, {r2, r5, r6, r8, fp, sp, lr}^
    5fc4:	2974696e 	ldmdbcs	r4!, {r1, r2, r3, r5, r6, r8, fp, sp, lr}^
    5fc8:	735f5f20 	cmpvc	pc, #32, 30	; 0x80
    5fcc:	74696e69 	strbtvc	r6, [r9], #-3689	; 0xfffff197
    5fd0:	74702820 	ldrbtvc	r2, [r0], #-2080	; 0xfffff7e0
    5fd4:	203b2972 	eorscs	r2, fp, r2, ror r9
    5fd8:	6877207d 	ldmdavs	r7!, {r0, r2, r3, r4, r5, r6, sp}^
    5fdc:	20656c69 	rsbcs	r6, r5, r9, ror #24
    5fe0:	00293028 	eoreq	r3, r9, r8, lsr #32
    5fe4:	49545845 	ldmdbmi	r4, {r0, r2, r6, fp, ip, lr}^
    5fe8:	37445037 	smlaldxcc	r5, r4, r7, r0
    5fec:	58452820 	stmdapl	r5, {r5, fp, sp}^
    5ff0:	475f4954 			; <UNDEFINED> instruction: 0x475f4954
    5ff4:	5f4f4950 	svcpl	0x004f4950
    5ff8:	6970614d 	ldmdbvs	r0!, {r0, r2, r3, r6, r8, sp, lr}^
    5ffc:	745f676e 	ldrbvc	r6, [pc], #-1902	; 6004 <_Min_Stack_Size+0x5c04>
    6000:	58457b29 	stmdapl	r5, {r0, r3, r5, r8, r9, fp, ip, sp, lr}^
    6004:	2c374954 			; <UNDEFINED> instruction: 0x2c374954
    6008:	4f495047 	svcmi	0x00495047
    600c:	50472c44 	subpl	r2, r7, r4, asr #24
    6010:	505f4f49 	subspl	r4, pc, r9, asr #30
    6014:	375f4e49 	ldrbcc	r4, [pc, -r9, asr #28]
    6018:	5458452c 	ldrbpl	r4, [r8], #-1324	; 0xfffffad4
    601c:	495f3749 	ldmdbmi	pc, {r0, r3, r6, r8, r9, sl, ip, sp}^	; <UNPREDICTABLE>
    6020:	007d5152 	rsbseq	r5, sp, r2, asr r1
    6024:	4c465f5f 	mcrrmi	15, 5, r5, r6, cr15
    6028:	5f323354 	svcpl	0x00323354
    602c:	5f4e494d 	svcpl	0x004e494d
    6030:	455f3031 	ldrbmi	r3, [pc, #-49]	; 6007 <_Min_Stack_Size+0x5c07>
    6034:	5f5f5058 	svcpl	0x005f5058
    6038:	332d2820 			; <UNDEFINED> instruction: 0x332d2820
    603c:	5f002937 	svcpl	0x00002937
    6040:	756f635f 	strbvc	r6, [pc, #-863]!	; 5ce9 <_Min_Stack_Size+0x58e9>
    6044:	5f00746e 	svcpl	0x0000746e
    6048:	636f6c5f 	cmnvs	pc, #24320	; 0x5f00
    604c:	72745f6b 	rsbsvc	r5, r4, #428	; 0x1ac
    6050:	63615f79 	cmnvs	r1, #484	; 0x1e4
    6054:	72697571 	rsbvc	r7, r9, #473956352	; 0x1c400000
    6058:	6f6c2865 	svcvs	0x006c2865
    605c:	20296b63 	eorcs	r6, r9, r3, ror #22
    6060:	6f762828 	svcvs	0x00762828
    6064:	20296469 	eorcs	r6, r9, r9, ror #8
    6068:	5f002930 	svcpl	0x00002930
    606c:	4f53495f 	svcmi	0x0053495f
    6070:	565f435f 			; <UNDEFINED> instruction: 0x565f435f
    6074:	42495349 	submi	r5, r9, #603979777	; 0x24000001
    6078:	3220454c 	eorcc	r4, r0, #76, 10	; 0x13000000
    607c:	00313130 	eorseq	r3, r1, r0, lsr r1
    6080:	4f495047 	svcmi	0x00495047
    6084:	4e49505f 	mcrmi	0, 2, r5, cr9, cr15, {2}
    6088:	4749485f 	smlsldmi	r4, r9, pc, r8	; <UNPREDICTABLE>
    608c:	00312048 	eorseq	r2, r1, r8, asr #32
    6090:	52415f5f 	subpl	r5, r1, #380	; 0x17c
    6094:	50465f4d 	subpl	r5, r6, sp, asr #30
    6098:	465f3631 			; <UNDEFINED> instruction: 0x465f3631
    609c:	414d524f 	cmpmi	sp, pc, asr #4
    60a0:	4c415f54 	mcrrmi	15, 5, r5, r1, cr4
    60a4:	4e524554 	mrcmi	5, 2, r4, cr2, cr4, {2}
    60a8:	56495441 	strbpl	r5, [r9], -r1, asr #8
    60ac:	5f5f0045 	svcpl	0x005f0045
    60b0:	33434544 	movtcc	r4, #13636	; 0x3544
    60b4:	414d5f32 	cmpmi	sp, r2, lsr pc
    60b8:	445f544e 	ldrbmi	r5, [pc], #-1102	; 60c0 <_Min_Stack_Size+0x5cc0>
    60bc:	5f5f4749 	svcpl	0x005f4749
    60c0:	45003720 	strmi	r3, [r0, #-1824]	; 0xfffff8e0
    60c4:	31495458 	cmpcc	r9, r8, asr r4
    60c8:	5f003120 	svcpl	0x00003120
    60cc:	5f41445f 	svcpl	0x0041445f
    60d0:	54494246 	strbpl	r4, [r9], #-582	; 0xfffffdba
    60d4:	33205f5f 			; <UNDEFINED> instruction: 0x33205f5f
    60d8:	4d5f0031 	ldclmi	0, cr0, [pc, #-196]	; 601c <_Min_Stack_Size+0x5c1c>
    60dc:	49484341 	stmdbmi	r8, {r0, r6, r8, r9, lr}^
    60e0:	5f5f454e 	svcpl	0x005f454e
    60e4:	41464544 	cmpmi	r6, r4, asr #10
    60e8:	5f544c55 	svcpl	0x00544c55
    60ec:	45505954 	ldrbmi	r5, [r0, #-2388]	; 0xfffff6ac
    60f0:	20485f53 	subcs	r5, r8, r3, asr pc
    60f4:	425f5f00 	subsmi	r5, pc, #0, 30
    60f8:	45474749 	strbmi	r4, [r7, #-1865]	; 0xfffff8b7
    60fc:	415f5453 	cmpmi	pc, r3, asr r4	; <UNPREDICTABLE>
    6100:	4e47494c 	vmlsmi.f16	s9, s14, s24	; <UNPREDICTABLE>
    6104:	544e454d 	strbpl	r4, [lr], #-1357	; 0xfffffab3
    6108:	38205f5f 	stmdacc	r0!, {r0, r1, r2, r3, r4, r6, r8, r9, sl, fp, ip, lr}
    610c:	685f5f00 	ldmdavs	pc, {r8, r9, sl, fp, ip, lr}^	; <UNPREDICTABLE>
    6110:	665f7361 	ldrbvs	r7, [pc], -r1, ror #6
    6114:	75746165 	ldrbvc	r6, [r4, #-357]!	; 0xfffffe9b
    6118:	78286572 	stmdavc	r8!, {r1, r4, r5, r6, r8, sl, sp, lr}
    611c:	00302029 	eorseq	r2, r0, r9, lsr #32
    6120:	4343475f 	movtmi	r4, #14175	; 0x375f
    6124:	5254505f 	subspl	r5, r4, #95	; 0x5f
    6128:	46464944 	strbmi	r4, [r6], -r4, asr #18
    612c:	0020545f 	eoreq	r5, r0, pc, asr r4
    6130:	4e475f5f 	mcrmi	15, 2, r5, cr7, cr15, {2}
    6134:	494c4355 	stmdbmi	ip, {r0, r2, r4, r6, r8, r9, lr}^
    6138:	425f454b 	subsmi	r4, pc, #314572800	; 0x12c00000
    613c:	544c4955 	strbpl	r4, [ip], #-2389	; 0xfffff6ab
    6140:	4e5f4e49 	cdpmi	14, 5, cr4, cr15, cr9, {2}
    6144:	5f545845 	svcpl	0x00545845
    6148:	20475241 	subcs	r5, r7, r1, asr #4
    614c:	5f5f0031 	svcpl	0x005f0031
    6150:	495f4154 	ldmdbmi	pc, {r2, r4, r6, r8, lr}^	; <UNPREDICTABLE>
    6154:	5f544942 	svcpl	0x00544942
    6158:	3436205f 	ldrtcc	r2, [r6], #-95	; 0xffffffa1
    615c:	49504700 	ldmdbmi	r0, {r8, r9, sl, lr}^
    6160:	425f444f 	subsmi	r4, pc, #1325400064	; 0x4f000000
    6164:	20455341 	subcs	r5, r5, r1, asr #6
    6168:	30347830 	eorscc	r7, r4, r0, lsr r8
    616c:	34313130 	ldrtcc	r3, [r1], #-304	; 0xfffffed0
    6170:	4c553030 	mrrcmi	0, 3, r3, r5, cr0
    6174:	4d545300 	ldclmi	3, cr5, [r4, #-0]
    6178:	31203233 			; <UNDEFINED> instruction: 0x31203233
    617c:	525f5f00 	subspl	r5, pc, #0, 30
    6180:	5f444e41 	svcpl	0x00444e41
    6184:	2058414d 	subscs	r4, r8, sp, asr #2
    6188:	66377830 			; <UNDEFINED> instruction: 0x66377830
    618c:	66666666 	strbtvs	r6, [r6], -r6, ror #12
    6190:	5f006666 	svcpl	0x00006666
    6194:	434f4c5f 	movtmi	r4, #64607	; 0xfc5f
    6198:	4e495f4b 	cdpmi	15, 4, cr5, cr9, cr11, {2}
    619c:	63285449 			; <UNDEFINED> instruction: 0x63285449
    61a0:	7373616c 	cmnvc	r3, #108, 2
    61a4:	636f6c2c 	cmnvs	pc, #44, 24	; 0x2c00
    61a8:	7320296b 			; <UNDEFINED> instruction: 0x7320296b
    61ac:	69746174 	ldmdbvs	r4!, {r2, r4, r5, r6, r8, sp, lr}^
    61b0:	6e692063 	cdpvs	0, 6, cr2, cr9, cr3, {3}
    61b4:	6f6c2074 	svcvs	0x006c2074
    61b8:	3d206b63 	fstmdbxcc	r0!, {d6-d54}	;@ Deprecated
    61bc:	003b3020 	eorseq	r3, fp, r0, lsr #32
    61c0:	49545845 	ldmdbmi	r4, {r0, r2, r6, fp, ip, lr}^
    61c4:	00342034 	eorseq	r2, r4, r4, lsr r0
    61c8:	68676945 	stmdavs	r7!, {r0, r2, r6, r8, fp, sp, lr}^
    61cc:	69425f74 	stmdbvs	r2, {r2, r4, r5, r6, r8, r9, sl, fp, ip, lr}^
    61d0:	646f4d74 	strbtvs	r4, [pc], #-3444	; 61d8 <_Min_Stack_Size+0x5dd8>
    61d4:	78302065 	ldmdavc	r0!, {r0, r2, r5, r6, sp}
    61d8:	5f003833 	svcpl	0x00003833
    61dc:	5f6d745f 	svcpl	0x006d745f
    61e0:	79616477 	stmdbvc	r1!, {r0, r1, r2, r4, r5, r6, sl, sp, lr}^
    61e4:	415f5f00 	cmpmi	pc, r0, lsl #30
    61e8:	465f4d52 			; <UNDEFINED> instruction: 0x465f4d52
    61ec:	55544145 	ldrbpl	r4, [r4, #-325]	; 0xfffffebb
    61f0:	515f4552 	cmppl	pc, r2, asr r5	; <UNPREDICTABLE>
    61f4:	584d4452 	stmdapl	sp, {r1, r4, r6, sl, lr}^
    61f8:	41485f00 	cmpmi	r8, r0, lsl #30
    61fc:	435f4556 	cmpmi	pc, #360710144	; 0x15800000
    6200:	4e495f43 	cdpmi	15, 4, cr5, cr9, cr3, {2}
    6204:	49424948 	stmdbmi	r2, {r3, r6, r8, fp, lr}^
    6208:	4f4c5f54 	svcmi	0x004c5f54
    620c:	545f504f 	ldrbpl	r5, [pc], #-79	; 6214 <_Min_Stack_Size+0x5e14>
    6210:	494c5f4f 	stmdbmi	ip, {r0, r1, r2, r3, r6, r8, r9, sl, fp, ip, lr}^
    6214:	4c414342 	mcrrmi	3, 4, r4, r1, cr2
    6218:	0031204c 	eorseq	r2, r1, ip, asr #32
    621c:	52415f5f 	subpl	r5, r1, #380	; 0x17c
    6220:	52415f4d 	subpl	r5, r1, #308	; 0x134
    6224:	495f4843 	ldmdbmi	pc, {r0, r1, r6, fp, lr}^	; <UNPREDICTABLE>
    6228:	545f4153 	ldrbpl	r4, [pc], #-339	; 6230 <_Min_Stack_Size+0x5e30>
    622c:	424d5548 	submi	r5, sp, #72, 10	; 0x12000000
    6230:	5f003220 	svcpl	0x00003220
    6234:	4e4f4c5f 	mcrmi	12, 2, r4, cr15, cr15, {2}
    6238:	4f4c5f47 	svcmi	0x004c5f47
    623c:	4d5f474e 	ldclmi	7, cr4, [pc, #-312]	; 610c <_Min_Stack_Size+0x5d0c>
    6240:	5f5f5841 	svcpl	0x005f5841
    6244:	37783020 	ldrbcc	r3, [r8, -r0, lsr #32]!
    6248:	66666666 	strbtvs	r6, [r6], -r6, ror #12
    624c:	66666666 	strbtvs	r6, [r6], -r6, ror #12
    6250:	66666666 	strbtvs	r6, [r6], -r6, ror #12
    6254:	4c666666 	stclmi	6, cr6, [r6], #-408	; 0xfffffe68
    6258:	635f004c 	cmpvs	pc, #76	; 0x4c
    625c:	65736f6c 	ldrbvs	r6, [r3, #-3948]!	; 0xfffff094
    6260:	615f5f00 	cmpvs	pc, r0, lsl #30
    6264:	745f6772 	ldrbvc	r6, [pc], #-1906	; 626c <_Min_Stack_Size+0x5e6c>
    6268:	5f657079 	svcpl	0x00657079
    626c:	28676174 	stmdacs	r7!, {r2, r4, r5, r6, r8, sp, lr}^
    6270:	5f677261 	svcpl	0x00677261
    6274:	646e696b 	strbtvs	r6, [lr], #-2411	; 0xfffff695
    6278:	6772612c 	ldrbvs	r6, [r2, -ip, lsr #2]!
    627c:	7864695f 	stmdavc	r4!, {r0, r1, r2, r3, r4, r6, r8, fp, sp, lr}^
    6280:	7079742c 	rsbsvc	r7, r9, ip, lsr #8
    6284:	61745f65 	cmnvs	r4, r5, ror #30
    6288:	64695f67 	strbtvs	r5, [r9], #-3943	; 0xfffff099
    628c:	00202978 	eoreq	r2, r0, r8, ror r9
    6290:	54535f5f 	ldrbpl	r5, [r3], #-3935	; 0xfffff0a1
    6294:	474e4952 	smlsldmi	r4, lr, r2, r9
    6298:	20297828 	eorcs	r7, r9, r8, lsr #16
    629c:	5f007823 	svcpl	0x00007823
    62a0:	5f6d745f 	svcpl	0x006d745f
    62a4:	79616479 	stmdbvc	r1!, {r0, r3, r4, r5, r6, sl, sp, lr}^
    62a8:	6f687300 	svcvs	0x00687300
    62ac:	5f007472 	svcpl	0x00007472
    62b0:	4e454552 	mcrmi	5, 2, r4, cr5, cr2, {2}
    62b4:	4e495f54 	mcrmi	15, 2, r5, cr9, cr4, {2}
    62b8:	505f5449 	subspl	r5, pc, r9, asr #8
    62bc:	76285254 			; <UNDEFINED> instruction: 0x76285254
    62c0:	20297261 	eorcs	r7, r9, r1, ror #4
    62c4:	656d207b 	strbvs	r2, [sp, #-123]!	; 0xffffff85
    62c8:	7465736d 	strbtvc	r7, [r5], #-877	; 0xfffffc93
    62cc:	61762828 	cmnvs	r6, r8, lsr #16
    62d0:	202c2972 	eorcs	r2, ip, r2, ror r9
    62d4:	73202c30 			; <UNDEFINED> instruction: 0x73202c30
    62d8:	6f657a69 	svcvs	0x00657a69
    62dc:	282a2866 	stmdacs	sl!, {r1, r2, r5, r6, fp, sp}
    62e0:	29726176 	ldmdbcs	r2!, {r1, r2, r4, r5, r6, r8, sp, lr}^
    62e4:	203b2929 	eorscs	r2, fp, r9, lsr #18
    62e8:	4545525f 	strbmi	r5, [r5, #-607]	; 0xfffffda1
    62ec:	495f544e 	ldmdbmi	pc, {r1, r2, r3, r6, sl, ip, lr}^	; <UNPREDICTABLE>
    62f0:	5f54494e 	svcpl	0x0054494e
    62f4:	5f525450 	svcpl	0x00525450
    62f8:	4f52455a 	svcmi	0x0052455a
    62fc:	76284445 	strtvc	r4, [r8], -r5, asr #8
    6300:	3b297261 	blcc	a62c8c <_Min_Stack_Size+0xa6288c>
    6304:	5f007d20 	svcpl	0x00007d20
    6308:	554e475f 	strbpl	r4, [lr, #-1887]	; 0xfffff8a1
    630c:	4b494c43 	blmi	1259420 <_Min_Stack_Size+0x1259020>
    6310:	55425f45 	strbpl	r5, [r2, #-3909]	; 0xfffff0bb
    6314:	49544c49 	ldmdbmi	r4, {r0, r3, r6, sl, fp, lr}^
    6318:	41565f4e 	cmpmi	r6, lr, asr #30
    631c:	47524152 			; <UNDEFINED> instruction: 0x47524152
    6320:	00312053 	eorseq	r2, r1, r3, asr r0
    6324:	46555f5f 	usaxmi	r5, r5, pc	; <UNPREDICTABLE>
    6328:	54434152 	strbpl	r4, [r3], #-338	; 0xfffffeae
    632c:	4942495f 	stmdbmi	r2, {r0, r1, r2, r3, r4, r6, r8, fp, lr}^
    6330:	205f5f54 	subscs	r5, pc, r4, asr pc	; <UNPREDICTABLE>
    6334:	5f5f0030 	svcpl	0x005f0030
    6338:	5f4d5241 	svcpl	0x004d5241
    633c:	49423233 	stmdbmi	r2, {r0, r1, r4, r5, r9, ip, sp}^
    6340:	54535f54 	ldrbpl	r5, [r3], #-3924	; 0xfffff0ac
    6344:	20455441 	subcs	r5, r5, r1, asr #8
    6348:	5f5f0031 	svcpl	0x005f0031
    634c:	38544e49 	ldmdacc	r4, {r0, r3, r6, r9, sl, fp, lr}^
    6350:	6328435f 			; <UNDEFINED> instruction: 0x6328435f
    6354:	00632029 	rsbeq	r2, r3, r9, lsr #32
    6358:	464c5f5f 			; <UNDEFINED> instruction: 0x464c5f5f
    635c:	54434152 	strbpl	r4, [r3], #-338	; 0xfffffeae
    6360:	4942495f 	stmdbmi	r2, {r0, r1, r2, r3, r4, r6, r8, fp, lr}^
    6364:	205f5f54 	subscs	r5, pc, r4, asr pc	; <UNPREDICTABLE>
    6368:	535f0030 	cmppl	pc, #48	; 0x30
    636c:	45444454 	strbmi	r4, [r4, #-1108]	; 0xfffffbac
    6370:	5f485f46 	svcpl	0x00485f46
    6374:	564e0020 	strbpl	r0, [lr], -r0, lsr #32
    6378:	495f4349 	ldmdbmi	pc, {r0, r3, r6, r8, r9, lr}^	; <UNPREDICTABLE>
    637c:	31524543 	cmpcc	r2, r3, asr #10
    6380:	76282a20 	strtvc	r2, [r8], -r0, lsr #20
    6384:	74616c6f 	strbtvc	r6, [r1], #-3183	; 0xfffff391
    6388:	20656c69 	rsbcs	r6, r5, r9, ror #24
    638c:	746e6975 	strbtvc	r6, [lr], #-2421	; 0xfffff68b
    6390:	745f3233 	ldrbvc	r3, [pc], #-563	; 6398 <_Min_Stack_Size+0x5f98>
    6394:	4e28292a 	vmulmi.f16	s4, s16, s21	; <UNPREDICTABLE>
    6398:	5f434956 	svcpl	0x00434956
    639c:	45534142 	ldrbmi	r4, [r3, #-322]	; 0xfffffebe
    63a0:	30202b20 	eorcc	r2, r0, r0, lsr #22
    63a4:	29343878 	ldmdbcs	r4!, {r3, r4, r5, r6, fp, ip, sp}
    63a8:	445f5f00 	ldrbmi	r5, [pc], #-3840	; 63b0 <_Min_Stack_Size+0x5fb0>
    63ac:	4d5f4c42 	ldclmi	12, cr4, [pc, #-264]	; 62ac <_Min_Stack_Size+0x5eac>
    63b0:	455f4e49 	ldrbmi	r4, [pc, #-3657]	; 556f <_Min_Stack_Size+0x516f>
    63b4:	5f5f5058 	svcpl	0x005f5058
    63b8:	312d2820 			; <UNDEFINED> instruction: 0x312d2820
    63bc:	29313230 	ldmdbcs	r1!, {r4, r5, r9, ip, sp}
    63c0:	535f5f00 	cmppl	pc, #0, 30
    63c4:	5f455a49 	svcpl	0x00455a49
    63c8:	61002054 	qaddvs	r2, r4, r0
    63cc:	636f6c6c 	cmnvs	pc, #108, 24	; 0x6c00
    63d0:	69732861 	ldmdbvs	r3!, {r0, r5, r6, fp, sp}^
    63d4:	2029657a 	eorcs	r6, r9, sl, ror r5
    63d8:	75625f5f 	strbvc	r5, [r2, #-3935]!	; 0xfffff0a1
    63dc:	69746c69 	ldmdbvs	r4!, {r0, r3, r5, r6, sl, fp, sp, lr}^
    63e0:	6c615f6e 	stclvs	15, cr5, [r1], #-440	; 0xfffffe48
    63e4:	61636f6c 	cmnvs	r3, ip, ror #30
    63e8:	7a697328 	bvc	1a63090 <_Min_Stack_Size+0x1a62c90>
    63ec:	5f002965 	svcpl	0x00002965
    63f0:	64656573 	strbtvs	r6, [r5], #-1395	; 0xfffffa8d
    63f4:	705f5f00 	subsvc	r5, pc, r0, lsl #30
    63f8:	746e6972 	strbtvc	r6, [lr], #-2418	; 0xfffff68e
    63fc:	696c3066 	stmdbvs	ip!, {r1, r2, r5, r6, ip, sp}^
    6400:	6628656b 	strtvs	r6, [r8], -fp, ror #10
    6404:	7261746d 	rsbvc	r7, r1, #1828716544	; 0x6d000000
    6408:	69662c67 	stmdbvs	r6!, {r0, r1, r2, r5, r6, sl, fp, sp}^
    640c:	76747372 			; <UNDEFINED> instruction: 0x76747372
    6410:	72617261 	rsbvc	r7, r1, #268435462	; 0x10000006
    6414:	00202967 	eoreq	r2, r0, r7, ror #18
    6418:	4d415253 	sfmmi	f5, 2, [r1, #-332]	; 0xfffffeb4
    641c:	6d654d5f 	stclvs	13, cr4, [r5, #-380]!	; 0xfffffe84
    6420:	5f79726f 	svcpl	0x0079726f
    6424:	45534142 	ldrbmi	r4, [r3, #-322]	; 0xfffffebe
    6428:	32783020 	rsbscc	r3, r8, #32
    642c:	30303030 	eorscc	r3, r0, r0, lsr r0
    6430:	55303030 	ldrpl	r3, [r0, #-48]!	; 0xffffffd0
    6434:	5f5f004c 	svcpl	0x005f004c
    6438:	33544c46 	cmpcc	r4, #17920	; 0x4600
    643c:	49445f32 	stmdbmi	r4, {r1, r4, r5, r8, r9, sl, fp, ip, lr}^
    6440:	205f5f47 	subscs	r5, pc, r7, asr #30
    6444:	735f0036 	cmpvc	pc, #54	; 0x36
    6448:	006b6565 	rsbeq	r6, fp, r5, ror #10
    644c:	65645f5f 	strbvs	r5, [r4, #-3935]!	; 0xfffff0a1
    6450:	20326461 	eorscs	r6, r2, r1, ror #8
    6454:	74615f5f 	strbtvc	r5, [r1], #-3935	; 0xfffff0a1
    6458:	62697274 	rsbvs	r7, r9, #116, 4	; 0x40000007
    645c:	5f657475 	svcpl	0x00657475
    6460:	5f28285f 	svcpl	0x0028285f
    6464:	726f6e5f 	rsbvc	r6, pc, #1520	; 0x5f0
    6468:	72757465 	rsbsvc	r7, r5, #1694498816	; 0x65000000
    646c:	295f5f6e 	ldmdbcs	pc, {r1, r2, r3, r5, r6, r8, r9, sl, fp, ip, lr}^	; <UNPREDICTABLE>
    6470:	5f5f0029 	svcpl	0x005f0029
    6474:	5341454c 	movtpl	r4, #5452	; 0x154c
    6478:	20343654 	eorscs	r3, r4, r4, asr r6
    647c:	226c6c22 	rsbcs	r6, ip, #8704	; 0x2200
    6480:	43435200 	movtmi	r5, #12800	; 0x3200
    6484:	4950475f 	ldmdbmi	r0, {r0, r1, r2, r3, r4, r6, r8, r9, sl, lr}^
    6488:	435f454f 	cmpmi	pc, #331350016	; 0x13c00000
    648c:	455f4b4c 	ldrbmi	r4, [pc, #-2892]	; 5948 <_Min_Stack_Size+0x5548>
    6490:	2029284e 	eorcs	r2, r9, lr, asr #16
    6494:	43435228 	movtmi	r5, #12840	; 0x3228
    6498:	50413e2d 	subpl	r3, r1, sp, lsr #28
    649c:	4e453242 	cdpmi	2, 4, cr3, cr5, cr2, {2}
    64a0:	3d7c2052 	ldclcc	0, cr2, [ip, #-328]!	; 0xfffffeb8
    64a4:	3c3c3120 	ldfccs	f3, [ip], #-128	; 0xffffff80
    64a8:	5f002936 	svcpl	0x00002936
    64ac:	6d6f635f 	stclvs	3, cr6, [pc, #-380]!	; 6338 <_Min_Stack_Size+0x5f38>
    64b0:	5f726170 	svcpl	0x00726170
    64b4:	745f6e66 	ldrbvc	r6, [pc], #-3686	; 64bc <_Min_Stack_Size+0x60bc>
    64b8:	6665645f 			; <UNDEFINED> instruction: 0x6665645f
    64bc:	64656e69 	strbtvs	r6, [r5], #-3689	; 0xfffff197
    64c0:	49550020 	ldmdbmi	r5, {r5}^
    64c4:	414d544e 	cmpmi	sp, lr, asr #8
    64c8:	28435f58 	stmdacs	r3, {r3, r4, r6, r8, r9, sl, fp, ip, lr}^
    64cc:	5f202978 	svcpl	0x00202978
    64d0:	4e49555f 	mcrmi	5, 2, r5, cr9, cr15, {2}
    64d4:	58414d54 	stmdapl	r1, {r2, r4, r6, r8, sl, fp, lr}^
    64d8:	7828435f 	stmdavc	r8!, {r0, r1, r2, r3, r4, r6, r8, r9, lr}
    64dc:	5f5f0029 	svcpl	0x005f0029
    64e0:	00505845 	subseq	r5, r0, r5, asr #16
    64e4:	6f70665f 	svcvs	0x0070665f
    64e8:	00745f73 	rsbseq	r5, r4, r3, ror pc
    64ec:	444c5f5f 	strbmi	r5, [ip], #-3935	; 0xfffff0a1
    64f0:	485f4c42 	ldmdami	pc, {r1, r6, sl, fp, lr}^	; <UNPREDICTABLE>
    64f4:	445f5341 	ldrbmi	r5, [pc], #-833	; 64fc <_Min_Stack_Size+0x60fc>
    64f8:	524f4e45 	subpl	r4, pc, #1104	; 0x450
    64fc:	205f5f4d 	subscs	r5, pc, sp, asr #30
    6500:	58450031 	stmdapl	r5, {r0, r4, r5}^
    6504:	20394954 	eorscs	r4, r9, r4, asr r9
    6508:	50410039 	subpl	r0, r1, r9, lsr r0
    650c:	53523142 	cmppl	r2, #-2147483632	; 0x80000010
    6510:	5f005254 	svcpl	0x00005254
    6514:	7473626d 	ldrbtvc	r6, [r3], #-621	; 0xfffffd93
    6518:	5f657461 	svcpl	0x00657461
    651c:	5f5f0074 	svcpl	0x005f0074
    6520:	43554e47 	cmpmi	r5, #1136	; 0x470
    6524:	5f41565f 	svcpl	0x0041565f
    6528:	5453494c 	ldrbpl	r4, [r3], #-2380	; 0xfffff6b4
    652c:	4d4f435f 	stclmi	3, cr4, [pc, #-380]	; 63b8 <_Min_Stack_Size+0x5fb8>
    6530:	49544150 	ldmdbmi	r4, {r4, r6, r8, lr}^
    6534:	494c4942 	stmdbmi	ip, {r1, r6, r8, fp, lr}^
    6538:	31205954 			; <UNDEFINED> instruction: 0x31205954
    653c:	415f5f00 	cmpmi	pc, r0, lsl #30
    6540:	465f4d52 			; <UNDEFINED> instruction: 0x465f4d52
    6544:	55544145 	ldrbpl	r4, [r4, #-325]	; 0xfffffebb
    6548:	435f4552 	cmpmi	pc, #343932928	; 0x14800000
    654c:	54505952 	ldrbpl	r5, [r0], #-2386	; 0xfffff6ae
    6550:	5047004f 	subpl	r0, r7, pc, asr #32
    6554:	4d5f4f49 	ldclmi	15, cr4, [pc, #-292]	; 6438 <_Min_Stack_Size+0x6038>
    6558:	5f45444f 	svcpl	0x0045444f
    655c:	495f4641 	ldmdbmi	pc, {r0, r6, r9, sl, lr}^	; <UNPREDICTABLE>
    6560:	5455504e 	ldrbpl	r5, [r5], #-78	; 0xffffffb2
    6564:	30783020 	rsbscc	r3, r8, r0, lsr #32
    6568:	30303030 	eorscc	r3, r0, r0, lsr r0
    656c:	75383030 	ldrvc	r3, [r8, #-48]!	; 0xffffffd0
    6570:	535f5f00 	cmppl	pc, #0, 30
    6574:	4f455a49 	svcmi	0x00455a49
    6578:	43575f46 	cmpmi	r7, #280	; 0x118
    657c:	5f524148 	svcpl	0x00524148
    6580:	205f5f54 	subscs	r5, pc, r4, asr pc	; <UNPREDICTABLE>
    6584:	50410034 	subpl	r0, r1, r4, lsr r0
    6588:	4e453142 	dvfmism	f3, f5, f2
    658c:	455f0052 	ldrbmi	r0, [pc, #-82]	; 6542 <_Min_Stack_Size+0x6142>
    6590:	5053505f 	subspl	r5, r3, pc, asr r0
    6594:	0041545f 	subeq	r5, r1, pc, asr r4
    6598:	505f455f 	subspl	r4, pc, pc, asr r5	; <UNPREDICTABLE>
    659c:	545f5053 	ldrbpl	r5, [pc], #-83	; 65a4 <_Min_Stack_Size+0x61a4>
    65a0:	6d5f0042 	ldclvs	0, cr0, [pc, #-264]	; 64a0 <_Min_Stack_Size+0x60a0>
    65a4:	776f7462 	strbvc	r7, [pc, -r2, ror #8]!
    65a8:	74735f63 	ldrbtvc	r5, [r3], #-3939	; 0xfffff09d
    65ac:	00657461 	rsbeq	r7, r5, r1, ror #8
    65b0:	49555f5f 	ldmdbmi	r5, {r0, r1, r2, r3, r4, r6, r8, r9, sl, fp, ip, lr}^
    65b4:	4c5f544e 	cfldrdmi	mvd5, [pc], {78}	; 0x4e
    65b8:	54534145 	ldrbpl	r4, [r3], #-325	; 0xfffffebb
    65bc:	4d5f3436 	cfldrdmi	mvd3, [pc, #-216]	; 64ec <_Min_Stack_Size+0x60ec>
    65c0:	5f5f5841 	svcpl	0x005f5841
    65c4:	66783020 	ldrbtvs	r3, [r8], -r0, lsr #32
    65c8:	66666666 	strbtvs	r6, [r6], -r6, ror #12
    65cc:	66666666 	strbtvs	r6, [r6], -r6, ror #12
    65d0:	66666666 	strbtvs	r6, [r6], -r6, ror #12
    65d4:	55666666 	strbpl	r6, [r6, #-1638]!	; 0xfffff99a
    65d8:	5f004c4c 	svcpl	0x00004c4c
    65dc:	4152465f 	cmpmi	r2, pc, asr r6
    65e0:	495f5443 	ldmdbmi	pc, {r0, r1, r6, sl, ip, lr}^	; <UNPREDICTABLE>
    65e4:	5f544942 	svcpl	0x00544942
    65e8:	0030205f 	eorseq	r2, r0, pc, asr r0
    65ec:	47205752 			; <UNDEFINED> instruction: 0x47205752
    65f0:	5f4f4950 	svcpl	0x004f4950
    65f4:	5f4e4950 	svcpl	0x004e4950
    65f8:	58450032 	stmdapl	r5, {r1, r4, r5}^
    65fc:	31314954 	teqcc	r1, r4, asr r9
    6600:	5152495f 	cmppl	r2, pc, asr r9
    6604:	00303420 	eorseq	r3, r0, r0, lsr #8
    6608:	4e495f5f 	mcrmi	15, 2, r5, cr9, cr15, {2}
    660c:	49575f54 	ldmdbmi	r7, {r2, r4, r6, r8, r9, sl, fp, ip, lr}^
    6610:	5f485444 	svcpl	0x00485444
    6614:	3233205f 	eorscc	r2, r3, #95	; 0x5f
    6618:	4e5f5f00 	cdpmi	15, 5, cr5, cr15, cr0, {0}
    661c:	494c5745 	stmdbmi	ip, {r0, r2, r6, r8, r9, sl, ip, lr}^
    6620:	41505f42 	cmpmi	r0, r2, asr #30
    6624:	4c484354 	mcrrmi	3, 5, r4, r8, cr4
    6628:	4c455645 	mcrrmi	6, 4, r5, r5, cr5
    662c:	30205f5f 	eorcc	r5, r0, pc, asr pc
    6630:	5f344400 	svcpl	0x00344400
    6634:	30203744 	eorcc	r3, r0, r4, asr #14
    6638:	00383278 	eorseq	r3, r8, r8, ror r2
    663c:	524f5f5f 	subpl	r5, pc, #380	; 0x17c
    6640:	5f524544 	svcpl	0x00524544
    6644:	5454494c 	ldrbpl	r4, [r4], #-2380	; 0xfffff6b4
    6648:	455f454c 	ldrbmi	r4, [pc, #-1356]	; 6104 <_Min_Stack_Size+0x5d04>
    664c:	4149444e 	cmpmi	r9, lr, asr #8
    6650:	205f5f4e 	subscs	r5, pc, lr, asr #30
    6654:	34333231 	ldrtcc	r3, [r3], #-561	; 0xfffffdcf
    6658:	735f5f00 	cmpvc	pc, #0, 30
    665c:	5f657a69 	svcpl	0x00657a69
    6660:	5f5f0074 	svcpl	0x005f0074
    6664:	535f4343 	cmppl	pc, #201326593	; 0xc000001
    6668:	4f505055 	svcmi	0x00505055
    666c:	5f535452 	svcpl	0x00535452
    6670:	494c4e49 	stmdbmi	ip, {r0, r3, r6, r9, sl, fp, lr}^
    6674:	3120454e 			; <UNDEFINED> instruction: 0x3120454e
    6678:	445f5f00 	ldrbmi	r5, [pc], #-3840	; 6680 <_Min_Stack_Size+0x6280>
    667c:	2053544f 	subscs	r5, r3, pc, asr #8
    6680:	2e2e202c 	cdpcs	0, 2, cr2, cr14, cr12, {1}
    6684:	5f5f002e 	svcpl	0x005f002e
    6688:	36434544 	strbcc	r4, [r3], -r4, asr #10
    668c:	414d5f34 	cmpmi	sp, r4, lsr pc
    6690:	445f544e 	ldrbmi	r5, [pc], #-1102	; 6698 <_Min_Stack_Size+0x6298>
    6694:	5f5f4749 	svcpl	0x005f4749
    6698:	00363120 	eorseq	r3, r6, r0, lsr #2
    669c:	4545525f 	strbmi	r5, [r5, #-607]	; 0xfffffda1
    66a0:	475f544e 	ldrbmi	r5, [pc, -lr, asr #8]
    66a4:	41445445 	cmpmi	r4, r5, asr #8
    66a8:	455f4554 	ldrbmi	r4, [pc, #-1364]	; 615c <_Min_Stack_Size+0x5d5c>
    66ac:	505f5252 	subspl	r5, pc, r2, asr r2	; <UNPREDICTABLE>
    66b0:	72747028 	rsbsvc	r7, r4, #40	; 0x28
    66b4:	26282029 	strtcs	r2, [r8], -r9, lsr #32
    66b8:	74702828 	ldrbtvc	r2, [r0], #-2088	; 0xfffff7d8
    66bc:	3e2d2972 			; <UNDEFINED> instruction: 0x3e2d2972
    66c0:	73696d5f 	cmnvc	r9, #6080	; 0x17c0
    66c4:	5f3e2d63 	svcpl	0x003e2d63
    66c8:	64746567 	ldrbtvs	r6, [r4], #-1383	; 0xfffffa99
    66cc:	5f657461 	svcpl	0x00657461
    66d0:	29727265 	ldmdbcs	r2!, {r0, r2, r5, r6, r9, ip, sp, lr}^
    66d4:	5f5f0029 	svcpl	0x005f0029
    66d8:	5f544c46 	svcpl	0x00544c46
    66dc:	5f4e494d 	svcpl	0x004e494d
    66e0:	455f3031 	ldrbmi	r3, [pc, #-49]	; 66b7 <_Min_Stack_Size+0x62b7>
    66e4:	5f5f5058 	svcpl	0x005f5058
    66e8:	332d2820 			; <UNDEFINED> instruction: 0x332d2820
    66ec:	5f002937 	svcpl	0x00002937
    66f0:	414c555f 	cmpmi	ip, pc, asr r5
    66f4:	4d554343 	ldclmi	3, cr4, [r5, #-268]	; 0xfffffef4
    66f8:	4942495f 	stmdbmi	r2, {r0, r1, r2, r3, r4, r6, r8, fp, lr}^
    66fc:	205f5f54 	subscs	r5, pc, r4, asr pc	; <UNPREDICTABLE>
    6700:	5f003233 	svcpl	0x00003233
    6704:	5248535f 	subpl	r5, r8, #2080374785	; 0x7c000001
    6708:	414d5f54 	cmpmi	sp, r4, asr pc
    670c:	205f5f58 	subscs	r5, pc, r8, asr pc	; <UNPREDICTABLE>
    6710:	66377830 			; <UNDEFINED> instruction: 0x66377830
    6714:	55006666 	strpl	r6, [r0, #-1638]	; 0xfffff99a
    6718:	5f544e49 	svcpl	0x00544e49
    671c:	54534146 	ldrbpl	r4, [r3], #-326	; 0xfffffeba
    6720:	414d5f38 	cmpmi	sp, r8, lsr pc
    6724:	5f282058 	svcpl	0x00282058
    6728:	4e49555f 	mcrmi	5, 2, r5, cr9, cr15, {2}
    672c:	41465f54 	cmpmi	r6, r4, asr pc
    6730:	5f385453 	svcpl	0x00385453
    6734:	5f58414d 	svcpl	0x0058414d
    6738:	4e00295f 			; <UNDEFINED> instruction: 0x4e00295f
    673c:	5f434956 	svcpl	0x00434956
    6740:	38515249 	ldmdacc	r1, {r0, r3, r6, r9, ip, lr}^
    6744:	5458455f 	ldrbpl	r4, [r8], #-1375	; 0xfffffaa1
    6748:	455f3249 	ldrbmi	r3, [pc, #-585]	; 6507 <_Min_Stack_Size+0x6107>
    674c:	6c62616e 	stfvse	f6, [r2], #-440	; 0xfffffe48
    6750:	4e282065 	cdpmi	0, 2, cr2, cr8, cr5, {3}
    6754:	5f434956 	svcpl	0x00434956
    6758:	52455349 	subpl	r5, r5, #603979777	; 0x24000001
    675c:	3d7c2030 	ldclcc	0, cr2, [ip, #-192]!	; 0xffffff40
    6760:	3c312820 	ldccc	8, cr2, [r1], #-128	; 0xffffff80
    6764:	2929383c 	stmdbcs	r9!, {r2, r3, r4, r5, fp, ip, sp}
    6768:	555f5f00 	ldrbpl	r5, [pc, #-3840]	; 5870 <_Min_Stack_Size+0x5470>
    676c:	43414c4c 	movtmi	r4, #7244	; 0x1c4c
    6770:	5f4d5543 	svcpl	0x004d5543
    6774:	49535045 	ldmdbmi	r3, {r0, r2, r6, ip, lr}^
    6778:	5f4e4f4c 	svcpl	0x004e4f4c
    677c:	7830205f 	ldmdavc	r0!, {r0, r1, r2, r3, r4, r6, sp}
    6780:	332d5031 			; <UNDEFINED> instruction: 0x332d5031
    6784:	4c4c5532 	cfstr64mi	mvdx5, [ip], {50}	; 0x32
    6788:	5f5f004b 	svcpl	0x005f004b
    678c:	53435041 	movtpl	r5, #12353	; 0x3041
    6790:	5f32335f 	svcpl	0x0032335f
    6794:	0031205f 	eorseq	r2, r1, pc, asr r0
    6798:	51445f5f 	cmppl	r4, pc, asr pc
    679c:	4942465f 	stmdbmi	r2, {r0, r1, r2, r3, r4, r6, r9, sl, lr}^
    67a0:	205f5f54 	subscs	r5, pc, r4, asr pc	; <UNPREDICTABLE>
    67a4:	5f003336 	svcpl	0x00003336
    67a8:	554e475f 	strbpl	r4, [lr, #-1887]	; 0xfffff8a1
    67ac:	5349565f 	movtpl	r5, #38495	; 0x965f
    67b0:	454c4249 	strbmi	r4, [ip, #-585]	; 0xfffffdb7
    67b4:	47003020 	strmi	r3, [r0, -r0, lsr #32]
    67b8:	424f4950 	submi	r4, pc, #80, 18	; 0x140000
    67bc:	5341425f 	movtpl	r4, #4703	; 0x125f
    67c0:	78302045 	ldmdavc	r0!, {r0, r2, r6, sp}
    67c4:	31303034 	teqcc	r0, r4, lsr r0
    67c8:	30304330 	eorscc	r4, r0, r0, lsr r3
    67cc:	4e004c55 	mcrmi	12, 0, r4, cr0, cr5, {2}
    67d0:	5f434956 	svcpl	0x00434956
    67d4:	39515249 	ldmdbcc	r1, {r0, r3, r6, r9, ip, lr}^
    67d8:	5458455f 	ldrbpl	r4, [r8], #-1375	; 0xfffffaa1
    67dc:	455f3349 	ldrbmi	r3, [pc, #-841]	; 649b <_Min_Stack_Size+0x609b>
    67e0:	6c62616e 	stfvse	f6, [r2], #-440	; 0xfffffe48
    67e4:	4e282065 	cdpmi	0, 2, cr2, cr8, cr5, {3}
    67e8:	5f434956 	svcpl	0x00434956
    67ec:	52455349 	subpl	r5, r5, #603979777	; 0x24000001
    67f0:	3d7c2030 	ldclcc	0, cr2, [ip, #-192]!	; 0xffffff40
    67f4:	3c312820 	ldccc	8, cr2, [r1], #-128	; 0xffffff80
    67f8:	2929393c 	stmdbcs	r9!, {r2, r3, r4, r5, r8, fp, ip, sp}
    67fc:	505f5f00 	subspl	r5, pc, r0, lsl #30
    6800:	49445254 	stmdbmi	r4, {r2, r4, r6, r9, ip, lr}^
    6804:	545f4646 	ldrbpl	r4, [pc], #-1606	; 680c <_Min_Stack_Size+0x640c>
    6808:	5f5f0020 	svcpl	0x005f0020
    680c:	5f514855 	svcpl	0x00514855
    6810:	54494249 	strbpl	r4, [r9], #-585	; 0xfffffdb7
    6814:	30205f5f 	eorcc	r5, r0, pc, asr pc
    6818:	49504700 	ldmdbmi	r0, {r8, r9, sl, lr}^
    681c:	49505f4f 	ldmdbmi	r0, {r0, r1, r2, r3, r6, r8, r9, sl, fp, ip, lr}^
    6820:	20355f4e 	eorscs	r5, r5, lr, asr #30
    6824:	69752828 	ldmdbvs	r5!, {r3, r5, fp, sp}^
    6828:	3631746e 	ldrtcc	r7, [r1], -lr, ror #8
    682c:	3029745f 	eorcc	r7, r9, pc, asr r4
    6830:	32303078 	eorscc	r3, r0, #120	; 0x78
    6834:	5f002930 	svcpl	0x00002930
    6838:	5f6f7364 	svcpl	0x006f7364
    683c:	646e6168 	strbtvs	r6, [lr], #-360	; 0xfffffe98
    6840:	5f00656c 	svcpl	0x0000656c
    6844:	4343475f 	movtmi	r4, #14175	; 0x375f
    6848:	5641485f 			; <UNDEFINED> instruction: 0x5641485f
    684c:	59535f45 	ldmdbpl	r3, {r0, r2, r6, r8, r9, sl, fp, ip, lr}^
    6850:	435f434e 	cmpmi	pc, #939524097	; 0x38000001
    6854:	41504d4f 	cmpmi	r0, pc, asr #26
    6858:	415f4552 	cmpmi	pc, r2, asr r5	; <UNPREDICTABLE>
    685c:	535f444e 	cmppl	pc, #1308622848	; 0x4e000000
    6860:	5f504157 	svcpl	0x00504157
    6864:	00312034 	eorseq	r2, r1, r4, lsr r0
    6868:	4e495f5f 	mcrmi	15, 2, r5, cr9, cr15, {2}
    686c:	41465f54 	cmpmi	r6, r4, asr pc
    6870:	36315453 			; <UNDEFINED> instruction: 0x36315453
    6874:	5059545f 	subspl	r5, r9, pc, asr r4
    6878:	205f5f45 	subscs	r5, pc, r5, asr #30
    687c:	00746e69 	rsbseq	r6, r4, r9, ror #28
    6880:	4e49555f 	mcrmi	5, 2, r5, cr9, cr15, {2}
    6884:	58414d54 	stmdapl	r1, {r2, r4, r6, r8, sl, fp, lr}^
    6888:	445f545f 	ldrbmi	r5, [pc], #-1119	; 6890 <_Min_Stack_Size+0x6490>
    688c:	414c4345 	cmpmi	ip, r5, asr #6
    6890:	20444552 	subcs	r4, r4, r2, asr r5
    6894:	54584500 	ldrbpl	r4, [r8], #-1280	; 0xfffffb00
    6898:	50333149 	eorspl	r3, r3, r9, asr #2
    689c:	20333142 	eorscs	r3, r3, r2, asr #2
    68a0:	54584528 	ldrbpl	r4, [r8], #-1320	; 0xfffffad8
    68a4:	50475f49 	subpl	r5, r7, r9, asr #30
    68a8:	4d5f4f49 	ldclmi	15, cr4, [pc, #-292]	; 678c <_Min_Stack_Size+0x638c>
    68ac:	6e697061 	cdpvs	0, 6, cr7, cr9, cr1, {3}
    68b0:	29745f67 	ldmdbcs	r4!, {r0, r1, r2, r5, r6, r8, r9, sl, fp, ip, lr}^
    68b4:	5458457b 	ldrbpl	r4, [r8], #-1403	; 0xfffffa85
    68b8:	2c333149 	ldfcss	f3, [r3], #-292	; 0xfffffedc
    68bc:	4f495047 	svcmi	0x00495047
    68c0:	50472c42 	subpl	r2, r7, r2, asr #24
    68c4:	505f4f49 	subspl	r4, pc, r9, asr #30
    68c8:	315f4e49 	cmpcc	pc, r9, asr #28
    68cc:	58452c33 	stmdapl	r5, {r0, r1, r4, r5, sl, fp, sp}^
    68d0:	33314954 	teqcc	r1, #84, 18	; 0x150000
    68d4:	5152495f 	cmppl	r2, pc, asr r9
    68d8:	5f5f007d 	svcpl	0x005f007d
    68dc:	43434153 	movtmi	r4, #12627	; 0x3153
    68e0:	4d5f4d55 	ldclmi	13, cr4, [pc, #-340]	; 6794 <_Min_Stack_Size+0x6394>
    68e4:	5f5f4e49 	svcpl	0x005f4e49
    68e8:	302d2820 	eorcc	r2, sp, r0, lsr #16
    68ec:	37503158 			; <UNDEFINED> instruction: 0x37503158
    68f0:	302d4b48 	eorcc	r4, sp, r8, asr #22
    68f4:	37503158 			; <UNDEFINED> instruction: 0x37503158
    68f8:	00294b48 	eoreq	r4, r9, r8, asr #22
    68fc:	6e61725f 	mcrvs	2, 3, r7, cr1, cr15, {2}
    6900:	00383464 	eorseq	r3, r8, r4, ror #8
    6904:	49555f5f 	ldmdbmi	r5, {r0, r1, r2, r3, r4, r6, r8, r9, sl, fp, ip, lr}^
    6908:	4c5f544e 	cfldrdmi	mvd5, [pc], {78}	; 0x4e
    690c:	54534145 	ldrbpl	r4, [r3], #-325	; 0xfffffebb
    6910:	545f3631 	ldrbpl	r3, [pc], #-1585	; 6918 <_Min_Stack_Size+0x6518>
    6914:	5f455059 	svcpl	0x00455059
    6918:	6873205f 	ldmdavs	r3!, {r0, r1, r2, r3, r4, r6, sp}^
    691c:	2074726f 	rsbscs	r7, r4, pc, ror #4
    6920:	69736e75 	ldmdbvs	r3!, {r0, r2, r4, r5, r6, r9, sl, fp, sp, lr}^
    6924:	64656e67 	strbtvs	r6, [r5], #-3687	; 0xfffff199
    6928:	746e6920 	strbtvc	r6, [lr], #-2336	; 0xfffff6e0
    692c:	415f5f00 	cmpmi	pc, r0, lsl #30
    6930:	465f4d52 			; <UNDEFINED> instruction: 0x465f4d52
    6934:	55544145 	ldrbpl	r4, [r4, #-325]	; 0xfffffebb
    6938:	465f4552 			; <UNDEFINED> instruction: 0x465f4552
    693c:	5f00414d 	svcpl	0x0000414d
    6940:	43414c5f 	movtmi	r4, #7263	; 0x1c5f
    6944:	5f4d5543 	svcpl	0x004d5543
    6948:	5f58414d 	svcpl	0x0058414d
    694c:	5830205f 	ldmdapl	r0!, {r0, r1, r2, r3, r4, r6, sp}
    6950:	46464637 			; <UNDEFINED> instruction: 0x46464637
    6954:	46464646 	strbmi	r4, [r6], -r6, asr #12
    6958:	46464646 	strbmi	r4, [r6], -r6, asr #12
    695c:	46464646 	strbmi	r4, [r6], -r6, asr #12
    6960:	31332d50 	teqcc	r3, r0, asr sp
    6964:	5f004b4c 	svcpl	0x00004b4c
    6968:	4148435f 	cmpmi	r8, pc, asr r3
    696c:	5f363152 	svcpl	0x00363152
    6970:	45505954 	ldrbmi	r5, [r0, #-2388]	; 0xfffff6ac
    6974:	73205f5f 			; <UNDEFINED> instruction: 0x73205f5f
    6978:	74726f68 	ldrbtvc	r6, [r2], #-3944	; 0xfffff098
    697c:	736e7520 	cmnvc	lr, #32, 10	; 0x8000000
    6980:	656e6769 	strbvs	r6, [lr, #-1897]!	; 0xfffff897
    6984:	6e692064 	cdpvs	0, 6, cr2, cr9, cr4, {3}
    6988:	50470074 	subpl	r0, r7, r4, ror r0
    698c:	505f4f49 	subspl	r4, pc, r9, asr #30
    6990:	0074726f 	rsbseq	r7, r4, pc, ror #4
    6994:	4f495047 	svcmi	0x00495047
    6998:	4e49505f 	mcrmi	0, 2, r5, cr9, cr15, {2}
    699c:	2820365f 	stmdacs	r0!, {r0, r1, r2, r3, r4, r6, r9, sl, ip, sp}
    69a0:	6e697528 	cdpvs	5, 6, cr7, cr9, cr8, {1}
    69a4:	5f363174 	svcpl	0x00363174
    69a8:	78302974 	ldmdavc	r0!, {r2, r4, r5, r6, r8, fp, sp}
    69ac:	30343030 	eorscc	r3, r4, r0, lsr r0
    69b0:	5f5f0029 	svcpl	0x005f0029
    69b4:	33544c46 	cmpcc	r4, #17920	; 0x4600
    69b8:	445f5832 	ldrbmi	r5, [pc], #-2098	; 69c0 <_Min_Stack_Size+0x65c0>
    69bc:	5f5f4749 	svcpl	0x005f4749
    69c0:	00353120 	eorseq	r3, r5, r0, lsr #2
    69c4:	69735f5f 	ldmdbvs	r3!, {r0, r1, r2, r3, r4, r6, r8, r9, sl, fp, ip, lr}^
    69c8:	64656e67 	strbtvs	r6, [r5], #-3687	; 0xfffff199
    69cc:	67697320 	strbvs	r7, [r9, -r0, lsr #6]!
    69d0:	0064656e 	rsbeq	r6, r4, lr, ror #10
    69d4:	475f534f 	ldrbmi	r5, [pc, -pc, asr #6]
    69d8:	72656e65 	rsbvc	r6, r5, #1616	; 0x650
    69dc:	5f657461 	svcpl	0x00657461
    69e0:	65637845 	strbvs	r7, [r3, #-2117]!	; 0xfffff7bb
    69e4:	6f697470 	svcvs	0x00697470
    69e8:	5f5f206e 	svcpl	0x005f206e
    69ec:	206d7361 	rsbcs	r7, sp, r1, ror #6
    69f0:	616c6f76 	smcvs	50934	; 0xc6f6
    69f4:	656c6974 	strbvs	r6, [ip, #-2420]!	; 0xfffff68c
    69f8:	56532228 	ldrbpl	r2, [r3], -r8, lsr #4
    69fc:	30232043 	eorcc	r2, r3, r3, asr #32
    6a00:	29223378 	stmdbcs	r2!, {r3, r4, r5, r6, r8, r9, ip, sp}
    6a04:	555f5f00 	ldrbpl	r5, [pc, #-3840]	; 5b0c <_Min_Stack_Size+0x570c>
    6a08:	465f5154 			; <UNDEFINED> instruction: 0x465f5154
    6a0c:	5f544942 	svcpl	0x00544942
    6a10:	3231205f 	eorscc	r2, r1, #95	; 0x5f
    6a14:	58450038 	stmdapl	r5, {r3, r4, r5}^
    6a18:	50344954 	eorspl	r4, r4, r4, asr r9
    6a1c:	28203441 	stmdacs	r0!, {r0, r6, sl, ip, sp}
    6a20:	49545845 	ldmdbmi	r4, {r0, r2, r6, fp, ip, lr}^
    6a24:	4950475f 	ldmdbmi	r0, {r0, r1, r2, r3, r4, r6, r8, r9, sl, lr}^
    6a28:	614d5f4f 	cmpvs	sp, pc, asr #30
    6a2c:	676e6970 			; <UNDEFINED> instruction: 0x676e6970
    6a30:	7b29745f 	blvc	a63bb4 <_Min_Stack_Size+0xa637b4>
    6a34:	49545845 	ldmdbmi	r4, {r0, r2, r6, fp, ip, lr}^
    6a38:	50472c34 	subpl	r2, r7, r4, lsr ip
    6a3c:	2c414f49 	mcrrcs	15, 4, r4, r1, cr9
    6a40:	4f495047 	svcmi	0x00495047
    6a44:	4e49505f 	mcrmi	0, 2, r5, cr9, cr15, {2}
    6a48:	452c345f 	strmi	r3, [ip, #-1119]!	; 0xfffffba1
    6a4c:	34495458 	strbcc	r5, [r9], #-1112	; 0xfffffba8
    6a50:	5152495f 	cmppl	r2, pc, asr r9
    6a54:	5f5f007d 	svcpl	0x005f007d
    6a58:	494e4946 	stmdbmi	lr, {r1, r2, r6, r8, fp, lr}^
    6a5c:	4d5f4554 	cfldr64mi	mvdx4, [pc, #-336]	; 6914 <_Min_Stack_Size+0x6514>
    6a60:	5f485441 	svcpl	0x00485441
    6a64:	594c4e4f 	stmdbpl	ip, {r0, r1, r2, r3, r6, r9, sl, fp, lr}^
    6a68:	30205f5f 	eorcc	r5, r0, pc, asr pc
    6a6c:	495f5f00 	ldmdbmi	pc, {r8, r9, sl, fp, ip, lr}^	; <UNPREDICTABLE>
    6a70:	465f544e 	ldrbmi	r5, [pc], -lr, asr #8
    6a74:	31545341 	cmpcc	r4, r1, asr #6
    6a78:	414d5f36 	cmpmi	sp, r6, lsr pc
    6a7c:	205f5f58 	subscs	r5, pc, r8, asr pc	; <UNPREDICTABLE>
    6a80:	66377830 			; <UNDEFINED> instruction: 0x66377830
    6a84:	66666666 	strbtvs	r6, [r6], -r6, ror #12
    6a88:	5f006666 	svcpl	0x00006666
    6a8c:	7661685f 			; <UNDEFINED> instruction: 0x7661685f
    6a90:	6f6c5f65 	svcvs	0x006c5f65
    6a94:	6f6c676e 	svcvs	0x006c676e
    6a98:	3436676e 	ldrtcc	r6, [r6], #-1902	; 0xfffff892
    6a9c:	5f003120 	svcpl	0x00003120
    6aa0:	464c4c5f 			; <UNDEFINED> instruction: 0x464c4c5f
    6aa4:	54434152 	strbpl	r4, [r3], #-338	; 0xfffffeae
    6aa8:	4942465f 	stmdbmi	r2, {r0, r1, r2, r3, r4, r6, r9, sl, lr}^
    6aac:	205f5f54 	subscs	r5, pc, r4, asr pc	; <UNPREDICTABLE>
    6ab0:	5f003336 	svcpl	0x00003336
    6ab4:	736b6c62 	cmnvc	fp, #25088	; 0x6200
    6ab8:	00657a69 	rsbeq	r7, r5, r9, ror #20
    6abc:	4e49555f 	mcrmi	5, 2, r5, cr9, cr15, {2}
    6ac0:	545f3854 	ldrbpl	r3, [pc], #-2132	; 6ac8 <_Min_Stack_Size+0x66c8>
    6ac4:	4345445f 	movtmi	r4, #21599	; 0x545f
    6ac8:	4552414c 	ldrbmi	r4, [r2, #-332]	; 0xfffffeb4
    6acc:	5f002044 	svcpl	0x00002044
    6ad0:	544e4955 	strbpl	r4, [lr], #-2389	; 0xfffff6ab
    6ad4:	5f525450 	svcpl	0x00525450
    6ad8:	45445f54 	strbmi	r5, [r4, #-3924]	; 0xfffff0ac
    6adc:	52414c43 	subpl	r4, r1, #17152	; 0x4300
    6ae0:	00204445 	eoreq	r4, r0, r5, asr #8
    6ae4:	49545845 	ldmdbmi	r4, {r0, r2, r6, fp, ip, lr}^
    6ae8:	495f3531 	ldmdbmi	pc, {r0, r4, r5, r8, sl, ip, sp}^	; <UNPREDICTABLE>
    6aec:	34205152 	strtcc	r5, [r0], #-338	; 0xfffffeae
    6af0:	575f0030 	smmlarpl	pc, r0, r0, r0	; <UNPREDICTABLE>
    6af4:	52414843 	subpl	r4, r1, #4390912	; 0x430000
    6af8:	445f545f 	ldrbmi	r5, [pc], #-1119	; 6b00 <_Min_Stack_Size+0x6700>
    6afc:	4e494645 	cdpmi	6, 4, cr4, cr9, cr5, {2}
    6b00:	00204445 	eoreq	r4, r0, r5, asr #8
    6b04:	7361625f 	cmnvc	r1, #-268435451	; 0xf0000005
    6b08:	5f5f0065 	svcpl	0x005f0065
    6b0c:	43414c55 	movtmi	r4, #7253	; 0x1c55
    6b10:	5f4d5543 	svcpl	0x004d5543
    6b14:	5f58414d 	svcpl	0x0058414d
    6b18:	5830205f 	ldmdapl	r0!, {r0, r1, r2, r3, r4, r6, sp}
    6b1c:	46464646 	strbmi	r4, [r6], -r6, asr #12
    6b20:	46464646 	strbmi	r4, [r6], -r6, asr #12
    6b24:	46464646 	strbmi	r4, [r6], -r6, asr #12
    6b28:	46464646 	strbmi	r4, [r6], -r6, asr #12
    6b2c:	32332d50 	eorscc	r2, r3, #80, 26	; 0x1400
    6b30:	004b4c55 	subeq	r4, fp, r5, asr ip
    6b34:	72745f5f 	rsbsvc	r5, r4, #380	; 0x17c
    6b38:	636f6c79 	cmnvs	pc, #30976	; 0x7900
    6b3c:	655f736b 	ldrbvs	r7, [pc, #-875]	; 67d9 <_Min_Stack_Size+0x63d9>
    6b40:	756c6378 	strbvc	r6, [ip, #-888]!	; 0xfffffc88
    6b44:	65766973 	ldrbvs	r6, [r6, #-2419]!	; 0xfffff68d
    6b48:	2e2e2e28 	cdpcs	14, 2, cr2, cr14, cr8, {1}
    6b4c:	5f5f2029 	svcpl	0x005f2029
    6b50:	6b636f6c 	blvs	18e2908 <_Min_Stack_Size+0x18e2508>
    6b54:	6e6e615f 	mcrvs	1, 3, r6, cr14, cr15, {2}
    6b58:	7461746f 	strbtvc	r7, [r1], #-1135	; 0xfffffb91
    6b5c:	78652865 	stmdavc	r5!, {r0, r2, r5, r6, fp, sp}^
    6b60:	73756c63 	cmnvc	r5, #25344	; 0x6300
    6b64:	5f657669 	svcpl	0x00657669
    6b68:	6c797274 	lfmvs	f7, 2, [r9], #-464	; 0xfffffe30
    6b6c:	5f6b636f 	svcpl	0x006b636f
    6b70:	636e7566 	cmnvs	lr, #427819008	; 0x19800000
    6b74:	6e6f6974 			; <UNDEFINED> instruction: 0x6e6f6974
    6b78:	565f5f28 	ldrbpl	r5, [pc], -r8, lsr #30
    6b7c:	52415f41 	subpl	r5, r1, #260	; 0x104
    6b80:	5f5f5347 	svcpl	0x005f5347
    6b84:	45002929 	strmi	r2, [r0, #-2345]	; 0xfffff6d7
    6b88:	31495458 	cmpcc	r9, r8, asr r4
    6b8c:	31435032 	cmpcc	r3, r2, lsr r0
    6b90:	45282032 	strmi	r2, [r8, #-50]!	; 0xffffffce
    6b94:	5f495458 	svcpl	0x00495458
    6b98:	4f495047 	svcmi	0x00495047
    6b9c:	70614d5f 	rsbvc	r4, r1, pc, asr sp
    6ba0:	5f676e69 	svcpl	0x00676e69
    6ba4:	457b2974 	ldrbmi	r2, [fp, #-2420]!	; 0xfffff68c
    6ba8:	31495458 	cmpcc	r9, r8, asr r4
    6bac:	50472c32 	subpl	r2, r7, r2, lsr ip
    6bb0:	2c434f49 	mcrrcs	15, 4, r4, r3, cr9
    6bb4:	4f495047 	svcmi	0x00495047
    6bb8:	4e49505f 	mcrmi	0, 2, r5, cr9, cr15, {2}
    6bbc:	2c32315f 	ldfcss	f3, [r2], #-380	; 0xfffffe84
    6bc0:	49545845 	ldmdbmi	r4, {r0, r2, r6, fp, ip, lr}^
    6bc4:	495f3231 	ldmdbmi	pc, {r0, r4, r5, r9, ip, sp}^	; <UNPREDICTABLE>
    6bc8:	007d5152 	rsbseq	r5, sp, r2, asr r1
    6bcc:	4545525f 	strbmi	r5, [r5, #-607]	; 0xfffffda1
    6bd0:	525f544e 	subspl	r5, pc, #1308622848	; 0x4e000000
    6bd4:	5f444e41 	svcpl	0x00444e41
    6bd8:	5458454e 	ldrbpl	r4, [r8], #-1358	; 0xfffffab2
    6bdc:	72747028 	rsbsvc	r7, r4, #40	; 0x28
    6be0:	28282029 	stmdacs	r8!, {r0, r3, r5, sp}
    6be4:	29727470 	ldmdbcs	r2!, {r4, r5, r6, sl, ip, sp, lr}^
    6be8:	725f3e2d 	subsvc	r3, pc, #720	; 0x2d0
    6bec:	3e2d3834 	mcrcc	8, 1, r3, cr13, cr4, {1}
    6bf0:	6e61725f 	mcrvs	2, 3, r7, cr1, cr15, {2}
    6bf4:	656e5f64 	strbvs	r5, [lr, #-3940]!	; 0xfffff09c
    6bf8:	00297478 	eoreq	r7, r9, r8, ror r4
    6bfc:	49545845 	ldmdbmi	r4, {r0, r2, r6, fp, ip, lr}^
    6c00:	52495f30 	subpl	r5, r9, #48, 30	; 0xc0
    6c04:	00362051 	eorseq	r2, r6, r1, asr r0
    6c08:	4c555f5f 	mrrcmi	15, 5, r5, r5, cr15	; <UNPREDICTABLE>
    6c0c:	43415246 	movtmi	r5, #4678	; 0x1246
    6c10:	494d5f54 	stmdbmi	sp, {r2, r4, r6, r8, r9, sl, fp, ip, lr}^
    6c14:	205f5f4e 	subscs	r5, pc, lr, asr #30
    6c18:	55302e30 	ldrpl	r2, [r0, #-3632]!	; 0xfffff1d0
    6c1c:	5f00524c 	svcpl	0x0000524c
    6c20:	74727473 	ldrbtvc	r7, [r2], #-1139	; 0xfffffb8d
    6c24:	6c5f6b6f 	mrrcvs	11, 6, r6, pc, cr15	; <UNPREDICTABLE>
    6c28:	00747361 	rsbseq	r7, r4, r1, ror #6
    6c2c:	51445f5f 	cmppl	r4, pc, asr pc
    6c30:	4942495f 	stmdbmi	r2, {r0, r1, r2, r3, r4, r6, r8, fp, lr}^
    6c34:	205f5f54 	subscs	r5, pc, r4, asr pc	; <UNPREDICTABLE>
    6c38:	41480030 	cmpmi	r8, r0, lsr r0
    6c3c:	434c5f4c 	movtmi	r5, #53068	; 0xcf4c
    6c40:	434c5f44 	movtmi	r5, #53060	; 0xcf44
    6c44:	4f435f44 	svcmi	0x00435f44
    6c48:	4749464e 	strbmi	r4, [r9, -lr, asr #12]
    6c4c:	205f485f 	subscs	r4, pc, pc, asr r8	; <UNPREDICTABLE>
    6c50:	495f5f00 	ldmdbmi	pc, {r8, r9, sl, fp, ip, lr}^	; <UNPREDICTABLE>
    6c54:	3233544e 	eorscc	r5, r3, #1308622848	; 0x4e000000
    6c58:	5059545f 	subspl	r5, r9, pc, asr r4
    6c5c:	205f5f45 	subscs	r5, pc, r5, asr #30
    6c60:	676e6f6c 	strbvs	r6, [lr, -ip, ror #30]!
    6c64:	746e6920 	strbtvc	r6, [lr], #-2336	; 0xfffff6e0
    6c68:	555f5f00 	ldrbpl	r5, [pc, #-3840]	; 5d70 <_Min_Stack_Size+0x5970>
    6c6c:	5f544e49 	svcpl	0x00544e49
    6c70:	5341454c 	movtpl	r4, #5452	; 0x154c
    6c74:	4d5f3854 	ldclmi	8, cr3, [pc, #-336]	; 6b2c <_Min_Stack_Size+0x672c>
    6c78:	5f5f5841 	svcpl	0x005f5841
    6c7c:	66783020 	ldrbtvs	r3, [r8], -r0, lsr #32
    6c80:	6d5f0066 	ldclvs	0, cr0, [pc, #-408]	; 6af0 <_Min_Stack_Size+0x66f0>
    6c84:	6f747262 	svcvs	0x00747262
    6c88:	735f6377 	cmpvc	pc, #-603979775	; 0xdc000001
    6c8c:	65746174 	ldrbvs	r6, [r4, #-372]!	; 0xfffffe8c
    6c90:	635f5f00 	cmpvs	pc, #0, 30
    6c94:	61746e6f 	cmnvs	r4, pc, ror #28
    6c98:	72656e69 	rsbvc	r6, r5, #1680	; 0x690
    6c9c:	7828666f 	stmdavc	r8!, {r0, r1, r2, r3, r5, r6, r9, sl, sp, lr}
    6ca0:	6d2c732c 	stcvs	3, cr7, [ip, #-176]!	; 0xffffff50
    6ca4:	7b282029 	blvc	a0ed50 <_Min_Stack_Size+0xa0e950>
    6ca8:	6e6f6320 	cdpvs	3, 6, cr6, cr15, cr0, {1}
    6cac:	76207473 			; <UNDEFINED> instruction: 0x76207473
    6cb0:	74616c6f 	strbtvc	r6, [r1], #-3183	; 0xfffff391
    6cb4:	20656c69 	rsbcs	r6, r5, r9, ror #24
    6cb8:	79745f5f 	ldmdbvc	r4!, {r0, r1, r2, r3, r4, r6, r8, r9, sl, fp, ip, lr}^
    6cbc:	666f6570 			; <UNDEFINED> instruction: 0x666f6570
    6cc0:	73282828 			; <UNDEFINED> instruction: 0x73282828
    6cc4:	30292a20 	eorcc	r2, r9, r0, lsr #20
    6cc8:	6d3e2d29 	ldcvs	13, cr2, [lr, #-164]!	; 0xffffff5c
    6ccc:	5f2a2029 	svcpl	0x002a2029
    6cd0:	3d20785f 	stccc	8, cr7, [r0, #-380]!	; 0xfffffe84
    6cd4:	29782820 	ldmdbcs	r8!, {r5, fp, sp}^
    6cd8:	5f5f203b 	svcpl	0x005f203b
    6cdc:	55514544 	ldrbpl	r4, [r1, #-1348]	; 0xfffffabc
    6ce0:	46494c41 	strbmi	r4, [r9], -r1, asr #24
    6ce4:	20732859 	rsbscs	r2, r3, r9, asr r8
    6ce8:	28202c2a 	stmdacs	r0!, {r1, r3, r5, sl, fp, sp}
    6cec:	736e6f63 	cmnvc	lr, #396	; 0x18c
    6cf0:	6f762074 	svcvs	0x00762074
    6cf4:	6974616c 	ldmdbvs	r4!, {r2, r3, r5, r6, r8, sp, lr}^
    6cf8:	6320656c 			; <UNDEFINED> instruction: 0x6320656c
    6cfc:	20726168 	rsbscs	r6, r2, r8, ror #2
    6d00:	5f5f292a 	svcpl	0x005f292a
    6d04:	202d2078 	eorcs	r2, sp, r8, ror r0
    6d08:	666f5f5f 	uqsaxvs	r5, pc, pc	; <UNPREDICTABLE>
    6d0c:	74657366 	strbtvc	r7, [r5], #-870	; 0xfffffc9a
    6d10:	7328666f 			; <UNDEFINED> instruction: 0x7328666f
    6d14:	296d202c 	stmdbcs	sp!, {r2, r3, r5, sp}^
    6d18:	297d3b29 	ldmdbcs	sp!, {r0, r3, r5, r8, r9, fp, ip, sp}^
    6d1c:	49555f00 	ldmdbmi	r5, {r8, r9, sl, fp, ip, lr}^
    6d20:	3233544e 	eorscc	r5, r3, #1308622848	; 0x4e000000
    6d24:	445f545f 	ldrbmi	r5, [pc], #-1119	; 6d2c <_Min_Stack_Size+0x692c>
    6d28:	414c4345 	cmpmi	ip, r5, asr #6
    6d2c:	20444552 	subcs	r4, r4, r2, asr r5
    6d30:	53425f00 	movtpl	r5, #12032	; 0x2f00
    6d34:	49535f44 	ldmdbmi	r3, {r2, r6, r8, r9, sl, fp, ip, lr}^
    6d38:	545f455a 	ldrbpl	r4, [pc], #-1370	; 6d40 <_Min_Stack_Size+0x6940>
    6d3c:	4500205f 	strmi	r2, [r0, #-95]	; 0xffffffa1
    6d40:	35495458 	strbcc	r5, [r9, #-1112]	; 0xfffffba8
    6d44:	20354450 	eorscs	r4, r5, r0, asr r4
    6d48:	54584528 	ldrbpl	r4, [r8], #-1320	; 0xfffffad8
    6d4c:	50475f49 	subpl	r5, r7, r9, asr #30
    6d50:	4d5f4f49 	ldclmi	15, cr4, [pc, #-292]	; 6c34 <_Min_Stack_Size+0x6834>
    6d54:	6e697061 	cdpvs	0, 6, cr7, cr9, cr1, {3}
    6d58:	29745f67 	ldmdbcs	r4!, {r0, r1, r2, r5, r6, r8, r9, sl, fp, ip, lr}^
    6d5c:	5458457b 	ldrbpl	r4, [r8], #-1403	; 0xfffffa85
    6d60:	472c3549 	strmi	r3, [ip, -r9, asr #10]!
    6d64:	444f4950 	strbmi	r4, [pc], #-2384	; 6d6c <_Min_Stack_Size+0x696c>
    6d68:	4950472c 	ldmdbmi	r0, {r2, r3, r5, r8, r9, sl, lr}^
    6d6c:	49505f4f 	ldmdbmi	r0, {r0, r1, r2, r3, r6, r8, r9, sl, fp, ip, lr}^
    6d70:	2c355f4e 	ldccs	15, cr5, [r5], #-312	; 0xfffffec8
    6d74:	49545845 	ldmdbmi	r4, {r0, r2, r6, fp, ip, lr}^
    6d78:	52495f35 	subpl	r5, r9, #53, 30	; 0xd4
    6d7c:	45007d51 	strmi	r7, [r0, #-3409]	; 0xfffff2af
    6d80:	31495458 	cmpcc	r9, r8, asr r4
    6d84:	20314450 	eorscs	r4, r1, r0, asr r4
    6d88:	54584528 	ldrbpl	r4, [r8], #-1320	; 0xfffffad8
    6d8c:	50475f49 	subpl	r5, r7, r9, asr #30
    6d90:	4d5f4f49 	ldclmi	15, cr4, [pc, #-292]	; 6c74 <_Min_Stack_Size+0x6874>
    6d94:	6e697061 	cdpvs	0, 6, cr7, cr9, cr1, {3}
    6d98:	29745f67 	ldmdbcs	r4!, {r0, r1, r2, r5, r6, r8, r9, sl, fp, ip, lr}^
    6d9c:	5458457b 	ldrbpl	r4, [r8], #-1403	; 0xfffffa85
    6da0:	472c3149 	strmi	r3, [ip, -r9, asr #2]!
    6da4:	444f4950 	strbmi	r4, [pc], #-2384	; 6dac <_Min_Stack_Size+0x69ac>
    6da8:	4950472c 	ldmdbmi	r0, {r2, r3, r5, r8, r9, sl, lr}^
    6dac:	49505f4f 	ldmdbmi	r0, {r0, r1, r2, r3, r6, r8, r9, sl, fp, ip, lr}^
    6db0:	2c315f4e 	ldccs	15, cr5, [r1], #-312	; 0xfffffec8
    6db4:	49545845 	ldmdbmi	r4, {r0, r2, r6, fp, ip, lr}^
    6db8:	52495f31 	subpl	r5, r9, #49, 30	; 0xc4
    6dbc:	5f007d51 	svcpl	0x00007d51
    6dc0:	5f6f6e5f 	svcpl	0x006f6e5f
    6dc4:	6b636f6c 	blvs	18e2b7c <_Min_Stack_Size+0x18e277c>
    6dc8:	616e615f 	cmnvs	lr, pc, asr r1
    6dcc:	6973796c 	ldmdbvs	r3!, {r2, r3, r5, r6, r8, fp, ip, sp, lr}^
    6dd0:	5f5f2073 	svcpl	0x005f2073
    6dd4:	6b636f6c 	blvs	18e2b8c <_Min_Stack_Size+0x18e278c>
    6dd8:	6e6e615f 	mcrvs	1, 3, r6, cr14, cr15, {2}
    6ddc:	7461746f 	strbtvc	r7, [r1], #-1135	; 0xfffffb91
    6de0:	6f6e2865 	svcvs	0x006e2865
    6de4:	7268745f 	rsbvc	r7, r8, #1593835520	; 0x5f000000
    6de8:	5f646165 	svcpl	0x00646165
    6dec:	65666173 	strbvs	r6, [r6, #-371]!	; 0xfffffe8d
    6df0:	615f7974 	cmpvs	pc, r4, ror r9	; <UNPREDICTABLE>
    6df4:	796c616e 	stmdbvc	ip!, {r1, r2, r3, r5, r6, r8, sp, lr}^
    6df8:	29736973 	ldmdbcs	r3!, {r0, r1, r4, r5, r6, r8, fp, sp, lr}^
    6dfc:	49564e00 	ldmdbmi	r6, {r9, sl, fp, lr}^
    6e00:	52495f43 	subpl	r5, r9, #268	; 0x10c
    6e04:	455f3651 	ldrbmi	r3, [pc, #-1617]	; 67bb <_Min_Stack_Size+0x63bb>
    6e08:	30495458 	subcc	r5, r9, r8, asr r4
    6e0c:	616e455f 	cmnvs	lr, pc, asr r5
    6e10:	20656c62 	rsbcs	r6, r5, r2, ror #24
    6e14:	49564e28 	ldmdbmi	r6, {r3, r5, r9, sl, fp, lr}^
    6e18:	53495f43 	movtpl	r5, #40771	; 0x9f43
    6e1c:	20305245 	eorscs	r5, r0, r5, asr #4
    6e20:	28203d7c 	stmdacs	r0!, {r2, r3, r4, r5, r6, r8, sl, fp, ip, sp}
    6e24:	363c3c31 			; <UNDEFINED> instruction: 0x363c3c31
    6e28:	5f002929 	svcpl	0x00002929
    6e2c:	636f6c66 	cmnvs	pc, #26112	; 0x6600
    6e30:	00745f6b 	rsbseq	r5, r4, fp, ror #30
    6e34:	49465f5f 	stmdbmi	r6, {r0, r1, r2, r3, r4, r6, r8, r9, sl, fp, ip, lr}^
    6e38:	5f00454c 	svcpl	0x0000454c
    6e3c:	4e454552 	mcrmi	5, 2, r4, cr5, cr2, {2}
    6e40:	504d5f54 	subpl	r5, sp, r4, asr pc
    6e44:	4552465f 	ldrbmi	r4, [r2, #-1631]	; 0xfffff9a1
    6e48:	53494c45 	movtpl	r4, #40005	; 0x9c45
    6e4c:	74702854 	ldrbtvc	r2, [r0], #-2132	; 0xfffff7ac
    6e50:	28202972 	stmdacs	r0!, {r1, r4, r5, r6, r8, fp, sp}
    6e54:	72747028 	rsbsvc	r7, r4, #40	; 0x28
    6e58:	5f3e2d29 	svcpl	0x003e2d29
    6e5c:	3e2d706d 	cdpcc	0, 2, cr7, cr13, cr13, {3}
    6e60:	6572665f 	ldrbvs	r6, [r2, #-1631]!	; 0xfffff9a1
    6e64:	73696c65 	cmnvc	r9, #25856	; 0x6500
    6e68:	5f002974 	svcpl	0x00002974
    6e6c:	454d4954 	strbmi	r4, [sp, #-2388]	; 0xfffff6ac
    6e70:	205f545f 	subscs	r5, pc, pc, asr r4	; <UNPREDICTABLE>
    6e74:	6e695f5f 	mcrvs	15, 3, r5, cr9, cr15, {2}
    6e78:	656c5f74 	strbvs	r5, [ip, #-3956]!	; 0xfffff08c
    6e7c:	36747361 	ldrbtcc	r7, [r4], -r1, ror #6
    6e80:	00745f34 	rsbseq	r5, r4, r4, lsr pc
    6e84:	4f4c435f 	svcmi	0x004c435f
    6e88:	44494b43 	strbmi	r4, [r9], #-2883	; 0xfffff4bd
    6e8c:	205f545f 	subscs	r5, pc, pc, asr r4	; <UNPREDICTABLE>
    6e90:	69736e75 	ldmdbvs	r3!, {r0, r2, r4, r5, r6, r9, sl, fp, sp, lr}^
    6e94:	64656e67 	strbtvs	r6, [r5], #-3687	; 0xfffff199
    6e98:	6e6f6c20 	cdpvs	12, 6, cr6, cr15, cr0, {1}
    6e9c:	49550067 	ldmdbmi	r5, {r0, r1, r2, r5, r6}^
    6ea0:	3631544e 	ldrtcc	r5, [r1], -lr, asr #8
    6ea4:	7828435f 	stmdavc	r8!, {r0, r1, r2, r3, r4, r6, r8, r9, lr}
    6ea8:	5f5f2029 	svcpl	0x005f2029
    6eac:	544e4955 	strbpl	r4, [lr], #-2389	; 0xfffff6ab
    6eb0:	435f3631 	cmpmi	pc, #51380224	; 0x3100000
    6eb4:	00297828 	eoreq	r7, r9, r8, lsr #16
    6eb8:	54555f5f 	ldrbpl	r5, [r5], #-3935	; 0xfffff0a1
    6ebc:	42495f51 	submi	r5, r9, #324	; 0x144
    6ec0:	5f5f5449 	svcpl	0x005f5449
    6ec4:	45003020 	strmi	r3, [r0, #-32]	; 0xffffffe0
    6ec8:	32495458 	subcc	r5, r9, #88, 8	; 0x58000000
    6ecc:	5f003220 	svcpl	0x00003220
    6ed0:	5f41535f 	svcpl	0x0041535f
    6ed4:	54494246 	strbpl	r4, [r9], #-582	; 0xfffffdba
    6ed8:	31205f5f 			; <UNDEFINED> instruction: 0x31205f5f
    6edc:	5f5f0035 	svcpl	0x005f0035
    6ee0:	5f544e49 	svcpl	0x00544e49
    6ee4:	41484357 	cmpmi	r8, r7, asr r3
    6ee8:	5f545f52 	svcpl	0x00545f52
    6eec:	5f002048 	svcpl	0x00002048
    6ef0:	544c465f 	strbpl	r4, [ip], #-1631	; 0xfffff9a1
    6ef4:	5f583233 	svcpl	0x00583233
    6ef8:	5f58414d 	svcpl	0x0058414d
    6efc:	2e31205f 	mrccs	0, 1, r2, cr1, cr15, {2}
    6f00:	36373937 			; <UNDEFINED> instruction: 0x36373937
    6f04:	33313339 	teqcc	r1, #-469762048	; 0xe4000000
    6f08:	32363834 	eorscc	r3, r6, #52, 16	; 0x340000
    6f0c:	37353133 			; <UNDEFINED> instruction: 0x37353133
    6f10:	30332b65 	eorscc	r2, r3, r5, ror #22
    6f14:	32334638 	eorscc	r4, r3, #56, 12	; 0x3800000
    6f18:	43570078 	cmpmi	r7, #120	; 0x78
    6f1c:	5f524148 	svcpl	0x00524148
    6f20:	2058414d 	subscs	r4, r8, sp, asr #2
    6f24:	575f5f28 	ldrbpl	r5, [pc, -r8, lsr #30]
    6f28:	52414843 	subpl	r4, r1, #4390912	; 0x430000
    6f2c:	58414d5f 	stmdapl	r1, {r0, r1, r2, r3, r4, r6, r8, sl, fp, lr}^
    6f30:	00295f5f 	eoreq	r5, r9, pc, asr pc
    6f34:	4c465f5f 	mcrrmi	15, 5, r5, r6, cr15
    6f38:	5f323354 	svcpl	0x00323354
    6f3c:	5f4e494d 	svcpl	0x004e494d
    6f40:	2e31205f 	mrccs	0, 1, r2, cr1, cr15, {2}
    6f44:	34353731 	ldrtcc	r3, [r5], #-1841	; 0xfffff8cf
    6f48:	35333439 	ldrcc	r3, [r3, #-1081]!	; 0xfffffbc7
    6f4c:	32323830 	eorscc	r3, r2, #48, 16	; 0x300000
    6f50:	35373832 	ldrcc	r3, [r7, #-2098]!	; 0xfffff7ce
    6f54:	38332d65 	ldmdacc	r3!, {r0, r2, r5, r6, r8, sl, fp, sp}
    6f58:	00323346 	eorseq	r3, r2, r6, asr #6
    6f5c:	3834725f 	ldmdacc	r4!, {r0, r1, r2, r3, r4, r6, r9, ip, sp, lr}
    6f60:	555f5f00 	ldrbpl	r5, [pc, #-3840]	; 6068 <_Min_Stack_Size+0x5c68>
    6f64:	55434341 	strbpl	r4, [r3, #-833]	; 0xfffffcbf
    6f68:	42495f4d 	submi	r5, r9, #308	; 0x134
    6f6c:	5f5f5449 	svcpl	0x005f5449
    6f70:	00363120 	eorseq	r3, r6, r0, lsr #2
    6f74:	49545845 	ldmdbmi	r4, {r0, r2, r6, fp, ip, lr}^
    6f78:	36415036 			; <UNDEFINED> instruction: 0x36415036
    6f7c:	58452820 	stmdapl	r5, {r5, fp, sp}^
    6f80:	475f4954 			; <UNDEFINED> instruction: 0x475f4954
    6f84:	5f4f4950 	svcpl	0x004f4950
    6f88:	6970614d 	ldmdbvs	r0!, {r0, r2, r3, r6, r8, sp, lr}^
    6f8c:	745f676e 	ldrbvc	r6, [pc], #-1902	; 6f94 <_Min_Stack_Size+0x6b94>
    6f90:	58457b29 	stmdapl	r5, {r0, r3, r5, r8, r9, fp, ip, sp, lr}^
    6f94:	2c364954 			; <UNDEFINED> instruction: 0x2c364954
    6f98:	4f495047 	svcmi	0x00495047
    6f9c:	50472c41 	subpl	r2, r7, r1, asr #24
    6fa0:	505f4f49 	subspl	r4, pc, r9, asr #30
    6fa4:	365f4e49 	ldrbcc	r4, [pc], -r9, asr #28
    6fa8:	5458452c 	ldrbpl	r4, [r8], #-1324	; 0xfffffad4
    6fac:	495f3649 	ldmdbmi	pc, {r0, r3, r6, r9, sl, ip, sp}^	; <UNPREDICTABLE>
    6fb0:	007d5152 	rsbseq	r5, sp, r2, asr r1
    6fb4:	4c455f5f 	mcrrmi	15, 5, r5, r5, cr15
    6fb8:	205f5f46 	subscs	r5, pc, r6, asr #30
    6fbc:	4e490031 	mcrmi	0, 2, r0, cr9, cr1, {1}
    6fc0:	5f323354 	svcpl	0x00323354
    6fc4:	204e494d 	subcs	r4, lr, sp, asr #18
    6fc8:	5f5f2d28 	svcpl	0x005f2d28
    6fcc:	33544e49 	cmpcc	r4, #1168	; 0x490
    6fd0:	414d5f32 	cmpmi	sp, r2, lsr pc
    6fd4:	205f5f58 	subscs	r5, pc, r8, asr pc	; <UNPREDICTABLE>
    6fd8:	2931202d 	ldmdbcs	r1!, {r0, r2, r3, r5, sp}
    6fdc:	545f5f00 	ldrbpl	r5, [pc], #-3840	; 6fe4 <_Min_Stack_Size+0x6be4>
    6fe0:	424d5548 	submi	r5, sp, #72, 10	; 0x12000000
    6fe4:	5f5f4c45 	svcpl	0x005f4c45
    6fe8:	55003120 	strpl	r3, [r0, #-288]	; 0xfffffee0
    6fec:	38544e49 	ldmdacc	r4, {r0, r3, r6, r9, sl, fp, lr}^
    6ff0:	7828435f 	stmdavc	r8!, {r0, r1, r2, r3, r4, r6, r8, r9, lr}
    6ff4:	5f5f2029 	svcpl	0x005f2029
    6ff8:	544e4955 	strbpl	r4, [lr], #-2389	; 0xfffff6ab
    6ffc:	28435f38 	stmdacs	r3, {r3, r4, r5, r8, r9, sl, fp, ip, lr}^
    7000:	5f002978 	svcpl	0x00002978
    7004:	38544e49 	ldmdacc	r4, {r0, r3, r6, r9, sl, fp, lr}^
    7008:	445f545f 	ldrbmi	r5, [pc], #-1119	; 7010 <_Min_Stack_Size+0x6c10>
    700c:	414c4345 	cmpmi	ip, r5, asr #6
    7010:	20444552 	subcs	r4, r4, r2, asr r5
    7014:	54584500 	ldrbpl	r4, [r8], #-1280	; 0xfffffb00
    7018:	42503949 	subsmi	r3, r0, #1196032	; 0x124000
    701c:	45282039 	strmi	r2, [r8, #-57]!	; 0xffffffc7
    7020:	5f495458 	svcpl	0x00495458
    7024:	4f495047 	svcmi	0x00495047
    7028:	70614d5f 	rsbvc	r4, r1, pc, asr sp
    702c:	5f676e69 	svcpl	0x00676e69
    7030:	457b2974 	ldrbmi	r2, [fp, #-2420]!	; 0xfffff68c
    7034:	39495458 	stmdbcc	r9, {r3, r4, r6, sl, ip, lr}^
    7038:	4950472c 	ldmdbmi	r0, {r2, r3, r5, r8, r9, sl, lr}^
    703c:	472c424f 	strmi	r4, [ip, -pc, asr #4]!
    7040:	5f4f4950 	svcpl	0x004f4950
    7044:	5f4e4950 	svcpl	0x004e4950
    7048:	58452c39 	stmdapl	r5, {r0, r3, r4, r5, sl, fp, sp}^
    704c:	5f394954 	svcpl	0x00394954
    7050:	7d515249 	lfmvc	f5, 2, [r1, #-292]	; 0xfffffedc
    7054:	515f5f00 	cmppl	pc, r0, lsl #30
    7058:	42495f51 	submi	r5, r9, #324	; 0x144
    705c:	5f5f5449 	svcpl	0x005f5449
    7060:	5f003020 	svcpl	0x00003020
    7064:	6565725f 	strbvs	r7, [r5, #-607]!	; 0xfffffda1
    7068:	615f746e 	cmpvs	pc, lr, ror #8
    706c:	72657373 	rsbvc	r7, r5, #-872415231	; 0xcc000001
    7070:	29782874 	ldmdbcs	r8!, {r2, r4, r5, r6, fp, sp}^
    7074:	76282820 	strtvc	r2, [r8], -r0, lsr #16
    7078:	2964696f 	stmdbcs	r4!, {r0, r1, r2, r3, r5, r6, r8, fp, sp, lr}^
    707c:	55002930 	strpl	r2, [r0, #-2352]	; 0xfffff6d0
    7080:	36544e49 	ldrbcc	r4, [r4], -r9, asr #28
    7084:	28435f34 	stmdacs	r3, {r2, r4, r5, r8, r9, sl, fp, ip, lr}^
    7088:	5f202978 	svcpl	0x00202978
    708c:	4e49555f 	mcrmi	5, 2, r5, cr9, cr15, {2}
    7090:	5f343654 	svcpl	0x00343654
    7094:	29782843 	ldmdbcs	r8!, {r0, r1, r6, fp, sp}^
    7098:	4c5f5f00 	mrrcmi	15, 0, r5, pc, cr0	; <UNPREDICTABLE>
    709c:	4343414c 	movtmi	r4, #12620	; 0x314c
    70a0:	465f4d55 			; <UNDEFINED> instruction: 0x465f4d55
    70a4:	5f544942 	svcpl	0x00544942
    70a8:	3133205f 	teqcc	r3, pc, asr r0
    70ac:	61645f00 	cmnvs	r4, r0, lsl #30
    70b0:	55006174 	strpl	r6, [r0, #-372]	; 0xfffffe8c
    70b4:	31544e49 	cmpcc	r4, r9, asr #28
    70b8:	414d5f36 	cmpmi	sp, r6, lsr pc
    70bc:	5f282058 	svcpl	0x00282058
    70c0:	4e49555f 	mcrmi	5, 2, r5, cr9, cr15, {2}
    70c4:	5f363154 	svcpl	0x00363154
    70c8:	5f58414d 	svcpl	0x0058414d
    70cc:	5f00295f 	svcpl	0x0000295f
    70d0:	544c465f 	strbpl	r4, [ip], #-1631	; 0xfffff9a1
    70d4:	5f583233 	svcpl	0x00583233
    70d8:	5f4e494d 	svcpl	0x004e494d
    70dc:	455f3031 	ldrbmi	r3, [pc, #-49]	; 70b3 <_Min_Stack_Size+0x6cb3>
    70e0:	5f5f5058 	svcpl	0x005f5058
    70e4:	332d2820 			; <UNDEFINED> instruction: 0x332d2820
    70e8:	00293730 	eoreq	r3, r9, r0, lsr r7
    70ec:	544e4955 	strbpl	r4, [lr], #-2389	; 0xfffff6ab
    70f0:	41454c5f 	cmpmi	r5, pc, asr ip
    70f4:	5f385453 	svcpl	0x00385453
    70f8:	2058414d 	subscs	r4, r8, sp, asr #2
    70fc:	555f5f28 	ldrbpl	r5, [pc, #-3880]	; 61dc <_Min_Stack_Size+0x5ddc>
    7100:	5f544e49 	svcpl	0x00544e49
    7104:	5341454c 	movtpl	r4, #5452	; 0x154c
    7108:	4d5f3854 	ldclmi	8, cr3, [pc, #-336]	; 6fc0 <_Min_Stack_Size+0x6bc0>
    710c:	5f5f5841 	svcpl	0x005f5841
    7110:	5f5f0029 	svcpl	0x005f0029
    7114:	5f515355 	svcpl	0x00515355
    7118:	54494249 	strbpl	r4, [r9], #-585	; 0xfffffdb7
    711c:	30205f5f 	eorcc	r5, r0, pc, asr pc
    7120:	475f5f00 	ldrbmi	r5, [pc, -r0, lsl #30]
    7124:	5f43554e 	svcpl	0x0043554e
    7128:	4f4e494d 	svcmi	0x004e494d
    712c:	205f5f52 	subscs	r5, pc, r2, asr pc	; <UNPREDICTABLE>
    7130:	5f5f0033 	svcpl	0x005f0033
    7134:	6b636f6c 	blvs	18e2eec <_Min_Stack_Size+0x18e2aec>
    7138:	6c65725f 	sfmvs	f7, 2, [r5], #-380	; 0xfffffe84
    713c:	65736165 	ldrbvs	r6, [r3, #-357]!	; 0xfffffe9b
    7140:	6365725f 	cmnvs	r5, #-268435451	; 0xf0000005
    7144:	69737275 	ldmdbvs	r3!, {r0, r2, r4, r5, r6, r9, ip, sp, lr}^
    7148:	6c286576 	cfstr32vs	mvfx6, [r8], #-472	; 0xfffffe28
    714c:	296b636f 	stmdbcs	fp!, {r0, r1, r2, r3, r5, r6, r8, r9, sp, lr}^
    7150:	76282820 	strtvc	r2, [r8], -r0, lsr #16
    7154:	2964696f 	stmdbcs	r4!, {r0, r1, r2, r3, r5, r6, r8, fp, sp, lr}^
    7158:	00293020 	eoreq	r3, r9, r0, lsr #32
    715c:	49555f5f 	ldmdbmi	r5, {r0, r1, r2, r3, r4, r6, r8, r9, sl, fp, ip, lr}^
    7160:	4c5f544e 	cfldrdmi	mvd5, [pc], {78}	; 0x4e
    7164:	54534145 	ldrbpl	r4, [r3], #-325	; 0xfffffebb
    7168:	545f3233 	ldrbpl	r3, [pc], #-563	; 7170 <_Min_Stack_Size+0x6d70>
    716c:	5f455059 	svcpl	0x00455059
    7170:	6f6c205f 	svcvs	0x006c205f
    7174:	7520676e 	strvc	r6, [r0, #-1902]!	; 0xfffff892
    7178:	6769736e 	strbvs	r7, [r9, -lr, ror #6]!
    717c:	2064656e 	rsbcs	r6, r4, lr, ror #10
    7180:	00746e69 	rsbseq	r6, r4, r9, ror #28
    7184:	544e495f 	strbpl	r4, [lr], #-2399	; 0xfffff6a1
    7188:	545f3233 	ldrbpl	r3, [pc], #-563	; 7190 <_Min_Stack_Size+0x6d90>
    718c:	4345445f 	movtmi	r4, #21599	; 0x545f
    7190:	4552414c 	ldrbmi	r4, [r2, #-332]	; 0xfffffeb4
    7194:	5f002044 	svcpl	0x00002044
    7198:	4d52415f 	ldfmie	f4, [r2, #-380]	; 0xfffffe84
    719c:	4145465f 	cmpmi	r5, pc, asr r6
    71a0:	45525554 	ldrbmi	r5, [r2, #-1364]	; 0xfffffaac
    71a4:	4d554e5f 	ldclmi	14, cr4, [r5, #-380]	; 0xfffffe84
    71a8:	43495245 	movtmi	r5, #37445	; 0x9245
    71ac:	58414d5f 	stmdapl	r1, {r0, r1, r2, r3, r4, r6, r8, sl, fp, lr}^
    71b0:	004e494d 	subeq	r4, lr, sp, asr #18
    71b4:	4e41525f 	mcrmi	2, 2, r5, cr1, cr15, {2}
    71b8:	5f383444 	svcpl	0x00383444
    71bc:	544c554d 	strbpl	r5, [ip], #-1357	; 0xfffffab3
    71c0:	2820315f 	stmdacs	r0!, {r0, r1, r2, r3, r4, r6, r8, ip, sp}
    71c4:	65647830 	strbvs	r7, [r4, #-2096]!	; 0xfffff7d0
    71c8:	00296365 	eoreq	r6, r9, r5, ror #6
    71cc:	4e495f5f 	mcrmi	15, 2, r5, cr9, cr15, {2}
    71d0:	58414d54 	stmdapl	r1, {r2, r4, r6, r8, sl, fp, lr}^
    71d4:	5059545f 	subspl	r5, r9, pc, asr r4
    71d8:	205f5f45 	subscs	r5, pc, r5, asr #30
    71dc:	676e6f6c 	strbvs	r6, [lr, -ip, ror #30]!
    71e0:	6e6f6c20 	cdpvs	12, 6, cr6, cr15, cr0, {1}
    71e4:	6e692067 	cdpvs	0, 6, cr2, cr9, cr7, {3}
    71e8:	58450074 	stmdapl	r5, {r2, r4, r5, r6}^
    71ec:	50334954 	eorspl	r4, r3, r4, asr r9
    71f0:	28203342 	stmdacs	r0!, {r1, r6, r8, r9, ip, sp}
    71f4:	49545845 	ldmdbmi	r4, {r0, r2, r6, fp, ip, lr}^
    71f8:	4950475f 	ldmdbmi	r0, {r0, r1, r2, r3, r4, r6, r8, r9, sl, lr}^
    71fc:	614d5f4f 	cmpvs	sp, pc, asr #30
    7200:	676e6970 			; <UNDEFINED> instruction: 0x676e6970
    7204:	7b29745f 	blvc	a64388 <_Min_Stack_Size+0xa63f88>
    7208:	49545845 	ldmdbmi	r4, {r0, r2, r6, fp, ip, lr}^
    720c:	50472c33 	subpl	r2, r7, r3, lsr ip
    7210:	2c424f49 	mcrrcs	15, 4, r4, r2, cr9
    7214:	4f495047 	svcmi	0x00495047
    7218:	4e49505f 	mcrmi	0, 2, r5, cr9, cr15, {2}
    721c:	452c335f 	strmi	r3, [ip, #-863]!	; 0xfffffca1
    7220:	33495458 	movtcc	r5, #37976	; 0x9458
    7224:	5152495f 	cmppl	r2, pc, asr r9
    7228:	4955007d 	ldmdbmi	r5, {r0, r2, r3, r4, r5, r6}^
    722c:	465f544e 	ldrbmi	r5, [pc], -lr, asr #8
    7230:	33545341 	cmpcc	r4, #67108865	; 0x4000001
    7234:	414d5f32 	cmpmi	sp, r2, lsr pc
    7238:	5f282058 	svcpl	0x00282058
    723c:	4e49555f 	mcrmi	5, 2, r5, cr9, cr15, {2}
    7240:	41465f54 	cmpmi	r6, r4, asr pc
    7244:	32335453 	eorscc	r5, r3, #1392508928	; 0x53000000
    7248:	58414d5f 	stmdapl	r1, {r0, r1, r2, r3, r4, r6, r8, sl, fp, lr}^
    724c:	00295f5f 	eoreq	r5, r9, pc, asr pc
    7250:	43475f5f 	movtmi	r5, #32607	; 0x7f5f
    7254:	54415f43 	strbpl	r5, [r1], #-3907	; 0xfffff0bd
    7258:	43494d4f 	movtmi	r4, #40271	; 0x9d4f
    725c:	544e495f 	strbpl	r4, [lr], #-2399	; 0xfffff6a1
    7260:	434f4c5f 	movtmi	r4, #64607	; 0xfc5f
    7264:	52465f4b 	subpl	r5, r6, #300	; 0x12c
    7268:	32204545 	eorcc	r4, r0, #289406976	; 0x11400000
    726c:	775f5f00 	ldrbvc	r5, [pc, -r0, lsl #30]
    7270:	00626863 	rsbeq	r6, r2, r3, ror #16
    7274:	4e41525f 	mcrmi	2, 2, r5, cr1, cr15, {2}
    7278:	5f383444 	svcpl	0x00383444
    727c:	44454553 	strbmi	r4, [r5], #-1363	; 0xfffffaad
    7280:	2820305f 	stmdacs	r0!, {r0, r1, r2, r3, r4, r6, ip, sp}
    7284:	33337830 	teqcc	r3, #48, 16	; 0x300000
    7288:	00296530 	eoreq	r6, r9, r0, lsr r5
    728c:	49545845 	ldmdbmi	r4, {r0, r2, r6, fp, ip, lr}^
    7290:	32425032 	subcc	r5, r2, #50	; 0x32
    7294:	58452820 	stmdapl	r5, {r5, fp, sp}^
    7298:	475f4954 			; <UNDEFINED> instruction: 0x475f4954
    729c:	5f4f4950 	svcpl	0x004f4950
    72a0:	6970614d 	ldmdbvs	r0!, {r0, r2, r3, r6, r8, sp, lr}^
    72a4:	745f676e 	ldrbvc	r6, [pc], #-1902	; 72ac <_Min_Stack_Size+0x6eac>
    72a8:	58457b29 	stmdapl	r5, {r0, r3, r5, r8, r9, fp, ip, sp, lr}^
    72ac:	2c324954 			; <UNDEFINED> instruction: 0x2c324954
    72b0:	4f495047 	svcmi	0x00495047
    72b4:	50472c42 	subpl	r2, r7, r2, asr #24
    72b8:	505f4f49 	subspl	r4, pc, r9, asr #30
    72bc:	325f4e49 	subscc	r4, pc, #1168	; 0x490
    72c0:	5458452c 	ldrbpl	r4, [r8], #-1324	; 0xfffffad4
    72c4:	495f3249 	ldmdbmi	pc, {r0, r3, r6, r9, ip, sp}^	; <UNPREDICTABLE>
    72c8:	007d5152 	rsbseq	r5, sp, r2, asr r1
    72cc:	4343475f 	movtmi	r4, #14175	; 0x375f
    72d0:	58414d5f 	stmdapl	r1, {r0, r1, r2, r3, r4, r6, r8, sl, fp, lr}^
    72d4:	494c415f 	stmdbmi	ip, {r0, r1, r2, r3, r4, r6, r8, lr}^
    72d8:	545f4e47 	ldrbpl	r4, [pc], #-3655	; 72e0 <_Min_Stack_Size+0x6ee0>
    72dc:	5f5f0020 	svcpl	0x005f0020
    72e0:	676e6f4c 	strbvs	r6, [lr, -ip, asr #30]!
    72e4:	6e6f6c20 	cdpvs	12, 6, cr6, cr15, cr0, {1}
    72e8:	5f5f0067 	svcpl	0x005f0067
    72ec:	746e695f 	strbtvc	r6, [lr], #-2399	; 0xfffff6a1
    72f0:	61656c5f 	cmnvs	r5, pc, asr ip
    72f4:	32337473 	eorscc	r7, r3, #1929379840	; 0x73000000
    72f8:	645f745f 	ldrbvs	r7, [pc], #-1119	; 7300 <_Min_Stack_Size+0x6f00>
    72fc:	6e696665 	cdpvs	6, 6, cr6, cr9, cr5, {3}
    7300:	31206465 			; <UNDEFINED> instruction: 0x31206465
    7304:	415f5f00 	cmpmi	pc, r0, lsl #30
    7308:	465f4d52 			; <UNDEFINED> instruction: 0x465f4d52
    730c:	55544145 	ldrbpl	r4, [r4, #-325]	; 0xfffffebb
    7310:	465f4552 			; <UNDEFINED> instruction: 0x465f4552
    7314:	5f363150 	svcpl	0x00363150
    7318:	4c414353 	mcrrmi	3, 5, r4, r1, cr3
    731c:	415f5241 	cmpmi	pc, r1, asr #4
    7320:	48544952 	ldmdami	r4, {r1, r4, r6, r8, fp, lr}^
    7324:	4954454d 	ldmdbmi	r4, {r0, r2, r3, r6, r8, sl, lr}^
    7328:	5f5f0043 	svcpl	0x005f0043
    732c:	43415355 	movtmi	r5, #4949	; 0x1355
    7330:	5f4d5543 	svcpl	0x004d5543
    7334:	49535045 	ldmdbmi	r3, {r0, r2, r6, ip, lr}^
    7338:	5f4e4f4c 	svcpl	0x004e4f4c
    733c:	7830205f 	ldmdavc	r0!, {r0, r1, r2, r3, r4, r6, sp}
    7340:	382d5031 	stmdacc	sp!, {r0, r4, r5, ip, lr}
    7344:	004b4855 	subeq	r4, fp, r5, asr r8
    7348:	42445f5f 	submi	r5, r4, #380	; 0x17c
    734c:	41485f4c 	cmpmi	r8, ip, asr #30
    7350:	55515f53 	ldrbpl	r5, [r1, #-3923]	; 0xfffff0ad
    7354:	5f544549 	svcpl	0x00544549
    7358:	5f4e414e 	svcpl	0x004e414e
    735c:	0031205f 	eorseq	r2, r1, pc, asr r0
    7360:	4f495047 	svcmi	0x00495047
    7364:	41425f43 	cmpmi	r2, r3, asr #30
    7368:	30204553 	eorcc	r4, r0, r3, asr r5
    736c:	30303478 	eorscc	r3, r0, r8, ror r4
    7370:	30303131 	eorscc	r3, r0, r1, lsr r1
    7374:	004c5530 	subeq	r5, ip, r0, lsr r5
    7378:	4f495047 	svcmi	0x00495047
    737c:	4e49505f 	mcrmi	0, 2, r5, cr9, cr15, {2}
    7380:	2820375f 	stmdacs	r0!, {r0, r1, r2, r3, r4, r6, r8, r9, sl, ip, sp}
    7384:	6e697528 	cdpvs	5, 6, cr7, cr9, cr8, {1}
    7388:	5f363174 	svcpl	0x00363174
    738c:	78302974 	ldmdavc	r0!, {r2, r4, r5, r6, r8, fp, sp}
    7390:	30383030 	eorscc	r3, r8, r0, lsr r0
    7394:	4e490029 	cdpmi	0, 4, cr0, cr9, cr9, {1}
    7398:	5f323354 	svcpl	0x00323354
    739c:	29782843 	ldmdbcs	r8!, {r0, r1, r6, fp, sp}^
    73a0:	495f5f20 	ldmdbmi	pc, {r5, r8, r9, sl, fp, ip, lr}^	; <UNPREDICTABLE>
    73a4:	3233544e 	eorscc	r5, r3, #1308622848	; 0x4e000000
    73a8:	7828435f 	stmdavc	r8!, {r0, r1, r2, r3, r4, r6, r8, r9, lr}
    73ac:	5f5f0029 	svcpl	0x005f0029
    73b0:	76727470 			; <UNDEFINED> instruction: 0x76727470
    73b4:	65756c61 	ldrbvs	r6, [r5, #-3169]!	; 0xfffff39f
    73b8:	4e5f0020 	cdpmi	0, 5, cr0, cr15, cr0, {1}
    73bc:	4c4e494f 	mcrrmi	9, 4, r4, lr, cr15	; <UNPREDICTABLE>
    73c0:	5f454e49 	svcpl	0x00454e49
    73c4:	54415453 	strbpl	r5, [r1], #-1107	; 0xfffffbad
    73c8:	5f204349 	svcpl	0x00204349
    73cc:	4e494f4e 	cdpmi	15, 4, cr4, cr9, cr14, {2}
    73d0:	454e494c 	strbmi	r4, [lr, #-2380]	; 0xfffff6b4
    73d4:	61747320 	cmnvs	r4, r0, lsr #6
    73d8:	00636974 	rsbeq	r6, r3, r4, ror r9
    73dc:	5f434352 	svcpl	0x00434352
    73e0:	4f495047 	svcmi	0x00495047
    73e4:	4c435f44 	mcrrmi	15, 4, r5, r3, cr4
    73e8:	4e455f4b 	cdpmi	15, 4, cr5, cr5, cr11, {2}
    73ec:	28202928 	stmdacs	r0!, {r3, r5, r8, fp, sp}
    73f0:	2d434352 	stclcs	3, cr4, [r3, #-328]	; 0xfffffeb8
    73f4:	4250413e 	subsmi	r4, r0, #-2147483633	; 0x8000000f
    73f8:	524e4532 	subpl	r4, lr, #209715200	; 0xc800000
    73fc:	203d7c20 	eorscs	r7, sp, r0, lsr #24
    7400:	353c3c31 	ldrcc	r3, [ip, #-3121]!	; 0xfffff3cf
    7404:	4d5f0029 	ldclmi	0, cr0, [pc, #-164]	; 7368 <_Min_Stack_Size+0x6f68>
    7408:	49484341 	stmdbmi	r8, {r0, r6, r8, r9, lr}^
    740c:	5f5f454e 	svcpl	0x005f454e
    7410:	45505954 	ldrbmi	r5, [r0, #-2388]	; 0xfffff6ac
    7414:	20485f53 	subcs	r5, r8, r3, asr pc
    7418:	635f5f00 	cmpvs	pc, #0, 30
    741c:	74736e6f 	ldrbtvc	r6, [r3], #-3695	; 0xfffff191
    7420:	6e6f6320 	cdpvs	3, 6, cr6, cr15, cr0, {1}
    7424:	55007473 	strpl	r7, [r0, #-1139]	; 0xfffffb8d
    7428:	5f544e49 	svcpl	0x00544e49
    742c:	5341454c 	movtpl	r4, #5452	; 0x154c
    7430:	5f323354 	svcpl	0x00323354
    7434:	2058414d 	subscs	r4, r8, sp, asr #2
    7438:	555f5f28 	ldrbpl	r5, [pc, #-3880]	; 6518 <_Min_Stack_Size+0x6118>
    743c:	5f544e49 	svcpl	0x00544e49
    7440:	5341454c 	movtpl	r4, #5452	; 0x154c
    7444:	5f323354 	svcpl	0x00323354
    7448:	5f58414d 	svcpl	0x0058414d
    744c:	4700295f 	smlsdmi	r0, pc, r9, r2	; <UNPREDICTABLE>
    7450:	5f4f4950 	svcpl	0x004f4950
    7454:	006e6950 	rsbeq	r6, lr, r0, asr r9
    7458:	4f435f5f 	svcmi	0x00435f5f
    745c:	49525950 	ldmdbmi	r2, {r4, r6, r8, fp, ip, lr}^
    7460:	28544847 	ldmdacs	r4, {r0, r1, r2, r6, fp, lr}^
    7464:	73202973 			; <UNDEFINED> instruction: 0x73202973
    7468:	63757274 	cmnvs	r5, #116, 4	; 0x40000007
    746c:	5f5f2074 	svcpl	0x005f2074
    7470:	6b636168 	blvs	18dfa18 <_Min_Stack_Size+0x18df618>
    7474:	49504700 	ldmdbmi	r0, {r8, r9, sl, lr}^
    7478:	425f414f 	subsmi	r4, pc, #-1073741805	; 0xc0000013
    747c:	20455341 	subcs	r5, r5, r1, asr #6
    7480:	30347830 	eorscc	r7, r4, r0, lsr r8
    7484:	38303130 	ldmdacc	r0!, {r4, r5, r8, ip, sp}
    7488:	4c553030 	mrrcmi	0, 3, r3, r5, cr0
    748c:	535f5f00 	cmppl	pc, #0, 30
    7490:	55434341 	strbpl	r4, [r3, #-833]	; 0xfffffcbf
    7494:	414d5f4d 	cmpmi	sp, sp, asr #30
    7498:	205f5f58 	subscs	r5, pc, r8, asr pc	; <UNPREDICTABLE>
    749c:	46375830 			; <UNDEFINED> instruction: 0x46375830
    74a0:	2d504646 	ldclcs	6, cr4, [r0, #-280]	; 0xfffffee8
    74a4:	004b4837 	subeq	r4, fp, r7, lsr r8
    74a8:	4e495f5f 	mcrmi	15, 2, r5, cr9, cr15, {2}
    74ac:	52545054 	subspl	r5, r4, #84	; 0x54
    74b0:	5059545f 	subspl	r5, r9, pc, asr r4
    74b4:	205f5f45 	subscs	r5, pc, r5, asr #30
    74b8:	00746e69 	rsbseq	r6, r4, r9, ror #28
    74bc:	49545845 	ldmdbmi	r4, {r0, r2, r6, fp, ip, lr}^
    74c0:	52495f38 	subpl	r5, r9, #56, 30	; 0xe0
    74c4:	33322051 	teqcc	r2, #81	; 0x51
    74c8:	555f5f00 	ldrbpl	r5, [pc, #-3840]	; 65d0 <_Min_Stack_Size+0x61d0>
    74cc:	50544e49 	subspl	r4, r4, r9, asr #28
    74d0:	545f5254 	ldrbpl	r5, [pc], #-596	; 74d8 <_Min_Stack_Size+0x70d8>
    74d4:	5f455059 	svcpl	0x00455059
    74d8:	6e75205f 	mrcvs	0, 3, r2, cr5, cr15, {2}
    74dc:	6e676973 			; <UNDEFINED> instruction: 0x6e676973
    74e0:	69206465 	stmdbvs	r0!, {r0, r2, r5, r6, sl, sp, lr}
    74e4:	4500746e 	strmi	r7, [r0, #-1134]	; 0xfffffb92
    74e8:	37495458 	smlsldcc	r5, r9, r8, r4
    74ec:	20374250 	eorscs	r4, r7, r0, asr r2
    74f0:	54584528 	ldrbpl	r4, [r8], #-1320	; 0xfffffad8
    74f4:	50475f49 	subpl	r5, r7, r9, asr #30
    74f8:	4d5f4f49 	ldclmi	15, cr4, [pc, #-292]	; 73dc <_Min_Stack_Size+0x6fdc>
    74fc:	6e697061 	cdpvs	0, 6, cr7, cr9, cr1, {3}
    7500:	29745f67 	ldmdbcs	r4!, {r0, r1, r2, r5, r6, r8, r9, sl, fp, ip, lr}^
    7504:	5458457b 	ldrbpl	r4, [r8], #-1403	; 0xfffffa85
    7508:	472c3749 	strmi	r3, [ip, -r9, asr #14]!
    750c:	424f4950 	submi	r4, pc, #80, 18	; 0x140000
    7510:	4950472c 	ldmdbmi	r0, {r2, r3, r5, r8, r9, sl, lr}^
    7514:	49505f4f 	ldmdbmi	r0, {r0, r1, r2, r3, r6, r8, r9, sl, fp, ip, lr}^
    7518:	2c375f4e 	ldccs	15, cr5, [r7], #-312	; 0xfffffec8
    751c:	49545845 	ldmdbmi	r4, {r0, r2, r6, fp, ip, lr}^
    7520:	52495f37 	subpl	r5, r9, #55, 30	; 0xdc
    7524:	5f007d51 	svcpl	0x00007d51
    7528:	4745525f 	smlsldmi	r5, r5, pc, r2	; <UNPREDICTABLE>
    752c:	45545349 	ldrbmi	r5, [r4, #-841]	; 0xfffffcb7
    7530:	52505f52 	subspl	r5, r0, #328	; 0x148
    7534:	58494645 	stmdapl	r9, {r0, r2, r6, r9, sl, lr}^
    7538:	00205f5f 	eoreq	r5, r0, pc, asr pc
    753c:	4c465f5f 	mcrrmi	15, 5, r5, r6, cr15
    7540:	5f323354 	svcpl	0x00323354
    7544:	5f58414d 	svcpl	0x0058414d
    7548:	2e33205f 	mrccs	0, 1, r2, cr3, cr15, {2}
    754c:	38323034 	ldmdacc	r2!, {r2, r4, r5, ip, sp}
    7550:	36343332 			; <UNDEFINED> instruction: 0x36343332
    7554:	35383336 	ldrcc	r3, [r8, #-822]!	; 0xfffffcca
    7558:	36383832 			; <UNDEFINED> instruction: 0x36383832
    755c:	38332b65 	ldmdacc	r3!, {r0, r2, r5, r6, r8, r9, fp, sp}
    7560:	00323346 	eorseq	r3, r2, r6, asr #6
    7564:	42445f5f 	submi	r5, r4, #380	; 0x17c
    7568:	49445f4c 	stmdbmi	r4, {r2, r3, r6, r8, r9, sl, fp, ip, lr}^
    756c:	205f5f47 	subscs	r5, pc, r7, asr #30
    7570:	5f003531 	svcpl	0x00003531
    7574:	464c555f 			; <UNDEFINED> instruction: 0x464c555f
    7578:	54434152 	strbpl	r4, [r3], #-338	; 0xfffffeae
    757c:	5350455f 	cmppl	r0, #398458880	; 0x17c00000
    7580:	4e4f4c49 	cdpmi	12, 4, cr4, cr15, cr9, {2}
    7584:	30205f5f 	eorcc	r5, r0, pc, asr pc
    7588:	2d503178 	ldfcse	f3, [r0, #-480]	; 0xfffffe20
    758c:	4c553233 	lfmmi	f3, 2, [r5], {51}	; 0x33
    7590:	5f5f0052 	svcpl	0x005f0052
    7594:	49534352 	ldmdbmi	r3, {r1, r4, r6, r8, r9, lr}^
    7598:	29732844 	ldmdbcs	r3!, {r2, r6, fp, sp}^
    759c:	72747320 	rsbsvc	r7, r4, #32, 6	; 0x80000000
    75a0:	20746375 	rsbscs	r6, r4, r5, ror r3
    75a4:	61685f5f 	cmnvs	r8, pc, asr pc
    75a8:	45006b63 	strmi	r6, [r0, #-2915]	; 0xfffff49d
    75ac:	32495458 	subcc	r5, r9, #88, 8	; 0x58000000
    75b0:	20324450 	eorscs	r4, r2, r0, asr r4
    75b4:	54584528 	ldrbpl	r4, [r8], #-1320	; 0xfffffad8
    75b8:	50475f49 	subpl	r5, r7, r9, asr #30
    75bc:	4d5f4f49 	ldclmi	15, cr4, [pc, #-292]	; 74a0 <_Min_Stack_Size+0x70a0>
    75c0:	6e697061 	cdpvs	0, 6, cr7, cr9, cr1, {3}
    75c4:	29745f67 	ldmdbcs	r4!, {r0, r1, r2, r5, r6, r8, r9, sl, fp, ip, lr}^
    75c8:	5458457b 	ldrbpl	r4, [r8], #-1403	; 0xfffffa85
    75cc:	472c3249 	strmi	r3, [ip, -r9, asr #4]!
    75d0:	444f4950 	strbmi	r4, [pc], #-2384	; 75d8 <_Min_Stack_Size+0x71d8>
    75d4:	4950472c 	ldmdbmi	r0, {r2, r3, r5, r8, r9, sl, lr}^
    75d8:	49505f4f 	ldmdbmi	r0, {r0, r1, r2, r3, r6, r8, r9, sl, fp, ip, lr}^
    75dc:	2c325f4e 	ldccs	15, cr5, [r2], #-312	; 0xfffffec8
    75e0:	49545845 	ldmdbmi	r4, {r0, r2, r6, fp, ip, lr}^
    75e4:	52495f32 	subpl	r5, r9, #50, 30	; 0xc8
    75e8:	5f007d51 	svcpl	0x00007d51
    75ec:	4e454552 	mcrmi	5, 2, r4, cr5, cr2, {2}
    75f0:	364c5f54 			; <UNDEFINED> instruction: 0x364c5f54
    75f4:	425f4134 	subsmi	r4, pc, #52, 2
    75f8:	70284655 	eorvc	r4, r8, r5, asr r6
    75fc:	20297274 	eorcs	r7, r9, r4, ror r2
    7600:	74702828 	ldrbtvc	r2, [r0], #-2088	; 0xfffff7d8
    7604:	3e2d2972 			; <UNDEFINED> instruction: 0x3e2d2972
    7608:	73696d5f 	cmnvc	r9, #6080	; 0x17c0
    760c:	5f3e2d63 	svcpl	0x003e2d63
    7610:	6134366c 	teqvs	r4, ip, ror #12
    7614:	6675625f 			; <UNDEFINED> instruction: 0x6675625f
    7618:	5f5f0029 	svcpl	0x005f0029
    761c:	455a4953 	ldrbmi	r4, [sl, #-2387]	; 0xfffff6ad
    7620:	535f464f 	cmppl	pc, #82837504	; 0x4f00000
    7624:	5f455a49 	svcpl	0x00455a49
    7628:	205f5f54 	subscs	r5, pc, r4, asr pc	; <UNPREDICTABLE>
    762c:	5f5f0034 	svcpl	0x005f0034
    7630:	6b636f6c 	blvs	18e33e8 <_Min_Stack_Size+0x18e2fe8>
    7634:	6f6c635f 	svcvs	0x006c635f
    7638:	725f6573 	subsvc	r6, pc, #482344960	; 0x1cc00000
    763c:	72756365 	rsbsvc	r6, r5, #-1811939327	; 0x94000001
    7640:	65766973 	ldrbvs	r6, [r6, #-2419]!	; 0xfffff68d
    7644:	636f6c28 	cmnvs	pc, #40, 24	; 0x2800
    7648:	2820296b 	stmdacs	r0!, {r0, r1, r3, r5, r6, r8, fp, sp}
    764c:	696f7628 	stmdbvs	pc!, {r3, r5, r9, sl, ip, sp, lr}^	; <UNPREDICTABLE>
    7650:	30202964 	eorcc	r2, r0, r4, ror #18
    7654:	5f5f0029 	svcpl	0x005f0029
    7658:	544e4955 	strbpl	r4, [lr], #-2389	; 0xfffff6ab
    765c:	545f3436 	ldrbpl	r3, [pc], #-1078	; 7664 <_Min_Stack_Size+0x7264>
    7660:	5f455059 	svcpl	0x00455059
    7664:	6f6c205f 	svcvs	0x006c205f
    7668:	6c20676e 	stcvs	7, cr6, [r0], #-440	; 0xfffffe48
    766c:	20676e6f 	rsbcs	r6, r7, pc, ror #28
    7670:	69736e75 	ldmdbvs	r3!, {r0, r2, r4, r5, r6, r9, sl, fp, sp, lr}^
    7674:	64656e67 	strbtvs	r6, [r5], #-3687	; 0xfffff199
    7678:	746e6920 	strbtvc	r6, [lr], #-2336	; 0xfffff6e0
    767c:	445f5f00 	ldrbmi	r5, [pc], #-3840	; 7684 <_Min_Stack_Size+0x7284>
    7680:	32314345 	eorscc	r4, r1, #335544321	; 0x14000001
    7684:	494d5f38 	stmdbmi	sp, {r3, r4, r5, r8, r9, sl, fp, ip, lr}^
    7688:	205f5f4e 	subscs	r5, pc, lr, asr #30
    768c:	362d4531 			; <UNDEFINED> instruction: 0x362d4531
    7690:	44333431 	ldrtmi	r3, [r3], #-1073	; 0xfffffbcf
    7694:	5f5f004c 	svcpl	0x005f004c
    7698:	36544e49 	ldrbcc	r4, [r4], -r9, asr #28
    769c:	28435f34 	stmdacs	r3, {r2, r4, r5, r8, r9, sl, fp, ip, lr}^
    76a0:	63202963 			; <UNDEFINED> instruction: 0x63202963
    76a4:	20232320 	eorcs	r2, r3, r0, lsr #6
    76a8:	48004c4c 	stmdami	r0, {r2, r3, r6, sl, fp, lr}
    76ac:	5f455641 	svcpl	0x00455641
    76b0:	54494e49 	strbpl	r4, [r9], #-3657	; 0xfffff1b7
    76b4:	494e4946 	stmdbmi	lr, {r1, r2, r6, r8, fp, lr}^
    76b8:	5252415f 	subspl	r4, r2, #-1073741801	; 0xc0000017
    76bc:	31205941 			; <UNDEFINED> instruction: 0x31205941
    76c0:	6c5f5f00 	mrrcvs	15, 0, r5, pc, cr0	; <UNPREDICTABLE>
    76c4:	616b636f 	cmnvs	fp, pc, ror #6
    76c8:	20656c62 	rsbcs	r6, r5, r2, ror #24
    76cc:	6f6c5f5f 	svcvs	0x006c5f5f
    76d0:	615f6b63 	cmpvs	pc, r3, ror #22
    76d4:	746f6e6e 	strbtvc	r6, [pc], #-3694	; 76dc <_Min_Stack_Size+0x72dc>
    76d8:	28657461 	stmdacs	r5!, {r0, r5, r6, sl, ip, sp, lr}^
    76dc:	6b636f6c 	blvs	18e3494 <_Min_Stack_Size+0x18e3094>
    76e0:	656c6261 	strbvs	r6, [ip, #-609]!	; 0xfffffd9f
    76e4:	75430029 	strbvc	r0, [r3, #-41]	; 0xffffffd7
    76e8:	726f7372 	rsbvc	r7, pc, #-939524095	; 0xc8000001
    76ec:	2046464f 	subcs	r4, r6, pc, asr #12
    76f0:	63307830 	teqvs	r0, #48, 16	; 0x300000
    76f4:	455f5f00 	ldrbmi	r5, [pc, #-3840]	; 67fc <_Min_Stack_Size+0x63fc>
    76f8:	445f444e 	ldrbmi	r4, [pc], #-1102	; 7700 <_Min_Stack_Size+0x7300>
    76fc:	534c4345 	movtpl	r4, #49989	; 0xc345
    7700:	58450020 	stmdapl	r5, {r5}^
    7704:	50344954 	eorspl	r4, r4, r4, asr r9
    7708:	28203443 	stmdacs	r0!, {r0, r1, r6, sl, ip, sp}
    770c:	49545845 	ldmdbmi	r4, {r0, r2, r6, fp, ip, lr}^
    7710:	4950475f 	ldmdbmi	r0, {r0, r1, r2, r3, r4, r6, r8, r9, sl, lr}^
    7714:	614d5f4f 	cmpvs	sp, pc, asr #30
    7718:	676e6970 			; <UNDEFINED> instruction: 0x676e6970
    771c:	7b29745f 	blvc	a648a0 <_Min_Stack_Size+0xa644a0>
    7720:	49545845 	ldmdbmi	r4, {r0, r2, r6, fp, ip, lr}^
    7724:	50472c34 	subpl	r2, r7, r4, lsr ip
    7728:	2c434f49 	mcrrcs	15, 4, r4, r3, cr9
    772c:	4f495047 	svcmi	0x00495047
    7730:	4e49505f 	mcrmi	0, 2, r5, cr9, cr15, {2}
    7734:	452c345f 	strmi	r3, [ip, #-1119]!	; 0xfffffba1
    7738:	34495458 	strbcc	r5, [r9], #-1112	; 0xfffffba8
    773c:	5152495f 	cmppl	r2, pc, asr r9
    7740:	5f5f007d 	svcpl	0x005f007d
    7744:	4c42444c 	cfstrdmi	mvd4, [r2], {76}	; 0x4c
    7748:	4e494d5f 	mcrmi	13, 2, r4, cr9, cr15, {2}
    774c:	32205f5f 	eorcc	r5, r0, #380	; 0x17c
    7750:	3532322e 	ldrcc	r3, [r2, #-558]!	; 0xfffffdd2
    7754:	38333730 	ldmdacc	r3!, {r4, r5, r8, r9, sl, ip, sp}
    7758:	30353835 	eorscc	r3, r5, r5, lsr r8
    775c:	31303237 	teqcc	r0, r7, lsr r2
    7760:	332d6534 			; <UNDEFINED> instruction: 0x332d6534
    7764:	004c3830 	subeq	r3, ip, r0, lsr r8
    7768:	43415f5f 	movtmi	r5, #8031	; 0x1f5f
    776c:	5f4d5543 	svcpl	0x004d5543
    7770:	54494249 	strbpl	r4, [r9], #-585	; 0xfffffdb7
    7774:	31205f5f 			; <UNDEFINED> instruction: 0x31205f5f
    7778:	43520036 	cmpmi	r2, #54	; 0x36
    777c:	79545f43 	ldmdbvc	r4, {r0, r1, r6, r8, r9, sl, fp, ip, lr}^
    7780:	65446570 	strbvs	r6, [r4, #-1392]	; 0xfffffa90
    7784:	6e750066 	cdpvs	0, 7, cr0, cr5, cr6, {3}
    7788:	6e676973 			; <UNDEFINED> instruction: 0x6e676973
    778c:	41006465 	tstmi	r0, r5, ror #8
    7790:	5f4f4946 	svcpl	0x004f4946
    7794:	45534142 	ldrbmi	r4, [r3, #-322]	; 0xfffffebe
    7798:	34783020 	ldrbtcc	r3, [r8], #-32	; 0xffffffe0
    779c:	30313030 	eorscc	r3, r1, r0, lsr r0
    77a0:	55303030 	ldrpl	r3, [r0, #-48]!	; 0xffffffd0
    77a4:	6d5f004c 	ldclvs	0, cr0, [pc, #-304]	; 767c <_Min_Stack_Size+0x727c>
    77a8:	6e656c62 	cdpvs	12, 6, cr6, cr5, cr2, {3}
    77ac:	6174735f 	cmnvs	r4, pc, asr r3
    77b0:	5f006574 	svcpl	0x00006574
    77b4:	7361685f 	cmnvc	r1, #6225920	; 0x5f0000
    77b8:	6975625f 	ldmdbvs	r5!, {r0, r1, r2, r3, r4, r6, r9, sp, lr}^
    77bc:	6e69746c 	cdpvs	4, 6, cr7, cr9, cr12, {3}
    77c0:	20297828 	eorcs	r7, r9, r8, lsr #16
    77c4:	5f5f0030 	svcpl	0x005f0030
    77c8:	675f7470 			; <UNDEFINED> instruction: 0x675f7470
    77cc:	64726175 	ldrbtvs	r6, [r2], #-373	; 0xfffffe8b
    77d0:	625f6465 	subsvs	r6, pc, #1694498816	; 0x65000000
    77d4:	29782879 	ldmdbcs	r8!, {r0, r3, r4, r5, r6, fp, sp}^
    77d8:	6c5f5f20 	mrrcvs	15, 2, r5, pc, cr0	; <UNPREDICTABLE>
    77dc:	5f6b636f 	svcpl	0x006b636f
    77e0:	6f6e6e61 	svcvs	0x006e6e61
    77e4:	65746174 	ldrbvs	r6, [r4, #-372]!	; 0xfffffe8c
    77e8:	5f747028 	svcpl	0x00747028
    77ec:	72617567 	rsbvc	r7, r1, #432013312	; 0x19c00000
    77f0:	5f646564 	svcpl	0x00646564
    77f4:	78287962 	stmdavc	r8!, {r1, r5, r6, r8, fp, ip, sp, lr}
    77f8:	5f002929 	svcpl	0x00002929
    77fc:	6175675f 	cmnvs	r5, pc, asr r7
    7800:	64656472 	strbtvs	r6, [r5], #-1138	; 0xfffffb8e
    7804:	2879625f 	ldmdacs	r9!, {r0, r1, r2, r3, r4, r6, r9, sp, lr}^
    7808:	5f202978 	svcpl	0x00202978
    780c:	636f6c5f 	cmnvs	pc, #24320	; 0x5f00
    7810:	6e615f6b 	cdpvs	15, 6, cr5, cr1, cr11, {3}
    7814:	61746f6e 	cmnvs	r4, lr, ror #30
    7818:	67286574 			; <UNDEFINED> instruction: 0x67286574
    781c:	64726175 	ldrbtvs	r6, [r2], #-373	; 0xfffffe8b
    7820:	625f6465 	subsvs	r6, pc, #1694498816	; 0x65000000
    7824:	29782879 	ldmdbcs	r8!, {r0, r3, r4, r5, r6, fp, sp}^
    7828:	58450029 	stmdapl	r5, {r0, r3, r5}^
    782c:	32314954 	eorscc	r4, r1, #84, 18	; 0x150000
    7830:	5152495f 	cmppl	r2, pc, asr r9
    7834:	00303420 	eorseq	r3, r0, r0, lsr #8
    7838:	4e475f5f 	mcrmi	15, 2, r5, cr7, cr15, {2}
    783c:	494c4355 	stmdbmi	ip, {r0, r2, r4, r6, r8, r9, lr}^
    7840:	5f5f454b 	svcpl	0x005f454b
    7844:	46464f5f 			; <UNDEFINED> instruction: 0x46464f5f
    7848:	4f544553 	svcmi	0x00544553
    784c:	00312046 	eorseq	r2, r1, r6, asr #32
    7850:	49555f5f 	ldmdbmi	r5, {r0, r1, r2, r3, r4, r6, r8, r9, sl, fp, ip, lr}^
    7854:	3631544e 	ldrtcc	r5, [r1], -lr, asr #8
    7858:	6328435f 			; <UNDEFINED> instruction: 0x6328435f
    785c:	00632029 	rsbeq	r2, r3, r9, lsr #32
    7860:	79735f5f 	ldmdbvc	r3!, {r0, r1, r2, r3, r4, r6, r8, r9, sl, fp, ip, lr}^
    7864:	6f635f6d 	svcvs	0x00635f6d
    7868:	7461706d 	strbtvc	r7, [r1], #-109	; 0xffffff93
    786c:	6d797328 	ldclvs	3, cr7, [r9, #-160]!	; 0xffffff60
    7870:	706d692c 	rsbvc	r6, sp, ip, lsr #18
    7874:	65762c6c 	ldrbvs	r2, [r6, #-3180]!	; 0xfffff394
    7878:	29646972 	stmdbcs	r4!, {r1, r4, r5, r6, r8, fp, sp, lr}^
    787c:	615f5f20 	cmpvs	pc, r0, lsr #30
    7880:	5f5f6d73 	svcpl	0x005f6d73
    7884:	732e2228 			; <UNDEFINED> instruction: 0x732e2228
    7888:	65766d79 	ldrbvs	r6, [r6, #-3449]!	; 0xfffff287
    788c:	20222072 	eorcs	r2, r2, r2, ror r0
    7890:	706d6923 	rsbvc	r6, sp, r3, lsr #18
    7894:	2c22206c 	stccs	0, cr2, [r2], #-432	; 0xfffffe50
    7898:	23202220 			; <UNDEFINED> instruction: 0x23202220
    789c:	206d7973 	rsbcs	r7, sp, r3, ror r9
    78a0:	20224022 	eorcs	r4, r2, r2, lsr #32
    78a4:	72657623 	rsbvc	r7, r5, #36700160	; 0x2300000
    78a8:	00296469 	eoreq	r6, r9, r9, ror #8
    78ac:	43435f5f 	movtmi	r5, #16223	; 0x3f5f
    78b0:	5055535f 	subspl	r5, r5, pc, asr r3
    78b4:	54524f50 	ldrbpl	r4, [r2], #-3920	; 0xfffff0b0
    78b8:	5f5f5f53 	svcpl	0x005f5f53
    78bc:	494c4e49 	stmdbmi	ip, {r0, r3, r6, r9, sl, fp, lr}^
    78c0:	5f5f454e 	svcpl	0x005f454e
    78c4:	5f003120 	svcpl	0x00003120
    78c8:	4144555f 	cmpmi	r4, pc, asr r5
    78cc:	4942495f 	stmdbmi	r2, {r0, r1, r2, r3, r4, r6, r8, fp, lr}^
    78d0:	205f5f54 	subscs	r5, pc, r4, asr pc	; <UNPREDICTABLE>
    78d4:	5f003233 	svcpl	0x00003233
    78d8:	41454c5f 	cmpmi	r5, pc, asr ip
    78dc:	36315453 			; <UNDEFINED> instruction: 0x36315453
    78e0:	22682220 	rsbcs	r2, r8, #32, 4
    78e4:	705f5f00 	subsvc	r5, pc, r0, lsl #30
    78e8:	746e6972 	strbtvc	r6, [lr], #-2418	; 0xfffff68e
    78ec:	6b696c66 	blvs	1a62a8c <_Min_Stack_Size+0x1a6268c>
    78f0:	6d662865 	stclvs	8, cr2, [r6, #-404]!	; 0xfffffe6c
    78f4:	67726174 			; <UNDEFINED> instruction: 0x67726174
    78f8:	7269662c 	rsbvc	r6, r9, #44, 12	; 0x2c00000
    78fc:	61767473 	cmnvs	r6, r3, ror r4
    7900:	67726172 			; <UNDEFINED> instruction: 0x67726172
    7904:	5f5f2029 	svcpl	0x005f2029
    7908:	72747461 	rsbsvc	r7, r4, #1627389952	; 0x61000000
    790c:	74756269 	ldrbtvc	r6, [r5], #-617	; 0xfffffd97
    7910:	285f5f65 	ldmdacs	pc, {r0, r2, r5, r6, r8, r9, sl, fp, ip, lr}^	; <UNPREDICTABLE>
    7914:	665f5f28 	ldrbvs	r5, [pc], -r8, lsr #30
    7918:	616d726f 	cmnvs	sp, pc, ror #4
    791c:	205f5f74 	subscs	r5, pc, r4, ror pc	; <UNPREDICTABLE>
    7920:	705f5f28 	subsvc	r5, pc, r8, lsr #30
    7924:	746e6972 	strbtvc	r6, [lr], #-2418	; 0xfffff68e
    7928:	2c5f5f66 	mrrccs	15, 6, r5, pc, cr6	; <UNPREDICTABLE>
    792c:	746d6620 	strbtvc	r6, [sp], #-1568	; 0xfffff9e0
    7930:	2c677261 	sfmcs	f7, 2, [r7], #-388	; 0xfffffe7c
    7934:	72696620 	rsbvc	r6, r9, #32, 12	; 0x2000000
    7938:	61767473 	cmnvs	r6, r3, ror r4
    793c:	67726172 			; <UNDEFINED> instruction: 0x67726172
    7940:	00292929 	eoreq	r2, r9, r9, lsr #18
    7944:	4f4e5f5f 	svcmi	0x004e5f5f
    7948:	4c4e495f 	mcrrmi	9, 5, r4, lr, cr15	; <UNPREDICTABLE>
    794c:	5f454e49 	svcpl	0x00454e49
    7950:	0031205f 	eorseq	r2, r1, pc, asr r0
    7954:	61665f5f 	cmnvs	r6, pc, asr pc
    7958:	61637473 	smcvs	14147	; 0x3743
    795c:	5f206c6c 	svcpl	0x00206c6c
    7960:	7474615f 	ldrbtvc	r6, [r4], #-351	; 0xfffffea1
    7964:	75626972 	strbvc	r6, [r2, #-2418]!	; 0xfffff68e
    7968:	5f5f6574 	svcpl	0x005f6574
    796c:	5f5f2828 	svcpl	0x005f2828
    7970:	74736166 	ldrbtvc	r6, [r3], #-358	; 0xfffffe9a
    7974:	6c6c6163 	stfvse	f6, [ip], #-396	; 0xfffffe74
    7978:	29295f5f 	stmdbcs	r9!, {r0, r1, r2, r3, r4, r6, r8, r9, sl, fp, ip, lr}
    797c:	544e4900 	strbpl	r4, [lr], #-2304	; 0xfffff700
    7980:	4d5f3436 	cfldrdmi	mvd3, [pc, #-216]	; 78b0 <_Min_Stack_Size+0x74b0>
    7984:	28204e49 	stmdacs	r0!, {r0, r3, r6, r9, sl, fp, lr}
    7988:	495f5f2d 	ldmdbmi	pc, {r0, r2, r3, r5, r8, r9, sl, fp, ip, lr}^	; <UNPREDICTABLE>
    798c:	3436544e 	ldrtcc	r5, [r6], #-1102	; 0xfffffbb2
    7990:	58414d5f 	stmdapl	r1, {r0, r1, r2, r3, r4, r6, r8, sl, fp, lr}^
    7994:	2d205f5f 	stccs	15, cr5, [r0, #-380]!	; 0xfffffe84
    7998:	00293120 	eoreq	r3, r9, r0, lsr #2
    799c:	6f6c5f5f 	svcvs	0x006c5f5f
    79a0:	615f6b63 	cmpvs	pc, r3, ror #22
    79a4:	746f6e6e 	strbtvc	r6, [pc], #-3694	; 79ac <_Min_Stack_Size+0x75ac>
    79a8:	28657461 	stmdacs	r5!, {r0, r5, r6, sl, ip, sp, lr}^
    79ac:	00202978 	eoreq	r2, r0, r8, ror r9
    79b0:	54494c5f 	strbpl	r4, [r9], #-3167	; 0xfffff3a1
    79b4:	58455f45 	stmdapl	r5, {r0, r2, r6, r8, r9, sl, fp, ip, lr}^
    79b8:	31205449 			; <UNDEFINED> instruction: 0x31205449
    79bc:	415f5f00 	cmpmi	pc, r0, lsl #30
    79c0:	494d4f54 	stmdbmi	sp, {r2, r4, r6, r8, r9, sl, fp, lr}^
    79c4:	45525f43 	ldrbmi	r5, [r2, #-3907]	; 0xfffff0bd
    79c8:	4558414c 	ldrbmi	r4, [r8, #-332]	; 0xfffffeb4
    79cc:	00302044 	eorseq	r2, r0, r4, asr #32
    79d0:	5454415f 	ldrbpl	r4, [r4], #-351	; 0xfffffea1
    79d4:	55424952 	strbpl	r4, [r2, #-2386]	; 0xfffff6ae
    79d8:	61284554 			; <UNDEFINED> instruction: 0x61284554
    79dc:	73727474 	cmnvc	r2, #116, 8	; 0x74000000
    79e0:	5f5f2029 	svcpl	0x005f2029
    79e4:	72747461 	rsbsvc	r7, r4, #1627389952	; 0x61000000
    79e8:	74756269 	ldrbtvc	r6, [r5], #-617	; 0xfffffd97
    79ec:	205f5f65 	subscs	r5, pc, r5, ror #30
    79f0:	74746128 	ldrbtvc	r6, [r4], #-296	; 0xfffffed8
    79f4:	00297372 	eoreq	r7, r9, r2, ror r3
    79f8:	41465f5f 	cmpmi	r6, pc, asr pc
    79fc:	20385453 	eorscs	r5, r8, r3, asr r4
    7a00:	415f5f00 	cmpmi	pc, r0, lsl #30
    7a04:	49525454 	ldmdbmi	r2, {r2, r4, r6, sl, ip, lr}^
    7a08:	45545542 	ldrbmi	r5, [r4, #-1346]	; 0xfffffabe
    7a0c:	504d495f 	subpl	r4, sp, pc, asr r9
    7a10:	5f455255 	svcpl	0x00455255
    7a14:	5f525450 	svcpl	0x00525450
    7a18:	5f00205f 	svcpl	0x0000205f
    7a1c:	4c42445f 	cfstrdmi	mvd4, [r2], {95}	; 0x5f
    7a20:	5341485f 	movtpl	r4, #6239	; 0x185f
    7a24:	464e495f 			; <UNDEFINED> instruction: 0x464e495f
    7a28:	54494e49 	strbpl	r4, [r9], #-3657	; 0xfffff1b7
    7a2c:	205f5f59 	subscs	r5, pc, r9, asr pc	; <UNPREDICTABLE>
    7a30:	5f5f0031 	svcpl	0x005f0031
    7a34:	5f474953 	svcpl	0x00474953
    7a38:	4d4f5441 	cfstrdmi	mvd5, [pc, #-260]	; 793c <_Min_Stack_Size+0x753c>
    7a3c:	4d5f4349 	ldclmi	3, cr4, [pc, #-292]	; 7920 <_Min_Stack_Size+0x7520>
    7a40:	5f5f5841 	svcpl	0x005f5841
    7a44:	37783020 	ldrbcc	r3, [r8, -r0, lsr #32]!
    7a48:	66666666 	strbtvs	r6, [r6], -r6, ror #12
    7a4c:	00666666 	rsbeq	r6, r6, r6, ror #12
    7a50:	4c465f5f 	mcrrmi	15, 5, r5, r6, cr15
    7a54:	5f343654 	svcpl	0x00343654
    7a58:	544e414d 	strbpl	r4, [lr], #-333	; 0xfffffeb3
    7a5c:	4749445f 	smlsldmi	r4, r9, pc, r4	; <UNPREDICTABLE>
    7a60:	35205f5f 	strcc	r5, [r0, #-3935]!	; 0xfffff0a1
    7a64:	525f0033 	subspl	r0, pc, #51	; 0x33
    7a68:	544e4545 	strbpl	r4, [lr], #-1349	; 0xfffffabb
    7a6c:	4548435f 	strbmi	r4, [r8, #-863]	; 0xfffffca1
    7a70:	525f4b43 	subspl	r4, pc, #68608	; 0x10c00
    7a74:	34444e41 	strbcc	r4, [r4], #-3649	; 0xfffff1bf
    7a78:	61762838 	cmnvs	r6, r8, lsr r8
    7a7c:	5f202972 	svcpl	0x00202972
    7a80:	4e454552 	mcrmi	5, 2, r4, cr5, cr2, {2}
    7a84:	48435f54 	stmdami	r3, {r2, r4, r6, r8, r9, sl, fp, ip, lr}^
    7a88:	284b4345 	stmdacs	fp, {r0, r2, r6, r8, r9, lr}^
    7a8c:	2c726176 	ldfcse	f6, [r2], #-472	; 0xfffffe28
    7a90:	34725f20 	ldrbtcc	r5, [r2], #-3872	; 0xfffff0e0
    7a94:	73202c38 			; <UNDEFINED> instruction: 0x73202c38
    7a98:	63757274 	cmnvs	r5, #116, 4	; 0x40000007
    7a9c:	725f2074 	subsvc	r2, pc, #116	; 0x74
    7aa0:	34646e61 	strbtcc	r6, [r4], #-3681	; 0xfffff19f
    7aa4:	2c2a2038 	stccs	0, cr2, [sl], #-224	; 0xffffff20
    7aa8:	7a697320 	bvc	1a64730 <_Min_Stack_Size+0x1a64330>
    7aac:	20666f65 	rsbcs	r6, r6, r5, ror #30
    7ab0:	7628282a 	strtvc	r2, [r8], -sl, lsr #16
    7ab4:	2d297261 	sfmcs	f7, 4, [r9, #-388]!	; 0xfffffe7c
    7ab8:	34725f3e 	ldrbtcc	r5, [r2], #-3902	; 0xfffff0c2
    7abc:	202c2938 	eorcs	r2, ip, r8, lsr r9
    7ac0:	4545525f 	strbmi	r5, [r5, #-607]	; 0xfffffda1
    7ac4:	495f544e 	ldmdbmi	pc, {r1, r2, r3, r6, sl, ip, lr}^	; <UNPREDICTABLE>
    7ac8:	5f54494e 	svcpl	0x0054494e
    7acc:	444e4152 	strbmi	r4, [lr], #-338	; 0xfffffeae
    7ad0:	28283834 	stmdacs	r8!, {r2, r4, r5, fp, ip, sp}
    7ad4:	29726176 	ldmdbcs	r2!, {r1, r2, r4, r5, r6, r8, sp, lr}^
    7ad8:	48002929 	stmdami	r0, {r0, r3, r5, r8, fp, sp}
    7adc:	4c5f4c41 	mrrcmi	12, 4, r4, pc, cr1	; <UNPREDICTABLE>
    7ae0:	4c5f4443 	cfldrdmi	mvd4, [pc], {67}	; 0x43
    7ae4:	485f4443 	ldmdami	pc, {r0, r1, r6, sl, lr}^	; <UNPREDICTABLE>
    7ae8:	4500205f 	strmi	r2, [r0, #-95]	; 0xffffffa1
    7aec:	37495458 	smlsldcc	r5, r9, r8, r4
    7af0:	5152495f 	cmppl	r2, pc, asr r9
    7af4:	00333220 	eorseq	r3, r3, r0, lsr #4
    7af8:	61725f5f 	cmnvs	r2, pc, asr pc
    7afc:	6f65676e 	svcvs	0x0065676e
    7b00:	79742866 	ldmdbvc	r4!, {r1, r2, r5, r6, fp, sp}^
    7b04:	732c6570 			; <UNDEFINED> instruction: 0x732c6570
    7b08:	74726174 	ldrbtvc	r6, [r2], #-372	; 0xfffffe8c
    7b0c:	646e652c 	strbtvs	r6, [lr], #-1324	; 0xfffffad4
    7b10:	5f282029 	svcpl	0x00282029
    7b14:	66666f5f 	uqsaxvs	r6, r6, pc	; <UNPREDICTABLE>
    7b18:	6f746573 	svcvs	0x00746573
    7b1c:	79742866 	ldmdbvc	r4!, {r1, r2, r5, r6, fp, sp}^
    7b20:	202c6570 	eorcs	r6, ip, r0, ror r5
    7b24:	29646e65 	stmdbcs	r4!, {r0, r2, r5, r6, r9, sl, fp, sp, lr}^
    7b28:	5f202d20 	svcpl	0x00202d20
    7b2c:	66666f5f 	uqsaxvs	r6, r6, pc	; <UNPREDICTABLE>
    7b30:	6f746573 	svcvs	0x00746573
    7b34:	79742866 	ldmdbvc	r4!, {r1, r2, r5, r6, fp, sp}^
    7b38:	202c6570 	eorcs	r6, ip, r0, ror r5
    7b3c:	72617473 	rsbvc	r7, r1, #1929379840	; 0x73000000
    7b40:	00292974 	eoreq	r2, r9, r4, ror r9
    7b44:	6f627573 	svcvs	0x00627573
    7b48:	72617470 	rsbvc	r7, r1, #112, 8	; 0x70000000
    7b4c:	5f5f0067 	svcpl	0x005f0067
    7b50:	53455355 	movtpl	r5, #21333	; 0x5355
    7b54:	494e495f 	stmdbmi	lr, {r0, r1, r2, r3, r4, r6, r8, fp, lr}^
    7b58:	4e494654 	mcrmi	6, 2, r4, cr9, cr4, {2}
    7b5c:	205f5f49 	subscs	r5, pc, r9, asr #30
    7b60:	5f5f0031 	svcpl	0x005f0031
    7b64:	6b636f6c 	blvs	18e391c <_Min_Stack_Size+0x18e351c>
    7b68:	696e695f 	stmdbvs	lr!, {r0, r1, r2, r3, r4, r6, r8, fp, sp, lr}^
    7b6c:	6f6c2874 	svcvs	0x006c2874
    7b70:	20296b63 	eorcs	r6, r9, r3, ror #22
    7b74:	6f762828 	svcvs	0x00762828
    7b78:	20296469 	eorcs	r6, r9, r9, ror #8
    7b7c:	5f002930 	svcpl	0x00002930
    7b80:	4345445f 	movtmi	r4, #21599	; 0x545f
    7b84:	4d5f3436 	cfldrdmi	mvd3, [pc, #-216]	; 7ab4 <_Min_Stack_Size+0x76b4>
    7b88:	5f5f4e49 	svcpl	0x005f4e49
    7b8c:	2d453120 	stfcse	f3, [r5, #-128]	; 0xffffff80
    7b90:	44333833 	ldrtmi	r3, [r3], #-2099	; 0xfffff7cd
    7b94:	5f5f0044 	svcpl	0x005f0044
    7b98:	6465656e 	strbtvs	r6, [r5], #-1390	; 0xfffffa92
    7b9c:	7274705f 	rsbsvc	r7, r4, #95	; 0x5f
    7ba0:	66666964 	strbtvs	r6, [r6], -r4, ror #18
    7ba4:	5f00745f 	svcpl	0x0000745f
    7ba8:	464c555f 			; <UNDEFINED> instruction: 0x464c555f
    7bac:	54434152 	strbpl	r4, [r3], #-338	; 0xfffffeae
    7bb0:	58414d5f 	stmdapl	r1, {r0, r1, r2, r3, r4, r6, r8, sl, fp, lr}^
    7bb4:	30205f5f 	eorcc	r5, r0, pc, asr pc
    7bb8:	46464658 			; <UNDEFINED> instruction: 0x46464658
    7bbc:	46464646 	strbmi	r4, [r6], -r6, asr #12
    7bc0:	332d5046 			; <UNDEFINED> instruction: 0x332d5046
    7bc4:	524c5532 	subpl	r5, ip, #209715200	; 0xc800000
    7bc8:	445f5f00 	ldrbmi	r5, [pc], #-3840	; 7bd0 <_Min_Stack_Size+0x77d0>
    7bcc:	445f4c42 	ldrbmi	r4, [pc], #-3138	; 7bd4 <_Min_Stack_Size+0x77d4>
    7bd0:	4d494345 	stclmi	3, cr4, [r9, #-276]	; 0xfffffeec
    7bd4:	445f4c41 	ldrbmi	r4, [pc], #-3137	; 7bdc <_Min_Stack_Size+0x77dc>
    7bd8:	5f5f4749 	svcpl	0x005f4749
    7bdc:	00373120 	eorseq	r3, r7, r0, lsr #2
    7be0:	78616d5f 	stmdavc	r1!, {r0, r1, r2, r3, r4, r6, r8, sl, fp, sp, lr}^
    7be4:	00736477 	rsbseq	r6, r3, r7, ror r4
    7be8:	61685f5f 	cmnvs	r8, pc, asr pc
    7bec:	6c5f6576 	cfldr64vs	mvdx6, [pc], {118}	; 0x76
    7bf0:	33676e6f 	cmncc	r7, #1776	; 0x6f0
    7bf4:	00312032 	eorseq	r2, r1, r2, lsr r0
    7bf8:	5f544e49 	svcpl	0x00544e49
    7bfc:	5341454c 	movtpl	r4, #5452	; 0x154c
    7c00:	4d5f3854 	ldclmi	8, cr3, [pc, #-336]	; 7ab8 <_Min_Stack_Size+0x76b8>
    7c04:	28204e49 	stmdacs	r0!, {r0, r3, r6, r9, sl, fp, lr}
    7c08:	495f5f2d 	ldmdbmi	pc, {r0, r2, r3, r5, r8, r9, sl, fp, ip, lr}^	; <UNPREDICTABLE>
    7c0c:	4c5f544e 	cfldrdmi	mvd5, [pc], {78}	; 0x4e
    7c10:	54534145 	ldrbpl	r4, [r3], #-325	; 0xfffffebb
    7c14:	414d5f38 	cmpmi	sp, r8, lsr pc
    7c18:	205f5f58 	subscs	r5, pc, r8, asr pc	; <UNPREDICTABLE>
    7c1c:	2931202d 	ldmdbcs	r1!, {r0, r2, r3, r5, sp}
    7c20:	4c475f00 	mcrrmi	15, 0, r5, r7, cr0
    7c24:	4c41424f 	sfmmi	f4, 2, [r1], {79}	; 0x4f
    7c28:	4545525f 	strbmi	r5, [r5, #-607]	; 0xfffffda1
    7c2c:	5f20544e 	svcpl	0x0020544e
    7c30:	626f6c67 	rsbvs	r6, pc, #26368	; 0x6700
    7c34:	695f6c61 	ldmdbvs	pc, {r0, r5, r6, sl, fp, sp, lr}^	; <UNPREDICTABLE>
    7c38:	7275706d 	rsbsvc	r7, r5, #109	; 0x6d
    7c3c:	74705f65 	ldrbtvc	r5, [r0], #-3941	; 0xfffff09b
    7c40:	4e5f0072 	mrcmi	0, 2, r0, cr15, cr2, {3}
    7c44:	204c4c55 	subcs	r4, ip, r5, asr ip
    7c48:	5f5f0030 	svcpl	0x005f0030
    7c4c:	78656c66 	stmdavc	r5!, {r1, r2, r5, r6, sl, fp, sp, lr}^
    7c50:	20727261 	rsbscs	r7, r2, r1, ror #4
    7c54:	005d305b 	subseq	r3, sp, fp, asr r0
    7c58:	6d745f5f 	ldclvs	15, cr5, [r4, #-380]!	; 0xfffffe84
    7c5c:	6165795f 	cmnvs	r5, pc, asr r9
    7c60:	48410072 	stmdami	r1, {r1, r4, r5, r6}^
    7c64:	524e4542 	subpl	r4, lr, #276824064	; 0x10800000
    7c68:	45525f00 	ldrbmi	r5, [r2, #-3840]	; 0xfffff100
    7c6c:	5f544e45 	svcpl	0x00544e45
    7c70:	54494e49 	strbpl	r4, [r9], #-3657	; 0xfffff1b7
    7c74:	5254505f 	subspl	r5, r4, #95	; 0x5f
    7c78:	52455a5f 	subpl	r5, r5, #389120	; 0x5f000
    7c7c:	2844454f 	stmdacs	r4, {r0, r1, r2, r3, r6, r8, sl, lr}^
    7c80:	29726176 	ldmdbcs	r2!, {r1, r2, r4, r5, r6, r8, sp, lr}^
    7c84:	28207b20 	stmdacs	r0!, {r5, r8, r9, fp, ip, sp, lr}
    7c88:	29726176 	ldmdbcs	r2!, {r1, r2, r4, r5, r6, r8, sp, lr}^
    7c8c:	735f3e2d 	cmpvc	pc, #720	; 0x2d0
    7c90:	6e696474 	mcrvs	4, 3, r6, cr9, cr4, {3}
    7c94:	28203d20 	stmdacs	r0!, {r5, r8, sl, fp, ip, sp}
    7c98:	49465f5f 	stmdbmi	r6, {r0, r1, r2, r3, r4, r6, r8, r9, sl, fp, ip, lr}^
    7c9c:	2a20454c 	bcs	8191d4 <_Min_Stack_Size+0x818dd4>
    7ca0:	5f5f2629 	svcpl	0x005f2629
    7ca4:	665f6673 			; <UNDEFINED> instruction: 0x665f6673
    7ca8:	5f656b61 	svcpl	0x00656b61
    7cac:	69647473 	stmdbvs	r4!, {r0, r1, r4, r5, r6, sl, ip, sp, lr}^
    7cb0:	28203b6e 	stmdacs	r0!, {r1, r2, r3, r5, r6, r8, r9, fp, ip, sp}
    7cb4:	29726176 	ldmdbcs	r2!, {r1, r2, r4, r5, r6, r8, sp, lr}^
    7cb8:	735f3e2d 	cmpvc	pc, #720	; 0x2d0
    7cbc:	756f6474 	strbvc	r6, [pc, #-1140]!	; 7850 <_Min_Stack_Size+0x7450>
    7cc0:	203d2074 	eorscs	r2, sp, r4, ror r0
    7cc4:	465f5f28 	ldrbmi	r5, [pc], -r8, lsr #30
    7cc8:	20454c49 	subcs	r4, r5, r9, asr #24
    7ccc:	5f26292a 	svcpl	0x0026292a
    7cd0:	5f66735f 	svcpl	0x0066735f
    7cd4:	656b6166 	strbvs	r6, [fp, #-358]!	; 0xfffffe9a
    7cd8:	6474735f 	ldrbtvs	r7, [r4], #-863	; 0xfffffca1
    7cdc:	3b74756f 	blcc	1d252a0 <_Min_Stack_Size+0x1d24ea0>
    7ce0:	61762820 	cmnvs	r6, r0, lsr #16
    7ce4:	3e2d2972 			; <UNDEFINED> instruction: 0x3e2d2972
    7ce8:	6474735f 	ldrbtvs	r7, [r4], #-863	; 0xfffffca1
    7cec:	20727265 	rsbscs	r7, r2, r5, ror #4
    7cf0:	5f28203d 	svcpl	0x0028203d
    7cf4:	4c49465f 	mcrrmi	6, 5, r4, r9, cr15
    7cf8:	292a2045 	stmdbcs	sl!, {r0, r2, r6, sp}
    7cfc:	735f5f26 	cmpvc	pc, #38, 30	; 0x98
    7d00:	61665f66 	cmnvs	r6, r6, ror #30
    7d04:	735f656b 	cmpvc	pc, #448790528	; 0x1ac00000
    7d08:	72656474 	rsbvc	r6, r5, #116, 8	; 0x74000000
    7d0c:	7d203b72 	vstmdbvc	r0!, {d3-<overflow reg d59>}
    7d10:	495f5f00 	ldmdbmi	pc, {r8, r9, sl, fp, ip, lr}^	; <UNPREDICTABLE>
    7d14:	3631544e 	ldrtcc	r5, [r1], -lr, asr #8
    7d18:	58414d5f 	stmdapl	r1, {r0, r1, r2, r3, r4, r6, r8, sl, fp, lr}^
    7d1c:	30205f5f 	eorcc	r5, r0, pc, asr pc
    7d20:	66663778 			; <UNDEFINED> instruction: 0x66663778
    7d24:	5f5f0066 	svcpl	0x005f0066
    7d28:	5f535953 	svcpl	0x00535953
    7d2c:	464e4f43 	strbmi	r4, [lr], -r3, asr #30
    7d30:	485f4749 	ldmdami	pc, {r0, r3, r6, r8, r9, sl, lr}^	; <UNPREDICTABLE>
    7d34:	00205f5f 	eoreq	r5, r0, pc, asr pc
    7d38:	4f495047 	svcmi	0x00495047
    7d3c:	4550535f 	ldrbmi	r5, [r0, #-863]	; 0xfffffca1
    7d40:	325f4445 	subscc	r4, pc, #1157627904	; 0x45000000
    7d44:	205a484d 	subscs	r4, sl, sp, asr #16
    7d48:	30307830 	eorscc	r7, r0, r0, lsr r8
    7d4c:	30303030 	eorscc	r3, r0, r0, lsr r0
    7d50:	00753230 	rsbseq	r3, r5, r0, lsr r2
    7d54:	45445f5f 	strbmi	r5, [r4, #-3935]	; 0xfffff0a1
    7d58:	414c4f56 	cmpmi	ip, r6, asr pc
    7d5c:	454c4954 	strbmi	r4, [ip, #-2388]	; 0xfffff6ac
    7d60:	70797428 	rsbsvc	r7, r9, r8, lsr #8
    7d64:	61762c65 	cmnvs	r6, r5, ror #24
    7d68:	28202972 	stmdacs	r0!, {r1, r4, r5, r6, r8, fp, sp}
    7d6c:	70797428 	rsbsvc	r7, r9, r8, lsr #8
    7d70:	5f282965 	svcpl	0x00282965
    7d74:	6e69755f 	mcrvs	5, 3, r7, cr9, cr15, {2}
    7d78:	72747074 	rsbsvc	r7, r4, #116	; 0x74
    7d7c:	2829745f 	stmdacs	r9!, {r0, r1, r2, r3, r4, r6, sl, ip, sp, lr}
    7d80:	616c6f76 	smcvs	50934	; 0xc6f6
    7d84:	656c6974 	strbvs	r6, [ip, #-2420]!	; 0xfffff68c
    7d88:	696f7620 	stmdbvs	pc!, {r5, r9, sl, ip, sp, lr}^	; <UNPREDICTABLE>
    7d8c:	292a2064 	stmdbcs	sl!, {r2, r5, r6, sp}
    7d90:	72617628 	rsbvc	r7, r1, #40, 12	; 0x2800000
    7d94:	47002929 	strmi	r2, [r0, -r9, lsr #18]
    7d98:	5f4f4950 	svcpl	0x004f4950
    7d9c:	5f4e4950 	svcpl	0x004e4950
    7da0:	28203531 	stmdacs	r0!, {r0, r4, r5, r8, sl, ip, sp}
    7da4:	6e697528 	cdpvs	5, 6, cr7, cr9, cr8, {1}
    7da8:	5f363174 	svcpl	0x00363174
    7dac:	78302974 	ldmdavc	r0!, {r2, r4, r5, r6, r8, fp, sp}
    7db0:	30303038 	eorscc	r3, r0, r8, lsr r0
    7db4:	564e0029 	strbpl	r0, [lr], -r9, lsr #32
    7db8:	495f4349 	ldmdbmi	pc, {r0, r3, r6, r8, r9, lr}^	; <UNPREDICTABLE>
    7dbc:	31524553 	cmpcc	r2, r3, asr r5
    7dc0:	76282a20 	strtvc	r2, [r8], -r0, lsr #20
    7dc4:	74616c6f 	strbtvc	r6, [r1], #-3183	; 0xfffff391
    7dc8:	20656c69 	rsbcs	r6, r5, r9, ror #24
    7dcc:	746e6975 	strbtvc	r6, [lr], #-2421	; 0xfffff68b
    7dd0:	745f3233 	ldrbvc	r3, [pc], #-563	; 7dd8 <_Min_Stack_Size+0x79d8>
    7dd4:	4e28292a 	vmulmi.f16	s4, s16, s21	; <UNPREDICTABLE>
    7dd8:	5f434956 	svcpl	0x00434956
    7ddc:	45534142 	ldrbmi	r4, [r3, #-322]	; 0xfffffebe
    7de0:	30202b20 	eorcc	r2, r0, r0, lsr #22
    7de4:	00293478 	eoreq	r3, r9, r8, ror r4
    7de8:	53535f5f 	cmppl	r3, #380	; 0x17c
    7dec:	4f465f50 	svcmi	0x00465f50
    7df0:	46495452 			; <UNDEFINED> instruction: 0x46495452
    7df4:	454c5f59 	strbmi	r5, [ip, #-3929]	; 0xfffff0a7
    7df8:	204c4556 	subcs	r4, ip, r6, asr r5
    7dfc:	5f5f0030 	svcpl	0x005f0030
    7e00:	43554e47 	cmpmi	r5, #1136	; 0x470
    7e04:	454b494c 	strbmi	r4, [fp, #-2380]	; 0xfffff6b4
    7e08:	4955425f 	ldmdbmi	r5, {r0, r1, r2, r3, r4, r6, r9, lr}^
    7e0c:	4e49544c 	cdpmi	4, 4, cr5, cr9, cr12, {2}
    7e10:	4454535f 	ldrbmi	r5, [r4], #-863	; 0xfffffca1
    7e14:	20475241 	subcs	r5, r7, r1, asr #4
    7e18:	5f5f0031 	svcpl	0x005f0031
    7e1c:	75736572 	ldrbvc	r6, [r3, #-1394]!	; 0xfffffa8e
    7e20:	755f746c 	ldrbvc	r7, [pc, #-1132]	; 79bc <_Min_Stack_Size+0x75bc>
    7e24:	635f6573 	cmpvs	pc, #482344960	; 0x1cc00000
    7e28:	6b636568 	blvs	18e13d0 <_Min_Stack_Size+0x18e0fd0>
    7e2c:	615f5f20 	cmpvs	pc, r0, lsr #30
    7e30:	69727474 	ldmdbvs	r2!, {r2, r4, r5, r6, sl, ip, sp, lr}^
    7e34:	65747562 	ldrbvs	r7, [r4, #-1378]!	; 0xfffffa9e
    7e38:	28285f5f 	stmdacs	r8!, {r0, r1, r2, r3, r4, r6, r8, r9, sl, fp, ip, lr}
    7e3c:	61775f5f 	cmnvs	r7, pc, asr pc
    7e40:	755f6e72 	ldrbvc	r6, [pc, #-3698]	; 6fd6 <_Min_Stack_Size+0x6bd6>
    7e44:	6573756e 	ldrbvs	r7, [r3, #-1390]!	; 0xfffffa92
    7e48:	65725f64 	ldrbvs	r5, [r2, #-3940]!	; 0xfffff09c
    7e4c:	746c7573 	strbtvc	r7, [ip], #-1395	; 0xfffffa8d
    7e50:	29295f5f 	stmdbcs	r9!, {r0, r1, r2, r3, r4, r6, r8, r9, sl, fp, ip, lr}
    7e54:	585f5f00 	ldmdapl	pc, {r8, r9, sl, fp, ip, lr}^	; <UNPREDICTABLE>
    7e58:	565f4953 			; <UNDEFINED> instruction: 0x565f4953
    7e5c:	42495349 	submi	r5, r9, #603979777	; 0x24000001
    7e60:	3020454c 	eorcc	r4, r0, ip, asr #10
    7e64:	54535f00 	ldrbpl	r5, [r3], #-3840	; 0xfffff100
    7e68:	42494c44 	submi	r4, r9, #68, 24	; 0x4400
    7e6c:	205f485f 	subscs	r4, pc, pc, asr r8	; <UNPREDICTABLE>
    7e70:	54584500 	ldrbpl	r4, [r8], #-1280	; 0xfffffb00
    7e74:	37203749 	strcc	r3, [r0, -r9, asr #14]!
    7e78:	52534200 	subspl	r4, r3, #0, 4
    7e7c:	37440052 	smlsldcc	r0, r4, r2, r0
    7e80:	49504720 	ldmdbmi	r0, {r5, r8, r9, sl, lr}^
    7e84:	49505f4f 	ldmdbmi	r0, {r0, r1, r2, r3, r6, r8, r9, sl, fp, ip, lr}^
    7e88:	00375f4e 	eorseq	r5, r7, lr, asr #30
    7e8c:	43475f5f 	movtmi	r5, #32607	; 0x7f5f
    7e90:	54415f43 	strbpl	r5, [r1], #-3907	; 0xfffff0bd
    7e94:	43494d4f 	movtmi	r4, #40271	; 0x9d4f
    7e98:	5345545f 	movtpl	r5, #21599	; 0x545f
    7e9c:	4e415f54 	mcrmi	15, 2, r5, cr1, cr4, {2}
    7ea0:	45535f44 	ldrbmi	r5, [r3, #-3908]	; 0xfffff0bc
    7ea4:	52545f54 	subspl	r5, r4, #84, 30	; 0x150
    7ea8:	41564555 	cmpmi	r6, r5, asr r5
    7eac:	0031204c 	eorseq	r2, r1, ip, asr #32
    7eb0:	41465f5f 	cmpmi	r6, pc, asr pc
    7eb4:	32335453 	eorscc	r5, r3, #1392508928	; 0x53000000
    7eb8:	5f5f0020 	svcpl	0x005f0020
    7ebc:	5f474953 	svcpl	0x00474953
    7ec0:	4d4f5441 	cfstrdmi	mvd5, [pc, #-260]	; 7dc4 <_Min_Stack_Size+0x79c4>
    7ec4:	575f4349 	ldrbpl	r4, [pc, -r9, asr #6]
    7ec8:	48544449 	ldmdami	r4, {r0, r3, r6, sl, lr}^
    7ecc:	33205f5f 			; <UNDEFINED> instruction: 0x33205f5f
    7ed0:	50470032 	subpl	r0, r7, r2, lsr r0
    7ed4:	4d5f4f49 	ldclmi	15, cr4, [pc, #-292]	; 7db8 <_Min_Stack_Size+0x79b8>
    7ed8:	5f45444f 	svcpl	0x0045444f
    7edc:	55504e49 	ldrbpl	r4, [r0, #-3657]	; 0xfffff1b7
    7ee0:	55505f54 	ldrbpl	r5, [r0, #-3924]	; 0xfffff0ac
    7ee4:	50554c4c 	subspl	r4, r5, ip, asr #24
    7ee8:	30783020 	rsbscc	r3, r8, r0, lsr #32
    7eec:	30303030 	eorscc	r3, r0, r0, lsr r0
    7ef0:	75323030 	ldrvc	r3, [r2, #-48]!	; 0xffffffd0
    7ef4:	45525f00 	ldrbmi	r5, [r2, #-3840]	; 0xfffff100
    7ef8:	5f544e45 	svcpl	0x00544e45
    7efc:	54494e49 	strbpl	r4, [r9], #-3657	; 0xfffff1b7
    7f00:	4554415f 	ldrbmi	r4, [r4, #-351]	; 0xfffffea1
    7f04:	20544958 	subscs	r4, r4, r8, asr r9
    7f08:	475f5f00 	ldrbmi	r5, [pc, -r0, lsl #30]
    7f0c:	5f43554e 	svcpl	0x0043554e
    7f10:	52455250 	subpl	r5, r5, #80, 4
    7f14:	5f5f5145 	svcpl	0x005f5145
    7f18:	2c616d28 	stclcs	13, cr6, [r1], #-160	; 0xffffff60
    7f1c:	2029696d 	eorcs	r6, r9, sp, ror #18
    7f20:	4e475f5f 	mcrmi	15, 2, r5, cr7, cr15, {2}
    7f24:	505f4355 	subspl	r4, pc, r5, asr r3	; <UNPREDICTABLE>
    7f28:	45524552 	ldrbmi	r4, [r2, #-1362]	; 0xfffffaae
    7f2c:	616d2851 	cmnvs	sp, r1, asr r8
    7f30:	696d202c 	stmdbvs	sp!, {r2, r3, r5, sp}^
    7f34:	5f5f0029 	svcpl	0x005f0029
    7f38:	5f415455 	svcpl	0x00415455
    7f3c:	54494249 	strbpl	r4, [r9], #-585	; 0xfffffdb7
    7f40:	36205f5f 	qsaxcc	r5, r0, pc	; <UNPREDICTABLE>
    7f44:	5f5f0034 	svcpl	0x005f0034
    7f48:	414c4c55 	cmpmi	ip, r5, asr ip
    7f4c:	4d554343 	ldclmi	3, cr4, [r5, #-268]	; 0xfffffef4
    7f50:	4942495f 	stmdbmi	r2, {r0, r1, r2, r3, r4, r6, r8, fp, lr}^
    7f54:	205f5f54 	subscs	r5, pc, r4, asr pc	; <UNPREDICTABLE>
    7f58:	5f003233 	svcpl	0x00003233
    7f5c:	7274735f 	rsbsvc	r7, r4, #2080374785	; 0x7c000001
    7f60:	5f676e6f 	svcpl	0x00676e6f
    7f64:	65666572 	strbvs	r6, [r6, #-1394]!	; 0xfffffa8e
    7f68:	636e6572 	cmnvs	lr, #478150656	; 0x1c800000
    7f6c:	79732865 	ldmdbvc	r3!, {r0, r2, r5, r6, fp, sp}^
    7f70:	6c612c6d 	stclvs	12, cr2, [r1], #-436	; 0xfffffe4c
    7f74:	73736169 	cmnvc	r3, #1073741850	; 0x4000001a
    7f78:	20296d79 	eorcs	r6, r9, r9, ror sp
    7f7c:	65747865 	ldrbvs	r7, [r4, #-2149]!	; 0xfffff79b
    7f80:	5f206e72 	svcpl	0x00206e72
    7f84:	7079745f 	rsbsvc	r7, r9, pc, asr r4
    7f88:	20666f65 	rsbcs	r6, r6, r5, ror #30
    7f8c:	6d797328 	ldclvs	3, cr7, [r9, #-160]!	; 0xffffff60
    7f90:	6c612029 	stclvs	0, cr2, [r1], #-164	; 0xffffff5c
    7f94:	73736169 	cmnvc	r3, #1073741850	; 0x4000001a
    7f98:	5f206d79 	svcpl	0x00206d79
    7f9c:	7474615f 	ldrbtvc	r6, [r4], #-351	; 0xfffffea1
    7fa0:	75626972 	strbvc	r6, [r2, #-2418]!	; 0xfffff68e
    7fa4:	5f5f6574 	svcpl	0x005f6574
    7fa8:	5f282820 	svcpl	0x00282820
    7fac:	696c615f 	stmdbvs	ip!, {r0, r1, r2, r3, r4, r6, r8, sp, lr}^
    7fb0:	5f5f7361 	svcpl	0x005f7361
    7fb4:	73232820 			; <UNDEFINED> instruction: 0x73232820
    7fb8:	29296d79 	stmdbcs	r9!, {r0, r3, r4, r5, r6, r8, sl, fp, sp, lr}
    7fbc:	50470029 	subpl	r0, r7, r9, lsr #32
    7fc0:	545f4f49 	ldrbpl	r4, [pc], #-3913	; 7fc8 <_Min_Stack_Size+0x7bc8>
    7fc4:	44657079 	strbtmi	r7, [r5], #-121	; 0xffffff87
    7fc8:	5f006665 	svcpl	0x00006665
    7fcc:	4c4c555f 	cfstr64mi	mvdx5, [ip], {95}	; 0x5f
    7fd0:	43415246 	movtmi	r5, #4678	; 0x1246
    7fd4:	50455f54 	subpl	r5, r5, r4, asr pc
    7fd8:	4f4c4953 	svcmi	0x004c4953
    7fdc:	205f5f4e 	subscs	r5, pc, lr, asr #30
    7fe0:	50317830 	eorspl	r7, r1, r0, lsr r8
    7fe4:	5534362d 	ldrpl	r3, [r4, #-1581]!	; 0xfffff9d3
    7fe8:	00524c4c 	subseq	r4, r2, ip, asr #24
    7fec:	6e755f5f 	mrcvs	15, 3, r5, cr5, cr15, {2}
    7ff0:	63616572 	cmnvs	r1, #478150656	; 0x1c800000
    7ff4:	6c626168 	stfvse	f6, [r2], #-416	; 0xfffffe60
    7ff8:	20292865 	eorcs	r2, r9, r5, ror #16
    7ffc:	75625f5f 	strbvc	r5, [r2, #-3935]!	; 0xfffff0a1
    8000:	69746c69 	ldmdbvs	r4!, {r0, r3, r5, r6, sl, fp, sp, lr}^
    8004:	6e755f6e 	cdpvs	15, 7, cr5, cr5, cr14, {3}
    8008:	63616572 	cmnvs	r1, #478150656	; 0x1c800000
    800c:	6c626168 	stfvse	f6, [r2], #-416	; 0xfffffe60
    8010:	00292865 	eoreq	r2, r9, r5, ror #16
    8014:	66626c5f 			; <UNDEFINED> instruction: 0x66626c5f
    8018:	657a6973 	ldrbvs	r6, [sl, #-2419]!	; 0xfffff68d
    801c:	54415f00 	strbpl	r5, [r1], #-3840	; 0xfffff100
    8020:	54495845 	strbpl	r5, [r9], #-2117	; 0xfffff7bb
    8024:	5a49535f 	bpl	125cda8 <_Min_Stack_Size+0x125c9a8>
    8028:	32332045 	eorscc	r2, r3, #69	; 0x45
    802c:	535f5f00 	cmppl	pc, #0, 30
    8030:	4f455a49 	svcmi	0x00455a49
    8034:	49575f46 	ldmdbmi	r7, {r1, r2, r6, r8, r9, sl, fp, ip, lr}^
    8038:	545f544e 	ldrbpl	r5, [pc], #-1102	; 8040 <_Min_Stack_Size+0x7c40>
    803c:	34205f5f 	strtcc	r5, [r0], #-3935	; 0xfffff0a1
    8040:	54584500 	ldrbpl	r4, [r8], #-1280	; 0xfffffb00
    8044:	66435f49 	strbvs	r5, [r3], -r9, asr #30
    8048:	5f5f0067 	svcpl	0x005f0067
    804c:	5f4d5241 	svcpl	0x004d5241
    8050:	54414546 	strbpl	r4, [r1], #-1350	; 0xfffffaba
    8054:	5f455255 	svcpl	0x00455255
    8058:	4c414e55 	mcrrmi	14, 5, r4, r1, cr5
    805c:	454e4749 	strbmi	r4, [lr, #-1865]	; 0xfffff8b7
    8060:	00312044 	eorseq	r2, r1, r4, asr #32
    8064:	54535f5f 	ldrbpl	r5, [r3], #-3935	; 0xfffff0a1
    8068:	5f5f4344 	svcpl	0x005f4344
    806c:	5f003120 	svcpl	0x00003120
    8070:	42444c5f 	submi	r4, r4, #24320	; 0x5f00
    8074:	45445f4c 	strbmi	r5, [r4, #-3916]	; 0xfffff0b4
    8078:	414d4943 	cmpmi	sp, r3, asr #18
    807c:	49445f4c 	stmdbmi	r4, {r2, r3, r6, r8, r9, sl, fp, ip, lr}^
    8080:	205f5f47 	subscs	r5, pc, r7, asr #30
    8084:	5f003731 	svcpl	0x00003731
    8088:	554e475f 	strbpl	r4, [lr, #-1887]	; 0xfffff8a1
    808c:	4b494c43 	blmi	125b1a0 <_Min_Stack_Size+0x125ada0>
    8090:	53415f45 	movtpl	r5, #8005	; 0x1f45
    8094:	0033204d 	eorseq	r2, r3, sp, asr #32
    8098:	414c5f5f 	cmpmi	ip, pc, asr pc
    809c:	4d554343 	ldclmi	3, cr4, [r5, #-268]	; 0xfffffef4
    80a0:	4e494d5f 	mcrmi	13, 2, r4, cr9, cr15, {2}
    80a4:	28205f5f 	stmdacs	r0!, {r0, r1, r2, r3, r4, r6, r8, r9, sl, fp, ip, lr}
    80a8:	3158302d 	cmpcc	r8, sp, lsr #32
    80ac:	4c313350 	ldcmi	3, cr3, [r1], #-320	; 0xfffffec0
    80b0:	58302d4b 	ldmdapl	r0!, {r0, r1, r3, r6, r8, sl, fp, sp}
    80b4:	31335031 	teqcc	r3, r1, lsr r0
    80b8:	00294b4c 	eoreq	r4, r9, ip, asr #22
    80bc:	4e495f5f 	mcrmi	15, 2, r5, cr9, cr15, {2}
    80c0:	52545054 	subspl	r5, r4, #84	; 0x54
    80c4:	4449575f 	strbmi	r5, [r9], #-1887	; 0xfffff8a1
    80c8:	5f5f4854 	svcpl	0x005f4854
    80cc:	00323320 	eorseq	r3, r2, r0, lsr #6
    80d0:	4c465f5f 	mcrrmi	15, 5, r5, r6, cr15
    80d4:	5f323354 	svcpl	0x00323354
    80d8:	5f534148 	svcpl	0x00534148
    80dc:	4f4e4544 	svcmi	0x004e4544
    80e0:	5f5f4d52 	svcpl	0x005f4d52
    80e4:	5f003120 	svcpl	0x00003120
    80e8:	6163735f 	cmnvs	r3, pc, asr r3
    80ec:	696c666e 	stmdbvs	ip!, {r1, r2, r3, r5, r6, r9, sl, sp, lr}^
    80f0:	6628656b 	strtvs	r6, [r8], -fp, ror #10
    80f4:	7261746d 	rsbvc	r7, r1, #1828716544	; 0x6d000000
    80f8:	69662c67 	stmdbvs	r6!, {r0, r1, r2, r5, r6, sl, fp, sp}^
    80fc:	76747372 			; <UNDEFINED> instruction: 0x76747372
    8100:	72617261 	rsbvc	r7, r1, #268435462	; 0x10000006
    8104:	5f202967 	svcpl	0x00202967
    8108:	7474615f 	ldrbtvc	r6, [r4], #-351	; 0xfffffea1
    810c:	75626972 	strbvc	r6, [r2, #-2418]!	; 0xfffff68e
    8110:	5f5f6574 	svcpl	0x005f6574
    8114:	5f5f2828 	svcpl	0x005f2828
    8118:	6d726f66 	ldclvs	15, cr6, [r2, #-408]!	; 0xfffffe68
    811c:	5f5f7461 	svcpl	0x005f7461
    8120:	5f5f2820 	svcpl	0x005f2820
    8124:	6e616373 	mcrvs	3, 3, r6, cr1, cr3, {3}
    8128:	2c5f5f66 	mrrccs	15, 6, r5, pc, cr6	; <UNPREDICTABLE>
    812c:	746d6620 	strbtvc	r6, [sp], #-1568	; 0xfffff9e0
    8130:	2c677261 	sfmcs	f7, 2, [r7], #-388	; 0xfffffe7c
    8134:	72696620 	rsbvc	r6, r9, #32, 12	; 0x2000000
    8138:	61767473 	cmnvs	r6, r3, ror r4
    813c:	67726172 			; <UNDEFINED> instruction: 0x67726172
    8140:	00292929 	eoreq	r2, r9, r9, lsr #18
    8144:	4545525f 	strbmi	r5, [r5, #-607]	; 0xfffffda1
    8148:	535f544e 	cmppl	pc, #1308622848	; 0x4e000000
    814c:	4c4c414d 	stfmie	f4, [ip], {77}	; 0x4d
    8150:	5f5f0020 	svcpl	0x005f0020
    8154:	414c4c55 	cmpmi	ip, r5, asr ip
    8158:	4d554343 	ldclmi	3, cr4, [r5, #-268]	; 0xfffffef4
    815c:	4e494d5f 	mcrmi	13, 2, r4, cr9, cr15, {2}
    8160:	30205f5f 	eorcc	r5, r0, pc, asr pc
    8164:	4c55302e 	mrrcmi	0, 2, r3, r5, cr14
    8168:	5f004b4c 	svcpl	0x00004b4c
    816c:	5f535953 	svcpl	0x00535953
    8170:	5059545f 	subspl	r5, r9, pc, asr r4
    8174:	485f5345 	ldmdami	pc, {r0, r2, r6, r8, r9, ip, lr}^	; <UNPREDICTABLE>
    8178:	5f5f0020 	svcpl	0x005f0020
    817c:	5f544e49 	svcpl	0x00544e49
    8180:	54534146 	ldrbpl	r4, [r3], #-326	; 0xfffffeba
    8184:	575f3233 	smmlarpl	pc, r3, r2, r3	; <UNPREDICTABLE>
    8188:	48544449 	ldmdami	r4, {r0, r3, r6, sl, lr}^
    818c:	33205f5f 			; <UNDEFINED> instruction: 0x33205f5f
    8190:	525f0032 	subspl	r0, pc, #50	; 0x32
    8194:	34444e41 	strbcc	r4, [r4], #-3649	; 0xfffff1bf
    8198:	554d5f38 	strbpl	r5, [sp, #-3896]	; 0xfffff0c8
    819c:	305f544c 	subscc	r5, pc, ip, asr #8
    81a0:	78302820 	ldmdavc	r0!, {r5, fp, sp}
    81a4:	64363665 	ldrtvs	r3, [r6], #-1637	; 0xfffff99b
    81a8:	695f0029 	ldmdbvs	pc, {r0, r3, r5}^	; <UNPREDICTABLE>
    81ac:	78635f73 	stmdavc	r3!, {r0, r1, r4, r5, r6, r8, r9, sl, fp, ip, lr}^
    81b0:	5f5f0061 	svcpl	0x005f0061
    81b4:	43554e47 	cmpmi	r5, #1136	; 0x470
    81b8:	454b494c 	strbmi	r4, [fp, #-2380]	; 0xfffff6b4
    81bc:	4955425f 	ldmdbmi	r5, {r0, r1, r2, r3, r4, r6, r9, lr}^
    81c0:	4e49544c 	cdpmi	4, 4, cr5, cr9, cr12, {2}
    81c4:	4141565f 	cmpmi	r1, pc, asr r6
    81c8:	5453494c 	ldrbpl	r4, [r3], #-2380	; 0xfffff6b4
    81cc:	5f003120 	svcpl	0x00003120
    81d0:	4c57454e 	cfldr64mi	mvdx4, [r7], {78}	; 0x4e
    81d4:	415f4249 	cmpmi	pc, r9, asr #4
    81d8:	434f4c4c 	movtmi	r4, #64588	; 0xfc4c
    81dc:	20485f41 	subcs	r5, r8, r1, asr #30
    81e0:	495f5f00 	ldmdbmi	pc, {r8, r9, sl, fp, ip, lr}^	; <UNPREDICTABLE>
    81e4:	3233544e 	eorscc	r5, r3, #1308622848	; 0x4e000000
    81e8:	226c2220 	rsbcs	r2, ip, #32, 4
    81ec:	415f5f00 	cmpmi	pc, r0, lsl #30
    81f0:	415f4d52 	cmpmi	pc, r2, asr sp	; <UNPREDICTABLE>
    81f4:	535f4d53 	cmppl	pc, #5312	; 0x14c0
    81f8:	41544e59 	cmpmi	r4, r9, asr lr
    81fc:	4e555f58 	mrcmi	15, 2, r5, cr5, cr8, {2}
    8200:	45494649 	strbmi	r4, [r9, #-1609]	; 0xfffff9b7
    8204:	205f5f44 	subscs	r5, pc, r4, asr #30
    8208:	74730031 	ldrbtvc	r0, [r3], #-49	; 0xffffffcf
    820c:	646f7472 	strbtvs	r7, [pc], #-1138	; 8214 <_Min_Stack_Size+0x7e14>
    8210:	74732066 	ldrbtvc	r2, [r3], #-102	; 0xffffff9a
    8214:	666f7472 			; <UNDEFINED> instruction: 0x666f7472
    8218:	555f5f00 	ldrbpl	r5, [pc, #-3840]	; 7320 <_Min_Stack_Size+0x6f20>
    821c:	33544e49 	cmpcc	r4, #1168	; 0x490
    8220:	59545f32 	ldmdbpl	r4, {r1, r4, r5, r8, r9, sl, fp, ip, lr}^
    8224:	5f5f4550 	svcpl	0x005f4550
    8228:	6e6f6c20 	cdpvs	12, 6, cr6, cr15, cr0, {1}
    822c:	6e752067 	cdpvs	0, 7, cr2, cr5, cr7, {3}
    8230:	6e676973 			; <UNDEFINED> instruction: 0x6e676973
    8234:	69206465 	stmdbvs	r0!, {r0, r2, r5, r6, sl, sp, lr}
    8238:	5f00746e 	svcpl	0x0000746e
    823c:	554e475f 	strbpl	r4, [lr, #-1887]	; 0xfffff8a1
    8240:	4b494c43 	blmi	125b354 <_Min_Stack_Size+0x125af54>
    8244:	414d5f45 	cmpmi	sp, r5, asr #30
    8248:	425f4854 	subsmi	r4, pc, #84, 16	; 0x540000
    824c:	544c4955 	strbpl	r4, [ip], #-2389	; 0xfffff6ab
    8250:	435f4e49 	cmpmi	pc, #1168	; 0x490
    8254:	54534e4f 	ldrbpl	r4, [r3], #-3663	; 0xfffff1b1
    8258:	53544e41 	cmppl	r4, #1040	; 0x410
    825c:	5f5f0020 	svcpl	0x005f0020
    8260:	6d756874 	ldclvs	8, cr6, [r5, #-464]!	; 0xfffffe30
    8264:	5f5f3262 	svcpl	0x005f3262
    8268:	53003120 	movwpl	r3, #288	; 0x120
    826c:	74666968 	strbtvc	r6, [r6], #-2408	; 0xfffff698
    8270:	7466654c 	strbtvc	r6, [r6], #-1356	; 0xfffffab4
    8274:	31783020 	cmncc	r8, r0, lsr #32
    8278:	6d5f0038 	ldclvs	0, cr0, [pc, #-224]	; 81a0 <_Min_Stack_Size+0x7da0>
    827c:	63657270 	cmnvs	r5, #112, 4
    8280:	45445f00 	strbmi	r5, [r4, #-3840]	; 0xfffff100
    8284:	4c554146 	ldfmie	f4, [r5], {70}	; 0x46
    8288:	4f535f54 	svcmi	0x00535f54
    828c:	45435255 	strbmi	r5, [r3, #-597]	; 0xfffffdab
    8290:	20354400 	eorscs	r4, r5, r0, lsl #8
    8294:	4f495047 	svcmi	0x00495047
    8298:	4e49505f 	mcrmi	0, 2, r5, cr9, cr15, {2}
    829c:	7300355f 	movwvc	r3, #1375	; 0x55f
    82a0:	74726f68 	ldrbtvc	r6, [r2], #-3944	; 0xfffff098
    82a4:	00312b20 	eorseq	r2, r1, r0, lsr #22
    82a8:	4343475f 	movtmi	r4, #14175	; 0x375f
    82ac:	5a49535f 	bpl	125d030 <_Min_Stack_Size+0x125cc30>
    82b0:	20545f45 	subscs	r5, r4, r5, asr #30
    82b4:	20535200 	subscs	r5, r3, r0, lsl #4
    82b8:	4f495047 	svcmi	0x00495047
    82bc:	4e49505f 	mcrmi	0, 2, r5, cr9, cr15, {2}
    82c0:	5f00305f 	svcpl	0x0000305f
    82c4:	6373696d 	cmnvs	r3, #1785856	; 0x1b4000
    82c8:	555f5f00 	ldrbpl	r5, [pc, #-3840]	; 73d0 <_Min_Stack_Size+0x6fd0>
    82cc:	52464c4c 	subpl	r4, r6, #76, 24	; 0x4c00
    82d0:	5f544341 	svcpl	0x00544341
    82d4:	5f4e494d 	svcpl	0x004e494d
    82d8:	2e30205f 	mrccs	0, 1, r2, cr0, cr15, {2}
    82dc:	4c4c5530 	cfstr64mi	mvdx5, [ip], {48}	; 0x30
    82e0:	545f0052 	ldrbpl	r0, [pc], #-82	; 82e8 <_Min_Stack_Size+0x7ee8>
    82e4:	4843575f 	stmdami	r3, {r0, r1, r2, r3, r4, r6, r8, r9, sl, ip, lr}^
    82e8:	205f5241 	subscs	r5, pc, r1, asr #4
    82ec:	6f6c5f00 	svcvs	0x006c5f00
    82f0:	656c6163 	strbvs	r6, [ip, #-355]!	; 0xfffffe9d
    82f4:	555f5f00 	ldrbpl	r5, [pc, #-3840]	; 73fc <_Min_Stack_Size+0x6ffc>
    82f8:	676e6f4c 	strbvs	r6, [lr, -ip, asr #30]!
    82fc:	49564e00 	ldmdbmi	r6, {r9, sl, fp, lr}^
    8300:	52495f43 	subpl	r5, r9, #268	; 0x10c
    8304:	5f303151 	svcpl	0x00303151
    8308:	49545845 	ldmdbmi	r4, {r0, r2, r6, fp, ip, lr}^
    830c:	69445f34 	stmdbvs	r4, {r2, r4, r5, r8, r9, sl, fp, ip, lr}^
    8310:	6c626173 	stfvse	f6, [r2], #-460	; 0xfffffe34
    8314:	4e282065 	cdpmi	0, 2, cr2, cr8, cr5, {3}
    8318:	5f434956 	svcpl	0x00434956
    831c:	52454349 	subpl	r4, r5, #603979777	; 0x24000001
    8320:	3d7c2030 	ldclcc	0, cr2, [ip, #-192]!	; 0xffffff40
    8324:	3c312820 	ldccc	8, cr2, [r1], #-128	; 0xffffff80
    8328:	2930313c 	ldmdbcs	r0!, {r2, r3, r4, r5, r8, ip, sp}
    832c:	5f5f0029 	svcpl	0x005f0029
    8330:	5f4d5241 	svcpl	0x004d5241
    8334:	36315046 	ldrtcc	r5, [r1], -r6, asr #32
    8338:	4752415f 			; <UNDEFINED> instruction: 0x4752415f
    833c:	5f5f0053 	svcpl	0x005f0053
    8340:	6b636f6c 	blvs	18e40f8 <_Min_Stack_Size+0x18e3cf8>
    8344:	6c65725f 	sfmvs	f7, 2, [r5], #-380	; 0xfffffe84
    8348:	65736165 	ldrbvs	r6, [r3, #-357]!	; 0xfffffe9b
    834c:	636f6c28 	cmnvs	pc, #40, 24	; 0x2800
    8350:	2820296b 	stmdacs	r0!, {r0, r1, r3, r5, r6, r8, fp, sp}
    8354:	696f7628 	stmdbvs	pc!, {r3, r5, r9, sl, ip, sp, lr}^	; <UNPREDICTABLE>
    8358:	30202964 	eorcc	r2, r0, r4, ror #18
    835c:	5f5f0029 	svcpl	0x005f0029
    8360:	455a4953 	ldrbmi	r4, [sl, #-2387]	; 0xfffff6ad
    8364:	495f464f 	ldmdbmi	pc, {r0, r1, r2, r3, r6, r9, sl, lr}^	; <UNPREDICTABLE>
    8368:	5f5f544e 	svcpl	0x005f544e
    836c:	5f003420 	svcpl	0x00003420
    8370:	5f445342 	svcpl	0x00445342
    8374:	41484357 	cmpmi	r8, r7, asr r3
    8378:	5f545f52 	svcpl	0x00545f52
    837c:	4c5f5f00 	mrrcmi	15, 0, r5, pc, cr0	; <UNPREDICTABLE>
    8380:	4152464c 	cmpmi	r2, ip, asr #12
    8384:	495f5443 	ldmdbmi	pc, {r0, r1, r6, sl, ip, lr}^	; <UNPREDICTABLE>
    8388:	5f544942 	svcpl	0x00544942
    838c:	0030205f 	eorseq	r2, r0, pc, asr r0
    8390:	43435f5f 	movtmi	r5, #16223	; 0x3f5f
    8394:	5055535f 	subspl	r5, r5, pc, asr r3
    8398:	54524f50 	ldrbpl	r4, [r2], #-3920	; 0xfffff0b0
    839c:	41565f53 	cmpmi	r6, r3, asr pc
    83a0:	49444152 	stmdbmi	r4, {r1, r4, r6, r8, lr}^
    83a4:	58585f43 	ldmdapl	r8, {r0, r1, r6, r8, r9, sl, fp, ip, lr}^
    83a8:	00312058 	eorseq	r2, r1, r8, asr r0
    83ac:	4349564e 	movtmi	r5, #38478	; 0x964e
    83b0:	4553495f 	ldrbmi	r4, [r3, #-2399]	; 0xfffff6a1
    83b4:	2a203052 	bcs	814504 <_Min_Stack_Size+0x814104>
    83b8:	6c6f7628 	stclvs	6, cr7, [pc], #-160	; 8320 <_Min_Stack_Size+0x7f20>
    83bc:	6c697461 	cfstrdvs	mvd7, [r9], #-388	; 0xfffffe7c
    83c0:	69752065 	ldmdbvs	r5!, {r0, r2, r5, r6, sp}^
    83c4:	3233746e 	eorscc	r7, r3, #1845493760	; 0x6e000000
    83c8:	292a745f 	stmdbcs	sl!, {r0, r1, r2, r3, r4, r6, sl, ip, sp, lr}
    83cc:	49564e28 	ldmdbmi	r6, {r3, r5, r9, sl, fp, lr}^
    83d0:	41425f43 	cmpmi	r2, r3, asr #30
    83d4:	2b204553 	blcs	819928 <_Min_Stack_Size+0x819528>
    83d8:	30783020 	rsbscc	r3, r8, r0, lsr #32
    83dc:	535f0029 	cmppl	pc, #41	; 0x29
    83e0:	5f5f5359 	svcpl	0x005f5359
    83e4:	53544e49 	cmppl	r4, #1168	; 0x490
    83e8:	485f5055 	ldmdami	pc, {r0, r2, r4, r6, ip, lr}^	; <UNPREDICTABLE>
    83ec:	5f5f0020 	svcpl	0x005f0020
    83f0:	43434153 	movtmi	r4, #12627	; 0x3153
    83f4:	455f4d55 	ldrbmi	r4, [pc, #-3413]	; 76a7 <_Min_Stack_Size+0x72a7>
    83f8:	4c495350 	mcrrmi	3, 5, r5, r9, cr0
    83fc:	5f5f4e4f 	svcpl	0x005f4e4f
    8400:	31783020 	cmncc	r8, r0, lsr #32
    8404:	48372d50 	ldmdami	r7!, {r4, r6, r8, sl, fp, sp}
    8408:	5f5f004b 	svcpl	0x005f004b
    840c:	746e695f 	strbtvc	r6, [lr], #-2399	; 0xfffff6a1
    8410:	61656c5f 	cmnvs	r5, pc, asr ip
    8414:	34367473 	ldrtcc	r7, [r6], #-1139	; 0xfffffb8d
    8418:	645f745f 	ldrbvs	r7, [pc], #-1119	; 8420 <_Min_Stack_Size+0x8020>
    841c:	6e696665 	cdpvs	6, 6, cr6, cr9, cr5, {3}
    8420:	31206465 			; <UNDEFINED> instruction: 0x31206465
    8424:	65725f00 	ldrbvs	r5, [r2, #-3840]!	; 0xfffff100
    8428:	746c7573 	strbtvc	r7, [ip], #-1395	; 0xfffffa8d
    842c:	544e4900 	strbpl	r4, [lr], #-2304	; 0xfffff700
    8430:	5341465f 	movtpl	r4, #5727	; 0x165f
    8434:	5f343654 	svcpl	0x00343654
    8438:	2058414d 	subscs	r4, r8, sp, asr #2
    843c:	495f5f28 	ldmdbmi	pc, {r3, r5, r8, r9, sl, fp, ip, lr}^	; <UNPREDICTABLE>
    8440:	465f544e 	ldrbmi	r5, [pc], -lr, asr #8
    8444:	36545341 	ldrbcc	r5, [r4], -r1, asr #6
    8448:	414d5f34 	cmpmi	sp, r4, lsr pc
    844c:	295f5f58 	ldmdbcs	pc, {r3, r4, r6, r8, r9, sl, fp, ip, lr}^	; <UNPREDICTABLE>
    8450:	4f505f00 	svcmi	0x00505f00
    8454:	5f584953 	svcpl	0x00584953
    8458:	52554f53 	subspl	r4, r5, #332	; 0x14c
    845c:	31204543 			; <UNDEFINED> instruction: 0x31204543
    8460:	5f535f00 	svcpl	0x00535f00
    8464:	5f505350 	svcpl	0x00505350
    8468:	5f004154 	svcpl	0x00004154
    846c:	4e49555f 	mcrmi	5, 2, r5, cr9, cr15, {2}
    8470:	41465f54 	cmpmi	r6, r4, asr pc
    8474:	36315453 			; <UNDEFINED> instruction: 0x36315453
    8478:	5059545f 	subspl	r5, r9, pc, asr r4
    847c:	205f5f45 	subscs	r5, pc, r5, asr #30
    8480:	69736e75 	ldmdbvs	r3!, {r0, r2, r4, r5, r6, r9, sl, fp, sp, lr}^
    8484:	64656e67 	strbtvs	r6, [r5], #-3687	; 0xfffff199
    8488:	746e6920 	strbtvc	r6, [lr], #-2336	; 0xfffff6e0
    848c:	555f5f00 	ldrbpl	r5, [pc, #-3840]	; 7594 <_Min_Stack_Size+0x7194>
    8490:	495f4148 	ldmdbmi	pc, {r3, r6, r8, lr}^	; <UNPREDICTABLE>
    8494:	5f544942 	svcpl	0x00544942
    8498:	0038205f 	eorseq	r2, r8, pc, asr r0
    849c:	656e5f5f 	strbvs	r5, [lr, #-3935]!	; 0xfffff0a1
    84a0:	775f6465 	ldrbvc	r6, [pc, -r5, ror #8]
    84a4:	5f746e69 	svcpl	0x00746e69
    84a8:	5f002074 	svcpl	0x00002074
    84ac:	4343415f 	movtmi	r4, #12639	; 0x315f
    84b0:	455f4d55 	ldrbmi	r4, [pc, #-3413]	; 7763 <_Min_Stack_Size+0x7363>
    84b4:	4c495350 	mcrrmi	3, 5, r5, r9, cr0
    84b8:	5f5f4e4f 	svcpl	0x005f4e4f
    84bc:	31783020 	cmncc	r8, r0, lsr #32
    84c0:	35312d50 	ldrcc	r2, [r1, #-3408]!	; 0xfffff2b0
    84c4:	5f5f004b 	svcpl	0x005f004b
    84c8:	43414c55 	movtmi	r4, #7253	; 0x1c55
    84cc:	5f4d5543 	svcpl	0x004d5543
    84d0:	49535045 	ldmdbmi	r3, {r0, r2, r6, ip, lr}^
    84d4:	5f4e4f4c 	svcpl	0x004e4f4c
    84d8:	7830205f 	ldmdavc	r0!, {r0, r1, r2, r3, r4, r6, sp}
    84dc:	332d5031 			; <UNDEFINED> instruction: 0x332d5031
    84e0:	4b4c5532 	blmi	131d9b0 <_Min_Stack_Size+0x131d5b0>
    84e4:	4c5f5f00 	mrrcmi	15, 0, r5, pc, cr0	; <UNPREDICTABLE>
    84e8:	5f4c4244 	svcpl	0x004c4244
    84ec:	5f474944 	svcpl	0x00474944
    84f0:	3531205f 	ldrcc	r2, [r1, #-95]!	; 0xffffffa1
    84f4:	445f5f00 	ldrbmi	r5, [pc], #-3840	; 84fc <_Min_Stack_Size+0x80fc>
    84f8:	4d5f4c42 	ldclmi	12, cr4, [pc, #-264]	; 83f8 <_Min_Stack_Size+0x7ff8>
    84fc:	5f5f4e49 	svcpl	0x005f4e49
    8500:	64282820 	strtvs	r2, [r8], #-2080	; 0xfffff7e0
    8504:	6c62756f 	cfstr64vs	mvdx7, [r2], #-444	; 0xfffffe44
    8508:	2e322965 	vsubcs.f16	s4, s4, s11	; <UNPREDICTABLE>
    850c:	30353232 	eorscc	r3, r5, r2, lsr r2
    8510:	35383337 	ldrcc	r3, [r8, #-823]!	; 0xfffffcc9
    8514:	37303538 			; <UNDEFINED> instruction: 0x37303538
    8518:	34313032 	ldrtcc	r3, [r1], #-50	; 0xffffffce
    851c:	30332d65 	eorscc	r2, r3, r5, ror #26
    8520:	00294c38 	eoreq	r4, r9, r8, lsr ip
    8524:	49535f5f 	ldmdbmi	r3, {r0, r1, r2, r3, r4, r6, r8, r9, sl, fp, ip, lr}^
    8528:	575f455a 			; <UNDEFINED> instruction: 0x575f455a
    852c:	48544449 	ldmdami	r4, {r0, r3, r6, sl, lr}^
    8530:	33205f5f 			; <UNDEFINED> instruction: 0x33205f5f
    8534:	525f0032 	subspl	r0, pc, #50	; 0x32
    8538:	544e4545 	strbpl	r4, [lr], #-1349	; 0xfffffabb
    853c:	5f504d5f 	svcpl	0x00504d5f
    8540:	55534552 	ldrbpl	r4, [r3, #-1362]	; 0xfffffaae
    8544:	7028544c 	eorvc	r5, r8, ip, asr #8
    8548:	20297274 	eorcs	r7, r9, r4, ror r2
    854c:	74702828 	ldrbtvc	r2, [r0], #-2088	; 0xfffff7d8
    8550:	3e2d2972 			; <UNDEFINED> instruction: 0x3e2d2972
    8554:	2d706d5f 	ldclcs	13, cr6, [r0, #-380]!	; 0xfffffe84
    8558:	65725f3e 	ldrbvs	r5, [r2, #-3902]!	; 0xfffff0c2
    855c:	746c7573 	strbtvc	r7, [ip], #-1395	; 0xfffffa8d
    8560:	5f5f0029 	svcpl	0x005f0029
    8564:	33544c46 	cmpcc	r4, #17920	; 0x4600
    8568:	45445f32 	strbmi	r5, [r4, #-3890]	; 0xfffff0ce
    856c:	4d524f4e 	ldclmi	15, cr4, [r2, #-312]	; 0xfffffec8
    8570:	4e494d5f 	mcrmi	13, 2, r4, cr9, cr15, {2}
    8574:	31205f5f 			; <UNDEFINED> instruction: 0x31205f5f
    8578:	3130342e 	teqcc	r0, lr, lsr #8
    857c:	34383932 	ldrtcc	r3, [r8], #-2354	; 0xfffff6ce
    8580:	32333436 	eorscc	r3, r3, #905969664	; 0x36000000
    8584:	37313834 			; <UNDEFINED> instruction: 0x37313834
    8588:	342d6531 	strtcc	r6, [sp], #-1329	; 0xfffffacf
    858c:	32334635 	eorscc	r4, r3, #55574528	; 0x3500000
    8590:	575f5f00 	ldrbpl	r5, [pc, -r0, lsl #30]
    8594:	5f544e49 	svcpl	0x00544e49
    8598:	5f4e494d 	svcpl	0x004e494d
    859c:	5530205f 	ldrpl	r2, [r0, #-95]!	; 0xffffffa1
    85a0:	666f5f00 	strbtvs	r5, [pc], -r0, lsl #30
    85a4:	00745f66 	rsbseq	r5, r4, r6, ror #30
    85a8:	4c465f5f 	mcrrmi	15, 5, r5, r6, cr15
    85ac:	5f343654 	svcpl	0x00343654
    85b0:	5f474944 	svcpl	0x00474944
    85b4:	3531205f 	ldrcc	r2, [r1, #-95]!	; 0xffffffa1
    85b8:	445f5f00 	ldrbmi	r5, [pc], #-3840	; 85c0 <_Min_Stack_Size+0x81c0>
    85bc:	34364345 	ldrtcc	r4, [r6], #-837	; 0xfffffcbb
    85c0:	5350455f 	cmppl	r0, #398458880	; 0x17c00000
    85c4:	4e4f4c49 	cdpmi	12, 4, cr4, cr15, cr9, {2}
    85c8:	31205f5f 			; <UNDEFINED> instruction: 0x31205f5f
    85cc:	35312d45 	ldrcc	r2, [r1, #-3397]!	; 0xfffff2bb
    85d0:	5f004444 	svcpl	0x00004444
    85d4:	4e49575f 	mcrmi	7, 2, r5, cr9, cr15, {2}
    85d8:	414d5f54 	cmpmi	sp, r4, asr pc
    85dc:	205f5f58 	subscs	r5, pc, r8, asr pc	; <UNPREDICTABLE>
    85e0:	66667830 			; <UNDEFINED> instruction: 0x66667830
    85e4:	66666666 	strbtvs	r6, [r6], -r6, ror #12
    85e8:	00556666 	subseq	r6, r5, r6, ror #12
    85ec:	4e495f5f 	mcrmi	15, 2, r5, cr9, cr15, {2}
    85f0:	454c5f54 	strbmi	r5, [ip, #-3924]	; 0xfffff0ac
    85f4:	38545341 	ldmdacc	r4, {r0, r6, r8, r9, ip, lr}^
    85f8:	4449575f 	strbmi	r5, [r9], #-1887	; 0xfffff8a1
    85fc:	5f5f4854 	svcpl	0x005f4854
    8600:	5f003820 	svcpl	0x00003820
    8604:	4e454552 	mcrmi	5, 2, r4, cr5, cr2, {2}
    8608:	504d5f54 	subpl	r5, sp, r4, asr pc
    860c:	5345525f 	movtpl	r5, #21087	; 0x525f
    8610:	5f544c55 	svcpl	0x00544c55
    8614:	7470284b 	ldrbtvc	r2, [r0], #-2123	; 0xfffff7b5
    8618:	28202972 	stmdacs	r0!, {r1, r4, r5, r6, r8, fp, sp}
    861c:	72747028 	rsbsvc	r7, r4, #40	; 0x28
    8620:	5f3e2d29 	svcpl	0x003e2d29
    8624:	3e2d706d 	cdpcc	0, 2, cr7, cr13, cr13, {3}
    8628:	7365725f 	cmnvc	r5, #-268435451	; 0xf0000005
    862c:	5f746c75 	svcpl	0x00746c75
    8630:	5f00296b 	svcpl	0x0000296b
    8634:	6e6f6c5f 	mcrvs	12, 3, r6, cr15, cr15, {2}
    8638:	6f645f67 	svcvs	0x00645f67
    863c:	656c6275 	strbvs	r6, [ip, #-629]!	; 0xfffffd8b
    8640:	6c20745f 	cfstrsvs	mvf7, [r0], #-380	; 0xfffffe84
    8644:	20676e6f 	rsbcs	r6, r7, pc, ror #28
    8648:	62756f64 	rsbsvs	r6, r5, #100, 30	; 0x190
    864c:	5f00656c 	svcpl	0x0000656c
    8650:	544e495f 	strbpl	r4, [lr], #-2399	; 0xfffff6a1
    8654:	41454c5f 	cmpmi	r5, pc, asr ip
    8658:	36315453 			; <UNDEFINED> instruction: 0x36315453
    865c:	5059545f 	subspl	r5, r9, pc, asr r4
    8660:	205f5f45 	subscs	r5, pc, r5, asr #30
    8664:	726f6873 	rsbvc	r6, pc, #7536640	; 0x730000
    8668:	6e692074 	mcrvs	0, 3, r2, cr9, cr4, {3}
    866c:	615f0074 	cmpvs	pc, r4, ror r0	; <UNPREDICTABLE>
    8670:	5f006464 	svcpl	0x00006464
    8674:	5f51515f 	svcpl	0x0051515f
    8678:	54494246 	strbpl	r4, [r9], #-582	; 0xfffffdba
    867c:	37205f5f 			; <UNDEFINED> instruction: 0x37205f5f
    8680:	54584500 	ldrbpl	r4, [r8], #-1280	; 0xfffffb00
    8684:	41503149 	cmpmi	r0, r9, asr #2
    8688:	45282031 	strmi	r2, [r8, #-49]!	; 0xffffffcf
    868c:	5f495458 	svcpl	0x00495458
    8690:	4f495047 	svcmi	0x00495047
    8694:	70614d5f 	rsbvc	r4, r1, pc, asr sp
    8698:	5f676e69 	svcpl	0x00676e69
    869c:	457b2974 	ldrbmi	r2, [fp, #-2420]!	; 0xfffff68c
    86a0:	31495458 	cmpcc	r9, r8, asr r4
    86a4:	4950472c 	ldmdbmi	r0, {r2, r3, r5, r8, r9, sl, lr}^
    86a8:	472c414f 	strmi	r4, [ip, -pc, asr #2]!
    86ac:	5f4f4950 	svcpl	0x004f4950
    86b0:	5f4e4950 	svcpl	0x004e4950
    86b4:	58452c31 	stmdapl	r5, {r0, r4, r5, sl, fp, sp}^
    86b8:	5f314954 	svcpl	0x00314954
    86bc:	7d515249 	lfmvc	f5, 2, [r1, #-292]	; 0xfffffedc
    86c0:	445f5f00 	ldrbmi	r5, [pc], #-3840	; 86c8 <_Min_Stack_Size+0x82c8>
    86c4:	4d5f4c42 	ldclmi	12, cr4, [pc, #-264]	; 85c4 <_Min_Stack_Size+0x81c4>
    86c8:	5f5f5841 	svcpl	0x005f5841
    86cc:	64282820 	strtvs	r2, [r8], #-2080	; 0xfffff7e0
    86d0:	6c62756f 	cfstr64vs	mvdx7, [r2], #-444	; 0xfffffe44
    86d4:	2e312965 	vsubcs.f16	s4, s2, s11	; <UNPREDICTABLE>
    86d8:	36373937 			; <UNDEFINED> instruction: 0x36373937
    86dc:	33313339 	teqcc	r1, #-469762048	; 0xe4000000
    86e0:	32363834 	eorscc	r3, r6, #52, 16	; 0x340000
    86e4:	37353133 			; <UNDEFINED> instruction: 0x37353133
    86e8:	30332b65 	eorscc	r2, r3, r5, ror #22
    86ec:	00294c38 	eoreq	r4, r9, r8, lsr ip
    86f0:	6b736154 	blvs	1ce0c48 <_Min_Stack_Size+0x1ce0848>
    86f4:	6c465f41 	mcrrvs	15, 4, r5, r6, cr1
    86f8:	5f006761 	svcpl	0x00006761
    86fc:	5f6d745f 	svcpl	0x006d745f
    8700:	72756f68 	rsbsvc	r6, r5, #104, 30	; 0x1a0
    8704:	745f5f00 	ldrbvc	r5, [pc], #-3840	; 870c <_Min_Stack_Size+0x830c>
    8708:	626d7568 	rsbvs	r7, sp, #104, 10	; 0x1a000000
    870c:	31205f5f 			; <UNDEFINED> instruction: 0x31205f5f
    8710:	415f5f00 	cmpmi	pc, r0, lsl #30
    8714:	4c454d52 	mcrrmi	13, 5, r4, r5, cr2
    8718:	31205f5f 			; <UNDEFINED> instruction: 0x31205f5f
    871c:	54584500 	ldrbpl	r4, [r8], #-1280	; 0xfffffb00
    8720:	43503849 	cmpmi	r0, #4784128	; 0x490000
    8724:	45282038 	strmi	r2, [r8, #-56]!	; 0xffffffc8
    8728:	5f495458 	svcpl	0x00495458
    872c:	4f495047 	svcmi	0x00495047
    8730:	70614d5f 	rsbvc	r4, r1, pc, asr sp
    8734:	5f676e69 	svcpl	0x00676e69
    8738:	457b2974 	ldrbmi	r2, [fp, #-2420]!	; 0xfffff68c
    873c:	38495458 	stmdacc	r9, {r3, r4, r6, sl, ip, lr}^
    8740:	4950472c 	ldmdbmi	r0, {r2, r3, r5, r8, r9, sl, lr}^
    8744:	472c434f 	strmi	r4, [ip, -pc, asr #6]!
    8748:	5f4f4950 	svcpl	0x004f4950
    874c:	5f4e4950 	svcpl	0x004e4950
    8750:	58452c38 	stmdapl	r5, {r3, r4, r5, sl, fp, sp}^
    8754:	5f384954 	svcpl	0x00384954
    8758:	7d515249 	lfmvc	f5, 2, [r1, #-292]	; 0xfffffedc
    875c:	4e495f00 	cdpmi	15, 4, cr5, cr9, cr0, {0}
    8760:	58414d54 	stmdapl	r1, {r2, r4, r6, r8, sl, fp, lr}^
    8764:	445f545f 	ldrbmi	r5, [pc], #-1119	; 876c <_Min_Stack_Size+0x836c>
    8768:	414c4345 	cmpmi	ip, r5, asr #6
    876c:	20444552 	subcs	r4, r4, r2, asr r5
    8770:	665f5f00 	ldrbvs	r5, [pc], -r0, lsl #30
    8774:	616d726f 	cmnvs	sp, pc, ror #4
    8778:	72615f74 	rsbvc	r5, r1, #116, 30	; 0x1d0
    877c:	6d662867 	stclvs	8, cr2, [r6, #-412]!	; 0xfffffe64
    8780:	67726174 			; <UNDEFINED> instruction: 0x67726174
    8784:	5f5f2029 	svcpl	0x005f2029
    8788:	72747461 	rsbsvc	r7, r4, #1627389952	; 0x61000000
    878c:	74756269 	ldrbtvc	r6, [r5], #-617	; 0xfffffd97
    8790:	285f5f65 	ldmdacs	pc, {r0, r2, r5, r6, r8, r9, sl, fp, ip, lr}^	; <UNPREDICTABLE>
    8794:	665f5f28 	ldrbvs	r5, [pc], -r8, lsr #30
    8798:	616d726f 	cmnvs	sp, pc, ror #4
    879c:	72615f74 	rsbvc	r5, r1, #116, 30	; 0x1d0
    87a0:	205f5f67 	subscs	r5, pc, r7, ror #30
    87a4:	746d6628 	strbtvc	r6, [sp], #-1576	; 0xfffff9d8
    87a8:	29677261 	stmdbcs	r7!, {r0, r5, r6, r9, ip, sp, lr}^
    87ac:	5f002929 	svcpl	0x00002929
    87b0:	6d6f635f 	stclvs	3, cr6, [pc, #-380]!	; 863c <_Min_Stack_Size+0x823c>
    87b4:	656c6970 	strbvs	r6, [ip, #-2416]!	; 0xfffff690
    87b8:	656d5f72 	strbvs	r5, [sp, #-3954]!	; 0xfffff08e
    87bc:	7261626d 	rsbvc	r6, r1, #-805306362	; 0xd0000006
    87c0:	5f202928 	svcpl	0x00202928
    87c4:	6d73615f 	ldfvse	f6, [r3, #-380]!	; 0xfffffe84
    87c8:	765f5f20 	ldrbvc	r5, [pc], -r0, lsr #30
    87cc:	74616c6f 	strbtvc	r6, [r1], #-3183	; 0xfffff391
    87d0:	28656c69 	stmdacs	r5!, {r0, r3, r5, r6, sl, fp, sp, lr}^
    87d4:	20222022 	eorcs	r2, r2, r2, lsr #32
    87d8:	203a203a 	eorscs	r2, sl, sl, lsr r0
    87dc:	6d22203a 	stcvs	0, cr2, [r2, #-232]!	; 0xffffff18
    87e0:	726f6d65 	rsbvc	r6, pc, #6464	; 0x1940
    87e4:	00292279 	eoreq	r2, r9, r9, ror r2
    87e8:	49545845 	ldmdbmi	r4, {r0, r2, r6, fp, ip, lr}^
    87ec:	30425030 	subcc	r5, r2, r0, lsr r0
    87f0:	58452820 	stmdapl	r5, {r5, fp, sp}^
    87f4:	475f4954 			; <UNDEFINED> instruction: 0x475f4954
    87f8:	5f4f4950 	svcpl	0x004f4950
    87fc:	6970614d 	ldmdbvs	r0!, {r0, r2, r3, r6, r8, sp, lr}^
    8800:	745f676e 	ldrbvc	r6, [pc], #-1902	; 8808 <_Min_Stack_Size+0x8408>
    8804:	58457b29 	stmdapl	r5, {r0, r3, r5, r8, r9, fp, ip, sp, lr}^
    8808:	2c304954 			; <UNDEFINED> instruction: 0x2c304954
    880c:	4f495047 	svcmi	0x00495047
    8810:	50472c42 	subpl	r2, r7, r2, asr #24
    8814:	505f4f49 	subspl	r4, pc, r9, asr #30
    8818:	305f4e49 	subscc	r4, pc, r9, asr #28
    881c:	5458452c 	ldrbpl	r4, [r8], #-1324	; 0xfffffad4
    8820:	495f3049 	ldmdbmi	pc, {r0, r3, r6, ip, sp}^	; <UNPREDICTABLE>
    8824:	007d5152 	rsbseq	r5, sp, r2, asr r1
    8828:	51485f5f 	cmppl	r8, pc, asr pc
    882c:	4942465f 	stmdbmi	r2, {r0, r1, r2, r3, r4, r6, r9, sl, lr}^
    8830:	205f5f54 	subscs	r5, pc, r4, asr pc	; <UNPREDICTABLE>
    8834:	5f003531 	svcpl	0x00003531
    8838:	7461645f 	strbtvc	r6, [r1], #-1119	; 0xfffffba1
    883c:	70797461 	rsbsvc	r7, r9, r1, ror #8
    8840:	79745f65 	ldmdbvc	r4!, {r0, r2, r5, r6, r8, r9, sl, fp, ip, lr}^
    8844:	745f6570 	ldrbvc	r6, [pc], #-1392	; 884c <_Min_Stack_Size+0x844c>
    8848:	6b286761 	blvs	a225d4 <_Min_Stack_Size+0xa221d4>
    884c:	2c646e69 	stclcs	14, cr6, [r4], #-420	; 0xfffffe5c
    8850:	65707974 	ldrbvs	r7, [r0, #-2420]!	; 0xfffff68c
    8854:	5f002029 	svcpl	0x00002029
    8858:	636f6c5f 	cmnvs	pc, #24320	; 0x5f00
    885c:	72745f6b 	rsbsvc	r5, r4, #428	; 0x1ac
    8860:	63615f79 	cmnvs	r1, #484	; 0x1e4
    8864:	72697571 	rsbvc	r7, r9, #473956352	; 0x1c400000
    8868:	65725f65 	ldrbvs	r5, [r2, #-3941]!	; 0xfffff09b
    886c:	73727563 	cmnvc	r2, #415236096	; 0x18c00000
    8870:	28657669 	stmdacs	r5!, {r0, r3, r5, r6, r9, sl, ip, sp, lr}^
    8874:	6b636f6c 	blvs	18e462c <_Min_Stack_Size+0x18e422c>
    8878:	28282029 	stmdacs	r8!, {r0, r3, r5, sp}
    887c:	64696f76 	strbtvs	r6, [r9], #-3958	; 0xfffff08a
    8880:	29302029 	ldmdbcs	r0!, {r0, r3, r5, sp}
    8884:	535f5f00 	cmppl	pc, #0, 30
    8888:	5f455a49 	svcpl	0x00455a49
    888c:	5f58414d 	svcpl	0x0058414d
    8890:	7830205f 	ldmdavc	r0!, {r0, r1, r2, r3, r4, r6, sp}
    8894:	66666666 	strbtvs	r6, [r6], -r6, ror #12
    8898:	66666666 	strbtvs	r6, [r6], -r6, ror #12
    889c:	6d5f0055 	ldclvs	0, cr0, [pc, #-340]	; 8750 <_Min_Stack_Size+0x8350>
    88a0:	74727362 	ldrbtvc	r7, [r2], #-866	; 0xfffffc9e
    88a4:	7363776f 	cmnvc	r3, #29097984	; 0x1bc0000
    88a8:	6174735f 	cmnvs	r4, pc, asr r3
    88ac:	5f006574 	svcpl	0x00006574
    88b0:	544e495f 	strbpl	r4, [lr], #-2399	; 0xfffff6a1
    88b4:	22203436 	eorcs	r3, r0, #905969664	; 0x36000000
    88b8:	00226c6c 	eoreq	r6, r2, ip, ror #24
    88bc:	6c615f5f 	stclvs	15, cr5, [r1], #-380	; 0xfffffe84
    88c0:	73796177 	cmnvc	r9, #-1073741795	; 0xc000001d
    88c4:	6c6e695f 			; <UNDEFINED> instruction: 0x6c6e695f
    88c8:	20656e69 	rsbcs	r6, r5, r9, ror #28
    88cc:	6e695f5f 	mcrvs	15, 3, r5, cr9, cr15, {2}
    88d0:	656e696c 	strbvs	r6, [lr, #-2412]!	; 0xfffff694
    88d4:	5f205f5f 	svcpl	0x00205f5f
    88d8:	7474615f 	ldrbtvc	r6, [r4], #-351	; 0xfffffea1
    88dc:	75626972 	strbvc	r6, [r2, #-2418]!	; 0xfffff68e
    88e0:	5f5f6574 	svcpl	0x005f6574
    88e4:	5f5f2828 	svcpl	0x005f2828
    88e8:	61776c61 	cmnvs	r7, r1, ror #24
    88ec:	695f7379 	ldmdbvs	pc, {r0, r3, r4, r5, r6, r8, r9, ip, sp, lr}^	; <UNPREDICTABLE>
    88f0:	6e696c6e 	cdpvs	12, 6, cr6, cr9, cr14, {3}
    88f4:	295f5f65 	ldmdbcs	pc, {r0, r2, r5, r6, r8, r9, sl, fp, ip, lr}^	; <UNPREDICTABLE>
    88f8:	58450029 	stmdapl	r5, {r0, r3, r5}^
    88fc:	5f394954 	svcpl	0x00394954
    8900:	6c6c6143 	stfvse	f6, [ip], #-268	; 0xfffffef4
    8904:	6b636142 	blvs	18e0e14 <_Min_Stack_Size+0x18e0a14>
    8908:	524c4300 	subpl	r4, ip, #0, 6
    890c:	7369445f 	cmnvc	r9, #1593835520	; 0x5f000000
    8910:	79616c70 	stmdbvc	r1!, {r4, r5, r6, sl, fp, sp, lr}^
    8914:	30783020 	rsbscc	r3, r8, r0, lsr #32
    8918:	49550031 	ldmdbmi	r5, {r0, r4, r5}^
    891c:	5f38544e 	svcpl	0x0038544e
    8920:	2058414d 	subscs	r4, r8, sp, asr #2
    8924:	555f5f28 	ldrbpl	r5, [pc, #-3880]	; 7a04 <_Min_Stack_Size+0x7604>
    8928:	38544e49 	ldmdacc	r4, {r0, r3, r6, r9, sl, fp, lr}^
    892c:	58414d5f 	stmdapl	r1, {r0, r1, r2, r3, r4, r6, r8, sl, fp, lr}^
    8930:	00295f5f 	eoreq	r5, r9, pc, asr pc
    8934:	4f4c5f5f 	svcmi	0x004c5f5f
    8938:	4d5f474e 	ldclmi	7, cr4, [pc, #-312]	; 8808 <_Min_Stack_Size+0x8408>
    893c:	5f5f5841 	svcpl	0x005f5841
    8940:	37783020 	ldrbcc	r3, [r8, -r0, lsr #32]!
    8944:	66666666 	strbtvs	r6, [r6], -r6, ror #12
    8948:	4c666666 	stclmi	6, cr6, [r6], #-408	; 0xfffffe68
    894c:	43565300 	cmpmi	r6, #0, 6
    8950:	6e61485f 	mcrvs	8, 3, r4, cr1, cr15, {2}
    8954:	72656c64 	rsbvc	r6, r5, #100, 24	; 0x6400
    8958:	59535f00 	ldmdbpl	r3, {r8, r9, sl, fp, ip, lr}^
    895c:	44435f53 	strbmi	r5, [r3], #-3923	; 0xfffff0ad
    8960:	5f534645 	svcpl	0x00534645
    8964:	00205f48 	eoreq	r5, r0, r8, asr #30
    8968:	74737953 	ldrbtvc	r7, [r3], #-2387	; 0xfffff6ad
    896c:	4d5f6d65 	ldclmi	13, cr6, [pc, #-404]	; 87e0 <_Min_Stack_Size+0x83e0>
    8970:	726f6d65 	rsbvc	r6, pc, #6464	; 0x1940
    8974:	41425f79 	hvcmi	9721	; 0x25f9
    8978:	30204553 	eorcc	r4, r0, r3, asr r5
    897c:	46463178 			; <UNDEFINED> instruction: 0x46463178
    8980:	30304646 	eorscc	r4, r0, r6, asr #12
    8984:	004c5530 	subeq	r5, ip, r0, lsr r5
    8988:	20554e47 	subscs	r4, r5, r7, asr #28
    898c:	20313143 	eorscs	r3, r1, r3, asr #2
    8990:	2e332e37 	mrccs	14, 1, r2, cr3, cr7, {1}
    8994:	30322031 	eorscc	r2, r2, r1, lsr r0
    8998:	36303831 			; <UNDEFINED> instruction: 0x36303831
    899c:	28203232 	stmdacs	r0!, {r1, r4, r5, r9, ip, sp}
    89a0:	656c6572 	strbvs	r6, [ip, #-1394]!	; 0xfffffa8e
    89a4:	29657361 	stmdbcs	r5!, {r0, r5, r6, r8, r9, ip, sp, lr}^
    89a8:	52415b20 	subpl	r5, r1, #32, 22	; 0x8000
    89ac:	6d652f4d 	stclvs	15, cr2, [r5, #-308]!	; 0xfffffecc
    89b0:	64646562 	strbtvs	r6, [r4], #-1378	; 0xfffffa9e
    89b4:	372d6465 	strcc	r6, [sp, -r5, ror #8]!
    89b8:	6172622d 	cmnvs	r2, sp, lsr #4
    89bc:	2068636e 	rsbcs	r6, r8, lr, ror #6
    89c0:	69766572 	ldmdbvs	r6!, {r1, r4, r5, r6, r8, sl, sp, lr}^
    89c4:	6e6f6973 			; <UNDEFINED> instruction: 0x6e6f6973
    89c8:	31363220 	teqcc	r6, r0, lsr #4
    89cc:	5d373039 	ldcpl	0, cr3, [r7, #-228]!	; 0xffffff1c
    89d0:	636d2d20 	cmnvs	sp, #32, 26	; 0x800
    89d4:	633d7570 	teqvs	sp, #112, 10	; 0x1c000000
    89d8:	6574726f 	ldrbvs	r7, [r4, #-623]!	; 0xfffffd91
    89dc:	336d2d78 	cmncc	sp, #120, 26	; 0x1e00
    89e0:	666d2d20 	strbtvs	r2, [sp], -r0, lsr #26
    89e4:	74616f6c 	strbtvc	r6, [r1], #-3948	; 0xfffff094
    89e8:	6962612d 	stmdbvs	r2!, {r0, r2, r3, r5, r8, sp, lr}^
    89ec:	666f733d 			; <UNDEFINED> instruction: 0x666f733d
    89f0:	6d2d2074 	stcvs	0, cr2, [sp, #-464]!	; 0xfffffe30
    89f4:	6d756874 	ldclvs	8, cr6, [r5, #-464]!	; 0xfffffe30
    89f8:	672d2062 	strvs	r2, [sp, -r2, rrx]!
    89fc:	72617764 	rsbvc	r7, r1, #100, 14	; 0x1900000
    8a00:	20322d66 	eorscs	r2, r2, r6, ror #26
    8a04:	2033672d 	eorscs	r6, r3, sp, lsr #14
    8a08:	20304f2d 	eorscs	r4, r0, sp, lsr #30
    8a0c:	6474732d 	ldrbtvs	r7, [r4], #-813	; 0xfffffcd3
    8a10:	756e673d 	strbvc	r6, [lr, #-1853]!	; 0xfffff8c3
    8a14:	2d203131 	stfcss	f3, [r0, #-196]!	; 0xffffff3c
    8a18:	6e756666 	cdpvs	6, 7, cr6, cr5, cr6, {3}
    8a1c:	6f697463 	svcvs	0x00697463
    8a20:	65732d6e 	ldrbvs	r2, [r3, #-3438]!	; 0xfffff292
    8a24:	6f697463 	svcvs	0x00697463
    8a28:	2d20736e 	stccs	3, cr7, [r0, #-440]!	; 0xfffffe48
    8a2c:	74616466 	strbtvc	r6, [r1], #-1126	; 0xfffffb9a
    8a30:	65732d61 	ldrbvs	r2, [r3, #-3425]!	; 0xfffff29f
    8a34:	6f697463 	svcvs	0x00697463
    8a38:	2d20736e 	stccs	3, cr7, [r0, #-440]!	; 0xfffffe48
    8a3c:	61747366 	cmnvs	r4, r6, ror #6
    8a40:	752d6b63 	strvc	r6, [sp, #-2915]!	; 0xfffff49d
    8a44:	65676173 	strbvs	r6, [r7, #-371]!	; 0xfffffe8d
    8a48:	6e6f6c00 	cdpvs	12, 6, cr6, cr15, cr0, {0}
    8a4c:	342b2067 	strtcc	r2, [fp], #-103	; 0xffffff99
    8a50:	54584500 	ldrbpl	r4, [r8], #-1280	; 0xfffffb00
    8a54:	33203349 			; <UNDEFINED> instruction: 0x33203349
    8a58:	6e5f5f00 	cdpvs	15, 5, cr5, cr15, cr0, {0}
    8a5c:	756e6e6f 	strbvc	r6, [lr, #-3695]!	; 0xfffff191
    8a60:	78286c6c 	stmdavc	r8!, {r2, r3, r5, r6, sl, fp, sp, lr}
    8a64:	5f5f2029 	svcpl	0x005f2029
    8a68:	72747461 	rsbsvc	r7, r4, #1627389952	; 0x61000000
    8a6c:	74756269 	ldrbtvc	r6, [r5], #-617	; 0xfffffd97
    8a70:	285f5f65 	ldmdacs	pc, {r0, r2, r5, r6, r8, r9, sl, fp, ip, lr}^	; <UNPREDICTABLE>
    8a74:	6e5f5f28 	cdpvs	15, 5, cr5, cr15, cr8, {1}
    8a78:	756e6e6f 	strbvc	r6, [lr, #-3695]!	; 0xfffff191
    8a7c:	5f5f6c6c 	svcpl	0x005f6c6c
    8a80:	29297820 	stmdbcs	r9!, {r5, fp, ip, sp, lr}
    8a84:	41525f00 	cmpmi	r2, r0, lsl #30
    8a88:	3834444e 	ldmdacc	r4!, {r1, r2, r3, r6, sl, lr}
    8a8c:	4444415f 	strbmi	r4, [r4], #-351	; 0xfffffea1
    8a90:	78302820 	ldmdavc	r0!, {r5, fp, sp}
    8a94:	62303030 	eorsvs	r3, r0, #48	; 0x30
    8a98:	58450029 	stmdapl	r5, {r0, r3, r5}^
    8a9c:	465f5449 	ldrbmi	r5, [pc], -r9, asr #8
    8aa0:	554c4941 	strbpl	r4, [ip, #-2369]	; 0xfffff6bf
    8aa4:	31204552 			; <UNDEFINED> instruction: 0x31204552
    8aa8:	54584500 	ldrbpl	r4, [r8], #-1280	; 0xfffffb00
    8aac:	20333149 	eorscs	r3, r3, r9, asr #2
    8ab0:	5f003331 	svcpl	0x00003331
    8ab4:	4d52415f 	ldfmie	f4, [r2, #-380]	; 0xfffffe84
    8ab8:	4145465f 	cmpmi	r5, pc, asr r6
    8abc:	45525554 	ldrbmi	r5, [r2, #-1364]	; 0xfffffaac
    8ac0:	52444c5f 	subpl	r4, r4, #24320	; 0x5f00
    8ac4:	37205845 	strcc	r5, [r0, -r5, asr #16]!
    8ac8:	54584500 	ldrbpl	r4, [r8], #-1280	; 0xfffffb00
    8acc:	44503049 	ldrbmi	r3, [r0], #-73	; 0xffffffb7
    8ad0:	45282030 	strmi	r2, [r8, #-48]!	; 0xffffffd0
    8ad4:	5f495458 	svcpl	0x00495458
    8ad8:	4f495047 	svcmi	0x00495047
    8adc:	70614d5f 	rsbvc	r4, r1, pc, asr sp
    8ae0:	5f676e69 	svcpl	0x00676e69
    8ae4:	457b2974 	ldrbmi	r2, [fp, #-2420]!	; 0xfffff68c
    8ae8:	30495458 	subcc	r5, r9, r8, asr r4
    8aec:	4950472c 	ldmdbmi	r0, {r2, r3, r5, r8, r9, sl, lr}^
    8af0:	472c444f 	strmi	r4, [ip, -pc, asr #8]!
    8af4:	5f4f4950 	svcpl	0x004f4950
    8af8:	5f4e4950 	svcpl	0x004e4950
    8afc:	58452c30 	stmdapl	r5, {r4, r5, sl, fp, sp}^
    8b00:	5f304954 	svcpl	0x00304954
    8b04:	7d515249 	lfmvc	f5, 2, [r1, #-292]	; 0xfffffedc
    8b08:	4e495f00 	cdpmi	15, 4, cr5, cr9, cr0, {0}
    8b0c:	5f323354 	svcpl	0x00323354
    8b10:	4c5f5145 	ldfmie	f5, [pc], {69}	; 0x45
    8b14:	20474e4f 	subcs	r4, r7, pc, asr #28
    8b18:	4c5f5f00 	mrrcmi	15, 0, r5, pc, cr0	; <UNPREDICTABLE>
    8b1c:	4152464c 	cmpmi	r2, ip, asr #12
    8b20:	455f5443 	ldrbmi	r5, [pc, #-1091]	; 86e5 <_Min_Stack_Size+0x82e5>
    8b24:	4c495350 	mcrrmi	3, 5, r5, r9, cr0
    8b28:	5f5f4e4f 	svcpl	0x005f4e4f
    8b2c:	31783020 	cmncc	r8, r0, lsr #32
    8b30:	33362d50 	teqcc	r6, #80, 26	; 0x1400
    8b34:	00524c4c 	subseq	r4, r2, ip, asr #24
    8b38:	4f495047 	svcmi	0x00495047
    8b3c:	444f4d5f 	strbmi	r4, [pc], #-3423	; 8b44 <_Min_Stack_Size+0x8744>
    8b40:	554f5f45 	strbpl	r5, [pc, #-3909]	; 7c03 <_Min_Stack_Size+0x7803>
    8b44:	54555054 	ldrbpl	r5, [r5], #-84	; 0xffffffac
    8b48:	45504f5f 	ldrbmi	r4, [r0, #-3935]	; 0xfffff0a1
    8b4c:	4152444e 	cmpmi	r2, lr, asr #8
    8b50:	30204e49 	eorcc	r4, r0, r9, asr #28
    8b54:	30303078 	eorscc	r3, r0, r8, ror r0
    8b58:	30303030 	eorscc	r3, r0, r0, lsr r0
    8b5c:	5f007535 	svcpl	0x00007535
    8b60:	4d52415f 	ldfmie	f4, [r2, #-380]	; 0xfffffe84
    8b64:	4145465f 	cmpmi	r5, pc, asr r6
    8b68:	45525554 	ldrbmi	r5, [r2, #-1364]	; 0xfffffaac
    8b6c:	4d49535f 	stclmi	3, cr5, [r9, #-380]	; 0xfffffe84
    8b70:	00323344 	eorseq	r3, r2, r4, asr #6
    8b74:	4c465f5f 	mcrrmi	15, 5, r5, r6, cr15
    8b78:	58323354 	ldmdapl	r2!, {r2, r4, r6, r8, r9, ip, sp}
    8b7c:	4e414d5f 	mcrmi	13, 2, r4, cr1, cr15, {2}
    8b80:	49445f54 	stmdbmi	r4, {r2, r4, r6, r8, r9, sl, fp, ip, lr}^
    8b84:	205f5f47 	subscs	r5, pc, r7, asr #30
    8b88:	45003335 	strmi	r3, [r0, #-821]	; 0xfffffccb
    8b8c:	38495458 	stmdacc	r9, {r3, r4, r6, sl, ip, lr}^
    8b90:	47003820 	strmi	r3, [r0, -r0, lsr #16]
    8b94:	5f4f4950 	svcpl	0x004f4950
    8b98:	5f4e4950 	svcpl	0x004e4950
    8b9c:	28203131 	stmdacs	r0!, {r0, r4, r5, r8, ip, sp}
    8ba0:	6e697528 	cdpvs	5, 6, cr7, cr9, cr8, {1}
    8ba4:	5f363174 	svcpl	0x00363174
    8ba8:	78302974 	ldmdavc	r0!, {r2, r4, r5, r6, r8, fp, sp}
    8bac:	30303830 	eorscc	r3, r0, r0, lsr r8
    8bb0:	5f5f0029 	svcpl	0x005f0029
    8bb4:	41484357 	cmpmi	r8, r7, asr r3
    8bb8:	49575f52 	ldmdbmi	r7, {r1, r4, r6, r8, r9, sl, fp, ip, lr}^
    8bbc:	5f485444 	svcpl	0x00485444
    8bc0:	3233205f 	eorscc	r2, r3, #95	; 0x5f
    8bc4:	4e495f00 	cdpmi	15, 4, cr5, cr9, cr0, {0}
    8bc8:	5f343654 	svcpl	0x00343654
    8bcc:	45445f54 	strbmi	r5, [r4, #-3924]	; 0xfffff0ac
    8bd0:	52414c43 	subpl	r4, r1, #17152	; 0x4300
    8bd4:	00204445 	eoreq	r4, r0, r5, asr #8
    8bd8:	67735f5f 			; <UNDEFINED> instruction: 0x67735f5f
    8bdc:	0065756c 	rsbeq	r7, r5, ip, ror #10
    8be0:	4f435f5f 	svcmi	0x00435f5f
    8be4:	5441434e 	strbpl	r4, [r1], #-846	; 0xfffffcb2
    8be8:	792c7828 	stmdbvc	ip!, {r3, r5, fp, ip, sp, lr}
    8bec:	5f5f2029 	svcpl	0x005f2029
    8bf0:	434e4f43 	movtmi	r4, #61251	; 0xef43
    8bf4:	28315441 	ldmdacs	r1!, {r0, r6, sl, ip, lr}
    8bf8:	29792c78 	ldmdbcs	r9!, {r3, r4, r5, r6, sl, fp, sp}^
    8bfc:	495f5f00 	ldmdbmi	pc, {r8, r9, sl, fp, ip, lr}^	; <UNPREDICTABLE>
    8c00:	3631544e 	ldrtcc	r5, [r1], -lr, asr #8
    8c04:	6328435f 			; <UNDEFINED> instruction: 0x6328435f
    8c08:	00632029 	rsbeq	r2, r3, r9, lsr #32
    8c0c:	5f545649 	svcpl	0x00545649
    8c10:	5f515249 	svcpl	0x00515249
    8c14:	626d754e 	rsbvs	r7, sp, #327155712	; 0x13800000
    8c18:	54007265 	strpl	r7, [r0], #-613	; 0xfffffd9b
    8c1c:	5f6b7361 	svcpl	0x006b7361
    8c20:	74735f42 	ldrbtvc	r5, [r3], #-3906	; 0xfffff0be
    8c24:	5f6b6361 	svcpl	0x006b6361
    8c28:	657a6973 	ldrbvs	r6, [sl, #-2419]!	; 0xfffff68d
    8c2c:	30303120 	eorscc	r3, r0, r0, lsr #2
    8c30:	54584500 	ldrbpl	r4, [r8], #-1280	; 0xfffffb00
    8c34:	44503849 	ldrbmi	r3, [r0], #-2121	; 0xfffff7b7
    8c38:	45282038 	strmi	r2, [r8, #-56]!	; 0xffffffc8
    8c3c:	5f495458 	svcpl	0x00495458
    8c40:	4f495047 	svcmi	0x00495047
    8c44:	70614d5f 	rsbvc	r4, r1, pc, asr sp
    8c48:	5f676e69 	svcpl	0x00676e69
    8c4c:	457b2974 	ldrbmi	r2, [fp, #-2420]!	; 0xfffff68c
    8c50:	38495458 	stmdacc	r9, {r3, r4, r6, sl, ip, lr}^
    8c54:	4950472c 	ldmdbmi	r0, {r2, r3, r5, r8, r9, sl, lr}^
    8c58:	472c444f 	strmi	r4, [ip, -pc, asr #8]!
    8c5c:	5f4f4950 	svcpl	0x004f4950
    8c60:	5f4e4950 	svcpl	0x004e4950
    8c64:	58452c38 	stmdapl	r5, {r3, r4, r5, sl, fp, sp}^
    8c68:	5f384954 	svcpl	0x00384954
    8c6c:	7d515249 	lfmvc	f5, 2, [r1, #-292]	; 0xfffffedc
    8c70:	445f5f00 	ldrbmi	r5, [pc], #-3840	; 8c78 <_Min_Stack_Size+0x8878>
    8c74:	42495f41 	submi	r5, r9, #260	; 0x104
    8c78:	5f5f5449 	svcpl	0x005f5449
    8c7c:	00323320 	eorseq	r3, r2, r0, lsr #6
    8c80:	4f495047 	svcmi	0x00495047
    8c84:	41425f45 	cmpmi	r2, r5, asr #30
    8c88:	30204553 	eorcc	r4, r0, r3, asr r5
    8c8c:	30303478 	eorscc	r3, r0, r8, ror r4
    8c90:	30383131 	eorscc	r3, r8, r1, lsr r1
    8c94:	004c5530 	subeq	r5, ip, r0, lsr r5
    8c98:	74735f5f 	ldrbtvc	r5, [r3], #-3935	; 0xfffff0a1
    8c9c:	69746672 	ldmdbvs	r4!, {r1, r4, r5, r6, r9, sl, sp, lr}^
    8ca0:	696c656d 	stmdbvs	ip!, {r0, r2, r3, r5, r6, r8, sl, sp, lr}^
    8ca4:	6628656b 	strtvs	r6, [r8], -fp, ror #10
    8ca8:	7261746d 	rsbvc	r7, r1, #1828716544	; 0x6d000000
    8cac:	69662c67 	stmdbvs	r6!, {r0, r1, r2, r5, r6, sl, fp, sp}^
    8cb0:	76747372 			; <UNDEFINED> instruction: 0x76747372
    8cb4:	72617261 	rsbvc	r7, r1, #268435462	; 0x10000006
    8cb8:	5f202967 	svcpl	0x00202967
    8cbc:	7474615f 	ldrbtvc	r6, [r4], #-351	; 0xfffffea1
    8cc0:	75626972 	strbvc	r6, [r2, #-2418]!	; 0xfffff68e
    8cc4:	5f5f6574 	svcpl	0x005f6574
    8cc8:	5f5f2828 	svcpl	0x005f2828
    8ccc:	6d726f66 	ldclvs	15, cr6, [r2, #-408]!	; 0xfffffe68
    8cd0:	5f5f7461 	svcpl	0x005f7461
    8cd4:	5f5f2820 	svcpl	0x005f2820
    8cd8:	66727473 			; <UNDEFINED> instruction: 0x66727473
    8cdc:	656d6974 	strbvs	r6, [sp, #-2420]!	; 0xfffff68c
    8ce0:	202c5f5f 	eorcs	r5, ip, pc, asr pc
    8ce4:	61746d66 	cmnvs	r4, r6, ror #26
    8ce8:	202c6772 	eorcs	r6, ip, r2, ror r7
    8cec:	73726966 	cmnvc	r2, #1671168	; 0x198000
    8cf0:	72617674 	rsbvc	r7, r1, #116, 12	; 0x7400000
    8cf4:	29677261 	stmdbcs	r7!, {r0, r5, r6, r9, ip, sp, lr}^
    8cf8:	5f002929 	svcpl	0x00002929
    8cfc:	5f6d745f 	svcpl	0x006d745f
    8d00:	73647369 	cmnvc	r4, #-1543503871	; 0xa4000001
    8d04:	50470074 	subpl	r0, r7, r4, ror r0
    8d08:	505f4f49 	subspl	r4, pc, r9, asr #30
    8d0c:	345f4e49 	ldrbcc	r4, [pc], #-3657	; 8d14 <_Min_Stack_Size+0x8914>
    8d10:	75282820 	strvc	r2, [r8, #-2080]!	; 0xfffff7e0
    8d14:	31746e69 	cmncc	r4, r9, ror #28
    8d18:	29745f36 	ldmdbcs	r4!, {r1, r2, r4, r5, r8, r9, sl, fp, ip, lr}^
    8d1c:	30307830 	eorscc	r7, r0, r0, lsr r8
    8d20:	00293031 	eoreq	r3, r9, r1, lsr r0
    8d24:	45445f5f 	strbmi	r5, [r4, #-3935]	; 0xfffff0a1
    8d28:	4c415551 	cfstr64mi	mvdx5, [r1], {81}	; 0x51
    8d2c:	28594649 	ldmdacs	r9, {r0, r3, r6, r9, sl, lr}^
    8d30:	65707974 	ldrbvs	r7, [r0, #-2420]!	; 0xfffff68c
    8d34:	7261762c 	rsbvc	r7, r1, #44, 12	; 0x2c00000
    8d38:	28282029 	stmdacs	r8!, {r0, r3, r5, sp}
    8d3c:	65707974 	ldrbvs	r7, [r0, #-2420]!	; 0xfffff68c
    8d40:	5f5f2829 	svcpl	0x005f2829
    8d44:	746e6975 	strbtvc	r6, [lr], #-2421	; 0xfffff68b
    8d48:	5f727470 	svcpl	0x00727470
    8d4c:	63282974 			; <UNDEFINED> instruction: 0x63282974
    8d50:	74736e6f 	ldrbtvc	r6, [r3], #-3695	; 0xfffff191
    8d54:	6c6f7620 	stclvs	6, cr7, [pc], #-128	; 8cdc <_Min_Stack_Size+0x88dc>
    8d58:	6c697461 	cfstrdvs	mvd7, [r9], #-388	; 0xfffffe7c
    8d5c:	6f762065 	svcvs	0x00762065
    8d60:	2a206469 	bcs	821f0c <_Min_Stack_Size+0x821b0c>
    8d64:	61762829 	cmnvs	r6, r9, lsr #16
    8d68:	00292972 	eoreq	r2, r9, r2, ror r9
    8d6c:	54415f5f 	strbpl	r5, [r1], #-3935	; 0xfffff0a1
    8d70:	43494d4f 	movtmi	r4, #40271	; 0x9d4f
    8d74:	5143415f 	cmppl	r3, pc, asr r1
    8d78:	4c45525f 	sfmmi	f5, 2, [r5], {95}	; 0x5f
    8d7c:	5f003420 	svcpl	0x00003420
    8d80:	455a4953 	ldrbmi	r4, [sl, #-2387]	; 0xfffff6ad
    8d84:	445f545f 	ldrbmi	r5, [pc], #-1119	; 8d8c <_Min_Stack_Size+0x898c>
    8d88:	4e494645 	cdpmi	6, 4, cr4, cr9, cr5, {2}
    8d8c:	00204445 	eoreq	r4, r0, r5, asr #8
    8d90:	51485f5f 	cmppl	r8, pc, asr pc
    8d94:	4942495f 	stmdbmi	r2, {r0, r1, r2, r3, r4, r6, r8, fp, lr}^
    8d98:	205f5f54 	subscs	r5, pc, r4, asr pc	; <UNPREDICTABLE>
    8d9c:	5f5f0030 	svcpl	0x005f0030
    8da0:	6b636170 	blvs	18e1368 <_Min_Stack_Size+0x18e0f68>
    8da4:	5f206465 	svcpl	0x00206465
    8da8:	7474615f 	ldrbtvc	r6, [r4], #-351	; 0xfffffea1
    8dac:	75626972 	strbvc	r6, [r2, #-2418]!	; 0xfffff68e
    8db0:	5f5f6574 	svcpl	0x005f6574
    8db4:	5f5f2828 	svcpl	0x005f2828
    8db8:	6b636170 	blvs	18e1380 <_Min_Stack_Size+0x18e0f80>
    8dbc:	5f5f6465 	svcpl	0x005f6465
    8dc0:	5f002929 	svcpl	0x00002929
    8dc4:	41484357 	cmpmi	r8, r7, asr r3
    8dc8:	5f545f52 	svcpl	0x00545f52
    8dcc:	49464544 	stmdbmi	r6, {r2, r6, r8, sl, lr}^
    8dd0:	5f44454e 	svcpl	0x0044454e
    8dd4:	50470020 	subpl	r0, r7, r0, lsr #32
    8dd8:	4d5f4f49 	ldclmi	15, cr4, [pc, #-292]	; 8cbc <_Min_Stack_Size+0x88bc>
    8ddc:	5f45444f 	svcpl	0x0045444f
    8de0:	55504e49 	ldrbpl	r4, [r0, #-3657]	; 0xfffff1b7
    8de4:	55505f54 	ldrbpl	r5, [r0, #-3924]	; 0xfffff0ac
    8de8:	4f444c4c 	svcmi	0x00444c4c
    8dec:	30204e57 	eorcc	r4, r0, r7, asr lr
    8df0:	30303078 	eorscc	r3, r0, r8, ror r0
    8df4:	30303030 	eorscc	r3, r0, r0, lsr r0
    8df8:	53007533 	movwpl	r7, #1331	; 0x533
    8dfc:	32334d54 	eorscc	r4, r3, #84, 26	; 0x1500
    8e00:	31203146 			; <UNDEFINED> instruction: 0x31203146
    8e04:	54584500 	ldrbpl	r4, [r8], #-1280	; 0xfffffb00
    8e08:	42503849 	subsmi	r3, r0, #4784128	; 0x490000
    8e0c:	45282038 	strmi	r2, [r8, #-56]!	; 0xffffffc8
    8e10:	5f495458 	svcpl	0x00495458
    8e14:	4f495047 	svcmi	0x00495047
    8e18:	70614d5f 	rsbvc	r4, r1, pc, asr sp
    8e1c:	5f676e69 	svcpl	0x00676e69
    8e20:	457b2974 	ldrbmi	r2, [fp, #-2420]!	; 0xfffff68c
    8e24:	38495458 	stmdacc	r9, {r3, r4, r6, sl, ip, lr}^
    8e28:	4950472c 	ldmdbmi	r0, {r2, r3, r5, r8, r9, sl, lr}^
    8e2c:	472c424f 	strmi	r4, [ip, -pc, asr #4]!
    8e30:	5f4f4950 	svcpl	0x004f4950
    8e34:	5f4e4950 	svcpl	0x004e4950
    8e38:	58452c38 	stmdapl	r5, {r3, r4, r5, sl, fp, sp}^
    8e3c:	5f384954 	svcpl	0x00384954
    8e40:	7d515249 	lfmvc	f5, 2, [r1, #-292]	; 0xfffffedc
    8e44:	69725400 	ldmdbvs	r2!, {sl, ip, lr}^
    8e48:	72656767 	rsbvc	r6, r5, #27000832	; 0x19c0000
    8e4c:	65736143 	ldrbvs	r6, [r3, #-323]!	; 0xfffffebd
    8e50:	615f5f00 	cmpvs	pc, r0, lsl #30
    8e54:	72657373 	rsbvc	r7, r5, #-872415231	; 0xcc000001
    8e58:	735f7374 	cmpvc	pc, #116, 6	; 0xd0000001
    8e5c:	65726168 	ldrbvs	r6, [r2, #-360]!	; 0xfffffe98
    8e60:	2e2e2864 	cdpcs	8, 2, cr2, cr14, cr4, {3}
    8e64:	5f20292e 	svcpl	0x0020292e
    8e68:	636f6c5f 	cmnvs	pc, #24320	; 0x5f00
    8e6c:	6e615f6b 	cdpvs	15, 6, cr5, cr1, cr11, {3}
    8e70:	61746f6e 	cmnvs	r4, lr, ror #30
    8e74:	61286574 			; <UNDEFINED> instruction: 0x61286574
    8e78:	72657373 	rsbvc	r7, r5, #-872415231	; 0xcc000001
    8e7c:	68735f74 	ldmdavs	r3!, {r2, r4, r5, r6, r8, r9, sl, fp, ip, lr}^
    8e80:	64657261 	strbtvs	r7, [r5], #-609	; 0xfffffd9f
    8e84:	636f6c5f 	cmnvs	pc, #24320	; 0x5f00
    8e88:	5f5f286b 	svcpl	0x005f286b
    8e8c:	415f4156 	cmpmi	pc, r6, asr r1	; <UNPREDICTABLE>
    8e90:	5f534752 	svcpl	0x00534752
    8e94:	0029295f 	eoreq	r2, r9, pc, asr r9
    8e98:	59535f5f 	ldmdbpl	r3, {r0, r1, r2, r3, r4, r6, r8, r9, sl, fp, ip, lr}^
    8e9c:	4f4c5f53 	svcmi	0x004c5f53
    8ea0:	485f4b43 	ldmdami	pc, {r0, r1, r6, r8, r9, fp, lr}^	; <UNPREDICTABLE>
    8ea4:	00205f5f 	eoreq	r5, r0, pc, asr pc
    8ea8:	6e695f5f 	mcrvs	15, 3, r5, cr9, cr15, {2}
    8eac:	00303274 	eorseq	r3, r0, r4, ror r2
    8eb0:	4e414e5f 	mcrmi	14, 2, r4, cr1, cr15, {2}
    8eb4:	4f465f4f 	svcmi	0x00465f4f
    8eb8:	54414d52 	strbpl	r4, [r1], #-3410	; 0xfffff2ae
    8ebc:	5f444554 	svcpl	0x00444554
    8ec0:	31204f49 			; <UNDEFINED> instruction: 0x31204f49
    8ec4:	544e4900 	strbpl	r4, [lr], #-2304	; 0xfffff700
    8ec8:	5341465f 	movtpl	r4, #5727	; 0x165f
    8ecc:	5f323354 	svcpl	0x00323354
    8ed0:	2058414d 	subscs	r4, r8, sp, asr #2
    8ed4:	495f5f28 	ldmdbmi	pc, {r3, r5, r8, r9, sl, fp, ip, lr}^	; <UNPREDICTABLE>
    8ed8:	465f544e 	ldrbmi	r5, [pc], -lr, asr #8
    8edc:	33545341 	cmpcc	r4, #67108865	; 0x4000001
    8ee0:	414d5f32 	cmpmi	sp, r2, lsr pc
    8ee4:	295f5f58 	ldmdbcs	pc, {r3, r4, r6, r8, r9, sl, fp, ip, lr}^	; <UNPREDICTABLE>
    8ee8:	745f5f00 	ldrbvc	r5, [pc], #-3840	; 8ef0 <_Min_Stack_Size+0x8af0>
    8eec:	696d5f6d 	stmdbvs	sp!, {r0, r2, r3, r5, r6, r8, r9, sl, fp, ip, lr}^
    8ef0:	525f006e 	subspl	r0, pc, #110	; 0x6e
    8ef4:	544e4545 	strbpl	r4, [lr], #-1349	; 0xfffffabb
    8ef8:	4353415f 	cmpmi	r3, #-1073741801	; 0xc0000017
    8efc:	454d4954 	strbmi	r4, [sp, #-2388]	; 0xfffff6ac
    8f00:	5a49535f 	bpl	125dc84 <_Min_Stack_Size+0x125d884>
    8f04:	36322045 	ldrtcc	r2, [r2], -r5, asr #32
    8f08:	544e4900 	strbpl	r4, [lr], #-2304	; 0xfffff700
    8f0c:	5f525450 	svcpl	0x00525450
    8f10:	204e494d 	subcs	r4, lr, sp, asr #18
    8f14:	5f5f2d28 	svcpl	0x005f2d28
    8f18:	50544e49 	subspl	r4, r4, r9, asr #28
    8f1c:	4d5f5254 	lfmmi	f5, 2, [pc, #-336]	; 8dd4 <_Min_Stack_Size+0x89d4>
    8f20:	5f5f5841 	svcpl	0x005f5841
    8f24:	31202d20 			; <UNDEFINED> instruction: 0x31202d20
    8f28:	54500029 	ldrbpl	r0, [r0], #-41	; 0xffffffd7
    8f2c:	46494452 			; <UNDEFINED> instruction: 0x46494452
    8f30:	494d5f46 	stmdbmi	sp, {r1, r2, r6, r8, r9, sl, fp, ip, lr}^
    8f34:	2d28204e 	stccs	0, cr2, [r8, #-312]!	; 0xfffffec8
    8f38:	44525450 	ldrbmi	r5, [r2], #-1104	; 0xfffffbb0
    8f3c:	5f464649 	svcpl	0x00464649
    8f40:	2058414d 	subscs	r4, r8, sp, asr #2
    8f44:	2931202d 	ldmdbcs	r1!, {r0, r2, r3, r5, sp}
    8f48:	4f505f00 	svcmi	0x00505f00
    8f4c:	5f584953 	svcpl	0x00584953
    8f50:	4f535f43 	svcmi	0x00535f43
    8f54:	45435255 	strbmi	r5, [r3, #-597]	; 0xfffffdab
    8f58:	555f5f00 	ldrbpl	r5, [pc, #-3840]	; 8060 <_Min_Stack_Size+0x7c60>
    8f5c:	4d544e49 	ldclmi	14, cr4, [r4, #-292]	; 0xfffffedc
    8f60:	4d5f5841 	ldclmi	8, cr5, [pc, #-260]	; 8e64 <_Min_Stack_Size+0x8a64>
    8f64:	5f5f5841 	svcpl	0x005f5841
    8f68:	66783020 	ldrbtvs	r3, [r8], -r0, lsr #32
    8f6c:	66666666 	strbtvs	r6, [r6], -r6, ror #12
    8f70:	66666666 	strbtvs	r6, [r6], -r6, ror #12
    8f74:	66666666 	strbtvs	r6, [r6], -r6, ror #12
    8f78:	55666666 	strbpl	r6, [r6, #-1638]!	; 0xfffff99a
    8f7c:	5f004c4c 	svcpl	0x00004c4c
    8f80:	4c42445f 	cfstrdmi	mvd4, [r2], {95}	; 0x5f
    8f84:	4e414d5f 	mcrmi	13, 2, r4, cr1, cr15, {2}
    8f88:	49445f54 	stmdbmi	r4, {r2, r4, r6, r8, r9, sl, fp, ip, lr}^
    8f8c:	205f5f47 	subscs	r5, pc, r7, asr #30
    8f90:	5f003335 	svcpl	0x00003335
    8f94:	464c555f 			; <UNDEFINED> instruction: 0x464c555f
    8f98:	54434152 	strbpl	r4, [r3], #-338	; 0xfffffeae
    8f9c:	4942495f 	stmdbmi	r2, {r0, r1, r2, r3, r4, r6, r8, fp, lr}^
    8fa0:	205f5f54 	subscs	r5, pc, r4, asr pc	; <UNPREDICTABLE>
    8fa4:	58450030 	stmdapl	r5, {r4, r5}^
    8fa8:	50334954 	eorspl	r4, r3, r4, asr r9
    8fac:	28203341 	stmdacs	r0!, {r0, r6, r8, r9, ip, sp}
    8fb0:	49545845 	ldmdbmi	r4, {r0, r2, r6, fp, ip, lr}^
    8fb4:	4950475f 	ldmdbmi	r0, {r0, r1, r2, r3, r4, r6, r8, r9, sl, lr}^
    8fb8:	614d5f4f 	cmpvs	sp, pc, asr #30
    8fbc:	676e6970 			; <UNDEFINED> instruction: 0x676e6970
    8fc0:	7b29745f 	blvc	a66144 <_Min_Stack_Size+0xa65d44>
    8fc4:	49545845 	ldmdbmi	r4, {r0, r2, r6, fp, ip, lr}^
    8fc8:	50472c33 	subpl	r2, r7, r3, lsr ip
    8fcc:	2c414f49 	mcrrcs	15, 4, r4, r1, cr9
    8fd0:	4f495047 	svcmi	0x00495047
    8fd4:	4e49505f 	mcrmi	0, 2, r5, cr9, cr15, {2}
    8fd8:	452c335f 	strmi	r3, [ip, #-863]!	; 0xfffffca1
    8fdc:	33495458 	movtcc	r5, #37976	; 0x9458
    8fe0:	5152495f 	cmppl	r2, pc, asr r9
    8fe4:	5f5f007d 	svcpl	0x005f007d
    8fe8:	465f4154 			; <UNDEFINED> instruction: 0x465f4154
    8fec:	5f544942 	svcpl	0x00544942
    8ff0:	3336205f 	teqcc	r6, #95	; 0x5f
    8ff4:	415f5f00 	cmpmi	pc, r0, lsl #30
    8ff8:	455f4d52 	ldrbmi	r4, [pc, #-3410]	; 82ae <_Min_Stack_Size+0x7eae>
    8ffc:	5f494241 	svcpl	0x00494241
    9000:	0031205f 	eorseq	r2, r1, pc, asr r0
    9004:	4e495f5f 	mcrmi	15, 2, r5, cr9, cr15, {2}
    9008:	454c5f54 	strbmi	r5, [ip, #-3924]	; 0xfffff0ac
    900c:	36545341 	ldrbcc	r5, [r4], -r1, asr #6
    9010:	59545f34 	ldmdbpl	r4, {r2, r4, r5, r8, r9, sl, fp, ip, lr}^
    9014:	5f5f4550 	svcpl	0x005f4550
    9018:	6e6f6c20 	cdpvs	12, 6, cr6, cr15, cr0, {1}
    901c:	6f6c2067 	svcvs	0x006c2067
    9020:	6920676e 	stmdbvs	r0!, {r1, r2, r3, r5, r6, r8, r9, sl, sp, lr}
    9024:	4500746e 	strmi	r7, [r0, #-1134]	; 0xfffffb92
    9028:	36495458 			; <UNDEFINED> instruction: 0x36495458
    902c:	20364450 	eorscs	r4, r6, r0, asr r4
    9030:	54584528 	ldrbpl	r4, [r8], #-1320	; 0xfffffad8
    9034:	50475f49 	subpl	r5, r7, r9, asr #30
    9038:	4d5f4f49 	ldclmi	15, cr4, [pc, #-292]	; 8f1c <_Min_Stack_Size+0x8b1c>
    903c:	6e697061 	cdpvs	0, 6, cr7, cr9, cr1, {3}
    9040:	29745f67 	ldmdbcs	r4!, {r0, r1, r2, r5, r6, r8, r9, sl, fp, ip, lr}^
    9044:	5458457b 	ldrbpl	r4, [r8], #-1403	; 0xfffffa85
    9048:	472c3649 	strmi	r3, [ip, -r9, asr #12]!
    904c:	444f4950 	strbmi	r4, [pc], #-2384	; 9054 <_Min_Stack_Size+0x8c54>
    9050:	4950472c 	ldmdbmi	r0, {r2, r3, r5, r8, r9, sl, lr}^
    9054:	49505f4f 	ldmdbmi	r0, {r0, r1, r2, r3, r6, r8, r9, sl, fp, ip, lr}^
    9058:	2c365f4e 	ldccs	15, cr5, [r6], #-312	; 0xfffffec8
    905c:	49545845 	ldmdbmi	r4, {r0, r2, r6, fp, ip, lr}^
    9060:	52495f36 	subpl	r5, r9, #54, 30	; 0xd8
    9064:	47007d51 	smlsdmi	r0, r1, sp, r7
    9068:	5f4f4950 	svcpl	0x004f4950
    906c:	5f4e4950 	svcpl	0x004e4950
    9070:	204c4c41 	subcs	r4, ip, r1, asr #24
    9074:	69752828 	ldmdbvs	r5!, {r3, r5, fp, sp}^
    9078:	3631746e 	ldrtcc	r7, [r1], -lr, ror #8
    907c:	3029745f 	eorcc	r7, r9, pc, asr r4
    9080:	46464678 			; <UNDEFINED> instruction: 0x46464678
    9084:	5f002946 	svcpl	0x00002946
    9088:	4341535f 	movtmi	r5, #4959	; 0x135f
    908c:	5f4d5543 	svcpl	0x004d5543
    9090:	54494246 	strbpl	r4, [r9], #-582	; 0xfffffdba
    9094:	37205f5f 			; <UNDEFINED> instruction: 0x37205f5f
    9098:	49504700 	ldmdbmi	r0, {r8, r9, sl, lr}^
    909c:	4f4c5f4f 	svcmi	0x004c5f4f
    90a0:	455f4b43 	ldrbmi	r4, [pc, #-2883]	; 8565 <_Min_Stack_Size+0x8165>
    90a4:	524f5252 	subpl	r5, pc, #536870917	; 0x20000005
    90a8:	54003020 	strpl	r3, [r0], #-32	; 0xffffffe0
    90ac:	5f6b7361 	svcpl	0x006b7361
    90b0:	74735f41 	ldrbtvc	r5, [r3], #-3905	; 0xfffff0bf
    90b4:	5f6b6361 	svcpl	0x006b6361
    90b8:	657a6973 	ldrbvs	r6, [sl, #-2419]!	; 0xfffff68d
    90bc:	30303120 	eorscc	r3, r0, r0, lsr #2
    90c0:	2f2e2e00 	svccs	0x002e2e00
    90c4:	72617453 	rsbvc	r7, r1, #1392508928	; 0x53000000
    90c8:	2f707574 	svccs	0x00707574
    90cc:	72617473 	rsbvc	r7, r1, #1929379840	; 0x73000000
    90d0:	5f707574 	svcpl	0x00707574
    90d4:	336d7473 	cmncc	sp, #1929379840	; 0x73000000
    90d8:	30316632 	eorscc	r6, r1, r2, lsr r6
    90dc:	74366333 	ldrtvc	r6, [r6], #-819	; 0xfffffccd
    90e0:	00732e78 	rsbseq	r2, r3, r8, ror lr
    90e4:	20554e47 	subscs	r4, r5, r7, asr #28
    90e8:	32205341 	eorcc	r5, r0, #67108865	; 0x4000001
    90ec:	2e30332e 	cdpcs	3, 3, cr3, cr0, cr14, {1}
    90f0:	58450030 	stmdapl	r5, {r4, r5}^
    90f4:	52434954 	subpl	r4, r3, #84, 18	; 0x150000
    90f8:	41434d00 	cmpmi	r3, r0, lsl #26
    90fc:	58455f4c 	stmdapl	r5, {r2, r3, r6, r8, r9, sl, fp, ip, lr}^
    9100:	475f4954 			; <UNDEFINED> instruction: 0x475f4954
    9104:	5f4f4950 	svcpl	0x004f4950
    9108:	61647055 	qdsubvs	r7, r5, r4
    910c:	41006574 	tstmi	r0, r4, ror r5
    9110:	5f4f4946 	svcpl	0x004f4946
    9114:	49545845 	ldmdbmi	r4, {r0, r2, r6, fp, ip, lr}^
    9118:	535f5243 	cmppl	pc, #805306372	; 0x30000004
    911c:	74666968 	strbtvc	r6, [r6], #-2408	; 0xfffff698
    9120:	69736f50 	ldmdbvs	r3!, {r4, r6, r8, r9, sl, fp, sp, lr}^
    9124:	6e6f6974 			; <UNDEFINED> instruction: 0x6e6f6974
    9128:	53544600 	cmppl	r4, #0, 12
    912c:	70550052 	subsvc	r0, r5, r2, asr r0
    9130:	65746164 	ldrbvs	r6, [r4, #-356]!	; 0xfffffe9c
    9134:	5458455f 	ldrbpl	r4, [r8], #-1375	; 0xfffffaa1
    9138:	54520049 	ldrbpl	r0, [r2], #-73	; 0xffffffb7
    913c:	41005253 	tstmi	r0, r3, asr r2
    9140:	5f4f4946 	svcpl	0x004f4946
    9144:	4f495047 	svcmi	0x00495047
    9148:	5458455f 	ldrbpl	r4, [r8], #-1375	; 0xfffffaa1
    914c:	614d5f49 	cmpvs	sp, r9, asr #30
    9150:	6e697070 	mcrvs	0, 3, r7, cr9, cr0, {3}
    9154:	29782867 	ldmdbcs	r8!, {r0, r1, r2, r5, r6, fp, sp}^
    9158:	28202820 	stmdacs	r0!, {r5, fp, sp}
    915c:	473d3d78 			; <UNDEFINED> instruction: 0x473d3d78
    9160:	414f4950 	cmpmi	pc, r0, asr r9	; <UNPREDICTABLE>
    9164:	3a303f29 	bcc	c18e10 <_Min_Stack_Size+0xc18a10>
    9168:	3d782820 	ldclcc	8, cr2, [r8, #-128]!	; 0xffffff80
    916c:	4950473d 	ldmdbmi	r0, {r0, r2, r3, r4, r5, r8, r9, sl, lr}^
    9170:	3f29424f 	svccc	0x0029424f
    9174:	28203a31 	stmdacs	r0!, {r0, r4, r5, r9, fp, ip, sp}
    9178:	473d3d78 			; <UNDEFINED> instruction: 0x473d3d78
    917c:	434f4950 	movtmi	r4, #63824	; 0xf950
    9180:	3a323f29 	bcc	c98e2c <_Min_Stack_Size+0xc98a2c>
    9184:	3d782820 	ldclcc	8, cr2, [r8, #-128]!	; 0xffffff80
    9188:	4950473d 	ldmdbmi	r0, {r0, r2, r3, r4, r5, r8, r9, sl, lr}^
    918c:	3f29444f 	svccc	0x0029444f
    9190:	20303a33 	eorscs	r3, r0, r3, lsr sl
    9194:	69500029 	ldmdbvs	r0, {r0, r3, r5}^
    9198:	6766436e 	strbvs	r4, [r6, -lr, ror #6]!
    919c:	49504700 	ldmdbmi	r0, {r8, r9, sl, lr}^
    91a0:	4f4d5f4f 	svcmi	0x004d5f4f
    91a4:	52004544 	andpl	r4, r0, #68, 10	; 0x11000000
    91a8:	52455345 	subpl	r5, r5, #335544321	; 0x14000001
    91ac:	30444556 	subcc	r4, r4, r6, asr r5
    91b0:	54584500 	ldrbpl	r4, [r8], #-1280	; 0xfffffb00
    91b4:	495f3449 	ldmdbmi	pc, {r0, r3, r6, sl, ip, sp}^	; <UNPREDICTABLE>
    91b8:	61485152 	cmpvs	r8, r2, asr r1
    91bc:	656c646e 	strbvs	r6, [ip, #-1134]!	; 0xfffffb92
    91c0:	58450072 	stmdapl	r5, {r1, r4, r5, r6}^
    91c4:	435f4954 	cmpmi	pc, #84, 18	; 0x150000
    91c8:	69666e6f 	stmdbvs	r6!, {r0, r1, r2, r3, r5, r6, r9, sl, fp, sp, lr}^
    91cc:	50470067 	subpl	r0, r7, r7, rrx
    91d0:	505f4f49 	subspl	r4, pc, r9, asr #30
    91d4:	6f436e69 	svcvs	0x00436e69
    91d8:	6769666e 	strbvs	r6, [r9, -lr, ror #12]!
    91dc:	4100745f 	tstmi	r0, pc, asr r4
    91e0:	5f4f4946 	svcpl	0x004f4946
    91e4:	65707954 	ldrbvs	r7, [r0, #-2388]!	; 0xfffff6ac
    91e8:	00666564 	rsbeq	r6, r6, r4, ror #10
    91ec:	4c41434d 	mcrrmi	3, 4, r4, r1, cr13
    91f0:	5458455f 	ldrbpl	r4, [r8], #-1375	; 0xfffffaa1
    91f4:	50475f49 	subpl	r5, r7, r9, asr #30
    91f8:	445f4f49 	ldrbmi	r4, [pc], #-3913	; 9200 <_Min_Stack_Size+0x8e00>
    91fc:	696e4965 	stmdbvs	lr!, {r0, r2, r5, r6, r8, fp, lr}^
    9200:	434d0074 	movtmi	r0, #53364	; 0xd074
    9204:	455f4c41 	ldrbmi	r4, [pc, #-3137]	; 85cb <_Min_Stack_Size+0x81cb>
    9208:	5f495458 	svcpl	0x00495458
    920c:	4f495047 	svcmi	0x00495047
    9210:	696e495f 	stmdbvs	lr!, {r0, r1, r2, r3, r4, r6, r8, fp, lr}^
    9214:	50470074 	subpl	r0, r7, r4, ror r0
    9218:	4f5f4f49 	svcmi	0x005f4f49
    921c:	55505455 	ldrbpl	r5, [r0, #-1109]	; 0xfffffbab
    9220:	50535f54 	subspl	r5, r3, r4, asr pc
    9224:	00444545 	subeq	r4, r4, r5, asr #10
    9228:	45495753 	strbmi	r5, [r9, #-1875]	; 0xfffff8ad
    922c:	414d0052 	qdaddmi	r0, r2, sp
    9230:	00325250 	eorseq	r5, r2, r0, asr r2
    9234:	495f5047 	ldmdbmi	pc, {r0, r1, r2, r6, ip, lr}^	; <UNPREDICTABLE>
    9238:	435f5152 	cmpmi	pc, #-2147483628	; 0x80000014
    923c:	426c6c61 	rsbmi	r6, ip, #24832	; 0x6100
    9240:	006b6361 	rsbeq	r6, fp, r1, ror #6
    9244:	49545845 	ldmdbmi	r4, {r0, r2, r6, fp, ip, lr}^
    9248:	7079545f 	rsbsvc	r5, r9, pc, asr r4
    924c:	66656465 	strbtvs	r6, [r5], -r5, ror #8
    9250:	50414d00 	subpl	r4, r1, r0, lsl #26
    9254:	58450052 	stmdapl	r5, {r1, r4, r6}^
    9258:	5f324954 	svcpl	0x00324954
    925c:	48515249 	ldmdami	r1, {r0, r3, r6, r9, ip, lr}^
    9260:	6c646e61 	stclvs	14, cr6, [r4], #-388	; 0xfffffe7c
    9264:	45007265 	strmi	r7, [r0, #-613]	; 0xfffffd9b
    9268:	39495458 	stmdbcc	r9, {r3, r4, r6, sl, ip, lr}^
    926c:	495f355f 	ldmdbmi	pc, {r0, r1, r2, r3, r4, r6, r8, sl, ip, sp}^	; <UNPREDICTABLE>
    9270:	61485152 	cmpvs	r8, r2, asr r1
    9274:	656c646e 	strbvs	r6, [ip, #-1134]!	; 0xfffffb92
    9278:	58450072 	stmdapl	r5, {r1, r4, r5, r6}^
    927c:	5f334954 	svcpl	0x00334954
    9280:	48515249 	ldmdami	r1, {r0, r3, r6, r9, ip, lr}^
    9284:	6c646e61 	stclvs	14, cr6, [r4], #-388	; 0xfffffe7c
    9288:	2e007265 	cdpcs	2, 0, cr7, cr0, cr5, {3}
    928c:	74532f2e 	ldrbvc	r2, [r3], #-3886	; 0xfffff0d2
    9290:	5f32336d 	svcpl	0x0032336d
    9294:	33303146 	teqcc	r0, #-2147483631	; 0x80000011
    9298:	445f3643 	ldrbmi	r3, [pc], #-1603	; 92a0 <_Min_Stack_Size+0x8ea0>
    929c:	65766972 	ldrbvs	r6, [r6, #-2418]!	; 0xfffff68e
    92a0:	452f7372 	strmi	r7, [pc, #-882]!	; 8f36 <_Min_Stack_Size+0x8b36>
    92a4:	2f495458 	svccs	0x00495458
    92a8:	336d7453 	cmncc	sp, #1392508928	; 0x53000000
    92ac:	31465f32 	cmpcc	r6, r2, lsr pc
    92b0:	36433330 			; <UNDEFINED> instruction: 0x36433330
    92b4:	5458455f 	ldrbpl	r4, [r8], #-1375	; 0xfffffaa1
    92b8:	72645f49 	rsbvc	r5, r4, #292	; 0x124
    92bc:	72657669 	rsbvc	r7, r5, #110100480	; 0x6900000
    92c0:	4100632e 	tstmi	r0, lr, lsr #6
    92c4:	5f4f4946 	svcpl	0x004f4946
    92c8:	49545845 	ldmdbmi	r4, {r0, r2, r6, fp, ip, lr}^
    92cc:	695f5243 	ldmdbvs	pc, {r0, r1, r6, r9, ip, lr}^	; <UNPREDICTABLE>
    92d0:	7865646e 	stmdavc	r5!, {r1, r2, r3, r5, r6, sl, sp, lr}^
    92d4:	54584500 	ldrbpl	r4, [r8], #-1280	; 0xfffffb00
    92d8:	495f3049 	ldmdbmi	pc, {r0, r3, r6, ip, sp}^	; <UNPREDICTABLE>
    92dc:	61485152 	cmpvs	r8, r2, asr r1
    92e0:	656c646e 	strbvs	r6, [ip, #-1134]!	; 0xfffffb92
    92e4:	50470072 	subpl	r0, r7, r2, ror r0
    92e8:	505f4f49 	subspl	r4, pc, r9, asr #30
    92ec:	754e6e69 	strbvc	r6, [lr, #-3689]	; 0xfffff197
    92f0:	7265626d 	rsbvc	r6, r5, #-805306362	; 0xd0000006
    92f4:	43564500 	cmpmi	r6, #0, 10
    92f8:	58450052 	stmdapl	r5, {r1, r4, r6}^
    92fc:	35314954 	ldrcc	r4, [r1, #-2388]!	; 0xfffff6ac
    9300:	5f30315f 	svcpl	0x0030315f
    9304:	48515249 	ldmdami	r1, {r0, r3, r6, r9, ip, lr}^
    9308:	6c646e61 	stclvs	14, cr6, [r4], #-388	; 0xfffffe7c
    930c:	44007265 	strmi	r7, [r0], #-613	; 0xfffffd9b
    9310:	62617369 	rsbvs	r7, r1, #-1543503871	; 0xa4000001
    9314:	4e5f656c 	cdpmi	5, 5, cr6, cr15, cr12, {3}
    9318:	00434956 	subeq	r4, r3, r6, asr r9
    931c:	49545845 	ldmdbmi	r4, {r0, r2, r6, fp, ip, lr}^
    9320:	52495f31 	subpl	r5, r9, #49, 30	; 0xc4
    9324:	6e614851 	mcrvs	8, 3, r4, cr1, cr1, {2}
    9328:	72656c64 	rsbvc	r6, r5, #100, 24	; 0x6400
    932c:	616e4500 	cmnvs	lr, r0, lsl #10
    9330:	5f656c62 	svcpl	0x00656c62
    9334:	4349564e 	movtmi	r5, #38478	; 0x964e
    9338:	2f2e2e00 	svccs	0x002e2e00
    933c:	336d7453 	cmncc	sp, #1392508928	; 0x53000000
    9340:	31465f32 	cmpcc	r6, r2, lsr pc
    9344:	36433330 			; <UNDEFINED> instruction: 0x36433330
    9348:	6972445f 	ldmdbvs	r2!, {r0, r1, r2, r3, r4, r6, sl, lr}^
    934c:	73726576 	cmnvc	r2, #494927872	; 0x1d800000
    9350:	4950472f 	ldmdbmi	r0, {r0, r1, r2, r3, r5, r8, r9, sl, lr}^
    9354:	74532f4f 	ldrbvc	r2, [r3], #-3919	; 0xfffff0b1
    9358:	5f32336d 	svcpl	0x0032336d
    935c:	33303146 	teqcc	r0, #-2147483631	; 0x80000011
    9360:	675f3643 	ldrbvs	r3, [pc, -r3, asr #12]
    9364:	5f6f6970 	svcpl	0x006f6970
    9368:	76697264 	strbtvc	r7, [r9], -r4, ror #4
    936c:	632e7265 			; <UNDEFINED> instruction: 0x632e7265
    9370:	41434d00 	cmpmi	r3, r0, lsl #26
    9374:	50475f4c 	subpl	r5, r7, ip, asr #30
    9378:	495f4f49 	ldmdbmi	pc, {r0, r3, r6, r8, r9, sl, fp, lr}^	; <UNPREDICTABLE>
    937c:	0074696e 	rsbseq	r6, r4, lr, ror #18
    9380:	436e6950 	cmnmi	lr, #80, 18	; 0x140000
    9384:	69666e6f 	stmdbvs	r6!, {r0, r1, r2, r3, r5, r6, r9, sl, fp, sp, lr}^
    9388:	65470067 	strbvs	r0, [r7, #-103]	; 0xffffff99
    938c:	52435f74 	subpl	r5, r3, #116, 30	; 0x1d0
    9390:	505f484c 	subspl	r4, pc, ip, asr #16
    9394:	7469736f 	strbtvc	r7, [r9], #-879	; 0xfffffc91
    9398:	006e6f69 	rsbeq	r6, lr, r9, ror #30
    939c:	4c41434d 	mcrrmi	3, 4, r4, r1, cr13
    93a0:	4950475f 	ldmdbmi	r0, {r0, r1, r2, r3, r4, r6, r8, r9, sl, lr}^
    93a4:	6f545f4f 	svcvs	0x00545f4f
    93a8:	656c6767 	strbvs	r6, [ip, #-1895]!	; 0xfffff899
    93ac:	006e6950 	rsbeq	r6, lr, r0, asr r9
    93b0:	4f495047 	svcmi	0x00495047
    93b4:	434d0078 	movtmi	r0, #53368	; 0xd078
    93b8:	475f4c41 	ldrbmi	r4, [pc, -r1, asr #24]
    93bc:	5f4f4950 	svcpl	0x004f4950
    93c0:	64616552 	strbtvs	r6, [r1], #-1362	; 0xfffffaae
    93c4:	006e6950 	rsbeq	r6, lr, r0, asr r9
    93c8:	434e4950 	movtmi	r4, #59728	; 0xe950
    93cc:	69666e6f 	stmdbvs	r6!, {r0, r1, r2, r3, r5, r6, r9, sl, fp, sp, lr}^
    93d0:	434d0067 	movtmi	r0, #53351	; 0xd067
    93d4:	475f4c41 	ldrbmi	r4, [pc, -r1, asr #24]
    93d8:	5f4f4950 	svcpl	0x004f4950
    93dc:	6b636f4c 	blvs	18e5114 <_Min_Stack_Size+0x18e4d14>
    93e0:	006e6950 	rsbeq	r6, lr, r0, asr r9
    93e4:	666e6f63 	strbtvs	r6, [lr], -r3, ror #30
    93e8:	725f6769 	subsvc	r6, pc, #27525120	; 0x1a40000
    93ec:	73696765 	cmnvc	r9, #26476544	; 0x1940000
    93f0:	00726574 	rsbseq	r6, r2, r4, ror r5
    93f4:	4c41434d 	mcrrmi	3, 4, r4, r1, cr13
    93f8:	4950475f 	ldmdbmi	r0, {r0, r1, r2, r3, r4, r6, r8, r9, sl, lr}^
    93fc:	72575f4f 	subsvc	r5, r7, #316	; 0x13c
    9400:	50657469 	rsbpl	r7, r5, r9, ror #8
    9404:	4d006e69 	stcmi	14, cr6, [r0, #-420]	; 0xfffffe5c
    9408:	5f4c4143 	svcpl	0x004c4143
    940c:	4f495047 	svcmi	0x00495047
    9410:	6972575f 	ldmdbvs	r2!, {r0, r1, r2, r3, r4, r6, r8, r9, sl, ip, lr}^
    9414:	6f506574 	svcvs	0x00506574
    9418:	70007472 	andvc	r7, r0, r2, ror r4
    941c:	5674726f 	ldrbtpl	r7, [r4], -pc, ror #4
    9420:	65756c61 	ldrbvs	r6, [r5, #-3169]!	; 0xfffff39f
    9424:	41434d00 	cmpmi	r3, r0, lsl #26
    9428:	50475f4c 	subpl	r5, r7, ip, asr #30
    942c:	445f4f49 	ldrbmi	r4, [pc], #-3913	; 9434 <_Min_Stack_Size+0x9034>
    9430:	696e4965 	stmdbvs	lr!, {r0, r2, r5, r6, r8, fp, lr}^
    9434:	434d0074 	movtmi	r0, #53364	; 0xd074
    9438:	475f4c41 	ldrbmi	r4, [pc, -r1, asr #24]
    943c:	5f4f4950 	svcpl	0x004f4950
    9440:	64616552 	strbtvs	r6, [r1], #-1362	; 0xfffffaae
    9444:	74726f50 	ldrbtvc	r6, [r2], #-3920	; 0xfffff0b0
    9448:	74696200 	strbtvc	r6, [r9], #-512	; 0xfffffe00
    944c:	74617453 	strbtvc	r7, [r1], #-1107	; 0xfffffbad
    9450:	74007375 	strvc	r7, [r0], #-885	; 0xfffffc8b
    9454:	00706d65 	rsbseq	r6, r0, r5, ror #26

Disassembly of section .comment:

00000000 <.comment>:
   0:	3a434347 	bcc	10d0d24 <_Min_Stack_Size+0x10d0924>
   4:	4e472820 	cdpmi	8, 4, cr2, cr7, cr0, {1}
   8:	6f542055 	svcvs	0x00542055
   c:	20736c6f 	rsbscs	r6, r3, pc, ror #24
  10:	20726f66 	rsbscs	r6, r2, r6, ror #30
  14:	334d5453 	movtcc	r5, #54355	; 0xd453
  18:	2d372032 	ldccs	0, cr2, [r7, #-200]!	; 0xffffff38
  1c:	38313032 	ldmdacc	r1!, {r1, r4, r5, ip, sp}
  20:	2d32712d 	ldfcss	f7, [r2, #-180]!	; 0xffffff4c
  24:	61647075 	smcvs	18181	; 0x4705
  28:	322e6574 	eorcc	r6, lr, #116, 10	; 0x1d000000
  2c:	30393130 	eorscc	r3, r9, r0, lsr r1
  30:	2d383233 	lfmcs	f3, 4, [r8, #-204]!	; 0xffffff34
  34:	30303831 	eorscc	r3, r0, r1, lsr r8
  38:	2e372029 	cdpcs	0, 3, cr2, cr7, cr9, {1}
  3c:	20312e33 	eorscs	r2, r1, r3, lsr lr
  40:	38313032 	ldmdacc	r1!, {r1, r4, r5, ip, sp}
  44:	32323630 	eorscc	r3, r2, #48, 12	; 0x3000000
  48:	65722820 	ldrbvs	r2, [r2, #-2080]!	; 0xfffff7e0
  4c:	7361656c 	cmnvc	r1, #108, 10	; 0x1b000000
  50:	5b202965 	blpl	80a5ec <_Min_Stack_Size+0x80a1ec>
  54:	2f4d5241 	svccs	0x004d5241
  58:	65626d65 	strbvs	r6, [r2, #-3429]!	; 0xfffff29b
  5c:	64656464 	strbtvs	r6, [r5], #-1124	; 0xfffffb9c
  60:	622d372d 	eorvs	r3, sp, #11796480	; 0xb40000
  64:	636e6172 	cmnvs	lr, #-2147483620	; 0x8000001c
  68:	65722068 	ldrbvs	r2, [r2, #-104]!	; 0xffffff98
  6c:	69736976 	ldmdbvs	r3!, {r1, r2, r4, r5, r6, r8, fp, sp, lr}^
  70:	32206e6f 	eorcc	r6, r0, #1776	; 0x6f0
  74:	30393136 	eorscc	r3, r9, r6, lsr r1
  78:	Address 0x0000000000000078 is out of bounds.


Disassembly of section .debug_frame:

00000000 <.debug_frame>:
   0:	0000000c 	andeq	r0, r0, ip
   4:	ffffffff 			; <UNDEFINED> instruction: 0xffffffff
   8:	7c020001 	stcvc	0, cr0, [r2], {1}
   c:	000d0c0e 	andeq	r0, sp, lr, lsl #24
  10:	0000001c 	andeq	r0, r0, ip, lsl r0
  14:	00000000 	andeq	r0, r0, r0
  18:	08000170 	stmdaeq	r0, {r4, r5, r6, r8}
  1c:	0000001c 	andeq	r0, r0, ip, lsl r0
  20:	87040e41 	strhi	r0, [r4, -r1, asr #28]
  24:	070d4101 	streq	r4, [sp, -r1, lsl #2]
  28:	410d0d4a 	tstmi	sp, sl, asr #26
  2c:	00000ec7 	andeq	r0, r0, r7, asr #29
  30:	0000001c 	andeq	r0, r0, ip, lsl r0
  34:	00000000 	andeq	r0, r0, r0
  38:	0800018c 	stmdaeq	r0, {r2, r3, r7, r8}
  3c:	00000044 	andeq	r0, r0, r4, asr #32
  40:	87040e41 	strhi	r0, [r4, -r1, asr #28]
  44:	070d4101 	streq	r4, [sp, -r1, lsl #2]
  48:	410d0d57 	tstmi	sp, r7, asr sp
  4c:	00000ec7 	andeq	r0, r0, r7, asr #29
  50:	00000024 	andeq	r0, r0, r4, lsr #32
  54:	00000000 	andeq	r0, r0, r0
  58:	080001d0 	stmdaeq	r0, {r4, r6, r7, r8}
  5c:	00000020 	andeq	r0, r0, r0, lsr #32
  60:	87040e41 	strhi	r0, [r4, -r1, asr #28]
  64:	180e4101 	stmdane	lr, {r0, r8, lr}
  68:	4a070d41 	bmi	1c3574 <_Min_Stack_Size+0x1c3174>
  6c:	0d41040e 	cfstrdeq	mvd0, [r1, #-56]	; 0xffffffc8
  70:	0ec7410d 	poleqs	f4, f7, #5.0
  74:	00000000 	andeq	r0, r0, r0
  78:	00000024 	andeq	r0, r0, r4, lsr #32
  7c:	00000000 	andeq	r0, r0, r0
  80:	080001f0 	stmdaeq	r0, {r4, r5, r6, r7, r8}
  84:	00000026 	andeq	r0, r0, r6, lsr #32
  88:	87040e41 	strhi	r0, [r4, -r1, asr #28]
  8c:	180e4101 	stmdane	lr, {r0, r8, lr}
  90:	4d070d41 	stcmi	13, cr0, [r7, #-260]	; 0xfffffefc
  94:	0d41040e 	cfstrdeq	mvd0, [r1, #-56]	; 0xffffffc8
  98:	0ec7410d 	poleqs	f4, f7, #5.0
  9c:	00000000 	andeq	r0, r0, r0
  a0:	00000018 	andeq	r0, r0, r8, lsl r0
  a4:	00000000 	andeq	r0, r0, r0
  a8:	08000218 	stmdaeq	r0, {r3, r4, r9}
  ac:	000000fc 	strdeq	r0, [r0], -ip
  b0:	87080e41 	strhi	r0, [r8, -r1, asr #28]
  b4:	41018e02 	tstmi	r1, r2, lsl #28
  b8:	0000070d 	andeq	r0, r0, sp, lsl #14
  bc:	00000020 	andeq	r0, r0, r0, lsr #32
  c0:	00000000 	andeq	r0, r0, r0
  c4:	08000314 	stmdaeq	r0, {r2, r4, r8, r9}
  c8:	00000058 	andeq	r0, r0, r8, asr r0
  cc:	87080e41 	strhi	r0, [r8, -r1, asr #28]
  d0:	41018e02 	tstmi	r1, r2, lsl #28
  d4:	0d41200e 	stcleq	0, cr2, [r1, #-56]	; 0xffffffc8
  d8:	080e6007 	stmdaeq	lr, {r0, r1, r2, sp, lr}
  dc:	000d0d41 	andeq	r0, sp, r1, asr #26
  e0:	0000000c 	andeq	r0, r0, ip
  e4:	ffffffff 			; <UNDEFINED> instruction: 0xffffffff
  e8:	7c020001 	stcvc	0, cr0, [r2], {1}
  ec:	000d0c0e 	andeq	r0, sp, lr, lsl #24
  f0:	00000024 	andeq	r0, r0, r4, lsr #32
  f4:	000000e0 	andeq	r0, r0, r0, ror #1
  f8:	080003c0 	stmdaeq	r0, {r6, r7, r8, r9}
  fc:	000000cc 	andeq	r0, r0, ip, asr #1
 100:	87040e41 	strhi	r0, [r4, -r1, asr #28]
 104:	100e4101 	andne	r4, lr, r1, lsl #2
 108:	02070d41 	andeq	r0, r7, #4160	; 0x1040
 10c:	41040e5c 	tstmi	r4, ip, asr lr
 110:	c7410d0d 	strbgt	r0, [r1, -sp, lsl #26]
 114:	0000000e 	andeq	r0, r0, lr
 118:	00000024 	andeq	r0, r0, r4, lsr #32
 11c:	000000e0 	andeq	r0, r0, r0, ror #1
 120:	0800048c 	stmdaeq	r0, {r2, r3, r7, sl}
 124:	000000cc 	andeq	r0, r0, ip, asr #1
 128:	87040e41 	strhi	r0, [r4, -r1, asr #28]
 12c:	100e4101 	andne	r4, lr, r1, lsl #2
 130:	02070d41 	andeq	r0, r7, #4160	; 0x1040
 134:	41040e5c 	tstmi	r4, ip, asr lr
 138:	c7410d0d 	strbgt	r0, [r1, -sp, lsl #26]
 13c:	0000000e 	andeq	r0, r0, lr
 140:	00000020 	andeq	r0, r0, r0, lsr #32
 144:	000000e0 	andeq	r0, r0, r0, ror #1
 148:	08000558 	stmdaeq	r0, {r3, r4, r6, r8, sl}
 14c:	000001d8 	ldrdeq	r0, [r0], -r8
 150:	87080e41 	strhi	r0, [r8, -r1, asr #28]
 154:	41018e02 	tstmi	r1, r2, lsl #28
 158:	0d41180e 	stcleq	8, cr1, [r1, #-56]	; 0xffffffc8
 15c:	0ed90207 	cdpeq	2, 13, cr0, cr9, cr7, {0}
 160:	0d0d4108 	stfeqs	f4, [sp, #-32]	; 0xffffffe0
 164:	0000001c 	andeq	r0, r0, ip, lsl r0
 168:	000000e0 	andeq	r0, r0, r0, ror #1
 16c:	00000000 	andeq	r0, r0, r0
 170:	00000098 	muleq	r0, r8, r0
 174:	87040e41 	strhi	r0, [r4, -r1, asr #28]
 178:	070d4101 	streq	r4, [sp, -r1, lsl #2]
 17c:	0d0d4202 	sfmeq	f4, 4, [sp, #-8]
 180:	000ec741 	andeq	ip, lr, r1, asr #14
 184:	00000020 	andeq	r0, r0, r0, lsr #32
 188:	000000e0 	andeq	r0, r0, r0, ror #1
 18c:	08000730 	stmdaeq	r0, {r4, r5, r8, r9, sl}
 190:	00000016 	andeq	r0, r0, r6, lsl r0
 194:	87080e41 	strhi	r0, [r8, -r1, asr #28]
 198:	41018e02 	tstmi	r1, r2, lsl #28
 19c:	0d41100e 	stcleq	0, cr1, [r1, #-56]	; 0xffffffc8
 1a0:	080e4607 	stmdaeq	lr, {r0, r1, r2, r9, sl, lr}
 1a4:	000d0d41 	andeq	r0, sp, r1, asr #26
 1a8:	00000020 	andeq	r0, r0, r0, lsr #32
 1ac:	000000e0 	andeq	r0, r0, r0, ror #1
 1b0:	00000000 	andeq	r0, r0, r0
 1b4:	00000016 	andeq	r0, r0, r6, lsl r0
 1b8:	87080e41 	strhi	r0, [r8, -r1, asr #28]
 1bc:	41018e02 	tstmi	r1, r2, lsl #28
 1c0:	0d41100e 	stcleq	0, cr1, [r1, #-56]	; 0xffffffc8
 1c4:	080e4607 	stmdaeq	lr, {r0, r1, r2, r9, sl, lr}
 1c8:	000d0d41 	andeq	r0, sp, r1, asr #26
 1cc:	00000018 	andeq	r0, r0, r8, lsl r0
 1d0:	000000e0 	andeq	r0, r0, r0, ror #1
 1d4:	08000748 	stmdaeq	r0, {r3, r6, r8, r9, sl}
 1d8:	00000024 	andeq	r0, r0, r4, lsr #32
 1dc:	87080e41 	strhi	r0, [r8, -r1, asr #28]
 1e0:	41018e02 	tstmi	r1, r2, lsl #28
 1e4:	0000070d 	andeq	r0, r0, sp, lsl #14
 1e8:	00000018 	andeq	r0, r0, r8, lsl r0
 1ec:	000000e0 	andeq	r0, r0, r0, ror #1
 1f0:	0800076c 	stmdaeq	r0, {r2, r3, r5, r6, r8, r9, sl}
 1f4:	00000024 	andeq	r0, r0, r4, lsr #32
 1f8:	87080e41 	strhi	r0, [r8, -r1, asr #28]
 1fc:	41018e02 	tstmi	r1, r2, lsl #28
 200:	0000070d 	andeq	r0, r0, sp, lsl #14
 204:	00000018 	andeq	r0, r0, r8, lsl r0
 208:	000000e0 	andeq	r0, r0, r0, ror #1
 20c:	08000790 	stmdaeq	r0, {r4, r7, r8, r9, sl}
 210:	00000024 	andeq	r0, r0, r4, lsr #32
 214:	87080e41 	strhi	r0, [r8, -r1, asr #28]
 218:	41018e02 	tstmi	r1, r2, lsl #28
 21c:	0000070d 	andeq	r0, r0, sp, lsl #14
 220:	00000018 	andeq	r0, r0, r8, lsl r0
 224:	000000e0 	andeq	r0, r0, r0, ror #1
 228:	080007b4 	stmdaeq	r0, {r2, r4, r5, r7, r8, r9, sl}
 22c:	00000024 	andeq	r0, r0, r4, lsr #32
 230:	87080e41 	strhi	r0, [r8, -r1, asr #28]
 234:	41018e02 	tstmi	r1, r2, lsl #28
 238:	0000070d 	andeq	r0, r0, sp, lsl #14
 23c:	00000018 	andeq	r0, r0, r8, lsl r0
 240:	000000e0 	andeq	r0, r0, r0, ror #1
 244:	080007d8 	stmdaeq	r0, {r3, r4, r6, r7, r8, r9, sl}
 248:	00000024 	andeq	r0, r0, r4, lsr #32
 24c:	87080e41 	strhi	r0, [r8, -r1, asr #28]
 250:	41018e02 	tstmi	r1, r2, lsl #28
 254:	0000070d 	andeq	r0, r0, sp, lsl #14
 258:	00000018 	andeq	r0, r0, r8, lsl r0
 25c:	000000e0 	andeq	r0, r0, r0, ror #1
 260:	080007fc 	stmdaeq	r0, {r2, r3, r4, r5, r6, r7, r8, r9, sl}
 264:	000000a8 	andeq	r0, r0, r8, lsr #1
 268:	87080e41 	strhi	r0, [r8, -r1, asr #28]
 26c:	41018e02 	tstmi	r1, r2, lsl #28
 270:	0000070d 	andeq	r0, r0, sp, lsl #14
 274:	00000018 	andeq	r0, r0, r8, lsl r0
 278:	000000e0 	andeq	r0, r0, r0, ror #1
 27c:	080008a4 	stmdaeq	r0, {r2, r5, r7, fp}
 280:	000000c4 	andeq	r0, r0, r4, asr #1
 284:	87080e41 	strhi	r0, [r8, -r1, asr #28]
 288:	41018e02 	tstmi	r1, r2, lsl #28
 28c:	0000070d 	andeq	r0, r0, sp, lsl #14
 290:	0000000c 	andeq	r0, r0, ip
 294:	ffffffff 			; <UNDEFINED> instruction: 0xffffffff
 298:	7c020001 	stcvc	0, cr0, [r2], {1}
 29c:	000d0c0e 	andeq	r0, sp, lr, lsl #24
 2a0:	00000024 	andeq	r0, r0, r4, lsr #32
 2a4:	00000290 	muleq	r0, r0, r2
 2a8:	08000968 	stmdaeq	r0, {r3, r5, r6, r8, fp}
 2ac:	000000c6 	andeq	r0, r0, r6, asr #1
 2b0:	87040e41 	strhi	r0, [r4, -r1, asr #28]
 2b4:	100e4101 	andne	r4, lr, r1, lsl #2
 2b8:	02070d41 	andeq	r0, r7, #4160	; 0x1040
 2bc:	41040e5d 	tstmi	r4, sp, asr lr
 2c0:	c7410d0d 	strbgt	r0, [r1, -sp, lsl #26]
 2c4:	0000000e 	andeq	r0, r0, lr
 2c8:	00000024 	andeq	r0, r0, r4, lsr #32
 2cc:	00000290 	muleq	r0, r0, r2
 2d0:	08000a2e 	stmdaeq	r0, {r1, r2, r3, r5, r9, fp}
 2d4:	000000fe 	strdeq	r0, [r0], -lr
 2d8:	840c0e41 	strhi	r0, [ip], #-3649	; 0xfffff1bf
 2dc:	8e028703 	cdphi	7, 0, cr8, cr2, cr3, {0}
 2e0:	200e4101 	andcs	r4, lr, r1, lsl #2
 2e4:	02070d41 	andeq	r0, r7, #4160	; 0x1040
 2e8:	410c0e7a 	tstmi	ip, sl, ror lr
 2ec:	00000d0d 	andeq	r0, r0, sp, lsl #26
 2f0:	00000024 	andeq	r0, r0, r4, lsr #32
 2f4:	00000290 	muleq	r0, r0, r2
 2f8:	00000000 	andeq	r0, r0, r0
 2fc:	000000d4 	ldrdeq	r0, [r0], -r4
 300:	87040e41 	strhi	r0, [r4, -r1, asr #28]
 304:	100e4101 	andne	r4, lr, r1, lsl #2
 308:	02070d41 	andeq	r0, r7, #4160	; 0x1040
 30c:	41040e57 	tstmi	r4, r7, asr lr
 310:	c7410d0d 	strbgt	r0, [r1, -sp, lsl #26]
 314:	0000000e 	andeq	r0, r0, lr
 318:	00000024 	andeq	r0, r0, r4, lsr #32
 31c:	00000290 	muleq	r0, r0, r2
 320:	00000000 	andeq	r0, r0, r0
 324:	0000002e 	andeq	r0, r0, lr, lsr #32
 328:	87040e41 	strhi	r0, [r4, -r1, asr #28]
 32c:	180e4101 	stmdane	lr, {r0, r8, lr}
 330:	51070d41 	tstpl	r7, r1, asr #26
 334:	0d41040e 	cfstrdeq	mvd0, [r1, #-56]	; 0xffffffc8
 338:	0ec7410d 	poleqs	f4, f7, #5.0
 33c:	00000000 	andeq	r0, r0, r0
 340:	00000024 	andeq	r0, r0, r4, lsr #32
 344:	00000290 	muleq	r0, r0, r2
 348:	00000000 	andeq	r0, r0, r0
 34c:	0000001a 	andeq	r0, r0, sl, lsl r0
 350:	87040e41 	strhi	r0, [r4, -r1, asr #28]
 354:	180e4101 	stmdane	lr, {r0, r8, lr}
 358:	47070d41 	strmi	r0, [r7, -r1, asr #26]
 35c:	0d41040e 	cfstrdeq	mvd0, [r1, #-56]	; 0xffffffc8
 360:	0ec7410d 	poleqs	f4, f7, #5.0
 364:	00000000 	andeq	r0, r0, r0
 368:	00000024 	andeq	r0, r0, r4, lsr #32
 36c:	00000290 	muleq	r0, r0, r2
 370:	00000000 	andeq	r0, r0, r0
 374:	0000002e 	andeq	r0, r0, lr, lsr #32
 378:	87040e41 	strhi	r0, [r4, -r1, asr #28]
 37c:	100e4101 	andne	r4, lr, r1, lsl #2
 380:	51070d41 	tstpl	r7, r1, asr #26
 384:	0d41040e 	cfstrdeq	mvd0, [r1, #-56]	; 0xffffffc8
 388:	0ec7410d 	poleqs	f4, f7, #5.0
 38c:	00000000 	andeq	r0, r0, r0
 390:	00000024 	andeq	r0, r0, r4, lsr #32
 394:	00000290 	muleq	r0, r0, r2
 398:	00000000 	andeq	r0, r0, r0
 39c:	0000001c 	andeq	r0, r0, ip, lsl r0
 3a0:	87040e41 	strhi	r0, [r4, -r1, asr #28]
 3a4:	100e4101 	andne	r4, lr, r1, lsl #2
 3a8:	48070d41 	stmdami	r7, {r0, r6, r8, sl, fp}
 3ac:	0d41040e 	cfstrdeq	mvd0, [r1, #-56]	; 0xffffffc8
 3b0:	0ec7410d 	poleqs	f4, f7, #5.0
 3b4:	00000000 	andeq	r0, r0, r0
 3b8:	00000024 	andeq	r0, r0, r4, lsr #32
 3bc:	00000290 	muleq	r0, r0, r2
 3c0:	00000000 	andeq	r0, r0, r0
 3c4:	00000022 	andeq	r0, r0, r2, lsr #32
 3c8:	87040e41 	strhi	r0, [r4, -r1, asr #28]
 3cc:	100e4101 	andne	r4, lr, r1, lsl #2
 3d0:	4b070d41 	blmi	1c38dc <_Min_Stack_Size+0x1c34dc>
 3d4:	0d41040e 	cfstrdeq	mvd0, [r1, #-56]	; 0xffffffc8
 3d8:	0ec7410d 	poleqs	f4, f7, #5.0
 3dc:	00000000 	andeq	r0, r0, r0
 3e0:	00000024 	andeq	r0, r0, r4, lsr #32
 3e4:	00000290 	muleq	r0, r0, r2
 3e8:	00000000 	andeq	r0, r0, r0
 3ec:	0000004e 	andeq	r0, r0, lr, asr #32
 3f0:	87040e41 	strhi	r0, [r4, -r1, asr #28]
 3f4:	180e4101 	stmdane	lr, {r0, r8, lr}
 3f8:	61070d41 	tstvs	r7, r1, asr #26
 3fc:	0d41040e 	cfstrdeq	mvd0, [r1, #-56]	; 0xffffffc8
 400:	0ec7410d 	poleqs	f4, f7, #5.0
 404:	00000000 	andeq	r0, r0, r0
 408:	0000000c 	andeq	r0, r0, ip
 40c:	ffffffff 			; <UNDEFINED> instruction: 0xffffffff
 410:	7c020001 	stcvc	0, cr0, [r2], {1}
 414:	000d0c0e 	andeq	r0, sp, lr, lsl #24
 418:	00000018 	andeq	r0, r0, r8, lsl r0
 41c:	00000408 	andeq	r0, r0, r8, lsl #8
 420:	08000b2c 	stmdaeq	r0, {r2, r3, r5, r8, r9, fp}
 424:	00000048 	andeq	r0, r0, r8, asr #32
 428:	84100e41 	ldrhi	r0, [r0], #-3649	; 0xfffff1bf
 42c:	86038504 	strhi	r8, [r3], -r4, lsl #10
 430:	00018e02 	andeq	r8, r1, r2, lsl #28
